ARM GAS  C:\Users\49148\AppData\Local\Temp\ccskRr3K.s 			page 1


   1              		.syntax unified
   2              		.cpu cortex-m4
   3              		.eabi_attribute 27, 1
   4              		.fpu fpv4-sp-d16
   5              		.eabi_attribute 20, 1
   6              		.eabi_attribute 21, 1
   7              		.eabi_attribute 23, 3
   8              		.eabi_attribute 24, 1
   9              		.eabi_attribute 25, 1
  10              		.eabi_attribute 26, 1
  11              		.eabi_attribute 30, 6
  12              		.eabi_attribute 34, 1
  13              		.eabi_attribute 18, 4
  14              		.thumb
  15              		.syntax unified
  16              		.file	"driver_max30102_fifo.c"
  17              		.text
  18              	.Ltext0:
  19              		.cfi_sections	.debug_frame
  20              		.bss
  21              		.align	2
  22              	gs_handle:
  23 0000 00000000 		.space	228
  23      00000000 
  23      00000000 
  23      00000000 
  23      00000000 
  24              		.section	.text.max30102_fifo_irq_handler,"ax",%progbits
  25              		.align	2
  26              		.global	max30102_fifo_irq_handler
  27              		.thumb
  28              		.thumb_func
  29              		.type	max30102_fifo_irq_handler, %function
  30              	max30102_fifo_irq_handler:
  31              	.LFB1:
  32              		.file 1 "..\\..\\..\\..\\PSoC6_101\\Sensor\\driver_max30102_fifo.c"
   1:..\..\..\..\PSoC6_101\Sensor/driver_max30102_fifo.c **** /**
   2:..\..\..\..\PSoC6_101\Sensor/driver_max30102_fifo.c ****  * Copyright (c) 2015 - present LibDriver All rights reserved
   3:..\..\..\..\PSoC6_101\Sensor/driver_max30102_fifo.c ****  * 
   4:..\..\..\..\PSoC6_101\Sensor/driver_max30102_fifo.c ****  * The MIT License (MIT)
   5:..\..\..\..\PSoC6_101\Sensor/driver_max30102_fifo.c ****  *
   6:..\..\..\..\PSoC6_101\Sensor/driver_max30102_fifo.c ****  * Permission is hereby granted, free of charge, to any person obtaining a copy
   7:..\..\..\..\PSoC6_101\Sensor/driver_max30102_fifo.c ****  * of this software and associated documentation files (the "Software"), to deal
   8:..\..\..\..\PSoC6_101\Sensor/driver_max30102_fifo.c ****  * in the Software without restriction, including without limitation the rights
   9:..\..\..\..\PSoC6_101\Sensor/driver_max30102_fifo.c ****  * to use, copy, modify, merge, publish, distribute, sublicense, and/or sell
  10:..\..\..\..\PSoC6_101\Sensor/driver_max30102_fifo.c ****  * copies of the Software, and to permit persons to whom the Software is
  11:..\..\..\..\PSoC6_101\Sensor/driver_max30102_fifo.c ****  * furnished to do so, subject to the following conditions:
  12:..\..\..\..\PSoC6_101\Sensor/driver_max30102_fifo.c ****  *
  13:..\..\..\..\PSoC6_101\Sensor/driver_max30102_fifo.c ****  * The above copyright notice and this permission notice shall be included in all
  14:..\..\..\..\PSoC6_101\Sensor/driver_max30102_fifo.c ****  * copies or substantial portions of the Software.
  15:..\..\..\..\PSoC6_101\Sensor/driver_max30102_fifo.c ****  *
  16:..\..\..\..\PSoC6_101\Sensor/driver_max30102_fifo.c ****  * THE SOFTWARE IS PROVIDED "AS IS", WITHOUT WARRANTY OF ANY KIND, EXPRESS OR
  17:..\..\..\..\PSoC6_101\Sensor/driver_max30102_fifo.c ****  * IMPLIED, INCLUDING BUT NOT LIMITED TO THE WARRANTIES OF MERCHANTABILITY,
  18:..\..\..\..\PSoC6_101\Sensor/driver_max30102_fifo.c ****  * FITNESS FOR A PARTICULAR PURPOSE AND NONINFRINGEMENT. IN NO EVENT SHALL THE
  19:..\..\..\..\PSoC6_101\Sensor/driver_max30102_fifo.c ****  * AUTHORS OR COPYRIGHT HOLDERS BE LIABLE FOR ANY CLAIM, DAMAGES OR OTHER
  20:..\..\..\..\PSoC6_101\Sensor/driver_max30102_fifo.c ****  * LIABILITY, WHETHER IN AN ACTION OF CONTRACT, TORT OR OTHERWISE, ARISING FROM,
  21:..\..\..\..\PSoC6_101\Sensor/driver_max30102_fifo.c ****  * OUT OF OR IN CONNECTION WITH THE SOFTWARE OR THE USE OR OTHER DEALINGS IN THE
ARM GAS  C:\Users\49148\AppData\Local\Temp\ccskRr3K.s 			page 2


  22:..\..\..\..\PSoC6_101\Sensor/driver_max30102_fifo.c ****  * SOFTWARE. 
  23:..\..\..\..\PSoC6_101\Sensor/driver_max30102_fifo.c ****  *
  24:..\..\..\..\PSoC6_101\Sensor/driver_max30102_fifo.c ****  * @file      driver_max30102_fifo.c
  25:..\..\..\..\PSoC6_101\Sensor/driver_max30102_fifo.c ****  * @brief     driver max30102 fifo source file
  26:..\..\..\..\PSoC6_101\Sensor/driver_max30102_fifo.c ****  * @version   1.0.0
  27:..\..\..\..\PSoC6_101\Sensor/driver_max30102_fifo.c ****  * @author    Shifeng Li
  28:..\..\..\..\PSoC6_101\Sensor/driver_max30102_fifo.c ****  * @date      2021-11-13
  29:..\..\..\..\PSoC6_101\Sensor/driver_max30102_fifo.c ****  *
  30:..\..\..\..\PSoC6_101\Sensor/driver_max30102_fifo.c ****  * <h3>history</h3>
  31:..\..\..\..\PSoC6_101\Sensor/driver_max30102_fifo.c ****  * <table>
  32:..\..\..\..\PSoC6_101\Sensor/driver_max30102_fifo.c ****  * <tr><th>Date        <th>Version  <th>Author      <th>Description
  33:..\..\..\..\PSoC6_101\Sensor/driver_max30102_fifo.c ****  * <tr><td>2021/11/13  <td>1.0      <td>Shifeng Li  <td>first upload
  34:..\..\..\..\PSoC6_101\Sensor/driver_max30102_fifo.c ****  * </table>
  35:..\..\..\..\PSoC6_101\Sensor/driver_max30102_fifo.c ****  */
  36:..\..\..\..\PSoC6_101\Sensor/driver_max30102_fifo.c **** 
  37:..\..\..\..\PSoC6_101\Sensor/driver_max30102_fifo.c **** #include "driver_max30102_fifo.h"
  38:..\..\..\..\PSoC6_101\Sensor/driver_max30102_fifo.c **** 
  39:..\..\..\..\PSoC6_101\Sensor/driver_max30102_fifo.c **** static max30102_handle_t gs_handle;        /**< max30102 handle */
  40:..\..\..\..\PSoC6_101\Sensor/driver_max30102_fifo.c **** 
  41:..\..\..\..\PSoC6_101\Sensor/driver_max30102_fifo.c **** /**
  42:..\..\..\..\PSoC6_101\Sensor/driver_max30102_fifo.c ****  * @brief  fifo example irq handler
  43:..\..\..\..\PSoC6_101\Sensor/driver_max30102_fifo.c ****  * @return status code
  44:..\..\..\..\PSoC6_101\Sensor/driver_max30102_fifo.c ****  *         - 0 success
  45:..\..\..\..\PSoC6_101\Sensor/driver_max30102_fifo.c ****  *         - 1 run failed
  46:..\..\..\..\PSoC6_101\Sensor/driver_max30102_fifo.c ****  * @note   none
  47:..\..\..\..\PSoC6_101\Sensor/driver_max30102_fifo.c ****  */
  48:..\..\..\..\PSoC6_101\Sensor/driver_max30102_fifo.c **** uint8_t max30102_fifo_irq_handler(void)
  49:..\..\..\..\PSoC6_101\Sensor/driver_max30102_fifo.c **** {
  33              		.loc 1 49 0
  34              		.cfi_startproc
  35              		@ args = 0, pretend = 0, frame = 0
  36              		@ frame_needed = 1, uses_anonymous_args = 0
  37 0000 80B5     		push	{r7, lr}
  38              		.cfi_def_cfa_offset 8
  39              		.cfi_offset 7, -8
  40              		.cfi_offset 14, -4
  41 0002 00AF     		add	r7, sp, #0
  42              		.cfi_def_cfa_register 7
  50:..\..\..\..\PSoC6_101\Sensor/driver_max30102_fifo.c ****     /* run irq handler */
  51:..\..\..\..\PSoC6_101\Sensor/driver_max30102_fifo.c ****     if (max30102_irq_handler(&gs_handle) != 0)
  43              		.loc 1 51 0
  44 0004 0548     		ldr	r0, .L4
  45 0006 FFF7FEFF 		bl	max30102_irq_handler
  46 000a 0346     		mov	r3, r0
  47 000c 002B     		cmp	r3, #0
  48 000e 01D0     		beq	.L2
  52:..\..\..\..\PSoC6_101\Sensor/driver_max30102_fifo.c ****     {
  53:..\..\..\..\PSoC6_101\Sensor/driver_max30102_fifo.c ****         return 1;
  49              		.loc 1 53 0
  50 0010 0123     		movs	r3, #1
  51 0012 00E0     		b	.L3
  52              	.L2:
  54:..\..\..\..\PSoC6_101\Sensor/driver_max30102_fifo.c ****     }
  55:..\..\..\..\PSoC6_101\Sensor/driver_max30102_fifo.c ****     else
  56:..\..\..\..\PSoC6_101\Sensor/driver_max30102_fifo.c ****     {
  57:..\..\..\..\PSoC6_101\Sensor/driver_max30102_fifo.c ****         return 0;
  53              		.loc 1 57 0
ARM GAS  C:\Users\49148\AppData\Local\Temp\ccskRr3K.s 			page 3


  54 0014 0023     		movs	r3, #0
  55              	.L3:
  58:..\..\..\..\PSoC6_101\Sensor/driver_max30102_fifo.c ****     }
  59:..\..\..\..\PSoC6_101\Sensor/driver_max30102_fifo.c **** }
  56              		.loc 1 59 0
  57 0016 1846     		mov	r0, r3
  58 0018 80BD     		pop	{r7, pc}
  59              	.L5:
  60 001a 00BF     		.align	2
  61              	.L4:
  62 001c 00000000 		.word	gs_handle
  63              		.cfi_endproc
  64              	.LFE1:
  65              		.size	max30102_fifo_irq_handler, .-max30102_fifo_irq_handler
  66              		.section	.rodata
  67              		.align	2
  68              	.LC0:
  69 0000 6D617833 		.ascii	"max30102: init failed.\012\000"
  69      30313032 
  69      3A20696E 
  69      69742066 
  69      61696C65 
  70              		.align	2
  71              	.LC1:
  72 0018 6D617833 		.ascii	"max30102: set shutdown failed.\012\000"
  72      30313032 
  72      3A207365 
  72      74207368 
  72      7574646F 
  73              		.align	2
  74              	.LC2:
  75 0038 6D617833 		.ascii	"max30102: set fifo sample averaging failed.\012\000"
  75      30313032 
  75      3A207365 
  75      74206669 
  75      666F2073 
  76 0065 000000   		.align	2
  77              	.LC3:
  78 0068 6D617833 		.ascii	"max30102: set fifo roll failed.\012\000"
  78      30313032 
  78      3A207365 
  78      74206669 
  78      666F2072 
  79 0089 000000   		.align	2
  80              	.LC4:
  81 008c 6D617833 		.ascii	"max30102: set fifo almost full failed.\012\000"
  81      30313032 
  81      3A207365 
  81      74206669 
  81      666F2061 
  82              		.align	2
  83              	.LC5:
  84 00b4 6D617833 		.ascii	"max30102: set mode failed.\012\000"
  84      30313032 
  84      3A207365 
  84      74206D6F 
  84      64652066 
ARM GAS  C:\Users\49148\AppData\Local\Temp\ccskRr3K.s 			page 4


  85              		.align	2
  86              	.LC6:
  87 00d0 6D617833 		.ascii	"max30102: set spo2 adc range failed.\012\000"
  87      30313032 
  87      3A207365 
  87      74207370 
  87      6F322061 
  88 00f6 0000     		.align	2
  89              	.LC7:
  90 00f8 6D617833 		.ascii	"max30102: set spo2 sample rate failed.\012\000"
  90      30313032 
  90      3A207365 
  90      74207370 
  90      6F322073 
  91              		.align	2
  92              	.LC8:
  93 0120 6D617833 		.ascii	"max30102: set adc resolution failed.\012\000"
  93      30313032 
  93      3A207365 
  93      74206164 
  93      63207265 
  94 0146 0000     		.align	2
  95              	.LC9:
  96 0148 6D617833 		.ascii	"max30102: set led red pulse amplitude failed.\012\000"
  96      30313032 
  96      3A207365 
  96      74206C65 
  96      64207265 
  97 0177 00       		.align	2
  98              	.LC10:
  99 0178 6D617833 		.ascii	"max30102: set led ir pulse amplitude failed.\012\000"
  99      30313032 
  99      3A207365 
  99      74206C65 
  99      64206972 
 100 01a6 0000     		.align	2
 101              	.LC11:
 102 01a8 6D617833 		.ascii	"max30102: set slot failed.\012\000"
 102      30313032 
 102      3A207365 
 102      7420736C 
 102      6F742066 
 103              		.align	2
 104              	.LC12:
 105 01c4 6D617833 		.ascii	"max30102: set die temperature failed.\012\000"
 105      30313032 
 105      3A207365 
 105      74206469 
 105      65207465 
 106 01eb 00       		.align	2
 107              	.LC13:
 108 01ec 6D617833 		.ascii	"max30102: set interrupt failed.\012\000"
 108      30313032 
 108      3A207365 
 108      7420696E 
 108      74657272 
 109 020d 000000   		.align	2
ARM GAS  C:\Users\49148\AppData\Local\Temp\ccskRr3K.s 			page 5


 110              	.LC14:
 111 0210 6D617833 		.ascii	"max30102: get interrupt status failed.\012\000"
 111      30313032 
 111      3A206765 
 111      7420696E 
 111      74657272 
 112              		.section	.text.max30102_fifo_init,"ax",%progbits
 113              		.align	2
 114              		.global	max30102_fifo_init
 115              		.thumb
 116              		.thumb_func
 117              		.type	max30102_fifo_init, %function
 118              	max30102_fifo_init:
 119              	.LFB2:
  60:..\..\..\..\PSoC6_101\Sensor/driver_max30102_fifo.c **** 
  61:..\..\..\..\PSoC6_101\Sensor/driver_max30102_fifo.c **** /**
  62:..\..\..\..\PSoC6_101\Sensor/driver_max30102_fifo.c ****  * @brief     fifo example init
  63:..\..\..\..\PSoC6_101\Sensor/driver_max30102_fifo.c ****  * @param[in] *fifo_receive_callback points to a fifo receive callback
  64:..\..\..\..\PSoC6_101\Sensor/driver_max30102_fifo.c ****  * @return    status code
  65:..\..\..\..\PSoC6_101\Sensor/driver_max30102_fifo.c ****  *            - 0 success
  66:..\..\..\..\PSoC6_101\Sensor/driver_max30102_fifo.c ****  *            - 1 init failed
  67:..\..\..\..\PSoC6_101\Sensor/driver_max30102_fifo.c ****  * @note      none
  68:..\..\..\..\PSoC6_101\Sensor/driver_max30102_fifo.c ****  */
  69:..\..\..\..\PSoC6_101\Sensor/driver_max30102_fifo.c **** uint8_t max30102_fifo_init(void (*fifo_receive_callback)(uint8_t type))
  70:..\..\..\..\PSoC6_101\Sensor/driver_max30102_fifo.c **** {
 120              		.loc 1 70 0
 121              		.cfi_startproc
 122              		@ args = 0, pretend = 0, frame = 16
 123              		@ frame_needed = 1, uses_anonymous_args = 0
 124 0000 80B5     		push	{r7, lr}
 125              		.cfi_def_cfa_offset 8
 126              		.cfi_offset 7, -8
 127              		.cfi_offset 14, -4
 128 0002 84B0     		sub	sp, sp, #16
 129              		.cfi_def_cfa_offset 24
 130 0004 00AF     		add	r7, sp, #0
 131              		.cfi_def_cfa_register 7
 132 0006 7860     		str	r0, [r7, #4]
  71:..\..\..\..\PSoC6_101\Sensor/driver_max30102_fifo.c ****     uint8_t res;
  72:..\..\..\..\PSoC6_101\Sensor/driver_max30102_fifo.c ****     max30102_bool_t enable;
  73:..\..\..\..\PSoC6_101\Sensor/driver_max30102_fifo.c ****     
  74:..\..\..\..\PSoC6_101\Sensor/driver_max30102_fifo.c ****     /* link interface function */
  75:..\..\..\..\PSoC6_101\Sensor/driver_max30102_fifo.c ****     DRIVER_MAX30102_LINK_INIT(&gs_handle, max30102_handle_t);
 133              		.loc 1 75 0
 134 0008 E422     		movs	r2, #228
 135 000a 0021     		movs	r1, #0
 136 000c AE48     		ldr	r0, .L31
 137 000e FFF7FEFF 		bl	memset
  76:..\..\..\..\PSoC6_101\Sensor/driver_max30102_fifo.c ****     DRIVER_MAX30102_LINK_IIC_INIT(&gs_handle, max30102_interface_iic_init);
 138              		.loc 1 76 0
 139 0012 AD4B     		ldr	r3, .L31
 140 0014 AD4A     		ldr	r2, .L31+4
 141 0016 1A60     		str	r2, [r3]
  77:..\..\..\..\PSoC6_101\Sensor/driver_max30102_fifo.c ****     DRIVER_MAX30102_LINK_IIC_DEINIT(&gs_handle, max30102_interface_iic_deinit);
 142              		.loc 1 77 0
 143 0018 AB4B     		ldr	r3, .L31
 144 001a AD4A     		ldr	r2, .L31+8
ARM GAS  C:\Users\49148\AppData\Local\Temp\ccskRr3K.s 			page 6


 145 001c 5A60     		str	r2, [r3, #4]
  78:..\..\..\..\PSoC6_101\Sensor/driver_max30102_fifo.c ****     DRIVER_MAX30102_LINK_IIC_READ(&gs_handle, max30102_interface_iic_read);
 146              		.loc 1 78 0
 147 001e AA4B     		ldr	r3, .L31
 148 0020 AC4A     		ldr	r2, .L31+12
 149 0022 9A60     		str	r2, [r3, #8]
  79:..\..\..\..\PSoC6_101\Sensor/driver_max30102_fifo.c ****     DRIVER_MAX30102_LINK_IIC_WRITE(&gs_handle, max30102_interface_iic_write);
 150              		.loc 1 79 0
 151 0024 A84B     		ldr	r3, .L31
 152 0026 AC4A     		ldr	r2, .L31+16
 153 0028 DA60     		str	r2, [r3, #12]
  80:..\..\..\..\PSoC6_101\Sensor/driver_max30102_fifo.c ****     DRIVER_MAX30102_LINK_DELAY_MS(&gs_handle, max30102_interface_delay_ms);
 154              		.loc 1 80 0
 155 002a A74B     		ldr	r3, .L31
 156 002c AB4A     		ldr	r2, .L31+20
 157 002e 5A61     		str	r2, [r3, #20]
  81:..\..\..\..\PSoC6_101\Sensor/driver_max30102_fifo.c ****     DRIVER_MAX30102_LINK_DEBUG_PRINT(&gs_handle, max30102_interface_debug_print);
 158              		.loc 1 81 0
 159 0030 A54B     		ldr	r3, .L31
 160 0032 AB4A     		ldr	r2, .L31+24
 161 0034 9A61     		str	r2, [r3, #24]
  82:..\..\..\..\PSoC6_101\Sensor/driver_max30102_fifo.c ****     DRIVER_MAX30102_LINK_RECEIVE_CALLBACK(&gs_handle, fifo_receive_callback);
 162              		.loc 1 82 0
 163 0036 A44A     		ldr	r2, .L31
 164 0038 7B68     		ldr	r3, [r7, #4]
 165 003a 1361     		str	r3, [r2, #16]
  83:..\..\..\..\PSoC6_101\Sensor/driver_max30102_fifo.c ****     
  84:..\..\..\..\PSoC6_101\Sensor/driver_max30102_fifo.c ****     /* init the max30102 */
  85:..\..\..\..\PSoC6_101\Sensor/driver_max30102_fifo.c ****     res = max30102_init(&gs_handle);
 166              		.loc 1 85 0
 167 003c A248     		ldr	r0, .L31
 168 003e FFF7FEFF 		bl	max30102_init
 169 0042 0346     		mov	r3, r0
 170 0044 FB73     		strb	r3, [r7, #15]
  86:..\..\..\..\PSoC6_101\Sensor/driver_max30102_fifo.c ****     if (res != 0)
 171              		.loc 1 86 0
 172 0046 FB7B     		ldrb	r3, [r7, #15]	@ zero_extendqisi2
 173 0048 002B     		cmp	r3, #0
 174 004a 04D0     		beq	.L7
  87:..\..\..\..\PSoC6_101\Sensor/driver_max30102_fifo.c ****     {
  88:..\..\..\..\PSoC6_101\Sensor/driver_max30102_fifo.c ****         max30102_interface_debug_print("max30102: init failed.\n");
 175              		.loc 1 88 0
 176 004c A548     		ldr	r0, .L31+28
 177 004e FFF7FEFF 		bl	max30102_interface_debug_print
  89:..\..\..\..\PSoC6_101\Sensor/driver_max30102_fifo.c ****        
  90:..\..\..\..\PSoC6_101\Sensor/driver_max30102_fifo.c ****         return 1;
 178              		.loc 1 90 0
 179 0052 0123     		movs	r3, #1
 180 0054 9AE1     		b	.L30
 181              	.L7:
  91:..\..\..\..\PSoC6_101\Sensor/driver_max30102_fifo.c ****     }
  92:..\..\..\..\PSoC6_101\Sensor/driver_max30102_fifo.c ****     
  93:..\..\..\..\PSoC6_101\Sensor/driver_max30102_fifo.c ****     /* enable shutdown */
  94:..\..\..\..\PSoC6_101\Sensor/driver_max30102_fifo.c ****     res = max30102_set_shutdown(&gs_handle, MAX30102_BOOL_TRUE);
 182              		.loc 1 94 0
 183 0056 0121     		movs	r1, #1
 184 0058 9B48     		ldr	r0, .L31
ARM GAS  C:\Users\49148\AppData\Local\Temp\ccskRr3K.s 			page 7


 185 005a FFF7FEFF 		bl	max30102_set_shutdown
 186 005e 0346     		mov	r3, r0
 187 0060 FB73     		strb	r3, [r7, #15]
  95:..\..\..\..\PSoC6_101\Sensor/driver_max30102_fifo.c ****     if (res != 0)
 188              		.loc 1 95 0
 189 0062 FB7B     		ldrb	r3, [r7, #15]	@ zero_extendqisi2
 190 0064 002B     		cmp	r3, #0
 191 0066 07D0     		beq	.L9
  96:..\..\..\..\PSoC6_101\Sensor/driver_max30102_fifo.c ****     {
  97:..\..\..\..\PSoC6_101\Sensor/driver_max30102_fifo.c ****         max30102_interface_debug_print("max30102: set shutdown failed.\n");
 192              		.loc 1 97 0
 193 0068 9F48     		ldr	r0, .L31+32
 194 006a FFF7FEFF 		bl	max30102_interface_debug_print
  98:..\..\..\..\PSoC6_101\Sensor/driver_max30102_fifo.c ****         (void)max30102_deinit(&gs_handle);
 195              		.loc 1 98 0
 196 006e 9648     		ldr	r0, .L31
 197 0070 FFF7FEFF 		bl	max30102_deinit
  99:..\..\..\..\PSoC6_101\Sensor/driver_max30102_fifo.c ****        
 100:..\..\..\..\PSoC6_101\Sensor/driver_max30102_fifo.c ****         return 1;
 198              		.loc 1 100 0
 199 0074 0123     		movs	r3, #1
 200 0076 89E1     		b	.L30
 201              	.L9:
 101:..\..\..\..\PSoC6_101\Sensor/driver_max30102_fifo.c ****     }
 102:..\..\..\..\PSoC6_101\Sensor/driver_max30102_fifo.c ****     
 103:..\..\..\..\PSoC6_101\Sensor/driver_max30102_fifo.c ****     /* set fifo sample averaging */
 104:..\..\..\..\PSoC6_101\Sensor/driver_max30102_fifo.c ****     res = max30102_set_fifo_sample_averaging(&gs_handle, MAX30102_FIFO_DEFAULT_SAMPLE_AVERAGING);
 202              		.loc 1 104 0
 203 0078 0321     		movs	r1, #3
 204 007a 9348     		ldr	r0, .L31
 205 007c FFF7FEFF 		bl	max30102_set_fifo_sample_averaging
 206 0080 0346     		mov	r3, r0
 207 0082 FB73     		strb	r3, [r7, #15]
 105:..\..\..\..\PSoC6_101\Sensor/driver_max30102_fifo.c ****     if (res != 0)
 208              		.loc 1 105 0
 209 0084 FB7B     		ldrb	r3, [r7, #15]	@ zero_extendqisi2
 210 0086 002B     		cmp	r3, #0
 211 0088 07D0     		beq	.L10
 106:..\..\..\..\PSoC6_101\Sensor/driver_max30102_fifo.c ****     {
 107:..\..\..\..\PSoC6_101\Sensor/driver_max30102_fifo.c ****         max30102_interface_debug_print("max30102: set fifo sample averaging failed.\n");
 212              		.loc 1 107 0
 213 008a 9848     		ldr	r0, .L31+36
 214 008c FFF7FEFF 		bl	max30102_interface_debug_print
 108:..\..\..\..\PSoC6_101\Sensor/driver_max30102_fifo.c ****         (void)max30102_deinit(&gs_handle);
 215              		.loc 1 108 0
 216 0090 8D48     		ldr	r0, .L31
 217 0092 FFF7FEFF 		bl	max30102_deinit
 109:..\..\..\..\PSoC6_101\Sensor/driver_max30102_fifo.c ****        
 110:..\..\..\..\PSoC6_101\Sensor/driver_max30102_fifo.c ****         return 1;
 218              		.loc 1 110 0
 219 0096 0123     		movs	r3, #1
 220 0098 78E1     		b	.L30
 221              	.L10:
 111:..\..\..\..\PSoC6_101\Sensor/driver_max30102_fifo.c ****     }
 112:..\..\..\..\PSoC6_101\Sensor/driver_max30102_fifo.c ****     
 113:..\..\..\..\PSoC6_101\Sensor/driver_max30102_fifo.c ****     /* set fifo roll */
 114:..\..\..\..\PSoC6_101\Sensor/driver_max30102_fifo.c ****     res = max30102_set_fifo_roll(&gs_handle, MAX30102_FIFO_DEFAULT_FIFO_ROLL);
ARM GAS  C:\Users\49148\AppData\Local\Temp\ccskRr3K.s 			page 8


 222              		.loc 1 114 0
 223 009a 0121     		movs	r1, #1
 224 009c 8A48     		ldr	r0, .L31
 225 009e FFF7FEFF 		bl	max30102_set_fifo_roll
 226 00a2 0346     		mov	r3, r0
 227 00a4 FB73     		strb	r3, [r7, #15]
 115:..\..\..\..\PSoC6_101\Sensor/driver_max30102_fifo.c ****     if (res != 0)
 228              		.loc 1 115 0
 229 00a6 FB7B     		ldrb	r3, [r7, #15]	@ zero_extendqisi2
 230 00a8 002B     		cmp	r3, #0
 231 00aa 07D0     		beq	.L11
 116:..\..\..\..\PSoC6_101\Sensor/driver_max30102_fifo.c ****     {
 117:..\..\..\..\PSoC6_101\Sensor/driver_max30102_fifo.c ****         max30102_interface_debug_print("max30102: set fifo roll failed.\n");
 232              		.loc 1 117 0
 233 00ac 9048     		ldr	r0, .L31+40
 234 00ae FFF7FEFF 		bl	max30102_interface_debug_print
 118:..\..\..\..\PSoC6_101\Sensor/driver_max30102_fifo.c ****         (void)max30102_deinit(&gs_handle);
 235              		.loc 1 118 0
 236 00b2 8548     		ldr	r0, .L31
 237 00b4 FFF7FEFF 		bl	max30102_deinit
 119:..\..\..\..\PSoC6_101\Sensor/driver_max30102_fifo.c ****        
 120:..\..\..\..\PSoC6_101\Sensor/driver_max30102_fifo.c ****         return 1;
 238              		.loc 1 120 0
 239 00b8 0123     		movs	r3, #1
 240 00ba 67E1     		b	.L30
 241              	.L11:
 121:..\..\..\..\PSoC6_101\Sensor/driver_max30102_fifo.c ****     }
 122:..\..\..\..\PSoC6_101\Sensor/driver_max30102_fifo.c ****     
 123:..\..\..\..\PSoC6_101\Sensor/driver_max30102_fifo.c ****     /* set fifo almost full */
 124:..\..\..\..\PSoC6_101\Sensor/driver_max30102_fifo.c ****     res = max30102_set_fifo_almost_full(&gs_handle, MAX30102_FIFO_DEFAULT_FIFO_ALMOST_FULL);
 242              		.loc 1 124 0
 243 00bc 0F21     		movs	r1, #15
 244 00be 8248     		ldr	r0, .L31
 245 00c0 FFF7FEFF 		bl	max30102_set_fifo_almost_full
 246 00c4 0346     		mov	r3, r0
 247 00c6 FB73     		strb	r3, [r7, #15]
 125:..\..\..\..\PSoC6_101\Sensor/driver_max30102_fifo.c ****     if (res != 0)
 248              		.loc 1 125 0
 249 00c8 FB7B     		ldrb	r3, [r7, #15]	@ zero_extendqisi2
 250 00ca 002B     		cmp	r3, #0
 251 00cc 07D0     		beq	.L12
 126:..\..\..\..\PSoC6_101\Sensor/driver_max30102_fifo.c ****     {
 127:..\..\..\..\PSoC6_101\Sensor/driver_max30102_fifo.c ****         max30102_interface_debug_print("max30102: set fifo almost full failed.\n");
 252              		.loc 1 127 0
 253 00ce 8948     		ldr	r0, .L31+44
 254 00d0 FFF7FEFF 		bl	max30102_interface_debug_print
 128:..\..\..\..\PSoC6_101\Sensor/driver_max30102_fifo.c ****         (void)max30102_deinit(&gs_handle);
 255              		.loc 1 128 0
 256 00d4 7C48     		ldr	r0, .L31
 257 00d6 FFF7FEFF 		bl	max30102_deinit
 129:..\..\..\..\PSoC6_101\Sensor/driver_max30102_fifo.c ****        
 130:..\..\..\..\PSoC6_101\Sensor/driver_max30102_fifo.c ****         return 1;
 258              		.loc 1 130 0
 259 00da 0123     		movs	r3, #1
 260 00dc 56E1     		b	.L30
 261              	.L12:
 131:..\..\..\..\PSoC6_101\Sensor/driver_max30102_fifo.c ****     }
ARM GAS  C:\Users\49148\AppData\Local\Temp\ccskRr3K.s 			page 9


 132:..\..\..\..\PSoC6_101\Sensor/driver_max30102_fifo.c ****     
 133:..\..\..\..\PSoC6_101\Sensor/driver_max30102_fifo.c ****     /* set mode */
 134:..\..\..\..\PSoC6_101\Sensor/driver_max30102_fifo.c ****     res = max30102_set_mode(&gs_handle, MAX30102_FIFO_DEFAULT_MODE);
 262              		.loc 1 134 0
 263 00de 0321     		movs	r1, #3
 264 00e0 7948     		ldr	r0, .L31
 265 00e2 FFF7FEFF 		bl	max30102_set_mode
 266 00e6 0346     		mov	r3, r0
 267 00e8 FB73     		strb	r3, [r7, #15]
 135:..\..\..\..\PSoC6_101\Sensor/driver_max30102_fifo.c ****     if (res != 0)
 268              		.loc 1 135 0
 269 00ea FB7B     		ldrb	r3, [r7, #15]	@ zero_extendqisi2
 270 00ec 002B     		cmp	r3, #0
 271 00ee 07D0     		beq	.L13
 136:..\..\..\..\PSoC6_101\Sensor/driver_max30102_fifo.c ****     {
 137:..\..\..\..\PSoC6_101\Sensor/driver_max30102_fifo.c ****         max30102_interface_debug_print("max30102: set mode failed.\n");
 272              		.loc 1 137 0
 273 00f0 8148     		ldr	r0, .L31+48
 274 00f2 FFF7FEFF 		bl	max30102_interface_debug_print
 138:..\..\..\..\PSoC6_101\Sensor/driver_max30102_fifo.c ****         (void)max30102_deinit(&gs_handle);
 275              		.loc 1 138 0
 276 00f6 7448     		ldr	r0, .L31
 277 00f8 FFF7FEFF 		bl	max30102_deinit
 139:..\..\..\..\PSoC6_101\Sensor/driver_max30102_fifo.c ****        
 140:..\..\..\..\PSoC6_101\Sensor/driver_max30102_fifo.c ****         return 1;
 278              		.loc 1 140 0
 279 00fc 0123     		movs	r3, #1
 280 00fe 45E1     		b	.L30
 281              	.L13:
 141:..\..\..\..\PSoC6_101\Sensor/driver_max30102_fifo.c ****     }
 142:..\..\..\..\PSoC6_101\Sensor/driver_max30102_fifo.c ****     
 143:..\..\..\..\PSoC6_101\Sensor/driver_max30102_fifo.c ****     /* set spo2 adc range */
 144:..\..\..\..\PSoC6_101\Sensor/driver_max30102_fifo.c ****     res = max30102_set_spo2_adc_range(&gs_handle, MAX30102_FIFO_DEFAULT_SPO2_ADC_RANGE);
 282              		.loc 1 144 0
 283 0100 0121     		movs	r1, #1
 284 0102 7148     		ldr	r0, .L31
 285 0104 FFF7FEFF 		bl	max30102_set_spo2_adc_range
 286 0108 0346     		mov	r3, r0
 287 010a FB73     		strb	r3, [r7, #15]
 145:..\..\..\..\PSoC6_101\Sensor/driver_max30102_fifo.c ****     if (res != 0)
 288              		.loc 1 145 0
 289 010c FB7B     		ldrb	r3, [r7, #15]	@ zero_extendqisi2
 290 010e 002B     		cmp	r3, #0
 291 0110 07D0     		beq	.L14
 146:..\..\..\..\PSoC6_101\Sensor/driver_max30102_fifo.c ****     {
 147:..\..\..\..\PSoC6_101\Sensor/driver_max30102_fifo.c ****         max30102_interface_debug_print("max30102: set spo2 adc range failed.\n");
 292              		.loc 1 147 0
 293 0112 7A48     		ldr	r0, .L31+52
 294 0114 FFF7FEFF 		bl	max30102_interface_debug_print
 148:..\..\..\..\PSoC6_101\Sensor/driver_max30102_fifo.c ****         (void)max30102_deinit(&gs_handle);
 295              		.loc 1 148 0
 296 0118 6B48     		ldr	r0, .L31
 297 011a FFF7FEFF 		bl	max30102_deinit
 149:..\..\..\..\PSoC6_101\Sensor/driver_max30102_fifo.c ****        
 150:..\..\..\..\PSoC6_101\Sensor/driver_max30102_fifo.c ****         return 1;
 298              		.loc 1 150 0
 299 011e 0123     		movs	r3, #1
ARM GAS  C:\Users\49148\AppData\Local\Temp\ccskRr3K.s 			page 10


 300 0120 34E1     		b	.L30
 301              	.L14:
 151:..\..\..\..\PSoC6_101\Sensor/driver_max30102_fifo.c ****     }
 152:..\..\..\..\PSoC6_101\Sensor/driver_max30102_fifo.c ****     
 153:..\..\..\..\PSoC6_101\Sensor/driver_max30102_fifo.c ****     /* set spo2 sample rate */
 154:..\..\..\..\PSoC6_101\Sensor/driver_max30102_fifo.c ****     res = max30102_set_spo2_sample_rate(&gs_handle, MAX30102_FIFO_DEFAULT_SPO2_SAMPLE_RATE);
 302              		.loc 1 154 0
 303 0122 0121     		movs	r1, #1
 304 0124 6848     		ldr	r0, .L31
 305 0126 FFF7FEFF 		bl	max30102_set_spo2_sample_rate
 306 012a 0346     		mov	r3, r0
 307 012c FB73     		strb	r3, [r7, #15]
 155:..\..\..\..\PSoC6_101\Sensor/driver_max30102_fifo.c ****     if (res != 0)
 308              		.loc 1 155 0
 309 012e FB7B     		ldrb	r3, [r7, #15]	@ zero_extendqisi2
 310 0130 002B     		cmp	r3, #0
 311 0132 07D0     		beq	.L15
 156:..\..\..\..\PSoC6_101\Sensor/driver_max30102_fifo.c ****     {
 157:..\..\..\..\PSoC6_101\Sensor/driver_max30102_fifo.c ****         max30102_interface_debug_print("max30102: set spo2 sample rate failed.\n");
 312              		.loc 1 157 0
 313 0134 7248     		ldr	r0, .L31+56
 314 0136 FFF7FEFF 		bl	max30102_interface_debug_print
 158:..\..\..\..\PSoC6_101\Sensor/driver_max30102_fifo.c ****         (void)max30102_deinit(&gs_handle);
 315              		.loc 1 158 0
 316 013a 6348     		ldr	r0, .L31
 317 013c FFF7FEFF 		bl	max30102_deinit
 159:..\..\..\..\PSoC6_101\Sensor/driver_max30102_fifo.c ****        
 160:..\..\..\..\PSoC6_101\Sensor/driver_max30102_fifo.c ****         return 1;
 318              		.loc 1 160 0
 319 0140 0123     		movs	r3, #1
 320 0142 23E1     		b	.L30
 321              	.L15:
 161:..\..\..\..\PSoC6_101\Sensor/driver_max30102_fifo.c ****     }
 162:..\..\..\..\PSoC6_101\Sensor/driver_max30102_fifo.c ****     
 163:..\..\..\..\PSoC6_101\Sensor/driver_max30102_fifo.c ****     /* set adc resolution */
 164:..\..\..\..\PSoC6_101\Sensor/driver_max30102_fifo.c ****     res = max30102_set_adc_resolution(&gs_handle, MAX30102_FIFO_DEFAULT_ADC_RESOLUTION);
 322              		.loc 1 164 0
 323 0144 0321     		movs	r1, #3
 324 0146 6048     		ldr	r0, .L31
 325 0148 FFF7FEFF 		bl	max30102_set_adc_resolution
 326 014c 0346     		mov	r3, r0
 327 014e FB73     		strb	r3, [r7, #15]
 165:..\..\..\..\PSoC6_101\Sensor/driver_max30102_fifo.c ****     if (res != 0)
 328              		.loc 1 165 0
 329 0150 FB7B     		ldrb	r3, [r7, #15]	@ zero_extendqisi2
 330 0152 002B     		cmp	r3, #0
 331 0154 07D0     		beq	.L16
 166:..\..\..\..\PSoC6_101\Sensor/driver_max30102_fifo.c ****     {
 167:..\..\..\..\PSoC6_101\Sensor/driver_max30102_fifo.c ****         max30102_interface_debug_print("max30102: set adc resolution failed.\n");
 332              		.loc 1 167 0
 333 0156 6B48     		ldr	r0, .L31+60
 334 0158 FFF7FEFF 		bl	max30102_interface_debug_print
 168:..\..\..\..\PSoC6_101\Sensor/driver_max30102_fifo.c ****         (void)max30102_deinit(&gs_handle);
 335              		.loc 1 168 0
 336 015c 5A48     		ldr	r0, .L31
 337 015e FFF7FEFF 		bl	max30102_deinit
 169:..\..\..\..\PSoC6_101\Sensor/driver_max30102_fifo.c ****        
ARM GAS  C:\Users\49148\AppData\Local\Temp\ccskRr3K.s 			page 11


 170:..\..\..\..\PSoC6_101\Sensor/driver_max30102_fifo.c ****         return 1;
 338              		.loc 1 170 0
 339 0162 0123     		movs	r3, #1
 340 0164 12E1     		b	.L30
 341              	.L16:
 171:..\..\..\..\PSoC6_101\Sensor/driver_max30102_fifo.c ****     }
 172:..\..\..\..\PSoC6_101\Sensor/driver_max30102_fifo.c ****     
 173:..\..\..\..\PSoC6_101\Sensor/driver_max30102_fifo.c ****     /* set led red pulse amplitude */
 174:..\..\..\..\PSoC6_101\Sensor/driver_max30102_fifo.c ****     res = max30102_set_led_red_pulse_amplitude(&gs_handle, MAX30102_FIFO_DEFAULT_LED_RED_PULSE_AMPL
 342              		.loc 1 174 0
 343 0166 7F21     		movs	r1, #127
 344 0168 5748     		ldr	r0, .L31
 345 016a FFF7FEFF 		bl	max30102_set_led_red_pulse_amplitude
 346 016e 0346     		mov	r3, r0
 347 0170 FB73     		strb	r3, [r7, #15]
 175:..\..\..\..\PSoC6_101\Sensor/driver_max30102_fifo.c ****     if (res != 0)
 348              		.loc 1 175 0
 349 0172 FB7B     		ldrb	r3, [r7, #15]	@ zero_extendqisi2
 350 0174 002B     		cmp	r3, #0
 351 0176 07D0     		beq	.L17
 176:..\..\..\..\PSoC6_101\Sensor/driver_max30102_fifo.c ****     {
 177:..\..\..\..\PSoC6_101\Sensor/driver_max30102_fifo.c ****         max30102_interface_debug_print("max30102: set led red pulse amplitude failed.\n");
 352              		.loc 1 177 0
 353 0178 6348     		ldr	r0, .L31+64
 354 017a FFF7FEFF 		bl	max30102_interface_debug_print
 178:..\..\..\..\PSoC6_101\Sensor/driver_max30102_fifo.c ****         (void)max30102_deinit(&gs_handle);
 355              		.loc 1 178 0
 356 017e 5248     		ldr	r0, .L31
 357 0180 FFF7FEFF 		bl	max30102_deinit
 179:..\..\..\..\PSoC6_101\Sensor/driver_max30102_fifo.c ****        
 180:..\..\..\..\PSoC6_101\Sensor/driver_max30102_fifo.c ****         return 1;
 358              		.loc 1 180 0
 359 0184 0123     		movs	r3, #1
 360 0186 01E1     		b	.L30
 361              	.L17:
 181:..\..\..\..\PSoC6_101\Sensor/driver_max30102_fifo.c ****     }
 182:..\..\..\..\PSoC6_101\Sensor/driver_max30102_fifo.c ****     
 183:..\..\..\..\PSoC6_101\Sensor/driver_max30102_fifo.c ****     /* set led ir pulse amplitude */
 184:..\..\..\..\PSoC6_101\Sensor/driver_max30102_fifo.c ****     res = max30102_set_led_ir_pulse_amplitude(&gs_handle, MAX30102_FIFO_DEFAULT_LED_IR_PULSE_AMPLIT
 362              		.loc 1 184 0
 363 0188 7F21     		movs	r1, #127
 364 018a 4F48     		ldr	r0, .L31
 365 018c FFF7FEFF 		bl	max30102_set_led_ir_pulse_amplitude
 366 0190 0346     		mov	r3, r0
 367 0192 FB73     		strb	r3, [r7, #15]
 185:..\..\..\..\PSoC6_101\Sensor/driver_max30102_fifo.c ****     if (res != 0)
 368              		.loc 1 185 0
 369 0194 FB7B     		ldrb	r3, [r7, #15]	@ zero_extendqisi2
 370 0196 002B     		cmp	r3, #0
 371 0198 07D0     		beq	.L18
 186:..\..\..\..\PSoC6_101\Sensor/driver_max30102_fifo.c ****     {
 187:..\..\..\..\PSoC6_101\Sensor/driver_max30102_fifo.c ****         max30102_interface_debug_print("max30102: set led ir pulse amplitude failed.\n");
 372              		.loc 1 187 0
 373 019a 5C48     		ldr	r0, .L31+68
 374 019c FFF7FEFF 		bl	max30102_interface_debug_print
 188:..\..\..\..\PSoC6_101\Sensor/driver_max30102_fifo.c ****         (void)max30102_deinit(&gs_handle);
 375              		.loc 1 188 0
ARM GAS  C:\Users\49148\AppData\Local\Temp\ccskRr3K.s 			page 12


 376 01a0 4948     		ldr	r0, .L31
 377 01a2 FFF7FEFF 		bl	max30102_deinit
 189:..\..\..\..\PSoC6_101\Sensor/driver_max30102_fifo.c ****        
 190:..\..\..\..\PSoC6_101\Sensor/driver_max30102_fifo.c ****         return 1;
 378              		.loc 1 190 0
 379 01a6 0123     		movs	r3, #1
 380 01a8 F0E0     		b	.L30
 381              	.L18:
 191:..\..\..\..\PSoC6_101\Sensor/driver_max30102_fifo.c ****     }
 192:..\..\..\..\PSoC6_101\Sensor/driver_max30102_fifo.c ****     
 193:..\..\..\..\PSoC6_101\Sensor/driver_max30102_fifo.c ****     /* set slot */
 194:..\..\..\..\PSoC6_101\Sensor/driver_max30102_fifo.c ****     res = max30102_set_slot(&gs_handle, MAX30102_SLOT_1, MAX30102_FIFO_DEFAULT_SLOT1);
 382              		.loc 1 194 0
 383 01aa 0122     		movs	r2, #1
 384 01ac 0021     		movs	r1, #0
 385 01ae 4648     		ldr	r0, .L31
 386 01b0 FFF7FEFF 		bl	max30102_set_slot
 387 01b4 0346     		mov	r3, r0
 388 01b6 FB73     		strb	r3, [r7, #15]
 195:..\..\..\..\PSoC6_101\Sensor/driver_max30102_fifo.c ****     if (res != 0)
 389              		.loc 1 195 0
 390 01b8 FB7B     		ldrb	r3, [r7, #15]	@ zero_extendqisi2
 391 01ba 002B     		cmp	r3, #0
 392 01bc 07D0     		beq	.L19
 196:..\..\..\..\PSoC6_101\Sensor/driver_max30102_fifo.c ****     {
 197:..\..\..\..\PSoC6_101\Sensor/driver_max30102_fifo.c ****         max30102_interface_debug_print("max30102: set slot failed.\n");
 393              		.loc 1 197 0
 394 01be 5448     		ldr	r0, .L31+72
 395 01c0 FFF7FEFF 		bl	max30102_interface_debug_print
 198:..\..\..\..\PSoC6_101\Sensor/driver_max30102_fifo.c ****         (void)max30102_deinit(&gs_handle);
 396              		.loc 1 198 0
 397 01c4 4048     		ldr	r0, .L31
 398 01c6 FFF7FEFF 		bl	max30102_deinit
 199:..\..\..\..\PSoC6_101\Sensor/driver_max30102_fifo.c ****        
 200:..\..\..\..\PSoC6_101\Sensor/driver_max30102_fifo.c ****         return 1;
 399              		.loc 1 200 0
 400 01ca 0123     		movs	r3, #1
 401 01cc DEE0     		b	.L30
 402              	.L19:
 201:..\..\..\..\PSoC6_101\Sensor/driver_max30102_fifo.c ****     }
 202:..\..\..\..\PSoC6_101\Sensor/driver_max30102_fifo.c ****     
 203:..\..\..\..\PSoC6_101\Sensor/driver_max30102_fifo.c ****     /* set slot */
 204:..\..\..\..\PSoC6_101\Sensor/driver_max30102_fifo.c ****     res = max30102_set_slot(&gs_handle, MAX30102_SLOT_2, MAX30102_FIFO_DEFAULT_SLOT2);
 403              		.loc 1 204 0
 404 01ce 0222     		movs	r2, #2
 405 01d0 0121     		movs	r1, #1
 406 01d2 3D48     		ldr	r0, .L31
 407 01d4 FFF7FEFF 		bl	max30102_set_slot
 408 01d8 0346     		mov	r3, r0
 409 01da FB73     		strb	r3, [r7, #15]
 205:..\..\..\..\PSoC6_101\Sensor/driver_max30102_fifo.c ****     if (res != 0)
 410              		.loc 1 205 0
 411 01dc FB7B     		ldrb	r3, [r7, #15]	@ zero_extendqisi2
 412 01de 002B     		cmp	r3, #0
 413 01e0 07D0     		beq	.L20
 206:..\..\..\..\PSoC6_101\Sensor/driver_max30102_fifo.c ****     {
 207:..\..\..\..\PSoC6_101\Sensor/driver_max30102_fifo.c ****         max30102_interface_debug_print("max30102: set slot failed.\n");
ARM GAS  C:\Users\49148\AppData\Local\Temp\ccskRr3K.s 			page 13


 414              		.loc 1 207 0
 415 01e2 4B48     		ldr	r0, .L31+72
 416 01e4 FFF7FEFF 		bl	max30102_interface_debug_print
 208:..\..\..\..\PSoC6_101\Sensor/driver_max30102_fifo.c ****         (void)max30102_deinit(&gs_handle);
 417              		.loc 1 208 0
 418 01e8 3748     		ldr	r0, .L31
 419 01ea FFF7FEFF 		bl	max30102_deinit
 209:..\..\..\..\PSoC6_101\Sensor/driver_max30102_fifo.c ****        
 210:..\..\..\..\PSoC6_101\Sensor/driver_max30102_fifo.c ****         return 1;
 420              		.loc 1 210 0
 421 01ee 0123     		movs	r3, #1
 422 01f0 CCE0     		b	.L30
 423              	.L20:
 211:..\..\..\..\PSoC6_101\Sensor/driver_max30102_fifo.c ****     }
 212:..\..\..\..\PSoC6_101\Sensor/driver_max30102_fifo.c ****     
 213:..\..\..\..\PSoC6_101\Sensor/driver_max30102_fifo.c ****     /* set slot */
 214:..\..\..\..\PSoC6_101\Sensor/driver_max30102_fifo.c ****     res = max30102_set_slot(&gs_handle, MAX30102_SLOT_3, MAX30102_FIFO_DEFAULT_SLOT3);
 424              		.loc 1 214 0
 425 01f2 0022     		movs	r2, #0
 426 01f4 0221     		movs	r1, #2
 427 01f6 3448     		ldr	r0, .L31
 428 01f8 FFF7FEFF 		bl	max30102_set_slot
 429 01fc 0346     		mov	r3, r0
 430 01fe FB73     		strb	r3, [r7, #15]
 215:..\..\..\..\PSoC6_101\Sensor/driver_max30102_fifo.c ****     if (res != 0)
 431              		.loc 1 215 0
 432 0200 FB7B     		ldrb	r3, [r7, #15]	@ zero_extendqisi2
 433 0202 002B     		cmp	r3, #0
 434 0204 07D0     		beq	.L21
 216:..\..\..\..\PSoC6_101\Sensor/driver_max30102_fifo.c ****     {
 217:..\..\..\..\PSoC6_101\Sensor/driver_max30102_fifo.c ****         max30102_interface_debug_print("max30102: set slot failed.\n");
 435              		.loc 1 217 0
 436 0206 4248     		ldr	r0, .L31+72
 437 0208 FFF7FEFF 		bl	max30102_interface_debug_print
 218:..\..\..\..\PSoC6_101\Sensor/driver_max30102_fifo.c ****         (void)max30102_deinit(&gs_handle);
 438              		.loc 1 218 0
 439 020c 2E48     		ldr	r0, .L31
 440 020e FFF7FEFF 		bl	max30102_deinit
 219:..\..\..\..\PSoC6_101\Sensor/driver_max30102_fifo.c ****        
 220:..\..\..\..\PSoC6_101\Sensor/driver_max30102_fifo.c ****         return 1;
 441              		.loc 1 220 0
 442 0212 0123     		movs	r3, #1
 443 0214 BAE0     		b	.L30
 444              	.L21:
 221:..\..\..\..\PSoC6_101\Sensor/driver_max30102_fifo.c ****     }
 222:..\..\..\..\PSoC6_101\Sensor/driver_max30102_fifo.c ****     
 223:..\..\..\..\PSoC6_101\Sensor/driver_max30102_fifo.c ****     /* set slot */
 224:..\..\..\..\PSoC6_101\Sensor/driver_max30102_fifo.c ****     res = max30102_set_slot(&gs_handle, MAX30102_SLOT_4, MAX30102_FIFO_DEFAULT_SLOT4);
 445              		.loc 1 224 0
 446 0216 0022     		movs	r2, #0
 447 0218 0321     		movs	r1, #3
 448 021a 2B48     		ldr	r0, .L31
 449 021c FFF7FEFF 		bl	max30102_set_slot
 450 0220 0346     		mov	r3, r0
 451 0222 FB73     		strb	r3, [r7, #15]
 225:..\..\..\..\PSoC6_101\Sensor/driver_max30102_fifo.c ****     if (res != 0)
 452              		.loc 1 225 0
ARM GAS  C:\Users\49148\AppData\Local\Temp\ccskRr3K.s 			page 14


 453 0224 FB7B     		ldrb	r3, [r7, #15]	@ zero_extendqisi2
 454 0226 002B     		cmp	r3, #0
 455 0228 07D0     		beq	.L22
 226:..\..\..\..\PSoC6_101\Sensor/driver_max30102_fifo.c ****     {
 227:..\..\..\..\PSoC6_101\Sensor/driver_max30102_fifo.c ****         max30102_interface_debug_print("max30102: set slot failed.\n");
 456              		.loc 1 227 0
 457 022a 3948     		ldr	r0, .L31+72
 458 022c FFF7FEFF 		bl	max30102_interface_debug_print
 228:..\..\..\..\PSoC6_101\Sensor/driver_max30102_fifo.c ****         (void)max30102_deinit(&gs_handle);
 459              		.loc 1 228 0
 460 0230 2548     		ldr	r0, .L31
 461 0232 FFF7FEFF 		bl	max30102_deinit
 229:..\..\..\..\PSoC6_101\Sensor/driver_max30102_fifo.c ****        
 230:..\..\..\..\PSoC6_101\Sensor/driver_max30102_fifo.c ****         return 1;
 462              		.loc 1 230 0
 463 0236 0123     		movs	r3, #1
 464 0238 A8E0     		b	.L30
 465              	.L22:
 231:..\..\..\..\PSoC6_101\Sensor/driver_max30102_fifo.c ****     }
 232:..\..\..\..\PSoC6_101\Sensor/driver_max30102_fifo.c ****     
 233:..\..\..\..\PSoC6_101\Sensor/driver_max30102_fifo.c ****     /* set die temperature */
 234:..\..\..\..\PSoC6_101\Sensor/driver_max30102_fifo.c ****     res = max30102_set_die_temperature(&gs_handle, MAX30102_FIFO_DEFAULT_DIE_TEMPERATURE);
 466              		.loc 1 234 0
 467 023a 0021     		movs	r1, #0
 468 023c 2248     		ldr	r0, .L31
 469 023e FFF7FEFF 		bl	max30102_set_die_temperature
 470 0242 0346     		mov	r3, r0
 471 0244 FB73     		strb	r3, [r7, #15]
 235:..\..\..\..\PSoC6_101\Sensor/driver_max30102_fifo.c ****     if (res != 0)
 472              		.loc 1 235 0
 473 0246 FB7B     		ldrb	r3, [r7, #15]	@ zero_extendqisi2
 474 0248 002B     		cmp	r3, #0
 475 024a 07D0     		beq	.L23
 236:..\..\..\..\PSoC6_101\Sensor/driver_max30102_fifo.c ****     {
 237:..\..\..\..\PSoC6_101\Sensor/driver_max30102_fifo.c ****         max30102_interface_debug_print("max30102: set die temperature failed.\n");
 476              		.loc 1 237 0
 477 024c 3148     		ldr	r0, .L31+76
 478 024e FFF7FEFF 		bl	max30102_interface_debug_print
 238:..\..\..\..\PSoC6_101\Sensor/driver_max30102_fifo.c ****         (void)max30102_deinit(&gs_handle);
 479              		.loc 1 238 0
 480 0252 1D48     		ldr	r0, .L31
 481 0254 FFF7FEFF 		bl	max30102_deinit
 239:..\..\..\..\PSoC6_101\Sensor/driver_max30102_fifo.c ****        
 240:..\..\..\..\PSoC6_101\Sensor/driver_max30102_fifo.c ****         return 1;
 482              		.loc 1 240 0
 483 0258 0123     		movs	r3, #1
 484 025a 97E0     		b	.L30
 485              	.L23:
 241:..\..\..\..\PSoC6_101\Sensor/driver_max30102_fifo.c ****     }
 242:..\..\..\..\PSoC6_101\Sensor/driver_max30102_fifo.c ****     
 243:..\..\..\..\PSoC6_101\Sensor/driver_max30102_fifo.c ****     /* set interrupt */
 244:..\..\..\..\PSoC6_101\Sensor/driver_max30102_fifo.c ****     res = max30102_set_interrupt(&gs_handle, MAX30102_INTERRUPT_FIFO_FULL_EN, MAX30102_BOOL_TRUE);
 486              		.loc 1 244 0
 487 025c 0122     		movs	r2, #1
 488 025e 0721     		movs	r1, #7
 489 0260 1948     		ldr	r0, .L31
 490 0262 FFF7FEFF 		bl	max30102_set_interrupt
ARM GAS  C:\Users\49148\AppData\Local\Temp\ccskRr3K.s 			page 15


 491 0266 0346     		mov	r3, r0
 492 0268 FB73     		strb	r3, [r7, #15]
 245:..\..\..\..\PSoC6_101\Sensor/driver_max30102_fifo.c ****     if (res != 0)
 493              		.loc 1 245 0
 494 026a FB7B     		ldrb	r3, [r7, #15]	@ zero_extendqisi2
 495 026c 002B     		cmp	r3, #0
 496 026e 07D0     		beq	.L24
 246:..\..\..\..\PSoC6_101\Sensor/driver_max30102_fifo.c ****     {
 247:..\..\..\..\PSoC6_101\Sensor/driver_max30102_fifo.c ****         max30102_interface_debug_print("max30102: set interrupt failed.\n");
 497              		.loc 1 247 0
 498 0270 2948     		ldr	r0, .L31+80
 499 0272 FFF7FEFF 		bl	max30102_interface_debug_print
 248:..\..\..\..\PSoC6_101\Sensor/driver_max30102_fifo.c ****         (void)max30102_deinit(&gs_handle);
 500              		.loc 1 248 0
 501 0276 1448     		ldr	r0, .L31
 502 0278 FFF7FEFF 		bl	max30102_deinit
 249:..\..\..\..\PSoC6_101\Sensor/driver_max30102_fifo.c ****        
 250:..\..\..\..\PSoC6_101\Sensor/driver_max30102_fifo.c ****         return 1;
 503              		.loc 1 250 0
 504 027c 0123     		movs	r3, #1
 505 027e 85E0     		b	.L30
 506              	.L24:
 251:..\..\..\..\PSoC6_101\Sensor/driver_max30102_fifo.c ****     }
 252:..\..\..\..\PSoC6_101\Sensor/driver_max30102_fifo.c ****     
 253:..\..\..\..\PSoC6_101\Sensor/driver_max30102_fifo.c ****     /* set interrupt */
 254:..\..\..\..\PSoC6_101\Sensor/driver_max30102_fifo.c ****     res = max30102_set_interrupt(&gs_handle, MAX30102_INTERRUPT_PPG_RDY_EN, MAX30102_FIFO_DEFAULT_I
 507              		.loc 1 254 0
 508 0280 0022     		movs	r2, #0
 509 0282 0621     		movs	r1, #6
 510 0284 1048     		ldr	r0, .L31
 511 0286 FFF7FEFF 		bl	max30102_set_interrupt
 512 028a 0346     		mov	r3, r0
 513 028c FB73     		strb	r3, [r7, #15]
 255:..\..\..\..\PSoC6_101\Sensor/driver_max30102_fifo.c ****     if (res != 0)
 514              		.loc 1 255 0
 515 028e FB7B     		ldrb	r3, [r7, #15]	@ zero_extendqisi2
 516 0290 002B     		cmp	r3, #0
 517 0292 07D0     		beq	.L25
 256:..\..\..\..\PSoC6_101\Sensor/driver_max30102_fifo.c ****     {
 257:..\..\..\..\PSoC6_101\Sensor/driver_max30102_fifo.c ****         max30102_interface_debug_print("max30102: set interrupt failed.\n");
 518              		.loc 1 257 0
 519 0294 2048     		ldr	r0, .L31+80
 520 0296 FFF7FEFF 		bl	max30102_interface_debug_print
 258:..\..\..\..\PSoC6_101\Sensor/driver_max30102_fifo.c ****         (void)max30102_deinit(&gs_handle);
 521              		.loc 1 258 0
 522 029a 0B48     		ldr	r0, .L31
 523 029c FFF7FEFF 		bl	max30102_deinit
 259:..\..\..\..\PSoC6_101\Sensor/driver_max30102_fifo.c ****        
 260:..\..\..\..\PSoC6_101\Sensor/driver_max30102_fifo.c ****         return 1;
 524              		.loc 1 260 0
 525 02a0 0123     		movs	r3, #1
 526 02a2 73E0     		b	.L30
 527              	.L25:
 261:..\..\..\..\PSoC6_101\Sensor/driver_max30102_fifo.c ****     }
 262:..\..\..\..\PSoC6_101\Sensor/driver_max30102_fifo.c ****     
 263:..\..\..\..\PSoC6_101\Sensor/driver_max30102_fifo.c ****     /* set interrupt */
 264:..\..\..\..\PSoC6_101\Sensor/driver_max30102_fifo.c ****     res = max30102_set_interrupt(&gs_handle, MAX30102_INTERRUPT_ALC_OVF_EN, MAX30102_FIFO_DEFAULT_I
ARM GAS  C:\Users\49148\AppData\Local\Temp\ccskRr3K.s 			page 16


 528              		.loc 1 264 0
 529 02a4 0122     		movs	r2, #1
 530 02a6 0521     		movs	r1, #5
 531 02a8 0748     		ldr	r0, .L31
 532 02aa FFF7FEFF 		bl	max30102_set_interrupt
 533 02ae 0346     		mov	r3, r0
 534 02b0 FB73     		strb	r3, [r7, #15]
 265:..\..\..\..\PSoC6_101\Sensor/driver_max30102_fifo.c ****     if (res != 0)
 535              		.loc 1 265 0
 536 02b2 FB7B     		ldrb	r3, [r7, #15]	@ zero_extendqisi2
 537 02b4 002B     		cmp	r3, #0
 538 02b6 31D0     		beq	.L26
 266:..\..\..\..\PSoC6_101\Sensor/driver_max30102_fifo.c ****     {
 267:..\..\..\..\PSoC6_101\Sensor/driver_max30102_fifo.c ****         max30102_interface_debug_print("max30102: set interrupt failed.\n");
 539              		.loc 1 267 0
 540 02b8 1748     		ldr	r0, .L31+80
 541 02ba FFF7FEFF 		bl	max30102_interface_debug_print
 268:..\..\..\..\PSoC6_101\Sensor/driver_max30102_fifo.c ****         (void)max30102_deinit(&gs_handle);
 542              		.loc 1 268 0
 543 02be 0248     		ldr	r0, .L31
 544 02c0 FFF7FEFF 		bl	max30102_deinit
 269:..\..\..\..\PSoC6_101\Sensor/driver_max30102_fifo.c ****        
 270:..\..\..\..\PSoC6_101\Sensor/driver_max30102_fifo.c ****         return 1;
 545              		.loc 1 270 0
 546 02c4 0123     		movs	r3, #1
 547 02c6 61E0     		b	.L30
 548              	.L32:
 549              		.align	2
 550              	.L31:
 551 02c8 00000000 		.word	gs_handle
 552 02cc 00000000 		.word	max30102_interface_iic_init
 553 02d0 00000000 		.word	max30102_interface_iic_deinit
 554 02d4 00000000 		.word	max30102_interface_iic_read
 555 02d8 00000000 		.word	max30102_interface_iic_write
 556 02dc 00000000 		.word	max30102_interface_delay_ms
 557 02e0 00000000 		.word	max30102_interface_debug_print
 558 02e4 00000000 		.word	.LC0
 559 02e8 18000000 		.word	.LC1
 560 02ec 38000000 		.word	.LC2
 561 02f0 68000000 		.word	.LC3
 562 02f4 8C000000 		.word	.LC4
 563 02f8 B4000000 		.word	.LC5
 564 02fc D0000000 		.word	.LC6
 565 0300 F8000000 		.word	.LC7
 566 0304 20010000 		.word	.LC8
 567 0308 48010000 		.word	.LC9
 568 030c 78010000 		.word	.LC10
 569 0310 A8010000 		.word	.LC11
 570 0314 C4010000 		.word	.LC12
 571 0318 EC010000 		.word	.LC13
 572              	.L26:
 271:..\..\..\..\PSoC6_101\Sensor/driver_max30102_fifo.c ****     }
 272:..\..\..\..\PSoC6_101\Sensor/driver_max30102_fifo.c ****     
 273:..\..\..\..\PSoC6_101\Sensor/driver_max30102_fifo.c ****     /* set interrupt */
 274:..\..\..\..\PSoC6_101\Sensor/driver_max30102_fifo.c ****     res = max30102_set_interrupt(&gs_handle, MAX30102_INTERRUPT_DIE_TEMP_RDY_EN, MAX30102_FIFO_DEFA
 573              		.loc 1 274 0
 574 031c 0122     		movs	r2, #1
ARM GAS  C:\Users\49148\AppData\Local\Temp\ccskRr3K.s 			page 17


 575 031e 0121     		movs	r1, #1
 576 0320 1C48     		ldr	r0, .L33
 577 0322 FFF7FEFF 		bl	max30102_set_interrupt
 578 0326 0346     		mov	r3, r0
 579 0328 FB73     		strb	r3, [r7, #15]
 275:..\..\..\..\PSoC6_101\Sensor/driver_max30102_fifo.c ****     if (res != 0)
 580              		.loc 1 275 0
 581 032a FB7B     		ldrb	r3, [r7, #15]	@ zero_extendqisi2
 582 032c 002B     		cmp	r3, #0
 583 032e 07D0     		beq	.L27
 276:..\..\..\..\PSoC6_101\Sensor/driver_max30102_fifo.c ****     {
 277:..\..\..\..\PSoC6_101\Sensor/driver_max30102_fifo.c ****         max30102_interface_debug_print("max30102: set interrupt failed.\n");
 584              		.loc 1 277 0
 585 0330 1948     		ldr	r0, .L33+4
 586 0332 FFF7FEFF 		bl	max30102_interface_debug_print
 278:..\..\..\..\PSoC6_101\Sensor/driver_max30102_fifo.c ****         (void)max30102_deinit(&gs_handle);
 587              		.loc 1 278 0
 588 0336 1748     		ldr	r0, .L33
 589 0338 FFF7FEFF 		bl	max30102_deinit
 279:..\..\..\..\PSoC6_101\Sensor/driver_max30102_fifo.c ****        
 280:..\..\..\..\PSoC6_101\Sensor/driver_max30102_fifo.c ****         return 1;
 590              		.loc 1 280 0
 591 033c 0123     		movs	r3, #1
 592 033e 25E0     		b	.L30
 593              	.L27:
 281:..\..\..\..\PSoC6_101\Sensor/driver_max30102_fifo.c ****     }
 282:..\..\..\..\PSoC6_101\Sensor/driver_max30102_fifo.c ****     
 283:..\..\..\..\PSoC6_101\Sensor/driver_max30102_fifo.c ****     /* disable shutdown */
 284:..\..\..\..\PSoC6_101\Sensor/driver_max30102_fifo.c ****     res = max30102_set_shutdown(&gs_handle, MAX30102_BOOL_FALSE);
 594              		.loc 1 284 0
 595 0340 0021     		movs	r1, #0
 596 0342 1448     		ldr	r0, .L33
 597 0344 FFF7FEFF 		bl	max30102_set_shutdown
 598 0348 0346     		mov	r3, r0
 599 034a FB73     		strb	r3, [r7, #15]
 285:..\..\..\..\PSoC6_101\Sensor/driver_max30102_fifo.c ****     if (res != 0)
 600              		.loc 1 285 0
 601 034c FB7B     		ldrb	r3, [r7, #15]	@ zero_extendqisi2
 602 034e 002B     		cmp	r3, #0
 603 0350 07D0     		beq	.L28
 286:..\..\..\..\PSoC6_101\Sensor/driver_max30102_fifo.c ****     {
 287:..\..\..\..\PSoC6_101\Sensor/driver_max30102_fifo.c ****         max30102_interface_debug_print("max30102: set shutdown failed.\n");
 604              		.loc 1 287 0
 605 0352 1248     		ldr	r0, .L33+8
 606 0354 FFF7FEFF 		bl	max30102_interface_debug_print
 288:..\..\..\..\PSoC6_101\Sensor/driver_max30102_fifo.c ****         (void)max30102_deinit(&gs_handle);
 607              		.loc 1 288 0
 608 0358 0E48     		ldr	r0, .L33
 609 035a FFF7FEFF 		bl	max30102_deinit
 289:..\..\..\..\PSoC6_101\Sensor/driver_max30102_fifo.c ****        
 290:..\..\..\..\PSoC6_101\Sensor/driver_max30102_fifo.c ****         return 1;
 610              		.loc 1 290 0
 611 035e 0123     		movs	r3, #1
 612 0360 14E0     		b	.L30
 613              	.L28:
 291:..\..\..\..\PSoC6_101\Sensor/driver_max30102_fifo.c ****     }
 292:..\..\..\..\PSoC6_101\Sensor/driver_max30102_fifo.c ****     
ARM GAS  C:\Users\49148\AppData\Local\Temp\ccskRr3K.s 			page 18


 293:..\..\..\..\PSoC6_101\Sensor/driver_max30102_fifo.c ****     /* get status */
 294:..\..\..\..\PSoC6_101\Sensor/driver_max30102_fifo.c ****     res = max30102_get_interrupt_status(&gs_handle, MAX30102_INTERRUPT_STATUS_FIFO_FULL, &enable);
 614              		.loc 1 294 0
 615 0362 07F10E03 		add	r3, r7, #14
 616 0366 1A46     		mov	r2, r3
 617 0368 0721     		movs	r1, #7
 618 036a 0A48     		ldr	r0, .L33
 619 036c FFF7FEFF 		bl	max30102_get_interrupt_status
 620 0370 0346     		mov	r3, r0
 621 0372 FB73     		strb	r3, [r7, #15]
 295:..\..\..\..\PSoC6_101\Sensor/driver_max30102_fifo.c ****     if (res != 0)
 622              		.loc 1 295 0
 623 0374 FB7B     		ldrb	r3, [r7, #15]	@ zero_extendqisi2
 624 0376 002B     		cmp	r3, #0
 625 0378 07D0     		beq	.L29
 296:..\..\..\..\PSoC6_101\Sensor/driver_max30102_fifo.c ****     {
 297:..\..\..\..\PSoC6_101\Sensor/driver_max30102_fifo.c ****         max30102_interface_debug_print("max30102: get interrupt status failed.\n");
 626              		.loc 1 297 0
 627 037a 0948     		ldr	r0, .L33+12
 628 037c FFF7FEFF 		bl	max30102_interface_debug_print
 298:..\..\..\..\PSoC6_101\Sensor/driver_max30102_fifo.c ****         (void)max30102_deinit(&gs_handle);
 629              		.loc 1 298 0
 630 0380 0448     		ldr	r0, .L33
 631 0382 FFF7FEFF 		bl	max30102_deinit
 299:..\..\..\..\PSoC6_101\Sensor/driver_max30102_fifo.c ****        
 300:..\..\..\..\PSoC6_101\Sensor/driver_max30102_fifo.c ****         return 1;
 632              		.loc 1 300 0
 633 0386 0123     		movs	r3, #1
 634 0388 00E0     		b	.L30
 635              	.L29:
 301:..\..\..\..\PSoC6_101\Sensor/driver_max30102_fifo.c ****     }
 302:..\..\..\..\PSoC6_101\Sensor/driver_max30102_fifo.c ****     
 303:..\..\..\..\PSoC6_101\Sensor/driver_max30102_fifo.c ****     return 0;
 636              		.loc 1 303 0
 637 038a 0023     		movs	r3, #0
 638              	.L30:
 304:..\..\..\..\PSoC6_101\Sensor/driver_max30102_fifo.c **** }
 639              		.loc 1 304 0 discriminator 1
 640 038c 1846     		mov	r0, r3
 641 038e 1037     		adds	r7, r7, #16
 642              		.cfi_def_cfa_offset 8
 643 0390 BD46     		mov	sp, r7
 644              		.cfi_def_cfa_register 13
 645              		@ sp needed
 646 0392 80BD     		pop	{r7, pc}
 647              	.L34:
 648              		.align	2
 649              	.L33:
 650 0394 00000000 		.word	gs_handle
 651 0398 EC010000 		.word	.LC13
 652 039c 18000000 		.word	.LC1
 653 03a0 10020000 		.word	.LC14
 654              		.cfi_endproc
 655              	.LFE2:
 656              		.size	max30102_fifo_init, .-max30102_fifo_init
 657              		.section	.text.max30102_fifo_deinit,"ax",%progbits
 658              		.align	2
ARM GAS  C:\Users\49148\AppData\Local\Temp\ccskRr3K.s 			page 19


 659              		.global	max30102_fifo_deinit
 660              		.thumb
 661              		.thumb_func
 662              		.type	max30102_fifo_deinit, %function
 663              	max30102_fifo_deinit:
 664              	.LFB3:
 305:..\..\..\..\PSoC6_101\Sensor/driver_max30102_fifo.c **** 
 306:..\..\..\..\PSoC6_101\Sensor/driver_max30102_fifo.c **** /**
 307:..\..\..\..\PSoC6_101\Sensor/driver_max30102_fifo.c ****  * @brief  fifo example deinit
 308:..\..\..\..\PSoC6_101\Sensor/driver_max30102_fifo.c ****  * @return status code
 309:..\..\..\..\PSoC6_101\Sensor/driver_max30102_fifo.c ****  *         - 0 success
 310:..\..\..\..\PSoC6_101\Sensor/driver_max30102_fifo.c ****  *         - 1 deinit failed
 311:..\..\..\..\PSoC6_101\Sensor/driver_max30102_fifo.c ****  * @note   none
 312:..\..\..\..\PSoC6_101\Sensor/driver_max30102_fifo.c ****  */
 313:..\..\..\..\PSoC6_101\Sensor/driver_max30102_fifo.c **** uint8_t max30102_fifo_deinit(void)
 314:..\..\..\..\PSoC6_101\Sensor/driver_max30102_fifo.c **** {
 665              		.loc 1 314 0
 666              		.cfi_startproc
 667              		@ args = 0, pretend = 0, frame = 8
 668              		@ frame_needed = 1, uses_anonymous_args = 0
 669 0000 80B5     		push	{r7, lr}
 670              		.cfi_def_cfa_offset 8
 671              		.cfi_offset 7, -8
 672              		.cfi_offset 14, -4
 673 0002 82B0     		sub	sp, sp, #8
 674              		.cfi_def_cfa_offset 16
 675 0004 00AF     		add	r7, sp, #0
 676              		.cfi_def_cfa_register 7
 315:..\..\..\..\PSoC6_101\Sensor/driver_max30102_fifo.c ****     uint8_t res;
 316:..\..\..\..\PSoC6_101\Sensor/driver_max30102_fifo.c ****     
 317:..\..\..\..\PSoC6_101\Sensor/driver_max30102_fifo.c ****     res = max30102_deinit(&gs_handle);
 677              		.loc 1 317 0
 678 0006 0748     		ldr	r0, .L38
 679 0008 FFF7FEFF 		bl	max30102_deinit
 680 000c 0346     		mov	r3, r0
 681 000e FB71     		strb	r3, [r7, #7]
 318:..\..\..\..\PSoC6_101\Sensor/driver_max30102_fifo.c ****     if (res != 0)
 682              		.loc 1 318 0
 683 0010 FB79     		ldrb	r3, [r7, #7]	@ zero_extendqisi2
 684 0012 002B     		cmp	r3, #0
 685 0014 01D0     		beq	.L36
 319:..\..\..\..\PSoC6_101\Sensor/driver_max30102_fifo.c ****     {
 320:..\..\..\..\PSoC6_101\Sensor/driver_max30102_fifo.c ****         return 1;
 686              		.loc 1 320 0
 687 0016 0123     		movs	r3, #1
 688 0018 00E0     		b	.L37
 689              	.L36:
 321:..\..\..\..\PSoC6_101\Sensor/driver_max30102_fifo.c ****     }
 322:..\..\..\..\PSoC6_101\Sensor/driver_max30102_fifo.c ****     else
 323:..\..\..\..\PSoC6_101\Sensor/driver_max30102_fifo.c ****     {
 324:..\..\..\..\PSoC6_101\Sensor/driver_max30102_fifo.c ****         return 0;
 690              		.loc 1 324 0
 691 001a 0023     		movs	r3, #0
 692              	.L37:
 325:..\..\..\..\PSoC6_101\Sensor/driver_max30102_fifo.c ****     }
 326:..\..\..\..\PSoC6_101\Sensor/driver_max30102_fifo.c **** }
 693              		.loc 1 326 0
ARM GAS  C:\Users\49148\AppData\Local\Temp\ccskRr3K.s 			page 20


 694 001c 1846     		mov	r0, r3
 695 001e 0837     		adds	r7, r7, #8
 696              		.cfi_def_cfa_offset 8
 697 0020 BD46     		mov	sp, r7
 698              		.cfi_def_cfa_register 13
 699              		@ sp needed
 700 0022 80BD     		pop	{r7, pc}
 701              	.L39:
 702              		.align	2
 703              	.L38:
 704 0024 00000000 		.word	gs_handle
 705              		.cfi_endproc
 706              	.LFE3:
 707              		.size	max30102_fifo_deinit, .-max30102_fifo_deinit
 708              		.section	.text.max30102_fifo_read,"ax",%progbits
 709              		.align	2
 710              		.global	max30102_fifo_read
 711              		.thumb
 712              		.thumb_func
 713              		.type	max30102_fifo_read, %function
 714              	max30102_fifo_read:
 715              	.LFB4:
 327:..\..\..\..\PSoC6_101\Sensor/driver_max30102_fifo.c **** 
 328:..\..\..\..\PSoC6_101\Sensor/driver_max30102_fifo.c **** /**
 329:..\..\..\..\PSoC6_101\Sensor/driver_max30102_fifo.c ****  * @brief         read the data
 330:..\..\..\..\PSoC6_101\Sensor/driver_max30102_fifo.c ****  * @param[out]    *raw_red points to a read raw data buffer
 331:..\..\..\..\PSoC6_101\Sensor/driver_max30102_fifo.c ****  * @param[out]    *raw_ir points to a ir raw data buffer
 332:..\..\..\..\PSoC6_101\Sensor/driver_max30102_fifo.c ****  * @param[in,out] *len points to a length buffer
 333:..\..\..\..\PSoC6_101\Sensor/driver_max30102_fifo.c ****  * @return        status code
 334:..\..\..\..\PSoC6_101\Sensor/driver_max30102_fifo.c ****  *                - 0 success
 335:..\..\..\..\PSoC6_101\Sensor/driver_max30102_fifo.c ****  *                - 1 read failed
 336:..\..\..\..\PSoC6_101\Sensor/driver_max30102_fifo.c ****  * @note          none
 337:..\..\..\..\PSoC6_101\Sensor/driver_max30102_fifo.c ****  */
 338:..\..\..\..\PSoC6_101\Sensor/driver_max30102_fifo.c **** uint8_t max30102_fifo_read(uint32_t *raw_red, uint32_t *raw_ir, uint8_t *len)
 339:..\..\..\..\PSoC6_101\Sensor/driver_max30102_fifo.c **** {
 716              		.loc 1 339 0
 717              		.cfi_startproc
 718              		@ args = 0, pretend = 0, frame = 24
 719              		@ frame_needed = 1, uses_anonymous_args = 0
 720 0000 80B5     		push	{r7, lr}
 721              		.cfi_def_cfa_offset 8
 722              		.cfi_offset 7, -8
 723              		.cfi_offset 14, -4
 724 0002 86B0     		sub	sp, sp, #24
 725              		.cfi_def_cfa_offset 32
 726 0004 00AF     		add	r7, sp, #0
 727              		.cfi_def_cfa_register 7
 728 0006 F860     		str	r0, [r7, #12]
 729 0008 B960     		str	r1, [r7, #8]
 730 000a 7A60     		str	r2, [r7, #4]
 340:..\..\..\..\PSoC6_101\Sensor/driver_max30102_fifo.c ****     uint8_t res;
 341:..\..\..\..\PSoC6_101\Sensor/driver_max30102_fifo.c ****     
 342:..\..\..\..\PSoC6_101\Sensor/driver_max30102_fifo.c ****     res = max30102_read(&gs_handle, raw_red, raw_ir, len);
 731              		.loc 1 342 0
 732 000c 7B68     		ldr	r3, [r7, #4]
 733 000e BA68     		ldr	r2, [r7, #8]
 734 0010 F968     		ldr	r1, [r7, #12]
ARM GAS  C:\Users\49148\AppData\Local\Temp\ccskRr3K.s 			page 21


 735 0012 0748     		ldr	r0, .L43
 736 0014 FFF7FEFF 		bl	max30102_read
 737 0018 0346     		mov	r3, r0
 738 001a FB75     		strb	r3, [r7, #23]
 343:..\..\..\..\PSoC6_101\Sensor/driver_max30102_fifo.c ****     if (res != 0)
 739              		.loc 1 343 0
 740 001c FB7D     		ldrb	r3, [r7, #23]	@ zero_extendqisi2
 741 001e 002B     		cmp	r3, #0
 742 0020 01D0     		beq	.L41
 344:..\..\..\..\PSoC6_101\Sensor/driver_max30102_fifo.c ****     {
 345:..\..\..\..\PSoC6_101\Sensor/driver_max30102_fifo.c ****         return 1;
 743              		.loc 1 345 0
 744 0022 0123     		movs	r3, #1
 745 0024 00E0     		b	.L42
 746              	.L41:
 346:..\..\..\..\PSoC6_101\Sensor/driver_max30102_fifo.c ****     }
 347:..\..\..\..\PSoC6_101\Sensor/driver_max30102_fifo.c ****     else
 348:..\..\..\..\PSoC6_101\Sensor/driver_max30102_fifo.c ****     {
 349:..\..\..\..\PSoC6_101\Sensor/driver_max30102_fifo.c ****         return 0;
 747              		.loc 1 349 0
 748 0026 0023     		movs	r3, #0
 749              	.L42:
 350:..\..\..\..\PSoC6_101\Sensor/driver_max30102_fifo.c ****     }
 351:..\..\..\..\PSoC6_101\Sensor/driver_max30102_fifo.c **** }
 750              		.loc 1 351 0
 751 0028 1846     		mov	r0, r3
 752 002a 1837     		adds	r7, r7, #24
 753              		.cfi_def_cfa_offset 8
 754 002c BD46     		mov	sp, r7
 755              		.cfi_def_cfa_register 13
 756              		@ sp needed
 757 002e 80BD     		pop	{r7, pc}
 758              	.L44:
 759              		.align	2
 760              	.L43:
 761 0030 00000000 		.word	gs_handle
 762              		.cfi_endproc
 763              	.LFE4:
 764              		.size	max30102_fifo_read, .-max30102_fifo_read
 765              		.text
 766              	.Letext0:
 767              		.file 2 "d:\\psoc_jingyi\\psoc creator\\4.4\\psoc creator\\import\\gnu\\arm\\5.4.1\\arm-none-eabi\
 768              		.file 3 "d:\\psoc_jingyi\\psoc creator\\4.4\\psoc creator\\import\\gnu\\arm\\5.4.1\\arm-none-eabi\
 769              		.file 4 "..\\..\\..\\..\\PSoC6_101\\Sensor\\driver_max30102.h"