ARM GAS  C:\Users\49148\AppData\Local\Temp\ccWN5cWv.s 			page 1


   1              		.syntax unified
   2              		.cpu cortex-m4
   3              		.eabi_attribute 27, 1
   4              		.fpu fpv4-sp-d16
   5              		.eabi_attribute 20, 1
   6              		.eabi_attribute 21, 1
   7              		.eabi_attribute 23, 3
   8              		.eabi_attribute 24, 1
   9              		.eabi_attribute 25, 1
  10              		.eabi_attribute 26, 1
  11              		.eabi_attribute 30, 6
  12              		.eabi_attribute 34, 1
  13              		.eabi_attribute 18, 4
  14              		.thumb
  15              		.syntax unified
  16              		.file	"driver_max30102.c"
  17              		.text
  18              	.Ltext0:
  19              		.cfi_sections	.debug_frame
  20              		.section	.rodata
  21              		.align	2
  22              	.LC0:
  23 0000 6D617833 		.ascii	"max30102: iic_init is null.\012\000"
  23      30313032 
  23      3A206969 
  23      635F696E 
  23      69742069 
  24 001d 000000   		.align	2
  25              	.LC1:
  26 0020 6D617833 		.ascii	"max30102: iic_deinit is null.\012\000"
  26      30313032 
  26      3A206969 
  26      635F6465 
  26      696E6974 
  27 003f 00       		.align	2
  28              	.LC2:
  29 0040 6D617833 		.ascii	"max30102: iic_read is null.\012\000"
  29      30313032 
  29      3A206969 
  29      635F7265 
  29      61642069 
  30 005d 000000   		.align	2
  31              	.LC3:
  32 0060 6D617833 		.ascii	"max30102: iic_write is null.\012\000"
  32      30313032 
  32      3A206969 
  32      635F7772 
  32      69746520 
  33 007e 0000     		.align	2
  34              	.LC4:
  35 0080 6D617833 		.ascii	"max30102: receive_callback is null.\012\000"
  35      30313032 
  35      3A207265 
  35      63656976 
  35      655F6361 
  36 00a5 000000   		.align	2
  37              	.LC5:
ARM GAS  C:\Users\49148\AppData\Local\Temp\ccWN5cWv.s 			page 2


  38 00a8 6D617833 		.ascii	"max30102: delay_ms is null.\012\000"
  38      30313032 
  38      3A206465 
  38      6C61795F 
  38      6D732069 
  39 00c5 000000   		.align	2
  40              	.LC6:
  41 00c8 6D617833 		.ascii	"max30102: iic init failed.\012\000"
  41      30313032 
  41      3A206969 
  41      6320696E 
  41      69742066 
  42              		.align	2
  43              	.LC7:
  44 00e4 6D617833 		.ascii	"max30102: read part id failed.\012\000"
  44      30313032 
  44      3A207265 
  44      61642070 
  44      61727420 
  45              		.align	2
  46              	.LC8:
  47 0104 6D617833 		.ascii	"max30102: id is invalid.\012\000"
  47      30313032 
  47      3A206964 
  47      20697320 
  47      696E7661 
  48 011e 0000     		.align	2
  49              	.LC9:
  50 0120 6D617833 		.ascii	"max30102: read mode config failed.\012\000"
  50      30313032 
  50      3A207265 
  50      6164206D 
  50      6F646520 
  51              		.align	2
  52              	.LC10:
  53 0144 6D617833 		.ascii	"max30102: write mode config failed.\012\000"
  53      30313032 
  53      3A207772 
  53      69746520 
  53      6D6F6465 
  54 0169 000000   		.align	2
  55              	.LC11:
  56 016c 6D617833 		.ascii	"max30102: reset failed.\012\000"
  56      30313032 
  56      3A207265 
  56      73657420 
  56      6661696C 
  57 0185 000000   		.align	2
  58              	.LC12:
  59 0188 6D617833 		.ascii	"max30102: write fifo read pointer failed.\012\000"
  59      30313032 
  59      3A207772 
  59      69746520 
  59      6669666F 
  60 01b3 00       		.align	2
  61              	.LC13:
  62 01b4 6D617833 		.ascii	"max30102: write fifo write pointer failed.\012\000"
ARM GAS  C:\Users\49148\AppData\Local\Temp\ccWN5cWv.s 			page 3


  62      30313032 
  62      3A207772 
  62      69746520 
  62      6669666F 
  63              		.align	2
  64              	.LC14:
  65 01e0 6D617833 		.ascii	"max30102: write overflow counter failed.\012\000"
  65      30313032 
  65      3A207772 
  65      69746520 
  65      6F766572 
  66              		.section	.text.max30102_init,"ax",%progbits
  67              		.align	2
  68              		.global	max30102_init
  69              		.thumb
  70              		.thumb_func
  71              		.type	max30102_init, %function
  72              	max30102_init:
  73              	.LFB1:
  74              		.file 1 "..\\..\\..\\..\\PSoC6_101\\Sensor\\driver_max30102.c"
   1:..\..\..\..\PSoC6_101\Sensor/driver_max30102.c **** /**
   2:..\..\..\..\PSoC6_101\Sensor/driver_max30102.c ****  * Copyright (c) 2015 - present LibDriver All rights reserved
   3:..\..\..\..\PSoC6_101\Sensor/driver_max30102.c ****  * 
   4:..\..\..\..\PSoC6_101\Sensor/driver_max30102.c ****  * The MIT License (MIT)
   5:..\..\..\..\PSoC6_101\Sensor/driver_max30102.c ****  *
   6:..\..\..\..\PSoC6_101\Sensor/driver_max30102.c ****  * Permission is hereby granted, free of charge, to any person obtaining a copy
   7:..\..\..\..\PSoC6_101\Sensor/driver_max30102.c ****  * of this software and associated documentation files (the "Software"), to deal
   8:..\..\..\..\PSoC6_101\Sensor/driver_max30102.c ****  * in the Software without restriction, including without limitation the rights
   9:..\..\..\..\PSoC6_101\Sensor/driver_max30102.c ****  * to use, copy, modify, merge, publish, distribute, sublicense, and/or sell
  10:..\..\..\..\PSoC6_101\Sensor/driver_max30102.c ****  * copies of the Software, and to permit persons to whom the Software is
  11:..\..\..\..\PSoC6_101\Sensor/driver_max30102.c ****  * furnished to do so, subject to the following conditions:
  12:..\..\..\..\PSoC6_101\Sensor/driver_max30102.c ****  *
  13:..\..\..\..\PSoC6_101\Sensor/driver_max30102.c ****  * The above copyright notice and this permission notice shall be included in all
  14:..\..\..\..\PSoC6_101\Sensor/driver_max30102.c ****  * copies or substantial portions of the Software.
  15:..\..\..\..\PSoC6_101\Sensor/driver_max30102.c ****  *
  16:..\..\..\..\PSoC6_101\Sensor/driver_max30102.c ****  * THE SOFTWARE IS PROVIDED "AS IS", WITHOUT WARRANTY OF ANY KIND, EXPRESS OR
  17:..\..\..\..\PSoC6_101\Sensor/driver_max30102.c ****  * IMPLIED, INCLUDING BUT NOT LIMITED TO THE WARRANTIES OF MERCHANTABILITY,
  18:..\..\..\..\PSoC6_101\Sensor/driver_max30102.c ****  * FITNESS FOR A PARTICULAR PURPOSE AND NONINFRINGEMENT. IN NO EVENT SHALL THE
  19:..\..\..\..\PSoC6_101\Sensor/driver_max30102.c ****  * AUTHORS OR COPYRIGHT HOLDERS BE LIABLE FOR ANY CLAIM, DAMAGES OR OTHER
  20:..\..\..\..\PSoC6_101\Sensor/driver_max30102.c ****  * LIABILITY, WHETHER IN AN ACTION OF CONTRACT, TORT OR OTHERWISE, ARISING FROM,
  21:..\..\..\..\PSoC6_101\Sensor/driver_max30102.c ****  * OUT OF OR IN CONNECTION WITH THE SOFTWARE OR THE USE OR OTHER DEALINGS IN THE
  22:..\..\..\..\PSoC6_101\Sensor/driver_max30102.c ****  * SOFTWARE. 
  23:..\..\..\..\PSoC6_101\Sensor/driver_max30102.c ****  *
  24:..\..\..\..\PSoC6_101\Sensor/driver_max30102.c ****  * @file      driver_max30102.c
  25:..\..\..\..\PSoC6_101\Sensor/driver_max30102.c ****  * @brief     driver max30102 source file
  26:..\..\..\..\PSoC6_101\Sensor/driver_max30102.c ****  * @version   1.0.0
  27:..\..\..\..\PSoC6_101\Sensor/driver_max30102.c ****  * @author    Shifeng Li
  28:..\..\..\..\PSoC6_101\Sensor/driver_max30102.c ****  * @date      2021-11-13
  29:..\..\..\..\PSoC6_101\Sensor/driver_max30102.c ****  *
  30:..\..\..\..\PSoC6_101\Sensor/driver_max30102.c ****  * <h3>history</h3>
  31:..\..\..\..\PSoC6_101\Sensor/driver_max30102.c ****  * <table>
  32:..\..\..\..\PSoC6_101\Sensor/driver_max30102.c ****  * <tr><th>Date        <th>Version  <th>Author      <th>Description
  33:..\..\..\..\PSoC6_101\Sensor/driver_max30102.c ****  * <tr><td>2021/11/13  <td>1.0      <td>Shifeng Li  <td>first upload
  34:..\..\..\..\PSoC6_101\Sensor/driver_max30102.c ****  * </table>
  35:..\..\..\..\PSoC6_101\Sensor/driver_max30102.c ****  */
  36:..\..\..\..\PSoC6_101\Sensor/driver_max30102.c **** 
  37:..\..\..\..\PSoC6_101\Sensor/driver_max30102.c **** #include "driver_max30102.h"
ARM GAS  C:\Users\49148\AppData\Local\Temp\ccWN5cWv.s 			page 4


  38:..\..\..\..\PSoC6_101\Sensor/driver_max30102.c **** 
  39:..\..\..\..\PSoC6_101\Sensor/driver_max30102.c **** /**
  40:..\..\..\..\PSoC6_101\Sensor/driver_max30102.c ****  * @brief chip information definition
  41:..\..\..\..\PSoC6_101\Sensor/driver_max30102.c ****  */
  42:..\..\..\..\PSoC6_101\Sensor/driver_max30102.c **** #define CHIP_NAME                 "Maxim Integrated MAX30102"        /**< chip name */
  43:..\..\..\..\PSoC6_101\Sensor/driver_max30102.c **** #define MANUFACTURER_NAME         "Maxim Integrated"                 /**< manufacturer name */
  44:..\..\..\..\PSoC6_101\Sensor/driver_max30102.c **** #define SUPPLY_VOLTAGE_MIN        1.7f                               /**< chip min supply voltage *
  45:..\..\..\..\PSoC6_101\Sensor/driver_max30102.c **** #define SUPPLY_VOLTAGE_MAX        2.0f                               /**< chip max supply voltage *
  46:..\..\..\..\PSoC6_101\Sensor/driver_max30102.c **** #define MAX_CURRENT               20.0f                              /**< chip max current */
  47:..\..\..\..\PSoC6_101\Sensor/driver_max30102.c **** #define TEMPERATURE_MIN           -40.0f                             /**< chip min operating temper
  48:..\..\..\..\PSoC6_101\Sensor/driver_max30102.c **** #define TEMPERATURE_MAX           85.0f                              /**< chip max operating temper
  49:..\..\..\..\PSoC6_101\Sensor/driver_max30102.c **** #define DRIVER_VERSION            1000                               /**< driver version */
  50:..\..\..\..\PSoC6_101\Sensor/driver_max30102.c **** 
  51:..\..\..\..\PSoC6_101\Sensor/driver_max30102.c **** /**
  52:..\..\..\..\PSoC6_101\Sensor/driver_max30102.c ****  * @brief iic address definition
  53:..\..\..\..\PSoC6_101\Sensor/driver_max30102.c ****  */
  54:..\..\..\..\PSoC6_101\Sensor/driver_max30102.c **** #define MAX30102_ADDRESS        0xAE        /**< iic address */
  55:..\..\..\..\PSoC6_101\Sensor/driver_max30102.c **** 
  56:..\..\..\..\PSoC6_101\Sensor/driver_max30102.c **** /**
  57:..\..\..\..\PSoC6_101\Sensor/driver_max30102.c ****  * @brief chip register definition
  58:..\..\..\..\PSoC6_101\Sensor/driver_max30102.c ****  */
  59:..\..\..\..\PSoC6_101\Sensor/driver_max30102.c **** #define MAX30102_REG_INTERRUPT_STATUS_1          0x00        /**< interrupt status 1 register */
  60:..\..\..\..\PSoC6_101\Sensor/driver_max30102.c **** #define MAX30102_REG_INTERRUPT_STATUS_2          0x01        /**< interrupt status 2 register */
  61:..\..\..\..\PSoC6_101\Sensor/driver_max30102.c **** #define MAX30102_REG_INTERRUPT_ENABLE_1          0x02        /**< interrupt enable 1 register */
  62:..\..\..\..\PSoC6_101\Sensor/driver_max30102.c **** #define MAX30102_REG_INTERRUPT_ENABLE_2          0x03        /**< interrupt enable 2 register */
  63:..\..\..\..\PSoC6_101\Sensor/driver_max30102.c **** #define MAX30102_REG_FIFO_WRITE_POINTER          0x04        /**< fifo write pointer register */
  64:..\..\..\..\PSoC6_101\Sensor/driver_max30102.c **** #define MAX30102_REG_OVERFLOW_COUNTER            0x05        /**< overflow counter register */
  65:..\..\..\..\PSoC6_101\Sensor/driver_max30102.c **** #define MAX30102_REG_FIFO_READ_POINTER           0x06        /**< fifo read pointer register */
  66:..\..\..\..\PSoC6_101\Sensor/driver_max30102.c **** #define MAX30102_REG_FIFO_DATA_REGISTER          0x07        /**< fifo data register */
  67:..\..\..\..\PSoC6_101\Sensor/driver_max30102.c **** #define MAX30102_REG_FIFO_CONFIG                 0x08        /**< fifo config register */
  68:..\..\..\..\PSoC6_101\Sensor/driver_max30102.c **** #define MAX30102_REG_MODE_CONFIG                 0x09        /**< mode config register */
  69:..\..\..\..\PSoC6_101\Sensor/driver_max30102.c **** #define MAX30102_REG_SPO2_CONFIG                 0x0A        /**< spo2 config register */
  70:..\..\..\..\PSoC6_101\Sensor/driver_max30102.c **** #define MAX30102_REG_LED_PULSE_1                 0x0C        /**< led pulse amplitude 1 register */
  71:..\..\..\..\PSoC6_101\Sensor/driver_max30102.c **** #define MAX30102_REG_LED_PULSE_2                 0x0D        /**< led pulse amplitude 2 register */
  72:..\..\..\..\PSoC6_101\Sensor/driver_max30102.c **** #define MAX30102_REG_MULTI_LED_MODE_CONTROL_1    0x11        /**< multi led mode control 1 register
  73:..\..\..\..\PSoC6_101\Sensor/driver_max30102.c **** #define MAX30102_REG_MULTI_LED_MODE_CONTROL_2    0x12        /**< multi led mode control 2 register
  74:..\..\..\..\PSoC6_101\Sensor/driver_max30102.c **** #define MAX30102_REG_DIE_TEMP_INTEGER            0x1F        /**< die temperature integer register 
  75:..\..\..\..\PSoC6_101\Sensor/driver_max30102.c **** #define MAX30102_REG_DIE_TEMP_FRACTION           0x20        /**< die temperature fraction register
  76:..\..\..\..\PSoC6_101\Sensor/driver_max30102.c **** #define MAX30102_REG_DIE_TEMP_CONFIG             0x21        /**< die temperature config register *
  77:..\..\..\..\PSoC6_101\Sensor/driver_max30102.c **** #define MAX30102_REG_REVISION_ID                 0xFE        /**< revision id register */
  78:..\..\..\..\PSoC6_101\Sensor/driver_max30102.c **** #define MAX30102_REG_PART_ID                     0xFF        /**< part id register */
  79:..\..\..\..\PSoC6_101\Sensor/driver_max30102.c **** 
  80:..\..\..\..\PSoC6_101\Sensor/driver_max30102.c **** /**
  81:..\..\..\..\PSoC6_101\Sensor/driver_max30102.c ****  * @brief     initialize the chip
  82:..\..\..\..\PSoC6_101\Sensor/driver_max30102.c ****  * @param[in] *handle points to a max30102 handle structure
  83:..\..\..\..\PSoC6_101\Sensor/driver_max30102.c ****  * @return    status code
  84:..\..\..\..\PSoC6_101\Sensor/driver_max30102.c ****  *            - 0 success
  85:..\..\..\..\PSoC6_101\Sensor/driver_max30102.c ****  *            - 1 iic initialization failed
  86:..\..\..\..\PSoC6_101\Sensor/driver_max30102.c ****  *            - 2 handle is NULL
  87:..\..\..\..\PSoC6_101\Sensor/driver_max30102.c ****  *            - 3 linked functions is NULL
  88:..\..\..\..\PSoC6_101\Sensor/driver_max30102.c ****  *            - 4 id is invalid
  89:..\..\..\..\PSoC6_101\Sensor/driver_max30102.c ****  *            - 5 reset failed
  90:..\..\..\..\PSoC6_101\Sensor/driver_max30102.c ****  *            - 6 reset fifo failed
  91:..\..\..\..\PSoC6_101\Sensor/driver_max30102.c ****  * @note      none
  92:..\..\..\..\PSoC6_101\Sensor/driver_max30102.c ****  */
  93:..\..\..\..\PSoC6_101\Sensor/driver_max30102.c **** uint8_t max30102_init(max30102_handle_t *handle)
  94:..\..\..\..\PSoC6_101\Sensor/driver_max30102.c **** {
ARM GAS  C:\Users\49148\AppData\Local\Temp\ccWN5cWv.s 			page 5


  75              		.loc 1 94 0
  76              		.cfi_startproc
  77              		@ args = 0, pretend = 0, frame = 16
  78              		@ frame_needed = 1, uses_anonymous_args = 0
  79 0000 90B5     		push	{r4, r7, lr}
  80              		.cfi_def_cfa_offset 12
  81              		.cfi_offset 4, -12
  82              		.cfi_offset 7, -8
  83              		.cfi_offset 14, -4
  84 0002 85B0     		sub	sp, sp, #20
  85              		.cfi_def_cfa_offset 32
  86 0004 00AF     		add	r7, sp, #0
  87              		.cfi_def_cfa_register 7
  88 0006 7860     		str	r0, [r7, #4]
  95:..\..\..\..\PSoC6_101\Sensor/driver_max30102.c ****     uint8_t res;
  96:..\..\..\..\PSoC6_101\Sensor/driver_max30102.c ****     uint8_t prev;
  97:..\..\..\..\PSoC6_101\Sensor/driver_max30102.c ****     uint8_t part_id;
  98:..\..\..\..\PSoC6_101\Sensor/driver_max30102.c ****     
  99:..\..\..\..\PSoC6_101\Sensor/driver_max30102.c ****     if (handle == NULL)                                                                            
  89              		.loc 1 99 0
  90 0008 7B68     		ldr	r3, [r7, #4]
  91 000a 002B     		cmp	r3, #0
  92 000c 01D1     		bne	.L2
 100:..\..\..\..\PSoC6_101\Sensor/driver_max30102.c ****     {
 101:..\..\..\..\PSoC6_101\Sensor/driver_max30102.c ****         return 2;                                                                                  
  93              		.loc 1 101 0
  94 000e 0223     		movs	r3, #2
  95 0010 15E1     		b	.L21
  96              	.L2:
 102:..\..\..\..\PSoC6_101\Sensor/driver_max30102.c ****     }
 103:..\..\..\..\PSoC6_101\Sensor/driver_max30102.c ****     if (handle->debug_print == NULL)                                                               
  97              		.loc 1 103 0
  98 0012 7B68     		ldr	r3, [r7, #4]
  99 0014 9B69     		ldr	r3, [r3, #24]
 100 0016 002B     		cmp	r3, #0
 101 0018 01D1     		bne	.L4
 104:..\..\..\..\PSoC6_101\Sensor/driver_max30102.c ****     {
 105:..\..\..\..\PSoC6_101\Sensor/driver_max30102.c ****         return 3;                                                                                  
 102              		.loc 1 105 0
 103 001a 0323     		movs	r3, #3
 104 001c 0FE1     		b	.L21
 105              	.L4:
 106:..\..\..\..\PSoC6_101\Sensor/driver_max30102.c ****     }
 107:..\..\..\..\PSoC6_101\Sensor/driver_max30102.c ****     if (handle->iic_init == NULL)                                                                  
 106              		.loc 1 107 0
 107 001e 7B68     		ldr	r3, [r7, #4]
 108 0020 1B68     		ldr	r3, [r3]
 109 0022 002B     		cmp	r3, #0
 110 0024 05D1     		bne	.L5
 108:..\..\..\..\PSoC6_101\Sensor/driver_max30102.c ****     {
 109:..\..\..\..\PSoC6_101\Sensor/driver_max30102.c ****         handle->debug_print("max30102: iic_init is null.\n");                                      
 111              		.loc 1 109 0
 112 0026 7B68     		ldr	r3, [r7, #4]
 113 0028 9B69     		ldr	r3, [r3, #24]
 114 002a 8748     		ldr	r0, .L22
 115 002c 9847     		blx	r3
 110:..\..\..\..\PSoC6_101\Sensor/driver_max30102.c ****         
ARM GAS  C:\Users\49148\AppData\Local\Temp\ccWN5cWv.s 			page 6


 111:..\..\..\..\PSoC6_101\Sensor/driver_max30102.c ****         return 3;                                                                                  
 116              		.loc 1 111 0
 117 002e 0323     		movs	r3, #3
 118 0030 05E1     		b	.L21
 119              	.L5:
 112:..\..\..\..\PSoC6_101\Sensor/driver_max30102.c ****     }
 113:..\..\..\..\PSoC6_101\Sensor/driver_max30102.c ****     if (handle->iic_deinit == NULL)                                                                
 120              		.loc 1 113 0
 121 0032 7B68     		ldr	r3, [r7, #4]
 122 0034 5B68     		ldr	r3, [r3, #4]
 123 0036 002B     		cmp	r3, #0
 124 0038 05D1     		bne	.L6
 114:..\..\..\..\PSoC6_101\Sensor/driver_max30102.c ****     {
 115:..\..\..\..\PSoC6_101\Sensor/driver_max30102.c ****         handle->debug_print("max30102: iic_deinit is null.\n");                                    
 125              		.loc 1 115 0
 126 003a 7B68     		ldr	r3, [r7, #4]
 127 003c 9B69     		ldr	r3, [r3, #24]
 128 003e 8348     		ldr	r0, .L22+4
 129 0040 9847     		blx	r3
 116:..\..\..\..\PSoC6_101\Sensor/driver_max30102.c ****         
 117:..\..\..\..\PSoC6_101\Sensor/driver_max30102.c ****         return 3;                                                                                  
 130              		.loc 1 117 0
 131 0042 0323     		movs	r3, #3
 132 0044 FBE0     		b	.L21
 133              	.L6:
 118:..\..\..\..\PSoC6_101\Sensor/driver_max30102.c ****     }
 119:..\..\..\..\PSoC6_101\Sensor/driver_max30102.c ****     if (handle->iic_read == NULL)                                                                  
 134              		.loc 1 119 0
 135 0046 7B68     		ldr	r3, [r7, #4]
 136 0048 9B68     		ldr	r3, [r3, #8]
 137 004a 002B     		cmp	r3, #0
 138 004c 05D1     		bne	.L7
 120:..\..\..\..\PSoC6_101\Sensor/driver_max30102.c ****     {
 121:..\..\..\..\PSoC6_101\Sensor/driver_max30102.c ****         handle->debug_print("max30102: iic_read is null.\n");                                      
 139              		.loc 1 121 0
 140 004e 7B68     		ldr	r3, [r7, #4]
 141 0050 9B69     		ldr	r3, [r3, #24]
 142 0052 7F48     		ldr	r0, .L22+8
 143 0054 9847     		blx	r3
 122:..\..\..\..\PSoC6_101\Sensor/driver_max30102.c ****         
 123:..\..\..\..\PSoC6_101\Sensor/driver_max30102.c ****         return 3;                                                                                  
 144              		.loc 1 123 0
 145 0056 0323     		movs	r3, #3
 146 0058 F1E0     		b	.L21
 147              	.L7:
 124:..\..\..\..\PSoC6_101\Sensor/driver_max30102.c ****     }
 125:..\..\..\..\PSoC6_101\Sensor/driver_max30102.c ****     if (handle->iic_write == NULL)                                                                 
 148              		.loc 1 125 0
 149 005a 7B68     		ldr	r3, [r7, #4]
 150 005c DB68     		ldr	r3, [r3, #12]
 151 005e 002B     		cmp	r3, #0
 152 0060 05D1     		bne	.L8
 126:..\..\..\..\PSoC6_101\Sensor/driver_max30102.c ****     {
 127:..\..\..\..\PSoC6_101\Sensor/driver_max30102.c ****         handle->debug_print("max30102: iic_write is null.\n");                                     
 153              		.loc 1 127 0
 154 0062 7B68     		ldr	r3, [r7, #4]
 155 0064 9B69     		ldr	r3, [r3, #24]
ARM GAS  C:\Users\49148\AppData\Local\Temp\ccWN5cWv.s 			page 7


 156 0066 7B48     		ldr	r0, .L22+12
 157 0068 9847     		blx	r3
 128:..\..\..\..\PSoC6_101\Sensor/driver_max30102.c ****         
 129:..\..\..\..\PSoC6_101\Sensor/driver_max30102.c ****         return 3;                                                                                  
 158              		.loc 1 129 0
 159 006a 0323     		movs	r3, #3
 160 006c E7E0     		b	.L21
 161              	.L8:
 130:..\..\..\..\PSoC6_101\Sensor/driver_max30102.c ****     }
 131:..\..\..\..\PSoC6_101\Sensor/driver_max30102.c ****     if (handle->receive_callback == NULL)                                                          
 162              		.loc 1 131 0
 163 006e 7B68     		ldr	r3, [r7, #4]
 164 0070 1B69     		ldr	r3, [r3, #16]
 165 0072 002B     		cmp	r3, #0
 166 0074 05D1     		bne	.L9
 132:..\..\..\..\PSoC6_101\Sensor/driver_max30102.c ****     {
 133:..\..\..\..\PSoC6_101\Sensor/driver_max30102.c ****         handle->debug_print("max30102: receive_callback is null.\n");                              
 167              		.loc 1 133 0
 168 0076 7B68     		ldr	r3, [r7, #4]
 169 0078 9B69     		ldr	r3, [r3, #24]
 170 007a 7748     		ldr	r0, .L22+16
 171 007c 9847     		blx	r3
 134:..\..\..\..\PSoC6_101\Sensor/driver_max30102.c ****         
 135:..\..\..\..\PSoC6_101\Sensor/driver_max30102.c ****         return 3;                                                                                  
 172              		.loc 1 135 0
 173 007e 0323     		movs	r3, #3
 174 0080 DDE0     		b	.L21
 175              	.L9:
 136:..\..\..\..\PSoC6_101\Sensor/driver_max30102.c ****     }
 137:..\..\..\..\PSoC6_101\Sensor/driver_max30102.c ****     if (handle->delay_ms == NULL)                                                                  
 176              		.loc 1 137 0
 177 0082 7B68     		ldr	r3, [r7, #4]
 178 0084 5B69     		ldr	r3, [r3, #20]
 179 0086 002B     		cmp	r3, #0
 180 0088 05D1     		bne	.L10
 138:..\..\..\..\PSoC6_101\Sensor/driver_max30102.c ****     {
 139:..\..\..\..\PSoC6_101\Sensor/driver_max30102.c ****         handle->debug_print("max30102: delay_ms is null.\n");                                      
 181              		.loc 1 139 0
 182 008a 7B68     		ldr	r3, [r7, #4]
 183 008c 9B69     		ldr	r3, [r3, #24]
 184 008e 7348     		ldr	r0, .L22+20
 185 0090 9847     		blx	r3
 140:..\..\..\..\PSoC6_101\Sensor/driver_max30102.c ****         
 141:..\..\..\..\PSoC6_101\Sensor/driver_max30102.c ****         return 3;                                                                                  
 186              		.loc 1 141 0
 187 0092 0323     		movs	r3, #3
 188 0094 D3E0     		b	.L21
 189              	.L10:
 142:..\..\..\..\PSoC6_101\Sensor/driver_max30102.c ****     }
 143:..\..\..\..\PSoC6_101\Sensor/driver_max30102.c **** 
 144:..\..\..\..\PSoC6_101\Sensor/driver_max30102.c ****     if (handle->iic_init() != 0)                                                                   
 190              		.loc 1 144 0
 191 0096 7B68     		ldr	r3, [r7, #4]
 192 0098 1B68     		ldr	r3, [r3]
 193 009a 9847     		blx	r3
 194 009c 0346     		mov	r3, r0
 195 009e 002B     		cmp	r3, #0
ARM GAS  C:\Users\49148\AppData\Local\Temp\ccWN5cWv.s 			page 8


 196 00a0 05D0     		beq	.L11
 145:..\..\..\..\PSoC6_101\Sensor/driver_max30102.c ****     {
 146:..\..\..\..\PSoC6_101\Sensor/driver_max30102.c ****         handle->debug_print("max30102: iic init failed.\n");                                       
 197              		.loc 1 146 0
 198 00a2 7B68     		ldr	r3, [r7, #4]
 199 00a4 9B69     		ldr	r3, [r3, #24]
 200 00a6 6E48     		ldr	r0, .L22+24
 201 00a8 9847     		blx	r3
 147:..\..\..\..\PSoC6_101\Sensor/driver_max30102.c ****         
 148:..\..\..\..\PSoC6_101\Sensor/driver_max30102.c ****         return 1;                                                                                  
 202              		.loc 1 148 0
 203 00aa 0123     		movs	r3, #1
 204 00ac C7E0     		b	.L21
 205              	.L11:
 149:..\..\..\..\PSoC6_101\Sensor/driver_max30102.c ****     }
 150:..\..\..\..\PSoC6_101\Sensor/driver_max30102.c ****     res = handle->iic_read(MAX30102_ADDRESS, MAX30102_REG_PART_ID, (uint8_t *)&part_id, 1);        
 206              		.loc 1 150 0
 207 00ae 7B68     		ldr	r3, [r7, #4]
 208 00b0 9C68     		ldr	r4, [r3, #8]
 209 00b2 07F10D02 		add	r2, r7, #13
 210 00b6 0123     		movs	r3, #1
 211 00b8 FF21     		movs	r1, #255
 212 00ba AE20     		movs	r0, #174
 213 00bc A047     		blx	r4
 214 00be 0346     		mov	r3, r0
 215 00c0 FB73     		strb	r3, [r7, #15]
 151:..\..\..\..\PSoC6_101\Sensor/driver_max30102.c ****     if (res != 0)                                                                                  
 216              		.loc 1 151 0
 217 00c2 FB7B     		ldrb	r3, [r7, #15]	@ zero_extendqisi2
 218 00c4 002B     		cmp	r3, #0
 219 00c6 08D0     		beq	.L12
 152:..\..\..\..\PSoC6_101\Sensor/driver_max30102.c ****     {
 153:..\..\..\..\PSoC6_101\Sensor/driver_max30102.c ****         handle->debug_print("max30102: read part id failed.\n");                                   
 220              		.loc 1 153 0
 221 00c8 7B68     		ldr	r3, [r7, #4]
 222 00ca 9B69     		ldr	r3, [r3, #24]
 223 00cc 6548     		ldr	r0, .L22+28
 224 00ce 9847     		blx	r3
 154:..\..\..\..\PSoC6_101\Sensor/driver_max30102.c ****         (void)handle->iic_deinit();                                                                
 225              		.loc 1 154 0
 226 00d0 7B68     		ldr	r3, [r7, #4]
 227 00d2 5B68     		ldr	r3, [r3, #4]
 228 00d4 9847     		blx	r3
 155:..\..\..\..\PSoC6_101\Sensor/driver_max30102.c ****         
 156:..\..\..\..\PSoC6_101\Sensor/driver_max30102.c ****         return 4;                                                                                  
 229              		.loc 1 156 0
 230 00d6 0423     		movs	r3, #4
 231 00d8 B1E0     		b	.L21
 232              	.L12:
 157:..\..\..\..\PSoC6_101\Sensor/driver_max30102.c ****     }
 158:..\..\..\..\PSoC6_101\Sensor/driver_max30102.c ****     if (part_id != 0x15)                                                                           
 233              		.loc 1 158 0
 234 00da 7B7B     		ldrb	r3, [r7, #13]	@ zero_extendqisi2
 235 00dc 152B     		cmp	r3, #21
 236 00de 08D0     		beq	.L13
 159:..\..\..\..\PSoC6_101\Sensor/driver_max30102.c ****     {
 160:..\..\..\..\PSoC6_101\Sensor/driver_max30102.c ****         handle->debug_print("max30102: id is invalid.\n");                                         
ARM GAS  C:\Users\49148\AppData\Local\Temp\ccWN5cWv.s 			page 9


 237              		.loc 1 160 0
 238 00e0 7B68     		ldr	r3, [r7, #4]
 239 00e2 9B69     		ldr	r3, [r3, #24]
 240 00e4 6048     		ldr	r0, .L22+32
 241 00e6 9847     		blx	r3
 161:..\..\..\..\PSoC6_101\Sensor/driver_max30102.c ****         (void)handle->iic_deinit();                                                                
 242              		.loc 1 161 0
 243 00e8 7B68     		ldr	r3, [r7, #4]
 244 00ea 5B68     		ldr	r3, [r3, #4]
 245 00ec 9847     		blx	r3
 162:..\..\..\..\PSoC6_101\Sensor/driver_max30102.c ****         
 163:..\..\..\..\PSoC6_101\Sensor/driver_max30102.c ****         return 4;                                                                                  
 246              		.loc 1 163 0
 247 00ee 0423     		movs	r3, #4
 248 00f0 A5E0     		b	.L21
 249              	.L13:
 164:..\..\..\..\PSoC6_101\Sensor/driver_max30102.c ****     }
 165:..\..\..\..\PSoC6_101\Sensor/driver_max30102.c ****     res = handle->iic_read(MAX30102_ADDRESS, MAX30102_REG_MODE_CONFIG, (uint8_t *)&prev, 1);       
 250              		.loc 1 165 0
 251 00f2 7B68     		ldr	r3, [r7, #4]
 252 00f4 9C68     		ldr	r4, [r3, #8]
 253 00f6 07F10E02 		add	r2, r7, #14
 254 00fa 0123     		movs	r3, #1
 255 00fc 0921     		movs	r1, #9
 256 00fe AE20     		movs	r0, #174
 257 0100 A047     		blx	r4
 258 0102 0346     		mov	r3, r0
 259 0104 FB73     		strb	r3, [r7, #15]
 166:..\..\..\..\PSoC6_101\Sensor/driver_max30102.c ****     if (res != 0)                                                                                  
 260              		.loc 1 166 0
 261 0106 FB7B     		ldrb	r3, [r7, #15]	@ zero_extendqisi2
 262 0108 002B     		cmp	r3, #0
 263 010a 08D0     		beq	.L14
 167:..\..\..\..\PSoC6_101\Sensor/driver_max30102.c ****     {
 168:..\..\..\..\PSoC6_101\Sensor/driver_max30102.c ****         handle->debug_print("max30102: read mode config failed.\n");                               
 264              		.loc 1 168 0
 265 010c 7B68     		ldr	r3, [r7, #4]
 266 010e 9B69     		ldr	r3, [r3, #24]
 267 0110 5648     		ldr	r0, .L22+36
 268 0112 9847     		blx	r3
 169:..\..\..\..\PSoC6_101\Sensor/driver_max30102.c ****         (void)handle->iic_deinit();                                                                
 269              		.loc 1 169 0
 270 0114 7B68     		ldr	r3, [r7, #4]
 271 0116 5B68     		ldr	r3, [r3, #4]
 272 0118 9847     		blx	r3
 170:..\..\..\..\PSoC6_101\Sensor/driver_max30102.c ****         
 171:..\..\..\..\PSoC6_101\Sensor/driver_max30102.c ****         return 5;                                                                                  
 273              		.loc 1 171 0
 274 011a 0523     		movs	r3, #5
 275 011c 8FE0     		b	.L21
 276              	.L14:
 172:..\..\..\..\PSoC6_101\Sensor/driver_max30102.c ****     }
 173:..\..\..\..\PSoC6_101\Sensor/driver_max30102.c ****     prev &= ~(1 << 6);                                                                             
 277              		.loc 1 173 0
 278 011e BB7B     		ldrb	r3, [r7, #14]	@ zero_extendqisi2
 279 0120 23F04003 		bic	r3, r3, #64
 280 0124 DBB2     		uxtb	r3, r3
ARM GAS  C:\Users\49148\AppData\Local\Temp\ccWN5cWv.s 			page 10


 281 0126 BB73     		strb	r3, [r7, #14]
 174:..\..\..\..\PSoC6_101\Sensor/driver_max30102.c ****     prev |= 1 << 6;                                                                                
 282              		.loc 1 174 0
 283 0128 BB7B     		ldrb	r3, [r7, #14]	@ zero_extendqisi2
 284 012a 43F04003 		orr	r3, r3, #64
 285 012e DBB2     		uxtb	r3, r3
 286 0130 BB73     		strb	r3, [r7, #14]
 175:..\..\..\..\PSoC6_101\Sensor/driver_max30102.c ****     res = handle->iic_write(MAX30102_ADDRESS, MAX30102_REG_MODE_CONFIG, (uint8_t *)&prev, 1);      
 287              		.loc 1 175 0
 288 0132 7B68     		ldr	r3, [r7, #4]
 289 0134 DC68     		ldr	r4, [r3, #12]
 290 0136 07F10E02 		add	r2, r7, #14
 291 013a 0123     		movs	r3, #1
 292 013c 0921     		movs	r1, #9
 293 013e AE20     		movs	r0, #174
 294 0140 A047     		blx	r4
 295 0142 0346     		mov	r3, r0
 296 0144 FB73     		strb	r3, [r7, #15]
 176:..\..\..\..\PSoC6_101\Sensor/driver_max30102.c ****     if (res != 0)                                                                                  
 297              		.loc 1 176 0
 298 0146 FB7B     		ldrb	r3, [r7, #15]	@ zero_extendqisi2
 299 0148 002B     		cmp	r3, #0
 300 014a 08D0     		beq	.L15
 177:..\..\..\..\PSoC6_101\Sensor/driver_max30102.c ****     {
 178:..\..\..\..\PSoC6_101\Sensor/driver_max30102.c ****         handle->debug_print("max30102: write mode config failed.\n");                              
 301              		.loc 1 178 0
 302 014c 7B68     		ldr	r3, [r7, #4]
 303 014e 9B69     		ldr	r3, [r3, #24]
 304 0150 4748     		ldr	r0, .L22+40
 305 0152 9847     		blx	r3
 179:..\..\..\..\PSoC6_101\Sensor/driver_max30102.c ****         (void)handle->iic_deinit();                                                                
 306              		.loc 1 179 0
 307 0154 7B68     		ldr	r3, [r7, #4]
 308 0156 5B68     		ldr	r3, [r3, #4]
 309 0158 9847     		blx	r3
 180:..\..\..\..\PSoC6_101\Sensor/driver_max30102.c ****         
 181:..\..\..\..\PSoC6_101\Sensor/driver_max30102.c ****         return 5;                                                                                  
 310              		.loc 1 181 0
 311 015a 0523     		movs	r3, #5
 312 015c 6FE0     		b	.L21
 313              	.L15:
 182:..\..\..\..\PSoC6_101\Sensor/driver_max30102.c ****     }
 183:..\..\..\..\PSoC6_101\Sensor/driver_max30102.c ****     handle->delay_ms(10);                                                                          
 314              		.loc 1 183 0
 315 015e 7B68     		ldr	r3, [r7, #4]
 316 0160 5B69     		ldr	r3, [r3, #20]
 317 0162 0A20     		movs	r0, #10
 318 0164 9847     		blx	r3
 184:..\..\..\..\PSoC6_101\Sensor/driver_max30102.c ****     res = handle->iic_read(MAX30102_ADDRESS, MAX30102_REG_MODE_CONFIG, (uint8_t *)&prev, 1);       
 319              		.loc 1 184 0
 320 0166 7B68     		ldr	r3, [r7, #4]
 321 0168 9C68     		ldr	r4, [r3, #8]
 322 016a 07F10E02 		add	r2, r7, #14
 323 016e 0123     		movs	r3, #1
 324 0170 0921     		movs	r1, #9
 325 0172 AE20     		movs	r0, #174
 326 0174 A047     		blx	r4
ARM GAS  C:\Users\49148\AppData\Local\Temp\ccWN5cWv.s 			page 11


 327 0176 0346     		mov	r3, r0
 328 0178 FB73     		strb	r3, [r7, #15]
 185:..\..\..\..\PSoC6_101\Sensor/driver_max30102.c ****     if (res != 0)                                                                                  
 329              		.loc 1 185 0
 330 017a FB7B     		ldrb	r3, [r7, #15]	@ zero_extendqisi2
 331 017c 002B     		cmp	r3, #0
 332 017e 08D0     		beq	.L16
 186:..\..\..\..\PSoC6_101\Sensor/driver_max30102.c ****     {
 187:..\..\..\..\PSoC6_101\Sensor/driver_max30102.c ****         handle->debug_print("max30102: read mode config failed.\n");                               
 333              		.loc 1 187 0
 334 0180 7B68     		ldr	r3, [r7, #4]
 335 0182 9B69     		ldr	r3, [r3, #24]
 336 0184 3948     		ldr	r0, .L22+36
 337 0186 9847     		blx	r3
 188:..\..\..\..\PSoC6_101\Sensor/driver_max30102.c ****         (void)handle->iic_deinit();                                                                
 338              		.loc 1 188 0
 339 0188 7B68     		ldr	r3, [r7, #4]
 340 018a 5B68     		ldr	r3, [r3, #4]
 341 018c 9847     		blx	r3
 189:..\..\..\..\PSoC6_101\Sensor/driver_max30102.c ****         
 190:..\..\..\..\PSoC6_101\Sensor/driver_max30102.c ****         return 5;                                                                                  
 342              		.loc 1 190 0
 343 018e 0523     		movs	r3, #5
 344 0190 55E0     		b	.L21
 345              	.L16:
 191:..\..\..\..\PSoC6_101\Sensor/driver_max30102.c ****     }
 192:..\..\..\..\PSoC6_101\Sensor/driver_max30102.c ****     if ((prev & (1 << 6)) != 0)                                                                    
 346              		.loc 1 192 0
 347 0192 BB7B     		ldrb	r3, [r7, #14]	@ zero_extendqisi2
 348 0194 03F04003 		and	r3, r3, #64
 349 0198 002B     		cmp	r3, #0
 350 019a 08D0     		beq	.L17
 193:..\..\..\..\PSoC6_101\Sensor/driver_max30102.c ****     {
 194:..\..\..\..\PSoC6_101\Sensor/driver_max30102.c ****         handle->debug_print("max30102: reset failed.\n");                                          
 351              		.loc 1 194 0
 352 019c 7B68     		ldr	r3, [r7, #4]
 353 019e 9B69     		ldr	r3, [r3, #24]
 354 01a0 3448     		ldr	r0, .L22+44
 355 01a2 9847     		blx	r3
 195:..\..\..\..\PSoC6_101\Sensor/driver_max30102.c ****         (void)handle->iic_deinit();                                                                
 356              		.loc 1 195 0
 357 01a4 7B68     		ldr	r3, [r7, #4]
 358 01a6 5B68     		ldr	r3, [r3, #4]
 359 01a8 9847     		blx	r3
 196:..\..\..\..\PSoC6_101\Sensor/driver_max30102.c ****         
 197:..\..\..\..\PSoC6_101\Sensor/driver_max30102.c ****         return 5;                                                                                  
 360              		.loc 1 197 0
 361 01aa 0523     		movs	r3, #5
 362 01ac 47E0     		b	.L21
 363              	.L17:
 198:..\..\..\..\PSoC6_101\Sensor/driver_max30102.c ****     }
 199:..\..\..\..\PSoC6_101\Sensor/driver_max30102.c ****     prev = 0;                                                                                      
 364              		.loc 1 199 0
 365 01ae 0023     		movs	r3, #0
 366 01b0 BB73     		strb	r3, [r7, #14]
 200:..\..\..\..\PSoC6_101\Sensor/driver_max30102.c ****     res = handle->iic_write(MAX30102_ADDRESS, MAX30102_REG_FIFO_READ_POINTER, (uint8_t *)&prev, 1);
 367              		.loc 1 200 0
ARM GAS  C:\Users\49148\AppData\Local\Temp\ccWN5cWv.s 			page 12


 368 01b2 7B68     		ldr	r3, [r7, #4]
 369 01b4 DC68     		ldr	r4, [r3, #12]
 370 01b6 07F10E02 		add	r2, r7, #14
 371 01ba 0123     		movs	r3, #1
 372 01bc 0621     		movs	r1, #6
 373 01be AE20     		movs	r0, #174
 374 01c0 A047     		blx	r4
 375 01c2 0346     		mov	r3, r0
 376 01c4 FB73     		strb	r3, [r7, #15]
 201:..\..\..\..\PSoC6_101\Sensor/driver_max30102.c ****     if (res != 0)                                                                                  
 377              		.loc 1 201 0
 378 01c6 FB7B     		ldrb	r3, [r7, #15]	@ zero_extendqisi2
 379 01c8 002B     		cmp	r3, #0
 380 01ca 08D0     		beq	.L18
 202:..\..\..\..\PSoC6_101\Sensor/driver_max30102.c ****     {
 203:..\..\..\..\PSoC6_101\Sensor/driver_max30102.c ****         handle->debug_print("max30102: write fifo read pointer failed.\n");                        
 381              		.loc 1 203 0
 382 01cc 7B68     		ldr	r3, [r7, #4]
 383 01ce 9B69     		ldr	r3, [r3, #24]
 384 01d0 2948     		ldr	r0, .L22+48
 385 01d2 9847     		blx	r3
 204:..\..\..\..\PSoC6_101\Sensor/driver_max30102.c ****         (void)handle->iic_deinit();                                                                
 386              		.loc 1 204 0
 387 01d4 7B68     		ldr	r3, [r7, #4]
 388 01d6 5B68     		ldr	r3, [r3, #4]
 389 01d8 9847     		blx	r3
 205:..\..\..\..\PSoC6_101\Sensor/driver_max30102.c ****         
 206:..\..\..\..\PSoC6_101\Sensor/driver_max30102.c ****         return 6;                                                                                  
 390              		.loc 1 206 0
 391 01da 0623     		movs	r3, #6
 392 01dc 2FE0     		b	.L21
 393              	.L18:
 207:..\..\..\..\PSoC6_101\Sensor/driver_max30102.c ****     }
 208:..\..\..\..\PSoC6_101\Sensor/driver_max30102.c ****     res = handle->iic_write(MAX30102_ADDRESS, MAX30102_REG_FIFO_WRITE_POINTER, (uint8_t *)&prev, 1)
 394              		.loc 1 208 0
 395 01de 7B68     		ldr	r3, [r7, #4]
 396 01e0 DC68     		ldr	r4, [r3, #12]
 397 01e2 07F10E02 		add	r2, r7, #14
 398 01e6 0123     		movs	r3, #1
 399 01e8 0421     		movs	r1, #4
 400 01ea AE20     		movs	r0, #174
 401 01ec A047     		blx	r4
 402 01ee 0346     		mov	r3, r0
 403 01f0 FB73     		strb	r3, [r7, #15]
 209:..\..\..\..\PSoC6_101\Sensor/driver_max30102.c ****     if (res != 0)                                                                                  
 404              		.loc 1 209 0
 405 01f2 FB7B     		ldrb	r3, [r7, #15]	@ zero_extendqisi2
 406 01f4 002B     		cmp	r3, #0
 407 01f6 08D0     		beq	.L19
 210:..\..\..\..\PSoC6_101\Sensor/driver_max30102.c ****     {
 211:..\..\..\..\PSoC6_101\Sensor/driver_max30102.c ****         handle->debug_print("max30102: write fifo write pointer failed.\n");                       
 408              		.loc 1 211 0
 409 01f8 7B68     		ldr	r3, [r7, #4]
 410 01fa 9B69     		ldr	r3, [r3, #24]
 411 01fc 1F48     		ldr	r0, .L22+52
 412 01fe 9847     		blx	r3
 212:..\..\..\..\PSoC6_101\Sensor/driver_max30102.c ****         (void)handle->iic_deinit();                                                                
ARM GAS  C:\Users\49148\AppData\Local\Temp\ccWN5cWv.s 			page 13


 413              		.loc 1 212 0
 414 0200 7B68     		ldr	r3, [r7, #4]
 415 0202 5B68     		ldr	r3, [r3, #4]
 416 0204 9847     		blx	r3
 213:..\..\..\..\PSoC6_101\Sensor/driver_max30102.c ****         
 214:..\..\..\..\PSoC6_101\Sensor/driver_max30102.c ****         return 6;                                                                                  
 417              		.loc 1 214 0
 418 0206 0623     		movs	r3, #6
 419 0208 19E0     		b	.L21
 420              	.L19:
 215:..\..\..\..\PSoC6_101\Sensor/driver_max30102.c ****     }
 216:..\..\..\..\PSoC6_101\Sensor/driver_max30102.c ****     res = handle->iic_write(MAX30102_ADDRESS, MAX30102_REG_OVERFLOW_COUNTER, (uint8_t *)&prev, 1); 
 421              		.loc 1 216 0
 422 020a 7B68     		ldr	r3, [r7, #4]
 423 020c DC68     		ldr	r4, [r3, #12]
 424 020e 07F10E02 		add	r2, r7, #14
 425 0212 0123     		movs	r3, #1
 426 0214 0521     		movs	r1, #5
 427 0216 AE20     		movs	r0, #174
 428 0218 A047     		blx	r4
 429 021a 0346     		mov	r3, r0
 430 021c FB73     		strb	r3, [r7, #15]
 217:..\..\..\..\PSoC6_101\Sensor/driver_max30102.c ****     if (res != 0)                                                                                  
 431              		.loc 1 217 0
 432 021e FB7B     		ldrb	r3, [r7, #15]	@ zero_extendqisi2
 433 0220 002B     		cmp	r3, #0
 434 0222 08D0     		beq	.L20
 218:..\..\..\..\PSoC6_101\Sensor/driver_max30102.c ****     {
 219:..\..\..\..\PSoC6_101\Sensor/driver_max30102.c ****         handle->debug_print("max30102: write overflow counter failed.\n");                         
 435              		.loc 1 219 0
 436 0224 7B68     		ldr	r3, [r7, #4]
 437 0226 9B69     		ldr	r3, [r3, #24]
 438 0228 1548     		ldr	r0, .L22+56
 439 022a 9847     		blx	r3
 220:..\..\..\..\PSoC6_101\Sensor/driver_max30102.c ****         (void)handle->iic_deinit();                                                                
 440              		.loc 1 220 0
 441 022c 7B68     		ldr	r3, [r7, #4]
 442 022e 5B68     		ldr	r3, [r3, #4]
 443 0230 9847     		blx	r3
 221:..\..\..\..\PSoC6_101\Sensor/driver_max30102.c ****         
 222:..\..\..\..\PSoC6_101\Sensor/driver_max30102.c ****         return 6;                                                                                  
 444              		.loc 1 222 0
 445 0232 0623     		movs	r3, #6
 446 0234 03E0     		b	.L21
 447              	.L20:
 223:..\..\..\..\PSoC6_101\Sensor/driver_max30102.c ****     }
 224:..\..\..\..\PSoC6_101\Sensor/driver_max30102.c ****     handle->inited = 1;                                                                            
 448              		.loc 1 224 0
 449 0236 7B68     		ldr	r3, [r7, #4]
 450 0238 0122     		movs	r2, #1
 451 023a 1A77     		strb	r2, [r3, #28]
 225:..\..\..\..\PSoC6_101\Sensor/driver_max30102.c ****     
 226:..\..\..\..\PSoC6_101\Sensor/driver_max30102.c ****     return 0;                                                                                      
 452              		.loc 1 226 0
 453 023c 0023     		movs	r3, #0
 454              	.L21:
 227:..\..\..\..\PSoC6_101\Sensor/driver_max30102.c **** }
ARM GAS  C:\Users\49148\AppData\Local\Temp\ccWN5cWv.s 			page 14


 455              		.loc 1 227 0 discriminator 1
 456 023e 1846     		mov	r0, r3
 457 0240 1437     		adds	r7, r7, #20
 458              		.cfi_def_cfa_offset 12
 459 0242 BD46     		mov	sp, r7
 460              		.cfi_def_cfa_register 13
 461              		@ sp needed
 462 0244 90BD     		pop	{r4, r7, pc}
 463              	.L23:
 464 0246 00BF     		.align	2
 465              	.L22:
 466 0248 00000000 		.word	.LC0
 467 024c 20000000 		.word	.LC1
 468 0250 40000000 		.word	.LC2
 469 0254 60000000 		.word	.LC3
 470 0258 80000000 		.word	.LC4
 471 025c A8000000 		.word	.LC5
 472 0260 C8000000 		.word	.LC6
 473 0264 E4000000 		.word	.LC7
 474 0268 04010000 		.word	.LC8
 475 026c 20010000 		.word	.LC9
 476 0270 44010000 		.word	.LC10
 477 0274 6C010000 		.word	.LC11
 478 0278 88010000 		.word	.LC12
 479 027c B4010000 		.word	.LC13
 480 0280 E0010000 		.word	.LC14
 481              		.cfi_endproc
 482              	.LFE1:
 483              		.size	max30102_init, .-max30102_init
 484              		.section	.rodata
 485 020a 0000     		.align	2
 486              	.LC15:
 487 020c 6D617833 		.ascii	"max30102: iic deinit failed.\012\000"
 487      30313032 
 487      3A206969 
 487      63206465 
 487      696E6974 
 488              		.section	.text.max30102_deinit,"ax",%progbits
 489              		.align	2
 490              		.global	max30102_deinit
 491              		.thumb
 492              		.thumb_func
 493              		.type	max30102_deinit, %function
 494              	max30102_deinit:
 495              	.LFB2:
 228:..\..\..\..\PSoC6_101\Sensor/driver_max30102.c **** 
 229:..\..\..\..\PSoC6_101\Sensor/driver_max30102.c **** /**
 230:..\..\..\..\PSoC6_101\Sensor/driver_max30102.c ****  * @brief     close the chip
 231:..\..\..\..\PSoC6_101\Sensor/driver_max30102.c ****  * @param[in] *handle points to a max30102 handle structure
 232:..\..\..\..\PSoC6_101\Sensor/driver_max30102.c ****  * @return    status code
 233:..\..\..\..\PSoC6_101\Sensor/driver_max30102.c ****  *            - 0 success
 234:..\..\..\..\PSoC6_101\Sensor/driver_max30102.c ****  *            - 1 iic deinit failed
 235:..\..\..\..\PSoC6_101\Sensor/driver_max30102.c ****  *            - 2 handle is NULL
 236:..\..\..\..\PSoC6_101\Sensor/driver_max30102.c ****  *            - 3 handle is not initialized
 237:..\..\..\..\PSoC6_101\Sensor/driver_max30102.c ****  *            - 4 power down failed
 238:..\..\..\..\PSoC6_101\Sensor/driver_max30102.c ****  * @note      none
 239:..\..\..\..\PSoC6_101\Sensor/driver_max30102.c ****  */
ARM GAS  C:\Users\49148\AppData\Local\Temp\ccWN5cWv.s 			page 15


 240:..\..\..\..\PSoC6_101\Sensor/driver_max30102.c **** uint8_t max30102_deinit(max30102_handle_t *handle)
 241:..\..\..\..\PSoC6_101\Sensor/driver_max30102.c **** {
 496              		.loc 1 241 0
 497              		.cfi_startproc
 498              		@ args = 0, pretend = 0, frame = 16
 499              		@ frame_needed = 1, uses_anonymous_args = 0
 500 0000 90B5     		push	{r4, r7, lr}
 501              		.cfi_def_cfa_offset 12
 502              		.cfi_offset 4, -12
 503              		.cfi_offset 7, -8
 504              		.cfi_offset 14, -4
 505 0002 85B0     		sub	sp, sp, #20
 506              		.cfi_def_cfa_offset 32
 507 0004 00AF     		add	r7, sp, #0
 508              		.cfi_def_cfa_register 7
 509 0006 7860     		str	r0, [r7, #4]
 242:..\..\..\..\PSoC6_101\Sensor/driver_max30102.c ****     uint8_t res;
 243:..\..\..\..\PSoC6_101\Sensor/driver_max30102.c ****     uint8_t prev;
 244:..\..\..\..\PSoC6_101\Sensor/driver_max30102.c ****     
 245:..\..\..\..\PSoC6_101\Sensor/driver_max30102.c ****     if (handle == NULL)                                                                            
 510              		.loc 1 245 0
 511 0008 7B68     		ldr	r3, [r7, #4]
 512 000a 002B     		cmp	r3, #0
 513 000c 01D1     		bne	.L25
 246:..\..\..\..\PSoC6_101\Sensor/driver_max30102.c ****     {
 247:..\..\..\..\PSoC6_101\Sensor/driver_max30102.c ****         return 2;                                                                                  
 514              		.loc 1 247 0
 515 000e 0223     		movs	r3, #2
 516 0010 45E0     		b	.L31
 517              	.L25:
 248:..\..\..\..\PSoC6_101\Sensor/driver_max30102.c ****     }
 249:..\..\..\..\PSoC6_101\Sensor/driver_max30102.c ****     if (handle->inited != 1)                                                                       
 518              		.loc 1 249 0
 519 0012 7B68     		ldr	r3, [r7, #4]
 520 0014 1B7F     		ldrb	r3, [r3, #28]	@ zero_extendqisi2
 521 0016 012B     		cmp	r3, #1
 522 0018 01D0     		beq	.L27
 250:..\..\..\..\PSoC6_101\Sensor/driver_max30102.c ****     {
 251:..\..\..\..\PSoC6_101\Sensor/driver_max30102.c ****         return 3;                                                                                  
 523              		.loc 1 251 0
 524 001a 0323     		movs	r3, #3
 525 001c 3FE0     		b	.L31
 526              	.L27:
 252:..\..\..\..\PSoC6_101\Sensor/driver_max30102.c ****     }
 253:..\..\..\..\PSoC6_101\Sensor/driver_max30102.c ****     
 254:..\..\..\..\PSoC6_101\Sensor/driver_max30102.c ****     res = handle->iic_read(MAX30102_ADDRESS, MAX30102_REG_MODE_CONFIG, (uint8_t *)&prev, 1);       
 527              		.loc 1 254 0
 528 001e 7B68     		ldr	r3, [r7, #4]
 529 0020 9C68     		ldr	r4, [r3, #8]
 530 0022 07F10E02 		add	r2, r7, #14
 531 0026 0123     		movs	r3, #1
 532 0028 0921     		movs	r1, #9
 533 002a AE20     		movs	r0, #174
 534 002c A047     		blx	r4
 535 002e 0346     		mov	r3, r0
 536 0030 FB73     		strb	r3, [r7, #15]
 255:..\..\..\..\PSoC6_101\Sensor/driver_max30102.c ****     if (res != 0)                                                                                  
ARM GAS  C:\Users\49148\AppData\Local\Temp\ccWN5cWv.s 			page 16


 537              		.loc 1 255 0
 538 0032 FB7B     		ldrb	r3, [r7, #15]	@ zero_extendqisi2
 539 0034 002B     		cmp	r3, #0
 540 0036 05D0     		beq	.L28
 256:..\..\..\..\PSoC6_101\Sensor/driver_max30102.c ****     {
 257:..\..\..\..\PSoC6_101\Sensor/driver_max30102.c ****         handle->debug_print("max30102: read mode config failed.\n");                               
 541              		.loc 1 257 0
 542 0038 7B68     		ldr	r3, [r7, #4]
 543 003a 9B69     		ldr	r3, [r3, #24]
 544 003c 1A48     		ldr	r0, .L32
 545 003e 9847     		blx	r3
 258:..\..\..\..\PSoC6_101\Sensor/driver_max30102.c ****        
 259:..\..\..\..\PSoC6_101\Sensor/driver_max30102.c ****         return 4;                                                                                  
 546              		.loc 1 259 0
 547 0040 0423     		movs	r3, #4
 548 0042 2CE0     		b	.L31
 549              	.L28:
 260:..\..\..\..\PSoC6_101\Sensor/driver_max30102.c ****     }
 261:..\..\..\..\PSoC6_101\Sensor/driver_max30102.c ****     prev &= ~(1 << 7);                                                                             
 550              		.loc 1 261 0
 551 0044 BB7B     		ldrb	r3, [r7, #14]	@ zero_extendqisi2
 552 0046 03F07F03 		and	r3, r3, #127
 553 004a DBB2     		uxtb	r3, r3
 554 004c BB73     		strb	r3, [r7, #14]
 262:..\..\..\..\PSoC6_101\Sensor/driver_max30102.c ****     prev |= 1 << 7;                                                                                
 555              		.loc 1 262 0
 556 004e BB7B     		ldrb	r3, [r7, #14]	@ zero_extendqisi2
 557 0050 63F07F03 		orn	r3, r3, #127
 558 0054 DBB2     		uxtb	r3, r3
 559 0056 BB73     		strb	r3, [r7, #14]
 263:..\..\..\..\PSoC6_101\Sensor/driver_max30102.c ****     res = handle->iic_write(MAX30102_ADDRESS, MAX30102_REG_MODE_CONFIG, (uint8_t *)&prev, 1);      
 560              		.loc 1 263 0
 561 0058 7B68     		ldr	r3, [r7, #4]
 562 005a DC68     		ldr	r4, [r3, #12]
 563 005c 07F10E02 		add	r2, r7, #14
 564 0060 0123     		movs	r3, #1
 565 0062 0921     		movs	r1, #9
 566 0064 AE20     		movs	r0, #174
 567 0066 A047     		blx	r4
 568 0068 0346     		mov	r3, r0
 569 006a FB73     		strb	r3, [r7, #15]
 264:..\..\..\..\PSoC6_101\Sensor/driver_max30102.c ****     if (res != 0)                                                                                  
 570              		.loc 1 264 0
 571 006c FB7B     		ldrb	r3, [r7, #15]	@ zero_extendqisi2
 572 006e 002B     		cmp	r3, #0
 573 0070 05D0     		beq	.L29
 265:..\..\..\..\PSoC6_101\Sensor/driver_max30102.c ****     {
 266:..\..\..\..\PSoC6_101\Sensor/driver_max30102.c ****         handle->debug_print("max30102: write mode config failed.\n");                              
 574              		.loc 1 266 0
 575 0072 7B68     		ldr	r3, [r7, #4]
 576 0074 9B69     		ldr	r3, [r3, #24]
 577 0076 0D48     		ldr	r0, .L32+4
 578 0078 9847     		blx	r3
 267:..\..\..\..\PSoC6_101\Sensor/driver_max30102.c ****        
 268:..\..\..\..\PSoC6_101\Sensor/driver_max30102.c ****         return 4;                                                                                  
 579              		.loc 1 268 0
 580 007a 0423     		movs	r3, #4
ARM GAS  C:\Users\49148\AppData\Local\Temp\ccWN5cWv.s 			page 17


 581 007c 0FE0     		b	.L31
 582              	.L29:
 269:..\..\..\..\PSoC6_101\Sensor/driver_max30102.c ****     }
 270:..\..\..\..\PSoC6_101\Sensor/driver_max30102.c ****     if (handle->iic_deinit() != 0)                                                                 
 583              		.loc 1 270 0
 584 007e 7B68     		ldr	r3, [r7, #4]
 585 0080 5B68     		ldr	r3, [r3, #4]
 586 0082 9847     		blx	r3
 587 0084 0346     		mov	r3, r0
 588 0086 002B     		cmp	r3, #0
 589 0088 05D0     		beq	.L30
 271:..\..\..\..\PSoC6_101\Sensor/driver_max30102.c ****     {
 272:..\..\..\..\PSoC6_101\Sensor/driver_max30102.c ****         handle->debug_print("max30102: iic deinit failed.\n");                                     
 590              		.loc 1 272 0
 591 008a 7B68     		ldr	r3, [r7, #4]
 592 008c 9B69     		ldr	r3, [r3, #24]
 593 008e 0848     		ldr	r0, .L32+8
 594 0090 9847     		blx	r3
 273:..\..\..\..\PSoC6_101\Sensor/driver_max30102.c ****         
 274:..\..\..\..\PSoC6_101\Sensor/driver_max30102.c ****         return 1;                                                                                  
 595              		.loc 1 274 0
 596 0092 0123     		movs	r3, #1
 597 0094 03E0     		b	.L31
 598              	.L30:
 275:..\..\..\..\PSoC6_101\Sensor/driver_max30102.c ****     }
 276:..\..\..\..\PSoC6_101\Sensor/driver_max30102.c ****     
 277:..\..\..\..\PSoC6_101\Sensor/driver_max30102.c ****     handle->inited = 0;                                                                            
 599              		.loc 1 277 0
 600 0096 7B68     		ldr	r3, [r7, #4]
 601 0098 0022     		movs	r2, #0
 602 009a 1A77     		strb	r2, [r3, #28]
 278:..\..\..\..\PSoC6_101\Sensor/driver_max30102.c ****     
 279:..\..\..\..\PSoC6_101\Sensor/driver_max30102.c ****     return 0;                                                                                      
 603              		.loc 1 279 0
 604 009c 0023     		movs	r3, #0
 605              	.L31:
 280:..\..\..\..\PSoC6_101\Sensor/driver_max30102.c **** }
 606              		.loc 1 280 0 discriminator 1
 607 009e 1846     		mov	r0, r3
 608 00a0 1437     		adds	r7, r7, #20
 609              		.cfi_def_cfa_offset 12
 610 00a2 BD46     		mov	sp, r7
 611              		.cfi_def_cfa_register 13
 612              		@ sp needed
 613 00a4 90BD     		pop	{r4, r7, pc}
 614              	.L33:
 615 00a6 00BF     		.align	2
 616              	.L32:
 617 00a8 20010000 		.word	.LC9
 618 00ac 44010000 		.word	.LC10
 619 00b0 0C020000 		.word	.LC15
 620              		.cfi_endproc
 621              	.LFE2:
 622              		.size	max30102_deinit, .-max30102_deinit
 623              		.section	.rodata
 624 022a 0000     		.align	2
 625              	.LC16:
ARM GAS  C:\Users\49148\AppData\Local\Temp\ccWN5cWv.s 			page 18


 626 022c 6D617833 		.ascii	"max30102: read interrupt status1 failed.\012\000"
 626      30313032 
 626      3A207265 
 626      61642069 
 626      6E746572 
 627 0256 0000     		.align	2
 628              	.LC17:
 629 0258 6D617833 		.ascii	"max30102: read interrupt status2 failed.\012\000"
 629      30313032 
 629      3A207265 
 629      61642069 
 629      6E746572 
 630 0282 0000     		.align	2
 631              	.LC18:
 632 0284 6D617833 		.ascii	"max30102: read die temp integer failed.\012\000"
 632      30313032 
 632      3A207265 
 632      61642064 
 632      69652074 
 633 02ad 000000   		.align	2
 634              	.LC19:
 635 02b0 6D617833 		.ascii	"max30102: read die temp fraction failed.\012\000"
 635      30313032 
 635      3A207265 
 635      61642064 
 635      69652074 
 636              		.section	.text.max30102_irq_handler,"ax",%progbits
 637              		.align	2
 638              		.global	max30102_irq_handler
 639              		.thumb
 640              		.thumb_func
 641              		.type	max30102_irq_handler, %function
 642              	max30102_irq_handler:
 643              	.LFB3:
 281:..\..\..\..\PSoC6_101\Sensor/driver_max30102.c **** 
 282:..\..\..\..\PSoC6_101\Sensor/driver_max30102.c **** /**
 283:..\..\..\..\PSoC6_101\Sensor/driver_max30102.c ****  * @brief     irq handler
 284:..\..\..\..\PSoC6_101\Sensor/driver_max30102.c ****  * @param[in] *handle points to a max30102 handle structure
 285:..\..\..\..\PSoC6_101\Sensor/driver_max30102.c ****  * @return    status code
 286:..\..\..\..\PSoC6_101\Sensor/driver_max30102.c ****  *            - 0 success
 287:..\..\..\..\PSoC6_101\Sensor/driver_max30102.c ****  *            - 1 run failed
 288:..\..\..\..\PSoC6_101\Sensor/driver_max30102.c ****  *            - 2 handle is NULL
 289:..\..\..\..\PSoC6_101\Sensor/driver_max30102.c ****  *            - 3 handle is not initialized
 290:..\..\..\..\PSoC6_101\Sensor/driver_max30102.c ****  * @note      none
 291:..\..\..\..\PSoC6_101\Sensor/driver_max30102.c ****  */
 292:..\..\..\..\PSoC6_101\Sensor/driver_max30102.c **** uint8_t max30102_irq_handler(max30102_handle_t *handle)
 293:..\..\..\..\PSoC6_101\Sensor/driver_max30102.c **** {
 644              		.loc 1 293 0
 645              		.cfi_startproc
 646              		@ args = 0, pretend = 0, frame = 16
 647              		@ frame_needed = 1, uses_anonymous_args = 0
 648 0000 90B5     		push	{r4, r7, lr}
 649              		.cfi_def_cfa_offset 12
 650              		.cfi_offset 4, -12
 651              		.cfi_offset 7, -8
 652              		.cfi_offset 14, -4
 653 0002 85B0     		sub	sp, sp, #20
ARM GAS  C:\Users\49148\AppData\Local\Temp\ccWN5cWv.s 			page 19


 654              		.cfi_def_cfa_offset 32
 655 0004 00AF     		add	r7, sp, #0
 656              		.cfi_def_cfa_register 7
 657 0006 7860     		str	r0, [r7, #4]
 294:..\..\..\..\PSoC6_101\Sensor/driver_max30102.c ****     uint8_t res;
 295:..\..\..\..\PSoC6_101\Sensor/driver_max30102.c ****     uint8_t prev;
 296:..\..\..\..\PSoC6_101\Sensor/driver_max30102.c ****     
 297:..\..\..\..\PSoC6_101\Sensor/driver_max30102.c ****     if (handle == NULL)                                                                            
 658              		.loc 1 297 0
 659 0008 7B68     		ldr	r3, [r7, #4]
 660 000a 002B     		cmp	r3, #0
 661 000c 01D1     		bne	.L35
 298:..\..\..\..\PSoC6_101\Sensor/driver_max30102.c ****     {
 299:..\..\..\..\PSoC6_101\Sensor/driver_max30102.c ****         return 2;                                                                                  
 662              		.loc 1 299 0
 663 000e 0223     		movs	r3, #2
 664 0010 B6E0     		b	.L49
 665              	.L35:
 300:..\..\..\..\PSoC6_101\Sensor/driver_max30102.c ****     }
 301:..\..\..\..\PSoC6_101\Sensor/driver_max30102.c ****     if (handle->inited != 1)                                                                       
 666              		.loc 1 301 0
 667 0012 7B68     		ldr	r3, [r7, #4]
 668 0014 1B7F     		ldrb	r3, [r3, #28]	@ zero_extendqisi2
 669 0016 012B     		cmp	r3, #1
 670 0018 01D0     		beq	.L37
 302:..\..\..\..\PSoC6_101\Sensor/driver_max30102.c ****     {
 303:..\..\..\..\PSoC6_101\Sensor/driver_max30102.c ****         return 3;                                                                                  
 671              		.loc 1 303 0
 672 001a 0323     		movs	r3, #3
 673 001c B0E0     		b	.L49
 674              	.L37:
 304:..\..\..\..\PSoC6_101\Sensor/driver_max30102.c ****     }
 305:..\..\..\..\PSoC6_101\Sensor/driver_max30102.c ****     
 306:..\..\..\..\PSoC6_101\Sensor/driver_max30102.c ****     res = handle->iic_read(MAX30102_ADDRESS, MAX30102_REG_INTERRUPT_STATUS_1, (uint8_t *)&prev, 1);
 675              		.loc 1 306 0
 676 001e 7B68     		ldr	r3, [r7, #4]
 677 0020 9C68     		ldr	r4, [r3, #8]
 678 0022 07F10E02 		add	r2, r7, #14
 679 0026 0123     		movs	r3, #1
 680 0028 0021     		movs	r1, #0
 681 002a AE20     		movs	r0, #174
 682 002c A047     		blx	r4
 683 002e 0346     		mov	r3, r0
 684 0030 FB73     		strb	r3, [r7, #15]
 307:..\..\..\..\PSoC6_101\Sensor/driver_max30102.c ****     if (res != 0)                                                                                  
 685              		.loc 1 307 0
 686 0032 FB7B     		ldrb	r3, [r7, #15]	@ zero_extendqisi2
 687 0034 002B     		cmp	r3, #0
 688 0036 05D0     		beq	.L38
 308:..\..\..\..\PSoC6_101\Sensor/driver_max30102.c ****     {
 309:..\..\..\..\PSoC6_101\Sensor/driver_max30102.c ****         handle->debug_print("max30102: read interrupt status1 failed.\n");                         
 689              		.loc 1 309 0
 690 0038 7B68     		ldr	r3, [r7, #4]
 691 003a 9B69     		ldr	r3, [r3, #24]
 692 003c 5248     		ldr	r0, .L50
 693 003e 9847     		blx	r3
 310:..\..\..\..\PSoC6_101\Sensor/driver_max30102.c ****        
ARM GAS  C:\Users\49148\AppData\Local\Temp\ccWN5cWv.s 			page 20


 311:..\..\..\..\PSoC6_101\Sensor/driver_max30102.c ****         return 1;                                                                                  
 694              		.loc 1 311 0
 695 0040 0123     		movs	r3, #1
 696 0042 9DE0     		b	.L49
 697              	.L38:
 312:..\..\..\..\PSoC6_101\Sensor/driver_max30102.c ****     }
 313:..\..\..\..\PSoC6_101\Sensor/driver_max30102.c ****     if ((prev & (1 << MAX30102_INTERRUPT_STATUS_FIFO_FULL)) != 0)                                  
 698              		.loc 1 313 0
 699 0044 BB7B     		ldrb	r3, [r7, #14]	@ zero_extendqisi2
 700 0046 5BB2     		sxtb	r3, r3
 701 0048 002B     		cmp	r3, #0
 702 004a 07DA     		bge	.L39
 314:..\..\..\..\PSoC6_101\Sensor/driver_max30102.c ****     {
 315:..\..\..\..\PSoC6_101\Sensor/driver_max30102.c ****         if (handle->receive_callback != NULL)                                                      
 703              		.loc 1 315 0
 704 004c 7B68     		ldr	r3, [r7, #4]
 705 004e 1B69     		ldr	r3, [r3, #16]
 706 0050 002B     		cmp	r3, #0
 707 0052 03D0     		beq	.L39
 316:..\..\..\..\PSoC6_101\Sensor/driver_max30102.c ****         {
 317:..\..\..\..\PSoC6_101\Sensor/driver_max30102.c ****             handle->receive_callback(MAX30102_INTERRUPT_STATUS_FIFO_FULL);                         
 708              		.loc 1 317 0
 709 0054 7B68     		ldr	r3, [r7, #4]
 710 0056 1B69     		ldr	r3, [r3, #16]
 711 0058 0720     		movs	r0, #7
 712 005a 9847     		blx	r3
 713              	.L39:
 318:..\..\..\..\PSoC6_101\Sensor/driver_max30102.c ****         }
 319:..\..\..\..\PSoC6_101\Sensor/driver_max30102.c ****     }
 320:..\..\..\..\PSoC6_101\Sensor/driver_max30102.c ****     if ((prev & (1 << MAX30102_INTERRUPT_STATUS_PPG_RDY)) != 0)                                    
 714              		.loc 1 320 0
 715 005c BB7B     		ldrb	r3, [r7, #14]	@ zero_extendqisi2
 716 005e 03F04003 		and	r3, r3, #64
 717 0062 002B     		cmp	r3, #0
 718 0064 07D0     		beq	.L40
 321:..\..\..\..\PSoC6_101\Sensor/driver_max30102.c ****     {
 322:..\..\..\..\PSoC6_101\Sensor/driver_max30102.c ****         if (handle->receive_callback != NULL)                                                      
 719              		.loc 1 322 0
 720 0066 7B68     		ldr	r3, [r7, #4]
 721 0068 1B69     		ldr	r3, [r3, #16]
 722 006a 002B     		cmp	r3, #0
 723 006c 03D0     		beq	.L40
 323:..\..\..\..\PSoC6_101\Sensor/driver_max30102.c ****         {
 324:..\..\..\..\PSoC6_101\Sensor/driver_max30102.c ****             handle->receive_callback(MAX30102_INTERRUPT_STATUS_PPG_RDY);                           
 724              		.loc 1 324 0
 725 006e 7B68     		ldr	r3, [r7, #4]
 726 0070 1B69     		ldr	r3, [r3, #16]
 727 0072 0620     		movs	r0, #6
 728 0074 9847     		blx	r3
 729              	.L40:
 325:..\..\..\..\PSoC6_101\Sensor/driver_max30102.c ****         }
 326:..\..\..\..\PSoC6_101\Sensor/driver_max30102.c ****     }
 327:..\..\..\..\PSoC6_101\Sensor/driver_max30102.c ****     if ((prev & (1 << MAX30102_INTERRUPT_STATUS_ALC_OVF)) != 0)                                    
 730              		.loc 1 327 0
 731 0076 BB7B     		ldrb	r3, [r7, #14]	@ zero_extendqisi2
 732 0078 03F02003 		and	r3, r3, #32
 733 007c 002B     		cmp	r3, #0
ARM GAS  C:\Users\49148\AppData\Local\Temp\ccWN5cWv.s 			page 21


 734 007e 07D0     		beq	.L41
 328:..\..\..\..\PSoC6_101\Sensor/driver_max30102.c ****     {
 329:..\..\..\..\PSoC6_101\Sensor/driver_max30102.c ****         if (handle->receive_callback != NULL)                                                      
 735              		.loc 1 329 0
 736 0080 7B68     		ldr	r3, [r7, #4]
 737 0082 1B69     		ldr	r3, [r3, #16]
 738 0084 002B     		cmp	r3, #0
 739 0086 03D0     		beq	.L41
 330:..\..\..\..\PSoC6_101\Sensor/driver_max30102.c ****         {
 331:..\..\..\..\PSoC6_101\Sensor/driver_max30102.c ****             handle->receive_callback(MAX30102_INTERRUPT_STATUS_ALC_OVF);                           
 740              		.loc 1 331 0
 741 0088 7B68     		ldr	r3, [r7, #4]
 742 008a 1B69     		ldr	r3, [r3, #16]
 743 008c 0520     		movs	r0, #5
 744 008e 9847     		blx	r3
 745              	.L41:
 332:..\..\..\..\PSoC6_101\Sensor/driver_max30102.c ****         }
 333:..\..\..\..\PSoC6_101\Sensor/driver_max30102.c ****     }
 334:..\..\..\..\PSoC6_101\Sensor/driver_max30102.c ****     if ((prev & (1 << MAX30102_INTERRUPT_STATUS_PWR_RDY)) != 0)                                    
 746              		.loc 1 334 0
 747 0090 BB7B     		ldrb	r3, [r7, #14]	@ zero_extendqisi2
 748 0092 03F00103 		and	r3, r3, #1
 749 0096 002B     		cmp	r3, #0
 750 0098 07D0     		beq	.L42
 335:..\..\..\..\PSoC6_101\Sensor/driver_max30102.c ****     {
 336:..\..\..\..\PSoC6_101\Sensor/driver_max30102.c ****         if (handle->receive_callback != NULL)                                                      
 751              		.loc 1 336 0
 752 009a 7B68     		ldr	r3, [r7, #4]
 753 009c 1B69     		ldr	r3, [r3, #16]
 754 009e 002B     		cmp	r3, #0
 755 00a0 03D0     		beq	.L42
 337:..\..\..\..\PSoC6_101\Sensor/driver_max30102.c ****         {
 338:..\..\..\..\PSoC6_101\Sensor/driver_max30102.c ****             handle->receive_callback(MAX30102_INTERRUPT_STATUS_PWR_RDY);                           
 756              		.loc 1 338 0
 757 00a2 7B68     		ldr	r3, [r7, #4]
 758 00a4 1B69     		ldr	r3, [r3, #16]
 759 00a6 0020     		movs	r0, #0
 760 00a8 9847     		blx	r3
 761              	.L42:
 339:..\..\..\..\PSoC6_101\Sensor/driver_max30102.c ****         }
 340:..\..\..\..\PSoC6_101\Sensor/driver_max30102.c ****     }
 341:..\..\..\..\PSoC6_101\Sensor/driver_max30102.c ****     res = handle->iic_read(MAX30102_ADDRESS, MAX30102_REG_INTERRUPT_STATUS_2, (uint8_t *)&prev, 1);
 762              		.loc 1 341 0
 763 00aa 7B68     		ldr	r3, [r7, #4]
 764 00ac 9C68     		ldr	r4, [r3, #8]
 765 00ae 07F10E02 		add	r2, r7, #14
 766 00b2 0123     		movs	r3, #1
 767 00b4 0121     		movs	r1, #1
 768 00b6 AE20     		movs	r0, #174
 769 00b8 A047     		blx	r4
 770 00ba 0346     		mov	r3, r0
 771 00bc FB73     		strb	r3, [r7, #15]
 342:..\..\..\..\PSoC6_101\Sensor/driver_max30102.c ****     if (res != 0)                                                                                  
 772              		.loc 1 342 0
 773 00be FB7B     		ldrb	r3, [r7, #15]	@ zero_extendqisi2
 774 00c0 002B     		cmp	r3, #0
 775 00c2 05D0     		beq	.L43
ARM GAS  C:\Users\49148\AppData\Local\Temp\ccWN5cWv.s 			page 22


 343:..\..\..\..\PSoC6_101\Sensor/driver_max30102.c ****     {
 344:..\..\..\..\PSoC6_101\Sensor/driver_max30102.c ****         handle->debug_print("max30102: read interrupt status2 failed.\n");                         
 776              		.loc 1 344 0
 777 00c4 7B68     		ldr	r3, [r7, #4]
 778 00c6 9B69     		ldr	r3, [r3, #24]
 779 00c8 3048     		ldr	r0, .L50+4
 780 00ca 9847     		blx	r3
 345:..\..\..\..\PSoC6_101\Sensor/driver_max30102.c ****        
 346:..\..\..\..\PSoC6_101\Sensor/driver_max30102.c ****         return 1;                                                                                  
 781              		.loc 1 346 0
 782 00cc 0123     		movs	r3, #1
 783 00ce 57E0     		b	.L49
 784              	.L43:
 347:..\..\..\..\PSoC6_101\Sensor/driver_max30102.c ****     }
 348:..\..\..\..\PSoC6_101\Sensor/driver_max30102.c ****     if ((prev & (1 << MAX30102_INTERRUPT_STATUS_DIE_TEMP_RDY)) != 0)                               
 785              		.loc 1 348 0
 786 00d0 BB7B     		ldrb	r3, [r7, #14]	@ zero_extendqisi2
 787 00d2 03F00203 		and	r3, r3, #2
 788 00d6 002B     		cmp	r3, #0
 789 00d8 51D0     		beq	.L44
 790              	.LBB2:
 349:..\..\..\..\PSoC6_101\Sensor/driver_max30102.c ****     {
 350:..\..\..\..\PSoC6_101\Sensor/driver_max30102.c ****         uint8_t prev1;
 351:..\..\..\..\PSoC6_101\Sensor/driver_max30102.c ****         
 352:..\..\..\..\PSoC6_101\Sensor/driver_max30102.c ****         res = handle->iic_read(MAX30102_ADDRESS, MAX30102_REG_DIE_TEMP_INTEGER, (uint8_t *)&prev, 1
 791              		.loc 1 352 0
 792 00da 7B68     		ldr	r3, [r7, #4]
 793 00dc 9C68     		ldr	r4, [r3, #8]
 794 00de 07F10E02 		add	r2, r7, #14
 795 00e2 0123     		movs	r3, #1
 796 00e4 1F21     		movs	r1, #31
 797 00e6 AE20     		movs	r0, #174
 798 00e8 A047     		blx	r4
 799 00ea 0346     		mov	r3, r0
 800 00ec FB73     		strb	r3, [r7, #15]
 353:..\..\..\..\PSoC6_101\Sensor/driver_max30102.c ****         if (res != 0)                                                                              
 801              		.loc 1 353 0
 802 00ee FB7B     		ldrb	r3, [r7, #15]	@ zero_extendqisi2
 803 00f0 002B     		cmp	r3, #0
 804 00f2 05D0     		beq	.L45
 354:..\..\..\..\PSoC6_101\Sensor/driver_max30102.c ****         {
 355:..\..\..\..\PSoC6_101\Sensor/driver_max30102.c ****             handle->debug_print("max30102: read die temp integer failed.\n");                      
 805              		.loc 1 355 0
 806 00f4 7B68     		ldr	r3, [r7, #4]
 807 00f6 9B69     		ldr	r3, [r3, #24]
 808 00f8 2548     		ldr	r0, .L50+8
 809 00fa 9847     		blx	r3
 356:..\..\..\..\PSoC6_101\Sensor/driver_max30102.c ****            
 357:..\..\..\..\PSoC6_101\Sensor/driver_max30102.c ****             return 1;                                                                              
 810              		.loc 1 357 0
 811 00fc 0123     		movs	r3, #1
 812 00fe 3FE0     		b	.L49
 813              	.L45:
 358:..\..\..\..\PSoC6_101\Sensor/driver_max30102.c ****         }
 359:..\..\..\..\PSoC6_101\Sensor/driver_max30102.c ****         handle->raw = (uint16_t)prev << 4;                                                         
 814              		.loc 1 359 0
 815 0100 BB7B     		ldrb	r3, [r7, #14]	@ zero_extendqisi2
ARM GAS  C:\Users\49148\AppData\Local\Temp\ccWN5cWv.s 			page 23


 816 0102 9BB2     		uxth	r3, r3
 817 0104 1B01     		lsls	r3, r3, #4
 818 0106 9AB2     		uxth	r2, r3
 819 0108 7B68     		ldr	r3, [r7, #4]
 820 010a DA83     		strh	r2, [r3, #30]	@ movhi
 360:..\..\..\..\PSoC6_101\Sensor/driver_max30102.c ****         res = handle->iic_read(MAX30102_ADDRESS, MAX30102_REG_DIE_TEMP_FRACTION, (uint8_t *)&prev1,
 821              		.loc 1 360 0
 822 010c 7B68     		ldr	r3, [r7, #4]
 823 010e 9C68     		ldr	r4, [r3, #8]
 824 0110 07F10D02 		add	r2, r7, #13
 825 0114 0123     		movs	r3, #1
 826 0116 2021     		movs	r1, #32
 827 0118 AE20     		movs	r0, #174
 828 011a A047     		blx	r4
 829 011c 0346     		mov	r3, r0
 830 011e FB73     		strb	r3, [r7, #15]
 361:..\..\..\..\PSoC6_101\Sensor/driver_max30102.c ****         if (res != 0)                                                                              
 831              		.loc 1 361 0
 832 0120 FB7B     		ldrb	r3, [r7, #15]	@ zero_extendqisi2
 833 0122 002B     		cmp	r3, #0
 834 0124 05D0     		beq	.L47
 362:..\..\..\..\PSoC6_101\Sensor/driver_max30102.c ****         {
 363:..\..\..\..\PSoC6_101\Sensor/driver_max30102.c ****             handle->debug_print("max30102: read die temp fraction failed.\n");                     
 835              		.loc 1 363 0
 836 0126 7B68     		ldr	r3, [r7, #4]
 837 0128 9B69     		ldr	r3, [r3, #24]
 838 012a 1A48     		ldr	r0, .L50+12
 839 012c 9847     		blx	r3
 364:..\..\..\..\PSoC6_101\Sensor/driver_max30102.c ****            
 365:..\..\..\..\PSoC6_101\Sensor/driver_max30102.c ****             return 1;                                                                              
 840              		.loc 1 365 0
 841 012e 0123     		movs	r3, #1
 842 0130 26E0     		b	.L49
 843              	.L47:
 366:..\..\..\..\PSoC6_101\Sensor/driver_max30102.c ****         }
 367:..\..\..\..\PSoC6_101\Sensor/driver_max30102.c ****         handle->raw = handle->raw | prev1;                                                         
 844              		.loc 1 367 0
 845 0132 7B68     		ldr	r3, [r7, #4]
 846 0134 DA8B     		ldrh	r2, [r3, #30]
 847 0136 7B7B     		ldrb	r3, [r7, #13]	@ zero_extendqisi2
 848 0138 9BB2     		uxth	r3, r3
 849 013a 1343     		orrs	r3, r3, r2
 850 013c 9AB2     		uxth	r2, r3
 851 013e 7B68     		ldr	r3, [r7, #4]
 852 0140 DA83     		strh	r2, [r3, #30]	@ movhi
 368:..\..\..\..\PSoC6_101\Sensor/driver_max30102.c ****         handle->temperature = (float)(prev) + (float)(prev1) * 0.0625f;                            
 853              		.loc 1 368 0
 854 0142 BB7B     		ldrb	r3, [r7, #14]	@ zero_extendqisi2
 855 0144 07EE903A 		vmov	s15, r3	@ int
 856 0148 B8EE677A 		vcvt.f32.u32	s14, s15
 857 014c 7B7B     		ldrb	r3, [r7, #13]	@ zero_extendqisi2
 858 014e 07EE903A 		vmov	s15, r3	@ int
 859 0152 F8EE677A 		vcvt.f32.u32	s15, s15
 860 0156 DFED106A 		vldr.32	s13, .L50+16
 861 015a 67EEA67A 		vmul.f32	s15, s15, s13
 862 015e 77EE277A 		vadd.f32	s15, s14, s15
 863 0162 7B68     		ldr	r3, [r7, #4]
ARM GAS  C:\Users\49148\AppData\Local\Temp\ccWN5cWv.s 			page 24


 864 0164 C3ED087A 		vstr.32	s15, [r3, #32]
 369:..\..\..\..\PSoC6_101\Sensor/driver_max30102.c ****         handle->finished_flag = 1;                                                                 
 865              		.loc 1 369 0
 866 0168 7B68     		ldr	r3, [r7, #4]
 867 016a 0122     		movs	r2, #1
 868 016c 5A77     		strb	r2, [r3, #29]
 370:..\..\..\..\PSoC6_101\Sensor/driver_max30102.c ****         
 371:..\..\..\..\PSoC6_101\Sensor/driver_max30102.c ****         if (handle->receive_callback != NULL)                                                      
 869              		.loc 1 371 0
 870 016e 7B68     		ldr	r3, [r7, #4]
 871 0170 1B69     		ldr	r3, [r3, #16]
 872 0172 002B     		cmp	r3, #0
 873 0174 03D0     		beq	.L44
 372:..\..\..\..\PSoC6_101\Sensor/driver_max30102.c ****         {
 373:..\..\..\..\PSoC6_101\Sensor/driver_max30102.c ****             handle->receive_callback(MAX30102_INTERRUPT_STATUS_DIE_TEMP_RDY);                      
 874              		.loc 1 373 0
 875 0176 7B68     		ldr	r3, [r7, #4]
 876 0178 1B69     		ldr	r3, [r3, #16]
 877 017a 0120     		movs	r0, #1
 878 017c 9847     		blx	r3
 879              	.L44:
 880              	.LBE2:
 374:..\..\..\..\PSoC6_101\Sensor/driver_max30102.c ****         }
 375:..\..\..\..\PSoC6_101\Sensor/driver_max30102.c ****     }
 376:..\..\..\..\PSoC6_101\Sensor/driver_max30102.c ****     
 377:..\..\..\..\PSoC6_101\Sensor/driver_max30102.c ****     return 0;                                                                                      
 881              		.loc 1 377 0
 882 017e 0023     		movs	r3, #0
 883              	.L49:
 378:..\..\..\..\PSoC6_101\Sensor/driver_max30102.c **** }
 884              		.loc 1 378 0 discriminator 1
 885 0180 1846     		mov	r0, r3
 886 0182 1437     		adds	r7, r7, #20
 887              		.cfi_def_cfa_offset 12
 888 0184 BD46     		mov	sp, r7
 889              		.cfi_def_cfa_register 13
 890              		@ sp needed
 891 0186 90BD     		pop	{r4, r7, pc}
 892              	.L51:
 893              		.align	2
 894              	.L50:
 895 0188 2C020000 		.word	.LC16
 896 018c 58020000 		.word	.LC17
 897 0190 84020000 		.word	.LC18
 898 0194 B0020000 		.word	.LC19
 899 0198 0000803D 		.word	1031798784
 900              		.cfi_endproc
 901              	.LFE3:
 902              		.size	max30102_irq_handler, .-max30102_irq_handler
 903              		.section	.rodata
 904 02da 0000     		.align	2
 905              	.LC20:
 906 02dc 6D617833 		.ascii	"max30102: read overflow counter failed.\012\000"
 906      30313032 
 906      3A207265 
 906      6164206F 
 906      76657266 
ARM GAS  C:\Users\49148\AppData\Local\Temp\ccWN5cWv.s 			page 25


 907 0305 000000   		.align	2
 908              	.LC21:
 909 0308 6D617833 		.ascii	"max30102: fifo overrun.\012\000"
 909      30313032 
 909      3A206669 
 909      666F206F 
 909      76657272 
 910 0321 000000   		.align	2
 911              	.LC22:
 912 0324 6D617833 		.ascii	"max30102: read fifo read point failed.\012\000"
 912      30313032 
 912      3A207265 
 912      61642066 
 912      69666F20 
 913              		.align	2
 914              	.LC23:
 915 034c 6D617833 		.ascii	"max30102: read fifo write point failed.\012\000"
 915      30313032 
 915      3A207265 
 915      61642066 
 915      69666F20 
 916 0375 000000   		.align	2
 917              	.LC24:
 918 0378 6D617833 		.ascii	"max30105: mode is invalid.\012\000"
 918      30313035 
 918      3A206D6F 
 918      64652069 
 918      7320696E 
 919              		.align	2
 920              	.LC25:
 921 0394 6D617833 		.ascii	"max30102: read fifo data register failed.\012\000"
 921      30313032 
 921      3A207265 
 921      61642066 
 921      69666F20 
 922 03bf 00       		.align	2
 923              	.LC26:
 924 03c0 6D617833 		.ascii	"max30102: read spo2 config failed.\012\000"
 924      30313032 
 924      3A207265 
 924      61642073 
 924      706F3220 
 925              		.section	.text.max30102_read,"ax",%progbits
 926              		.align	2
 927              		.global	max30102_read
 928              		.thumb
 929              		.thumb_func
 930              		.type	max30102_read, %function
 931              	max30102_read:
 932              	.LFB4:
 379:..\..\..\..\PSoC6_101\Sensor/driver_max30102.c **** 
 380:..\..\..\..\PSoC6_101\Sensor/driver_max30102.c **** /**
 381:..\..\..\..\PSoC6_101\Sensor/driver_max30102.c ****  * @brief         read the data
 382:..\..\..\..\PSoC6_101\Sensor/driver_max30102.c ****  * @param[in]     *handle points to a max30102 handle structure
 383:..\..\..\..\PSoC6_101\Sensor/driver_max30102.c ****  * @param[out]    *raw_red points to a red raw data buffer
 384:..\..\..\..\PSoC6_101\Sensor/driver_max30102.c ****  * @param[out]    *raw_ir points to an ir raw data buffer
 385:..\..\..\..\PSoC6_101\Sensor/driver_max30102.c ****  * @param[in,out] *len points to a length buffer
ARM GAS  C:\Users\49148\AppData\Local\Temp\ccWN5cWv.s 			page 26


 386:..\..\..\..\PSoC6_101\Sensor/driver_max30102.c ****  * @return        status code
 387:..\..\..\..\PSoC6_101\Sensor/driver_max30102.c ****  *                - 0 success
 388:..\..\..\..\PSoC6_101\Sensor/driver_max30102.c ****  *                - 1 read failed
 389:..\..\..\..\PSoC6_101\Sensor/driver_max30102.c ****  *                - 2 handle is NULL
 390:..\..\..\..\PSoC6_101\Sensor/driver_max30102.c ****  *                - 3 handle is not initialized
 391:..\..\..\..\PSoC6_101\Sensor/driver_max30102.c ****  *                - 4 fifo overrun
 392:..\..\..\..\PSoC6_101\Sensor/driver_max30102.c ****  *                - 5 mode is invalid
 393:..\..\..\..\PSoC6_101\Sensor/driver_max30102.c ****  * @note          none
 394:..\..\..\..\PSoC6_101\Sensor/driver_max30102.c ****  */
 395:..\..\..\..\PSoC6_101\Sensor/driver_max30102.c **** uint8_t max30102_read(max30102_handle_t *handle, uint32_t *raw_red, uint32_t *raw_ir, uint8_t *len)
 396:..\..\..\..\PSoC6_101\Sensor/driver_max30102.c **** {
 933              		.loc 1 396 0
 934              		.cfi_startproc
 935              		@ args = 0, pretend = 0, frame = 32
 936              		@ frame_needed = 1, uses_anonymous_args = 0
 937 0000 90B5     		push	{r4, r7, lr}
 938              		.cfi_def_cfa_offset 12
 939              		.cfi_offset 4, -12
 940              		.cfi_offset 7, -8
 941              		.cfi_offset 14, -4
 942 0002 89B0     		sub	sp, sp, #36
 943              		.cfi_def_cfa_offset 48
 944 0004 00AF     		add	r7, sp, #0
 945              		.cfi_def_cfa_register 7
 946 0006 F860     		str	r0, [r7, #12]
 947 0008 B960     		str	r1, [r7, #8]
 948 000a 7A60     		str	r2, [r7, #4]
 949 000c 3B60     		str	r3, [r7]
 397:..\..\..\..\PSoC6_101\Sensor/driver_max30102.c ****     uint8_t res;
 398:..\..\..\..\PSoC6_101\Sensor/driver_max30102.c ****     uint8_t prev;
 399:..\..\..\..\PSoC6_101\Sensor/driver_max30102.c ****     uint8_t mode;
 400:..\..\..\..\PSoC6_101\Sensor/driver_max30102.c ****     uint8_t k;
 401:..\..\..\..\PSoC6_101\Sensor/driver_max30102.c ****     uint8_t read_point;
 402:..\..\..\..\PSoC6_101\Sensor/driver_max30102.c ****     uint8_t write_point;
 403:..\..\..\..\PSoC6_101\Sensor/driver_max30102.c ****     uint8_t l;
 404:..\..\..\..\PSoC6_101\Sensor/driver_max30102.c ****     uint8_t bit;
 405:..\..\..\..\PSoC6_101\Sensor/driver_max30102.c ****     uint8_t i;
 406:..\..\..\..\PSoC6_101\Sensor/driver_max30102.c ****     uint8_t r;
 407:..\..\..\..\PSoC6_101\Sensor/driver_max30102.c ****     
 408:..\..\..\..\PSoC6_101\Sensor/driver_max30102.c ****     if (handle == NULL)                                                                            
 950              		.loc 1 408 0
 951 000e FB68     		ldr	r3, [r7, #12]
 952 0010 002B     		cmp	r3, #0
 953 0012 01D1     		bne	.L53
 409:..\..\..\..\PSoC6_101\Sensor/driver_max30102.c ****     {
 410:..\..\..\..\PSoC6_101\Sensor/driver_max30102.c ****         return 2;                                                                                  
 954              		.loc 1 410 0
 955 0014 0223     		movs	r3, #2
 956 0016 91E1     		b	.L77
 957              	.L53:
 411:..\..\..\..\PSoC6_101\Sensor/driver_max30102.c ****     }
 412:..\..\..\..\PSoC6_101\Sensor/driver_max30102.c ****     if (handle->inited != 1)                                                                       
 958              		.loc 1 412 0
 959 0018 FB68     		ldr	r3, [r7, #12]
 960 001a 1B7F     		ldrb	r3, [r3, #28]	@ zero_extendqisi2
 961 001c 012B     		cmp	r3, #1
 962 001e 01D0     		beq	.L55
ARM GAS  C:\Users\49148\AppData\Local\Temp\ccWN5cWv.s 			page 27


 413:..\..\..\..\PSoC6_101\Sensor/driver_max30102.c ****     {
 414:..\..\..\..\PSoC6_101\Sensor/driver_max30102.c ****         return 3;                                                                                  
 963              		.loc 1 414 0
 964 0020 0323     		movs	r3, #3
 965 0022 8BE1     		b	.L77
 966              	.L55:
 415:..\..\..\..\PSoC6_101\Sensor/driver_max30102.c ****     }
 416:..\..\..\..\PSoC6_101\Sensor/driver_max30102.c ****     
 417:..\..\..\..\PSoC6_101\Sensor/driver_max30102.c ****     res = handle->iic_read(MAX30102_ADDRESS, MAX30102_REG_OVERFLOW_COUNTER, (uint8_t *)&prev, 1);  
 967              		.loc 1 417 0
 968 0024 FB68     		ldr	r3, [r7, #12]
 969 0026 9C68     		ldr	r4, [r3, #8]
 970 0028 07F11802 		add	r2, r7, #24
 971 002c 0123     		movs	r3, #1
 972 002e 0521     		movs	r1, #5
 973 0030 AE20     		movs	r0, #174
 974 0032 A047     		blx	r4
 975 0034 0346     		mov	r3, r0
 976 0036 BB76     		strb	r3, [r7, #26]
 418:..\..\..\..\PSoC6_101\Sensor/driver_max30102.c ****     if (res != 0)                                                                                  
 977              		.loc 1 418 0
 978 0038 BB7E     		ldrb	r3, [r7, #26]	@ zero_extendqisi2
 979 003a 002B     		cmp	r3, #0
 980 003c 05D0     		beq	.L56
 419:..\..\..\..\PSoC6_101\Sensor/driver_max30102.c ****     {
 420:..\..\..\..\PSoC6_101\Sensor/driver_max30102.c ****         handle->debug_print("max30102: read overflow counter failed.\n");                          
 981              		.loc 1 420 0
 982 003e FB68     		ldr	r3, [r7, #12]
 983 0040 9B69     		ldr	r3, [r3, #24]
 984 0042 7D48     		ldr	r0, .L78
 985 0044 9847     		blx	r3
 421:..\..\..\..\PSoC6_101\Sensor/driver_max30102.c ****        
 422:..\..\..\..\PSoC6_101\Sensor/driver_max30102.c ****         return 1;                                                                                  
 986              		.loc 1 422 0
 987 0046 0123     		movs	r3, #1
 988 0048 78E1     		b	.L77
 989              	.L56:
 423:..\..\..\..\PSoC6_101\Sensor/driver_max30102.c ****     }
 424:..\..\..\..\PSoC6_101\Sensor/driver_max30102.c ****     r = 0;                                                                                         
 990              		.loc 1 424 0
 991 004a 0023     		movs	r3, #0
 992 004c FB76     		strb	r3, [r7, #27]
 425:..\..\..\..\PSoC6_101\Sensor/driver_max30102.c ****     if (prev != 0)                                                                                 
 993              		.loc 1 425 0
 994 004e 3B7E     		ldrb	r3, [r7, #24]	@ zero_extendqisi2
 995 0050 002B     		cmp	r3, #0
 996 0052 05D0     		beq	.L57
 426:..\..\..\..\PSoC6_101\Sensor/driver_max30102.c ****     {
 427:..\..\..\..\PSoC6_101\Sensor/driver_max30102.c ****         r = 4;                                                                                     
 997              		.loc 1 427 0
 998 0054 0423     		movs	r3, #4
 999 0056 FB76     		strb	r3, [r7, #27]
 428:..\..\..\..\PSoC6_101\Sensor/driver_max30102.c ****         
 429:..\..\..\..\PSoC6_101\Sensor/driver_max30102.c ****         handle->debug_print("max30102: fifo overrun.\n");                                          
 1000              		.loc 1 429 0
 1001 0058 FB68     		ldr	r3, [r7, #12]
 1002 005a 9B69     		ldr	r3, [r3, #24]
ARM GAS  C:\Users\49148\AppData\Local\Temp\ccWN5cWv.s 			page 28


 1003 005c 7748     		ldr	r0, .L78+4
 1004 005e 9847     		blx	r3
 1005              	.L57:
 430:..\..\..\..\PSoC6_101\Sensor/driver_max30102.c ****     }
 431:..\..\..\..\PSoC6_101\Sensor/driver_max30102.c ****     res = handle->iic_read(MAX30102_ADDRESS, MAX30102_REG_FIFO_READ_POINTER, (uint8_t *)&read_point
 1006              		.loc 1 431 0
 1007 0060 FB68     		ldr	r3, [r7, #12]
 1008 0062 9C68     		ldr	r4, [r3, #8]
 1009 0064 07F11702 		add	r2, r7, #23
 1010 0068 0123     		movs	r3, #1
 1011 006a 0621     		movs	r1, #6
 1012 006c AE20     		movs	r0, #174
 1013 006e A047     		blx	r4
 1014 0070 0346     		mov	r3, r0
 1015 0072 BB76     		strb	r3, [r7, #26]
 432:..\..\..\..\PSoC6_101\Sensor/driver_max30102.c ****     if (res != 0)                                                                                  
 1016              		.loc 1 432 0
 1017 0074 BB7E     		ldrb	r3, [r7, #26]	@ zero_extendqisi2
 1018 0076 002B     		cmp	r3, #0
 1019 0078 05D0     		beq	.L58
 433:..\..\..\..\PSoC6_101\Sensor/driver_max30102.c ****     {
 434:..\..\..\..\PSoC6_101\Sensor/driver_max30102.c ****         handle->debug_print("max30102: read fifo read point failed.\n");                           
 1020              		.loc 1 434 0
 1021 007a FB68     		ldr	r3, [r7, #12]
 1022 007c 9B69     		ldr	r3, [r3, #24]
 1023 007e 7048     		ldr	r0, .L78+8
 1024 0080 9847     		blx	r3
 435:..\..\..\..\PSoC6_101\Sensor/driver_max30102.c ****        
 436:..\..\..\..\PSoC6_101\Sensor/driver_max30102.c ****         return 1;                                                                                  
 1025              		.loc 1 436 0
 1026 0082 0123     		movs	r3, #1
 1027 0084 5AE1     		b	.L77
 1028              	.L58:
 437:..\..\..\..\PSoC6_101\Sensor/driver_max30102.c ****     }
 438:..\..\..\..\PSoC6_101\Sensor/driver_max30102.c ****     res = handle->iic_read(MAX30102_ADDRESS, MAX30102_REG_FIFO_WRITE_POINTER, (uint8_t *)&write_poi
 1029              		.loc 1 438 0
 1030 0086 FB68     		ldr	r3, [r7, #12]
 1031 0088 9C68     		ldr	r4, [r3, #8]
 1032 008a 07F11602 		add	r2, r7, #22
 1033 008e 0123     		movs	r3, #1
 1034 0090 0421     		movs	r1, #4
 1035 0092 AE20     		movs	r0, #174
 1036 0094 A047     		blx	r4
 1037 0096 0346     		mov	r3, r0
 1038 0098 BB76     		strb	r3, [r7, #26]
 439:..\..\..\..\PSoC6_101\Sensor/driver_max30102.c ****     if (res != 0)                                                                                  
 1039              		.loc 1 439 0
 1040 009a BB7E     		ldrb	r3, [r7, #26]	@ zero_extendqisi2
 1041 009c 002B     		cmp	r3, #0
 1042 009e 05D0     		beq	.L59
 440:..\..\..\..\PSoC6_101\Sensor/driver_max30102.c ****     {
 441:..\..\..\..\PSoC6_101\Sensor/driver_max30102.c ****         handle->debug_print("max30102: read fifo write point failed.\n");                          
 1043              		.loc 1 441 0
 1044 00a0 FB68     		ldr	r3, [r7, #12]
 1045 00a2 9B69     		ldr	r3, [r3, #24]
 1046 00a4 6748     		ldr	r0, .L78+12
 1047 00a6 9847     		blx	r3
ARM GAS  C:\Users\49148\AppData\Local\Temp\ccWN5cWv.s 			page 29


 442:..\..\..\..\PSoC6_101\Sensor/driver_max30102.c ****        
 443:..\..\..\..\PSoC6_101\Sensor/driver_max30102.c ****         return 1;                                                                                  
 1048              		.loc 1 443 0
 1049 00a8 0123     		movs	r3, #1
 1050 00aa 47E1     		b	.L77
 1051              	.L59:
 444:..\..\..\..\PSoC6_101\Sensor/driver_max30102.c ****     }
 445:..\..\..\..\PSoC6_101\Sensor/driver_max30102.c ****     
 446:..\..\..\..\PSoC6_101\Sensor/driver_max30102.c ****     if (write_point > read_point)                                                                  
 1052              		.loc 1 446 0
 1053 00ac BA7D     		ldrb	r2, [r7, #22]	@ zero_extendqisi2
 1054 00ae FB7D     		ldrb	r3, [r7, #23]	@ zero_extendqisi2
 1055 00b0 9A42     		cmp	r2, r3
 1056 00b2 04D9     		bls	.L60
 447:..\..\..\..\PSoC6_101\Sensor/driver_max30102.c ****     {
 448:..\..\..\..\PSoC6_101\Sensor/driver_max30102.c ****         l = write_point - read_point;                                                              
 1057              		.loc 1 448 0
 1058 00b4 BA7D     		ldrb	r2, [r7, #22]	@ zero_extendqisi2
 1059 00b6 FB7D     		ldrb	r3, [r7, #23]	@ zero_extendqisi2
 1060 00b8 D31A     		subs	r3, r2, r3
 1061 00ba BB77     		strb	r3, [r7, #30]
 1062 00bc 05E0     		b	.L61
 1063              	.L60:
 449:..\..\..\..\PSoC6_101\Sensor/driver_max30102.c ****     }
 450:..\..\..\..\PSoC6_101\Sensor/driver_max30102.c ****     else
 451:..\..\..\..\PSoC6_101\Sensor/driver_max30102.c ****     {
 452:..\..\..\..\PSoC6_101\Sensor/driver_max30102.c ****         l = 32 + write_point - read_point;                                                         
 1064              		.loc 1 452 0
 1065 00be BA7D     		ldrb	r2, [r7, #22]	@ zero_extendqisi2
 1066 00c0 FB7D     		ldrb	r3, [r7, #23]	@ zero_extendqisi2
 1067 00c2 D31A     		subs	r3, r2, r3
 1068 00c4 DBB2     		uxtb	r3, r3
 1069 00c6 2033     		adds	r3, r3, #32
 1070 00c8 BB77     		strb	r3, [r7, #30]
 1071              	.L61:
 453:..\..\..\..\PSoC6_101\Sensor/driver_max30102.c ****     }
 454:..\..\..\..\PSoC6_101\Sensor/driver_max30102.c ****     *len = ((*len) > l) ? l : (*len);                                                              
 1072              		.loc 1 454 0
 1073 00ca 3B68     		ldr	r3, [r7]
 1074 00cc 1A78     		ldrb	r2, [r3]	@ zero_extendqisi2
 1075 00ce BB7F     		ldrb	r3, [r7, #30]	@ zero_extendqisi2
 1076 00d0 9342     		cmp	r3, r2
 1077 00d2 28BF     		it	cs
 1078 00d4 1346     		movcs	r3, r2
 1079 00d6 DAB2     		uxtb	r2, r3
 1080 00d8 3B68     		ldr	r3, [r7]
 1081 00da 1A70     		strb	r2, [r3]
 455:..\..\..\..\PSoC6_101\Sensor/driver_max30102.c ****     res = handle->iic_read(MAX30102_ADDRESS, MAX30102_REG_MODE_CONFIG, (uint8_t *)&prev, 1);       
 1082              		.loc 1 455 0
 1083 00dc FB68     		ldr	r3, [r7, #12]
 1084 00de 9C68     		ldr	r4, [r3, #8]
 1085 00e0 07F11802 		add	r2, r7, #24
 1086 00e4 0123     		movs	r3, #1
 1087 00e6 0921     		movs	r1, #9
 1088 00e8 AE20     		movs	r0, #174
 1089 00ea A047     		blx	r4
 1090 00ec 0346     		mov	r3, r0
ARM GAS  C:\Users\49148\AppData\Local\Temp\ccWN5cWv.s 			page 30


 1091 00ee BB76     		strb	r3, [r7, #26]
 456:..\..\..\..\PSoC6_101\Sensor/driver_max30102.c ****     if (res != 0)                                                                                  
 1092              		.loc 1 456 0
 1093 00f0 BB7E     		ldrb	r3, [r7, #26]	@ zero_extendqisi2
 1094 00f2 002B     		cmp	r3, #0
 1095 00f4 05D0     		beq	.L62
 457:..\..\..\..\PSoC6_101\Sensor/driver_max30102.c ****     {
 458:..\..\..\..\PSoC6_101\Sensor/driver_max30102.c ****         handle->debug_print("max30102: read mode config failed.\n");                               
 1096              		.loc 1 458 0
 1097 00f6 FB68     		ldr	r3, [r7, #12]
 1098 00f8 9B69     		ldr	r3, [r3, #24]
 1099 00fa 5348     		ldr	r0, .L78+16
 1100 00fc 9847     		blx	r3
 459:..\..\..\..\PSoC6_101\Sensor/driver_max30102.c ****        
 460:..\..\..\..\PSoC6_101\Sensor/driver_max30102.c ****         return 1;                                                                                  
 1101              		.loc 1 460 0
 1102 00fe 0123     		movs	r3, #1
 1103 0100 1CE1     		b	.L77
 1104              	.L62:
 461:..\..\..\..\PSoC6_101\Sensor/driver_max30102.c ****     }
 462:..\..\..\..\PSoC6_101\Sensor/driver_max30102.c ****     mode = (max30102_mode_t)(prev & 0x7);                                                          
 1105              		.loc 1 462 0
 1106 0102 3B7E     		ldrb	r3, [r7, #24]	@ zero_extendqisi2
 1107 0104 03F00703 		and	r3, r3, #7
 1108 0108 7B76     		strb	r3, [r7, #25]
 463:..\..\..\..\PSoC6_101\Sensor/driver_max30102.c ****     if (mode == MAX30102_MODE_HEART_RATE)                                                          
 1109              		.loc 1 463 0
 1110 010a 7B7E     		ldrb	r3, [r7, #25]	@ zero_extendqisi2
 1111 010c 022B     		cmp	r3, #2
 1112 010e 02D1     		bne	.L63
 464:..\..\..\..\PSoC6_101\Sensor/driver_max30102.c ****     {
 465:..\..\..\..\PSoC6_101\Sensor/driver_max30102.c ****         k = 3;                                                                                     
 1113              		.loc 1 465 0
 1114 0110 0323     		movs	r3, #3
 1115 0112 FB77     		strb	r3, [r7, #31]
 1116 0114 11E0     		b	.L64
 1117              	.L63:
 466:..\..\..\..\PSoC6_101\Sensor/driver_max30102.c ****     }
 467:..\..\..\..\PSoC6_101\Sensor/driver_max30102.c ****     else if (mode == MAX30102_MODE_SPO2)                                                           
 1118              		.loc 1 467 0
 1119 0116 7B7E     		ldrb	r3, [r7, #25]	@ zero_extendqisi2
 1120 0118 032B     		cmp	r3, #3
 1121 011a 02D1     		bne	.L65
 468:..\..\..\..\PSoC6_101\Sensor/driver_max30102.c ****     {
 469:..\..\..\..\PSoC6_101\Sensor/driver_max30102.c ****         k = 6;                                                                                     
 1122              		.loc 1 469 0
 1123 011c 0623     		movs	r3, #6
 1124 011e FB77     		strb	r3, [r7, #31]
 1125 0120 0BE0     		b	.L64
 1126              	.L65:
 470:..\..\..\..\PSoC6_101\Sensor/driver_max30102.c ****     }
 471:..\..\..\..\PSoC6_101\Sensor/driver_max30102.c ****     else if (mode == MAX30102_MODE_MULTI_LED)                                                      
 1127              		.loc 1 471 0
 1128 0122 7B7E     		ldrb	r3, [r7, #25]	@ zero_extendqisi2
 1129 0124 072B     		cmp	r3, #7
 1130 0126 02D1     		bne	.L66
 472:..\..\..\..\PSoC6_101\Sensor/driver_max30102.c ****     {
ARM GAS  C:\Users\49148\AppData\Local\Temp\ccWN5cWv.s 			page 31


 473:..\..\..\..\PSoC6_101\Sensor/driver_max30102.c ****         k = 6;                                                                                     
 1131              		.loc 1 473 0
 1132 0128 0623     		movs	r3, #6
 1133 012a FB77     		strb	r3, [r7, #31]
 1134 012c 05E0     		b	.L64
 1135              	.L66:
 474:..\..\..\..\PSoC6_101\Sensor/driver_max30102.c ****     }
 475:..\..\..\..\PSoC6_101\Sensor/driver_max30102.c ****     else
 476:..\..\..\..\PSoC6_101\Sensor/driver_max30102.c ****     {
 477:..\..\..\..\PSoC6_101\Sensor/driver_max30102.c ****         handle->debug_print("max30105: mode is invalid.\n");                                       
 1136              		.loc 1 477 0
 1137 012e FB68     		ldr	r3, [r7, #12]
 1138 0130 9B69     		ldr	r3, [r3, #24]
 1139 0132 4648     		ldr	r0, .L78+20
 1140 0134 9847     		blx	r3
 478:..\..\..\..\PSoC6_101\Sensor/driver_max30102.c ****        
 479:..\..\..\..\PSoC6_101\Sensor/driver_max30102.c ****         return 5;                                                                                  
 1141              		.loc 1 479 0
 1142 0136 0523     		movs	r3, #5
 1143 0138 00E1     		b	.L77
 1144              	.L64:
 480:..\..\..\..\PSoC6_101\Sensor/driver_max30102.c ****     }
 481:..\..\..\..\PSoC6_101\Sensor/driver_max30102.c ****     
 482:..\..\..\..\PSoC6_101\Sensor/driver_max30102.c ****     res = handle->iic_read(MAX30102_ADDRESS, MAX30102_REG_FIFO_DATA_REGISTER, handle->buf, (*len) *
 1145              		.loc 1 482 0
 1146 013a FB68     		ldr	r3, [r7, #12]
 1147 013c 9C68     		ldr	r4, [r3, #8]
 1148 013e FB68     		ldr	r3, [r7, #12]
 1149 0140 03F12401 		add	r1, r3, #36
 1150 0144 3B68     		ldr	r3, [r7]
 1151 0146 1B78     		ldrb	r3, [r3]	@ zero_extendqisi2
 1152 0148 9AB2     		uxth	r2, r3
 1153 014a FB7F     		ldrb	r3, [r7, #31]	@ zero_extendqisi2
 1154 014c 9BB2     		uxth	r3, r3
 1155 014e 12FB03F3 		smulbb	r3, r2, r3
 1156 0152 9BB2     		uxth	r3, r3
 1157 0154 0A46     		mov	r2, r1
 1158 0156 0721     		movs	r1, #7
 1159 0158 AE20     		movs	r0, #174
 1160 015a A047     		blx	r4
 1161 015c 0346     		mov	r3, r0
 1162 015e BB76     		strb	r3, [r7, #26]
 483:..\..\..\..\PSoC6_101\Sensor/driver_max30102.c ****     if (res != 0)                                                                                  
 1163              		.loc 1 483 0
 1164 0160 BB7E     		ldrb	r3, [r7, #26]	@ zero_extendqisi2
 1165 0162 002B     		cmp	r3, #0
 1166 0164 05D0     		beq	.L67
 484:..\..\..\..\PSoC6_101\Sensor/driver_max30102.c ****     {
 485:..\..\..\..\PSoC6_101\Sensor/driver_max30102.c ****         handle->debug_print("max30102: read fifo data register failed.\n");                        
 1167              		.loc 1 485 0
 1168 0166 FB68     		ldr	r3, [r7, #12]
 1169 0168 9B69     		ldr	r3, [r3, #24]
 1170 016a 3948     		ldr	r0, .L78+24
 1171 016c 9847     		blx	r3
 486:..\..\..\..\PSoC6_101\Sensor/driver_max30102.c ****        
 487:..\..\..\..\PSoC6_101\Sensor/driver_max30102.c ****         return 1;                                                                                  
 1172              		.loc 1 487 0
ARM GAS  C:\Users\49148\AppData\Local\Temp\ccWN5cWv.s 			page 32


 1173 016e 0123     		movs	r3, #1
 1174 0170 E4E0     		b	.L77
 1175              	.L67:
 488:..\..\..\..\PSoC6_101\Sensor/driver_max30102.c ****     }
 489:..\..\..\..\PSoC6_101\Sensor/driver_max30102.c ****     res = handle->iic_read(MAX30102_ADDRESS, MAX30102_REG_SPO2_CONFIG, (uint8_t *)&prev, 1);       
 1176              		.loc 1 489 0
 1177 0172 FB68     		ldr	r3, [r7, #12]
 1178 0174 9C68     		ldr	r4, [r3, #8]
 1179 0176 07F11802 		add	r2, r7, #24
 1180 017a 0123     		movs	r3, #1
 1181 017c 0A21     		movs	r1, #10
 1182 017e AE20     		movs	r0, #174
 1183 0180 A047     		blx	r4
 1184 0182 0346     		mov	r3, r0
 1185 0184 BB76     		strb	r3, [r7, #26]
 490:..\..\..\..\PSoC6_101\Sensor/driver_max30102.c ****     if (res != 0)                                                                                  
 1186              		.loc 1 490 0
 1187 0186 BB7E     		ldrb	r3, [r7, #26]	@ zero_extendqisi2
 1188 0188 002B     		cmp	r3, #0
 1189 018a 05D0     		beq	.L68
 491:..\..\..\..\PSoC6_101\Sensor/driver_max30102.c ****     {
 492:..\..\..\..\PSoC6_101\Sensor/driver_max30102.c ****         handle->debug_print("max30102: read spo2 config failed.\n");                               
 1190              		.loc 1 492 0
 1191 018c FB68     		ldr	r3, [r7, #12]
 1192 018e 9B69     		ldr	r3, [r3, #24]
 1193 0190 3048     		ldr	r0, .L78+28
 1194 0192 9847     		blx	r3
 493:..\..\..\..\PSoC6_101\Sensor/driver_max30102.c ****        
 494:..\..\..\..\PSoC6_101\Sensor/driver_max30102.c ****         return 1;                                                                                  
 1195              		.loc 1 494 0
 1196 0194 0123     		movs	r3, #1
 1197 0196 D1E0     		b	.L77
 1198              	.L68:
 495:..\..\..\..\PSoC6_101\Sensor/driver_max30102.c ****     }
 496:..\..\..\..\PSoC6_101\Sensor/driver_max30102.c ****     prev = prev & 0x3;                                                                             
 1199              		.loc 1 496 0
 1200 0198 3B7E     		ldrb	r3, [r7, #24]	@ zero_extendqisi2
 1201 019a 03F00303 		and	r3, r3, #3
 1202 019e DBB2     		uxtb	r3, r3
 1203 01a0 3B76     		strb	r3, [r7, #24]
 497:..\..\..\..\PSoC6_101\Sensor/driver_max30102.c ****     if (prev == 0)                                                                                 
 1204              		.loc 1 497 0
 1205 01a2 3B7E     		ldrb	r3, [r7, #24]	@ zero_extendqisi2
 1206 01a4 002B     		cmp	r3, #0
 1207 01a6 02D1     		bne	.L69
 498:..\..\..\..\PSoC6_101\Sensor/driver_max30102.c ****     {
 499:..\..\..\..\PSoC6_101\Sensor/driver_max30102.c ****         bit = 3;                                                                                   
 1208              		.loc 1 499 0
 1209 01a8 0323     		movs	r3, #3
 1210 01aa 7B77     		strb	r3, [r7, #29]
 1211 01ac 0DE0     		b	.L70
 1212              	.L69:
 500:..\..\..\..\PSoC6_101\Sensor/driver_max30102.c ****     }
 501:..\..\..\..\PSoC6_101\Sensor/driver_max30102.c ****     else if (prev == 1)                                                                            
 1213              		.loc 1 501 0
 1214 01ae 3B7E     		ldrb	r3, [r7, #24]	@ zero_extendqisi2
 1215 01b0 012B     		cmp	r3, #1
ARM GAS  C:\Users\49148\AppData\Local\Temp\ccWN5cWv.s 			page 33


 1216 01b2 02D1     		bne	.L71
 502:..\..\..\..\PSoC6_101\Sensor/driver_max30102.c ****     {
 503:..\..\..\..\PSoC6_101\Sensor/driver_max30102.c ****         bit = 2;                                                                                   
 1217              		.loc 1 503 0
 1218 01b4 0223     		movs	r3, #2
 1219 01b6 7B77     		strb	r3, [r7, #29]
 1220 01b8 07E0     		b	.L70
 1221              	.L71:
 504:..\..\..\..\PSoC6_101\Sensor/driver_max30102.c ****     }
 505:..\..\..\..\PSoC6_101\Sensor/driver_max30102.c ****     else if (prev == 2)                                                                            
 1222              		.loc 1 505 0
 1223 01ba 3B7E     		ldrb	r3, [r7, #24]	@ zero_extendqisi2
 1224 01bc 022B     		cmp	r3, #2
 1225 01be 02D1     		bne	.L72
 506:..\..\..\..\PSoC6_101\Sensor/driver_max30102.c ****     {
 507:..\..\..\..\PSoC6_101\Sensor/driver_max30102.c ****         bit = 1;                                                                                   
 1226              		.loc 1 507 0
 1227 01c0 0123     		movs	r3, #1
 1228 01c2 7B77     		strb	r3, [r7, #29]
 1229 01c4 01E0     		b	.L70
 1230              	.L72:
 508:..\..\..\..\PSoC6_101\Sensor/driver_max30102.c ****     }
 509:..\..\..\..\PSoC6_101\Sensor/driver_max30102.c ****     else                                                                                           
 510:..\..\..\..\PSoC6_101\Sensor/driver_max30102.c ****     {
 511:..\..\..\..\PSoC6_101\Sensor/driver_max30102.c ****         bit = 0;                                                                                   
 1231              		.loc 1 511 0
 1232 01c6 0023     		movs	r3, #0
 1233 01c8 7B77     		strb	r3, [r7, #29]
 1234              	.L70:
 512:..\..\..\..\PSoC6_101\Sensor/driver_max30102.c ****     }
 513:..\..\..\..\PSoC6_101\Sensor/driver_max30102.c ****     
 514:..\..\..\..\PSoC6_101\Sensor/driver_max30102.c ****     for (i = 0; i < (*len); i++)                                                                   
 1235              		.loc 1 514 0
 1236 01ca 0023     		movs	r3, #0
 1237 01cc 3B77     		strb	r3, [r7, #28]
 1238 01ce AEE0     		b	.L73
 1239              	.L76:
 515:..\..\..\..\PSoC6_101\Sensor/driver_max30102.c ****     {
 516:..\..\..\..\PSoC6_101\Sensor/driver_max30102.c ****         if (mode == MAX30102_MODE_HEART_RATE)                                                      
 1240              		.loc 1 516 0
 1241 01d0 7B7E     		ldrb	r3, [r7, #25]	@ zero_extendqisi2
 1242 01d2 022B     		cmp	r3, #2
 1243 01d4 40D1     		bne	.L74
 517:..\..\..\..\PSoC6_101\Sensor/driver_max30102.c ****         {
 518:..\..\..\..\PSoC6_101\Sensor/driver_max30102.c ****             raw_red[i] = ((uint32_t)handle->buf[i * 3 + 0] << 16) |                                
 1244              		.loc 1 518 0
 1245 01d6 3B7F     		ldrb	r3, [r7, #28]	@ zero_extendqisi2
 1246 01d8 9B00     		lsls	r3, r3, #2
 1247 01da BA68     		ldr	r2, [r7, #8]
 1248 01dc D118     		adds	r1, r2, r3
 1249 01de 3A7F     		ldrb	r2, [r7, #28]	@ zero_extendqisi2
 1250 01e0 1346     		mov	r3, r2
 1251 01e2 5B00     		lsls	r3, r3, #1
 1252 01e4 1344     		add	r3, r3, r2
 1253 01e6 FA68     		ldr	r2, [r7, #12]
 1254 01e8 1344     		add	r3, r3, r2
 1255 01ea 93F82430 		ldrb	r3, [r3, #36]	@ zero_extendqisi2
ARM GAS  C:\Users\49148\AppData\Local\Temp\ccWN5cWv.s 			page 34


 1256 01ee 1804     		lsls	r0, r3, #16
 519:..\..\..\..\PSoC6_101\Sensor/driver_max30102.c ****                          ((uint32_t)handle->buf[i * 3 + 1] << 8) |                                 
 1257              		.loc 1 519 0
 1258 01f0 3A7F     		ldrb	r2, [r7, #28]	@ zero_extendqisi2
 1259 01f2 1346     		mov	r3, r2
 1260 01f4 5B00     		lsls	r3, r3, #1
 1261 01f6 1344     		add	r3, r3, r2
 1262 01f8 0133     		adds	r3, r3, #1
 1263 01fa FA68     		ldr	r2, [r7, #12]
 1264 01fc 1344     		add	r3, r3, r2
 1265 01fe 93F82430 		ldrb	r3, [r3, #36]	@ zero_extendqisi2
 1266 0202 1B02     		lsls	r3, r3, #8
 518:..\..\..\..\PSoC6_101\Sensor/driver_max30102.c ****                          ((uint32_t)handle->buf[i * 3 + 1] << 8) |                                 
 1267              		.loc 1 518 0
 1268 0204 1843     		orrs	r0, r0, r3
 520:..\..\..\..\PSoC6_101\Sensor/driver_max30102.c ****                          ((uint32_t)handle->buf[i * 3 + 2] << 0);                                  
 1269              		.loc 1 520 0
 1270 0206 3A7F     		ldrb	r2, [r7, #28]	@ zero_extendqisi2
 1271 0208 1346     		mov	r3, r2
 1272 020a 5B00     		lsls	r3, r3, #1
 1273 020c 1344     		add	r3, r3, r2
 1274 020e 0233     		adds	r3, r3, #2
 1275 0210 FA68     		ldr	r2, [r7, #12]
 1276 0212 1344     		add	r3, r3, r2
 1277 0214 93F82430 		ldrb	r3, [r3, #36]	@ zero_extendqisi2
 519:..\..\..\..\PSoC6_101\Sensor/driver_max30102.c ****                          ((uint32_t)handle->buf[i * 3 + 1] << 8) |                                 
 1278              		.loc 1 519 0
 1279 0218 0343     		orrs	r3, r3, r0
 518:..\..\..\..\PSoC6_101\Sensor/driver_max30102.c ****                          ((uint32_t)handle->buf[i * 3 + 1] << 8) |                                 
 1280              		.loc 1 518 0
 1281 021a 0B60     		str	r3, [r1]
 521:..\..\..\..\PSoC6_101\Sensor/driver_max30102.c ****             raw_red[i] = raw_red[i] >> bit;                                                        
 1282              		.loc 1 521 0
 1283 021c 3B7F     		ldrb	r3, [r7, #28]	@ zero_extendqisi2
 1284 021e 9B00     		lsls	r3, r3, #2
 1285 0220 BA68     		ldr	r2, [r7, #8]
 1286 0222 1344     		add	r3, r3, r2
 1287 0224 3A7F     		ldrb	r2, [r7, #28]	@ zero_extendqisi2
 1288 0226 9200     		lsls	r2, r2, #2
 1289 0228 B968     		ldr	r1, [r7, #8]
 1290 022a 0A44     		add	r2, r2, r1
 1291 022c 1168     		ldr	r1, [r2]
 1292 022e 7A7F     		ldrb	r2, [r7, #29]	@ zero_extendqisi2
 1293 0230 21FA02F2 		lsr	r2, r1, r2
 1294 0234 1A60     		str	r2, [r3]
 1295 0236 77E0     		b	.L75
 1296              	.L79:
 1297              		.align	2
 1298              	.L78:
 1299 0238 DC020000 		.word	.LC20
 1300 023c 08030000 		.word	.LC21
 1301 0240 24030000 		.word	.LC22
 1302 0244 4C030000 		.word	.LC23
 1303 0248 20010000 		.word	.LC9
 1304 024c 78030000 		.word	.LC24
 1305 0250 94030000 		.word	.LC25
 1306 0254 C0030000 		.word	.LC26
ARM GAS  C:\Users\49148\AppData\Local\Temp\ccWN5cWv.s 			page 35


 1307              	.L74:
 522:..\..\..\..\PSoC6_101\Sensor/driver_max30102.c ****         }
 523:..\..\..\..\PSoC6_101\Sensor/driver_max30102.c ****         else
 524:..\..\..\..\PSoC6_101\Sensor/driver_max30102.c ****         {
 525:..\..\..\..\PSoC6_101\Sensor/driver_max30102.c ****             raw_red[i] = ((uint32_t)handle->buf[i * 6 + 0] << 16) |                                
 1308              		.loc 1 525 0
 1309 0258 3B7F     		ldrb	r3, [r7, #28]	@ zero_extendqisi2
 1310 025a 9B00     		lsls	r3, r3, #2
 1311 025c BA68     		ldr	r2, [r7, #8]
 1312 025e D118     		adds	r1, r2, r3
 1313 0260 3A7F     		ldrb	r2, [r7, #28]	@ zero_extendqisi2
 1314 0262 1346     		mov	r3, r2
 1315 0264 5B00     		lsls	r3, r3, #1
 1316 0266 1344     		add	r3, r3, r2
 1317 0268 5B00     		lsls	r3, r3, #1
 1318 026a 1A46     		mov	r2, r3
 1319 026c FB68     		ldr	r3, [r7, #12]
 1320 026e 1344     		add	r3, r3, r2
 1321 0270 93F82430 		ldrb	r3, [r3, #36]	@ zero_extendqisi2
 1322 0274 1804     		lsls	r0, r3, #16
 526:..\..\..\..\PSoC6_101\Sensor/driver_max30102.c ****                          ((uint32_t)handle->buf[i * 6 + 1] << 8) |                                 
 1323              		.loc 1 526 0
 1324 0276 3A7F     		ldrb	r2, [r7, #28]	@ zero_extendqisi2
 1325 0278 1346     		mov	r3, r2
 1326 027a 5B00     		lsls	r3, r3, #1
 1327 027c 1344     		add	r3, r3, r2
 1328 027e 5B00     		lsls	r3, r3, #1
 1329 0280 0133     		adds	r3, r3, #1
 1330 0282 FA68     		ldr	r2, [r7, #12]
 1331 0284 1344     		add	r3, r3, r2
 1332 0286 93F82430 		ldrb	r3, [r3, #36]	@ zero_extendqisi2
 1333 028a 1B02     		lsls	r3, r3, #8
 525:..\..\..\..\PSoC6_101\Sensor/driver_max30102.c ****                          ((uint32_t)handle->buf[i * 6 + 1] << 8) |                                 
 1334              		.loc 1 525 0
 1335 028c 1843     		orrs	r0, r0, r3
 527:..\..\..\..\PSoC6_101\Sensor/driver_max30102.c ****                          ((uint32_t)handle->buf[i * 6 + 2] << 0);                                  
 1336              		.loc 1 527 0
 1337 028e 3A7F     		ldrb	r2, [r7, #28]	@ zero_extendqisi2
 1338 0290 1346     		mov	r3, r2
 1339 0292 5B00     		lsls	r3, r3, #1
 1340 0294 1344     		add	r3, r3, r2
 1341 0296 5B00     		lsls	r3, r3, #1
 1342 0298 0233     		adds	r3, r3, #2
 1343 029a FA68     		ldr	r2, [r7, #12]
 1344 029c 1344     		add	r3, r3, r2
 1345 029e 93F82430 		ldrb	r3, [r3, #36]	@ zero_extendqisi2
 526:..\..\..\..\PSoC6_101\Sensor/driver_max30102.c ****                          ((uint32_t)handle->buf[i * 6 + 1] << 8) |                                 
 1346              		.loc 1 526 0
 1347 02a2 0343     		orrs	r3, r3, r0
 525:..\..\..\..\PSoC6_101\Sensor/driver_max30102.c ****                          ((uint32_t)handle->buf[i * 6 + 1] << 8) |                                 
 1348              		.loc 1 525 0
 1349 02a4 0B60     		str	r3, [r1]
 528:..\..\..\..\PSoC6_101\Sensor/driver_max30102.c ****             raw_red[i] = raw_red[i] >> bit;                                                        
 1350              		.loc 1 528 0
 1351 02a6 3B7F     		ldrb	r3, [r7, #28]	@ zero_extendqisi2
 1352 02a8 9B00     		lsls	r3, r3, #2
 1353 02aa BA68     		ldr	r2, [r7, #8]
ARM GAS  C:\Users\49148\AppData\Local\Temp\ccWN5cWv.s 			page 36


 1354 02ac 1344     		add	r3, r3, r2
 1355 02ae 3A7F     		ldrb	r2, [r7, #28]	@ zero_extendqisi2
 1356 02b0 9200     		lsls	r2, r2, #2
 1357 02b2 B968     		ldr	r1, [r7, #8]
 1358 02b4 0A44     		add	r2, r2, r1
 1359 02b6 1168     		ldr	r1, [r2]
 1360 02b8 7A7F     		ldrb	r2, [r7, #29]	@ zero_extendqisi2
 1361 02ba 21FA02F2 		lsr	r2, r1, r2
 1362 02be 1A60     		str	r2, [r3]
 529:..\..\..\..\PSoC6_101\Sensor/driver_max30102.c ****             raw_ir[i] = ((uint32_t)handle->buf[i * 6 + 3] << 16) |                                 
 1363              		.loc 1 529 0
 1364 02c0 3B7F     		ldrb	r3, [r7, #28]	@ zero_extendqisi2
 1365 02c2 9B00     		lsls	r3, r3, #2
 1366 02c4 7A68     		ldr	r2, [r7, #4]
 1367 02c6 D118     		adds	r1, r2, r3
 1368 02c8 3A7F     		ldrb	r2, [r7, #28]	@ zero_extendqisi2
 1369 02ca 1346     		mov	r3, r2
 1370 02cc 5B00     		lsls	r3, r3, #1
 1371 02ce 1344     		add	r3, r3, r2
 1372 02d0 5B00     		lsls	r3, r3, #1
 1373 02d2 0333     		adds	r3, r3, #3
 1374 02d4 FA68     		ldr	r2, [r7, #12]
 1375 02d6 1344     		add	r3, r3, r2
 1376 02d8 93F82430 		ldrb	r3, [r3, #36]	@ zero_extendqisi2
 1377 02dc 1804     		lsls	r0, r3, #16
 530:..\..\..\..\PSoC6_101\Sensor/driver_max30102.c ****                         ((uint32_t)handle->buf[i * 6 + 4] << 8) |                                  
 1378              		.loc 1 530 0
 1379 02de 3A7F     		ldrb	r2, [r7, #28]	@ zero_extendqisi2
 1380 02e0 1346     		mov	r3, r2
 1381 02e2 5B00     		lsls	r3, r3, #1
 1382 02e4 1344     		add	r3, r3, r2
 1383 02e6 5B00     		lsls	r3, r3, #1
 1384 02e8 0433     		adds	r3, r3, #4
 1385 02ea FA68     		ldr	r2, [r7, #12]
 1386 02ec 1344     		add	r3, r3, r2
 1387 02ee 93F82430 		ldrb	r3, [r3, #36]	@ zero_extendqisi2
 1388 02f2 1B02     		lsls	r3, r3, #8
 529:..\..\..\..\PSoC6_101\Sensor/driver_max30102.c ****             raw_ir[i] = ((uint32_t)handle->buf[i * 6 + 3] << 16) |                                 
 1389              		.loc 1 529 0
 1390 02f4 1843     		orrs	r0, r0, r3
 531:..\..\..\..\PSoC6_101\Sensor/driver_max30102.c ****                         ((uint32_t)handle->buf[i * 6 + 5] << 0);                                   
 1391              		.loc 1 531 0
 1392 02f6 3A7F     		ldrb	r2, [r7, #28]	@ zero_extendqisi2
 1393 02f8 1346     		mov	r3, r2
 1394 02fa 5B00     		lsls	r3, r3, #1
 1395 02fc 1344     		add	r3, r3, r2
 1396 02fe 5B00     		lsls	r3, r3, #1
 1397 0300 0533     		adds	r3, r3, #5
 1398 0302 FA68     		ldr	r2, [r7, #12]
 1399 0304 1344     		add	r3, r3, r2
 1400 0306 93F82430 		ldrb	r3, [r3, #36]	@ zero_extendqisi2
 530:..\..\..\..\PSoC6_101\Sensor/driver_max30102.c ****                         ((uint32_t)handle->buf[i * 6 + 4] << 8) |                                  
 1401              		.loc 1 530 0
 1402 030a 0343     		orrs	r3, r3, r0
 529:..\..\..\..\PSoC6_101\Sensor/driver_max30102.c ****             raw_ir[i] = ((uint32_t)handle->buf[i * 6 + 3] << 16) |                                 
 1403              		.loc 1 529 0
 1404 030c 0B60     		str	r3, [r1]
ARM GAS  C:\Users\49148\AppData\Local\Temp\ccWN5cWv.s 			page 37


 532:..\..\..\..\PSoC6_101\Sensor/driver_max30102.c ****             raw_ir[i] = raw_ir[i] >> bit;                                                          
 1405              		.loc 1 532 0
 1406 030e 3B7F     		ldrb	r3, [r7, #28]	@ zero_extendqisi2
 1407 0310 9B00     		lsls	r3, r3, #2
 1408 0312 7A68     		ldr	r2, [r7, #4]
 1409 0314 1344     		add	r3, r3, r2
 1410 0316 3A7F     		ldrb	r2, [r7, #28]	@ zero_extendqisi2
 1411 0318 9200     		lsls	r2, r2, #2
 1412 031a 7968     		ldr	r1, [r7, #4]
 1413 031c 0A44     		add	r2, r2, r1
 1414 031e 1168     		ldr	r1, [r2]
 1415 0320 7A7F     		ldrb	r2, [r7, #29]	@ zero_extendqisi2
 1416 0322 21FA02F2 		lsr	r2, r1, r2
 1417 0326 1A60     		str	r2, [r3]
 1418              	.L75:
 514:..\..\..\..\PSoC6_101\Sensor/driver_max30102.c ****     {
 1419              		.loc 1 514 0 discriminator 2
 1420 0328 3B7F     		ldrb	r3, [r7, #28]	@ zero_extendqisi2
 1421 032a 0133     		adds	r3, r3, #1
 1422 032c 3B77     		strb	r3, [r7, #28]
 1423              	.L73:
 514:..\..\..\..\PSoC6_101\Sensor/driver_max30102.c ****     {
 1424              		.loc 1 514 0 is_stmt 0 discriminator 1
 1425 032e 3B68     		ldr	r3, [r7]
 1426 0330 1B78     		ldrb	r3, [r3]	@ zero_extendqisi2
 1427 0332 3A7F     		ldrb	r2, [r7, #28]	@ zero_extendqisi2
 1428 0334 9A42     		cmp	r2, r3
 1429 0336 FFF44BAF 		bcc	.L76
 533:..\..\..\..\PSoC6_101\Sensor/driver_max30102.c ****         }
 534:..\..\..\..\PSoC6_101\Sensor/driver_max30102.c ****     }
 535:..\..\..\..\PSoC6_101\Sensor/driver_max30102.c ****     
 536:..\..\..\..\PSoC6_101\Sensor/driver_max30102.c ****     return r;                                                                                      
 1430              		.loc 1 536 0 is_stmt 1
 1431 033a FB7E     		ldrb	r3, [r7, #27]	@ zero_extendqisi2
 1432              	.L77:
 537:..\..\..\..\PSoC6_101\Sensor/driver_max30102.c **** }
 1433              		.loc 1 537 0 discriminator 1
 1434 033c 1846     		mov	r0, r3
 1435 033e 2437     		adds	r7, r7, #36
 1436              		.cfi_def_cfa_offset 12
 1437 0340 BD46     		mov	sp, r7
 1438              		.cfi_def_cfa_register 13
 1439              		@ sp needed
 1440 0342 90BD     		pop	{r4, r7, pc}
 1441              		.cfi_endproc
 1442              	.LFE4:
 1443              		.size	max30102_read, .-max30102_read
 1444              		.section	.rodata
 1445              		.align	2
 1446              	.LC27:
 1447 03e4 6D617833 		.ascii	"max30102: read interrupt enable2 failed.\012\000"
 1447      30313032 
 1447      3A207265 
 1447      61642069 
 1447      6E746572 
 1448 040e 0000     		.align	2
 1449              	.LC28:
ARM GAS  C:\Users\49148\AppData\Local\Temp\ccWN5cWv.s 			page 38


 1450 0410 6D617833 		.ascii	"max30102: write interrupt enable2 failed.\012\000"
 1450      30313032 
 1450      3A207772 
 1450      69746520 
 1450      696E7465 
 1451 043b 00       		.align	2
 1452              	.LC29:
 1453 043c 6D617833 		.ascii	"max30102: read die temp config failed.\012\000"
 1453      30313032 
 1453      3A207265 
 1453      61642064 
 1453      69652074 
 1454              		.align	2
 1455              	.LC30:
 1456 0464 6D617833 		.ascii	"max30102: write die temp config failed.\012\000"
 1456      30313032 
 1456      3A207772 
 1456      69746520 
 1456      64696520 
 1457 048d 000000   		.align	2
 1458              	.LC31:
 1459 0490 6D617833 		.ascii	"max30102: read timeout.\012\000"
 1459      30313032 
 1459      3A207265 
 1459      61642074 
 1459      696D656F 
 1460              		.section	.text.max30102_read_temperature,"ax",%progbits
 1461              		.align	2
 1462              		.global	max30102_read_temperature
 1463              		.thumb
 1464              		.thumb_func
 1465              		.type	max30102_read_temperature, %function
 1466              	max30102_read_temperature:
 1467              	.LFB5:
 538:..\..\..\..\PSoC6_101\Sensor/driver_max30102.c **** 
 539:..\..\..\..\PSoC6_101\Sensor/driver_max30102.c **** /**
 540:..\..\..\..\PSoC6_101\Sensor/driver_max30102.c ****  * @brief      read the temperature
 541:..\..\..\..\PSoC6_101\Sensor/driver_max30102.c ****  * @param[in]  *handle points to a max30102 handle structure
 542:..\..\..\..\PSoC6_101\Sensor/driver_max30102.c ****  * @param[out] *raw points to a raw data buffer
 543:..\..\..\..\PSoC6_101\Sensor/driver_max30102.c ****  * @param[out] *temp points to a converted temperature buffer
 544:..\..\..\..\PSoC6_101\Sensor/driver_max30102.c ****  * @return     status code
 545:..\..\..\..\PSoC6_101\Sensor/driver_max30102.c ****  *             - 0 success
 546:..\..\..\..\PSoC6_101\Sensor/driver_max30102.c ****  *             - 1 read temperature failed
 547:..\..\..\..\PSoC6_101\Sensor/driver_max30102.c ****  *             - 2 handle is NULL
 548:..\..\..\..\PSoC6_101\Sensor/driver_max30102.c ****  *             - 3 handle is not initialized
 549:..\..\..\..\PSoC6_101\Sensor/driver_max30102.c ****  * @note       none
 550:..\..\..\..\PSoC6_101\Sensor/driver_max30102.c ****  */
 551:..\..\..\..\PSoC6_101\Sensor/driver_max30102.c **** uint8_t max30102_read_temperature(max30102_handle_t *handle, uint16_t *raw, float *temp)
 552:..\..\..\..\PSoC6_101\Sensor/driver_max30102.c **** {
 1468              		.loc 1 552 0
 1469              		.cfi_startproc
 1470              		@ args = 0, pretend = 0, frame = 24
 1471              		@ frame_needed = 1, uses_anonymous_args = 0
 1472 0000 90B5     		push	{r4, r7, lr}
 1473              		.cfi_def_cfa_offset 12
 1474              		.cfi_offset 4, -12
 1475              		.cfi_offset 7, -8
ARM GAS  C:\Users\49148\AppData\Local\Temp\ccWN5cWv.s 			page 39


 1476              		.cfi_offset 14, -4
 1477 0002 87B0     		sub	sp, sp, #28
 1478              		.cfi_def_cfa_offset 40
 1479 0004 00AF     		add	r7, sp, #0
 1480              		.cfi_def_cfa_register 7
 1481 0006 F860     		str	r0, [r7, #12]
 1482 0008 B960     		str	r1, [r7, #8]
 1483 000a 7A60     		str	r2, [r7, #4]
 553:..\..\..\..\PSoC6_101\Sensor/driver_max30102.c ****     uint8_t res;
 554:..\..\..\..\PSoC6_101\Sensor/driver_max30102.c ****     uint8_t prev;
 555:..\..\..\..\PSoC6_101\Sensor/driver_max30102.c ****     uint16_t timeout;
 556:..\..\..\..\PSoC6_101\Sensor/driver_max30102.c ****     
 557:..\..\..\..\PSoC6_101\Sensor/driver_max30102.c ****     if (handle == NULL)                                                                            
 1484              		.loc 1 557 0
 1485 000c FB68     		ldr	r3, [r7, #12]
 1486 000e 002B     		cmp	r3, #0
 1487 0010 01D1     		bne	.L81
 558:..\..\..\..\PSoC6_101\Sensor/driver_max30102.c ****     {
 559:..\..\..\..\PSoC6_101\Sensor/driver_max30102.c ****         return 2;                                                                                  
 1488              		.loc 1 559 0
 1489 0012 0223     		movs	r3, #2
 1490 0014 93E0     		b	.L92
 1491              	.L81:
 560:..\..\..\..\PSoC6_101\Sensor/driver_max30102.c ****     }
 561:..\..\..\..\PSoC6_101\Sensor/driver_max30102.c ****     if (handle->inited != 1)                                                                       
 1492              		.loc 1 561 0
 1493 0016 FB68     		ldr	r3, [r7, #12]
 1494 0018 1B7F     		ldrb	r3, [r3, #28]	@ zero_extendqisi2
 1495 001a 012B     		cmp	r3, #1
 1496 001c 01D0     		beq	.L83
 562:..\..\..\..\PSoC6_101\Sensor/driver_max30102.c ****     {
 563:..\..\..\..\PSoC6_101\Sensor/driver_max30102.c ****         return 3;                                                                                  
 1497              		.loc 1 563 0
 1498 001e 0323     		movs	r3, #3
 1499 0020 8DE0     		b	.L92
 1500              	.L83:
 564:..\..\..\..\PSoC6_101\Sensor/driver_max30102.c ****     }
 565:..\..\..\..\PSoC6_101\Sensor/driver_max30102.c **** 
 566:..\..\..\..\PSoC6_101\Sensor/driver_max30102.c ****     res = handle->iic_read(MAX30102_ADDRESS, MAX30102_REG_INTERRUPT_ENABLE_2, (uint8_t *)&prev, 1);
 1501              		.loc 1 566 0
 1502 0022 FB68     		ldr	r3, [r7, #12]
 1503 0024 9C68     		ldr	r4, [r3, #8]
 1504 0026 07F11402 		add	r2, r7, #20
 1505 002a 0123     		movs	r3, #1
 1506 002c 0321     		movs	r1, #3
 1507 002e AE20     		movs	r0, #174
 1508 0030 A047     		blx	r4
 1509 0032 0346     		mov	r3, r0
 1510 0034 7B75     		strb	r3, [r7, #21]
 567:..\..\..\..\PSoC6_101\Sensor/driver_max30102.c ****     if (res != 0)                                                                                  
 1511              		.loc 1 567 0
 1512 0036 7B7D     		ldrb	r3, [r7, #21]	@ zero_extendqisi2
 1513 0038 002B     		cmp	r3, #0
 1514 003a 05D0     		beq	.L84
 568:..\..\..\..\PSoC6_101\Sensor/driver_max30102.c ****     {
 569:..\..\..\..\PSoC6_101\Sensor/driver_max30102.c ****         handle->debug_print("max30102: read interrupt enable2 failed.\n");                         
 1515              		.loc 1 569 0
ARM GAS  C:\Users\49148\AppData\Local\Temp\ccWN5cWv.s 			page 40


 1516 003c FB68     		ldr	r3, [r7, #12]
 1517 003e 9B69     		ldr	r3, [r3, #24]
 1518 0040 4148     		ldr	r0, .L94
 1519 0042 9847     		blx	r3
 570:..\..\..\..\PSoC6_101\Sensor/driver_max30102.c ****        
 571:..\..\..\..\PSoC6_101\Sensor/driver_max30102.c ****         return 1;                                                                                  
 1520              		.loc 1 571 0
 1521 0044 0123     		movs	r3, #1
 1522 0046 7AE0     		b	.L92
 1523              	.L84:
 572:..\..\..\..\PSoC6_101\Sensor/driver_max30102.c ****     }
 573:..\..\..\..\PSoC6_101\Sensor/driver_max30102.c ****     if ((prev & (1 << 1)) == 0)                                                                    
 1524              		.loc 1 573 0
 1525 0048 3B7D     		ldrb	r3, [r7, #20]	@ zero_extendqisi2
 1526 004a 03F00203 		and	r3, r3, #2
 1527 004e 002B     		cmp	r3, #0
 1528 0050 1CD1     		bne	.L85
 574:..\..\..\..\PSoC6_101\Sensor/driver_max30102.c ****     {
 575:..\..\..\..\PSoC6_101\Sensor/driver_max30102.c ****         prev &= ~(1 << 1);                                                                         
 1529              		.loc 1 575 0
 1530 0052 3B7D     		ldrb	r3, [r7, #20]	@ zero_extendqisi2
 1531 0054 23F00203 		bic	r3, r3, #2
 1532 0058 DBB2     		uxtb	r3, r3
 1533 005a 3B75     		strb	r3, [r7, #20]
 576:..\..\..\..\PSoC6_101\Sensor/driver_max30102.c ****         prev |= 1 << 1;                                                                            
 1534              		.loc 1 576 0
 1535 005c 3B7D     		ldrb	r3, [r7, #20]	@ zero_extendqisi2
 1536 005e 43F00203 		orr	r3, r3, #2
 1537 0062 DBB2     		uxtb	r3, r3
 1538 0064 3B75     		strb	r3, [r7, #20]
 577:..\..\..\..\PSoC6_101\Sensor/driver_max30102.c ****         res = handle->iic_write(MAX30102_ADDRESS, MAX30102_REG_INTERRUPT_ENABLE_2, (uint8_t *)&prev
 1539              		.loc 1 577 0
 1540 0066 FB68     		ldr	r3, [r7, #12]
 1541 0068 DC68     		ldr	r4, [r3, #12]
 1542 006a 07F11402 		add	r2, r7, #20
 1543 006e 0123     		movs	r3, #1
 1544 0070 0321     		movs	r1, #3
 1545 0072 AE20     		movs	r0, #174
 1546 0074 A047     		blx	r4
 1547 0076 0346     		mov	r3, r0
 1548 0078 7B75     		strb	r3, [r7, #21]
 578:..\..\..\..\PSoC6_101\Sensor/driver_max30102.c ****         if (res != 0)                                                                              
 1549              		.loc 1 578 0
 1550 007a 7B7D     		ldrb	r3, [r7, #21]	@ zero_extendqisi2
 1551 007c 002B     		cmp	r3, #0
 1552 007e 05D0     		beq	.L85
 579:..\..\..\..\PSoC6_101\Sensor/driver_max30102.c ****         {
 580:..\..\..\..\PSoC6_101\Sensor/driver_max30102.c ****             handle->debug_print("max30102: write interrupt enable2 failed.\n");                    
 1553              		.loc 1 580 0
 1554 0080 FB68     		ldr	r3, [r7, #12]
 1555 0082 9B69     		ldr	r3, [r3, #24]
 1556 0084 3148     		ldr	r0, .L94+4
 1557 0086 9847     		blx	r3
 581:..\..\..\..\PSoC6_101\Sensor/driver_max30102.c ****            
 582:..\..\..\..\PSoC6_101\Sensor/driver_max30102.c ****             return 1;                                                                              
 1558              		.loc 1 582 0
 1559 0088 0123     		movs	r3, #1
ARM GAS  C:\Users\49148\AppData\Local\Temp\ccWN5cWv.s 			page 41


 1560 008a 58E0     		b	.L92
 1561              	.L85:
 583:..\..\..\..\PSoC6_101\Sensor/driver_max30102.c ****         }
 584:..\..\..\..\PSoC6_101\Sensor/driver_max30102.c ****     }
 585:..\..\..\..\PSoC6_101\Sensor/driver_max30102.c ****     
 586:..\..\..\..\PSoC6_101\Sensor/driver_max30102.c ****     res = handle->iic_read(MAX30102_ADDRESS, MAX30102_REG_DIE_TEMP_CONFIG, (uint8_t *)&prev, 1);   
 1562              		.loc 1 586 0
 1563 008c FB68     		ldr	r3, [r7, #12]
 1564 008e 9C68     		ldr	r4, [r3, #8]
 1565 0090 07F11402 		add	r2, r7, #20
 1566 0094 0123     		movs	r3, #1
 1567 0096 2121     		movs	r1, #33
 1568 0098 AE20     		movs	r0, #174
 1569 009a A047     		blx	r4
 1570 009c 0346     		mov	r3, r0
 1571 009e 7B75     		strb	r3, [r7, #21]
 587:..\..\..\..\PSoC6_101\Sensor/driver_max30102.c ****     if (res != 0)                                                                                  
 1572              		.loc 1 587 0
 1573 00a0 7B7D     		ldrb	r3, [r7, #21]	@ zero_extendqisi2
 1574 00a2 002B     		cmp	r3, #0
 1575 00a4 05D0     		beq	.L86
 588:..\..\..\..\PSoC6_101\Sensor/driver_max30102.c ****     {
 589:..\..\..\..\PSoC6_101\Sensor/driver_max30102.c ****         handle->debug_print("max30102: read die temp config failed.\n");                           
 1576              		.loc 1 589 0
 1577 00a6 FB68     		ldr	r3, [r7, #12]
 1578 00a8 9B69     		ldr	r3, [r3, #24]
 1579 00aa 2948     		ldr	r0, .L94+8
 1580 00ac 9847     		blx	r3
 590:..\..\..\..\PSoC6_101\Sensor/driver_max30102.c ****        
 591:..\..\..\..\PSoC6_101\Sensor/driver_max30102.c ****         return 1;                                                                                  
 1581              		.loc 1 591 0
 1582 00ae 0123     		movs	r3, #1
 1583 00b0 45E0     		b	.L92
 1584              	.L86:
 592:..\..\..\..\PSoC6_101\Sensor/driver_max30102.c ****     }
 593:..\..\..\..\PSoC6_101\Sensor/driver_max30102.c ****     prev &= ~(1 << 0);                                                                             
 1585              		.loc 1 593 0
 1586 00b2 3B7D     		ldrb	r3, [r7, #20]	@ zero_extendqisi2
 1587 00b4 23F00103 		bic	r3, r3, #1
 1588 00b8 DBB2     		uxtb	r3, r3
 1589 00ba 3B75     		strb	r3, [r7, #20]
 594:..\..\..\..\PSoC6_101\Sensor/driver_max30102.c ****     prev |= (1 << 0);                                                                              
 1590              		.loc 1 594 0
 1591 00bc 3B7D     		ldrb	r3, [r7, #20]	@ zero_extendqisi2
 1592 00be 43F00103 		orr	r3, r3, #1
 1593 00c2 DBB2     		uxtb	r3, r3
 1594 00c4 3B75     		strb	r3, [r7, #20]
 595:..\..\..\..\PSoC6_101\Sensor/driver_max30102.c ****     res = handle->iic_write(MAX30102_ADDRESS, MAX30102_REG_DIE_TEMP_CONFIG, (uint8_t *)&prev, 1);  
 1595              		.loc 1 595 0
 1596 00c6 FB68     		ldr	r3, [r7, #12]
 1597 00c8 DC68     		ldr	r4, [r3, #12]
 1598 00ca 07F11402 		add	r2, r7, #20
 1599 00ce 0123     		movs	r3, #1
 1600 00d0 2121     		movs	r1, #33
 1601 00d2 AE20     		movs	r0, #174
 1602 00d4 A047     		blx	r4
 1603 00d6 0346     		mov	r3, r0
ARM GAS  C:\Users\49148\AppData\Local\Temp\ccWN5cWv.s 			page 42


 1604 00d8 7B75     		strb	r3, [r7, #21]
 596:..\..\..\..\PSoC6_101\Sensor/driver_max30102.c ****     if (res != 0)                                                                                  
 1605              		.loc 1 596 0
 1606 00da 7B7D     		ldrb	r3, [r7, #21]	@ zero_extendqisi2
 1607 00dc 002B     		cmp	r3, #0
 1608 00de 05D0     		beq	.L87
 597:..\..\..\..\PSoC6_101\Sensor/driver_max30102.c ****     {
 598:..\..\..\..\PSoC6_101\Sensor/driver_max30102.c ****         handle->debug_print("max30102: write die temp config failed.\n");                          
 1609              		.loc 1 598 0
 1610 00e0 FB68     		ldr	r3, [r7, #12]
 1611 00e2 9B69     		ldr	r3, [r3, #24]
 1612 00e4 1B48     		ldr	r0, .L94+12
 1613 00e6 9847     		blx	r3
 599:..\..\..\..\PSoC6_101\Sensor/driver_max30102.c ****        
 600:..\..\..\..\PSoC6_101\Sensor/driver_max30102.c ****         return 1;                                                                                  
 1614              		.loc 1 600 0
 1615 00e8 0123     		movs	r3, #1
 1616 00ea 28E0     		b	.L92
 1617              	.L87:
 601:..\..\..\..\PSoC6_101\Sensor/driver_max30102.c ****     }
 602:..\..\..\..\PSoC6_101\Sensor/driver_max30102.c ****     
 603:..\..\..\..\PSoC6_101\Sensor/driver_max30102.c ****     timeout = 5000;                                                                                
 1618              		.loc 1 603 0
 1619 00ec 41F28833 		movw	r3, #5000
 1620 00f0 FB82     		strh	r3, [r7, #22]	@ movhi
 604:..\..\..\..\PSoC6_101\Sensor/driver_max30102.c ****     handle->finished_flag = 0;                                                                     
 1621              		.loc 1 604 0
 1622 00f2 FB68     		ldr	r3, [r7, #12]
 1623 00f4 0022     		movs	r2, #0
 1624 00f6 5A77     		strb	r2, [r3, #29]
 605:..\..\..\..\PSoC6_101\Sensor/driver_max30102.c ****     while (timeout != 0)                                                                           
 1625              		.loc 1 605 0
 1626 00f8 0AE0     		b	.L88
 1627              	.L90:
 606:..\..\..\..\PSoC6_101\Sensor/driver_max30102.c ****     {
 607:..\..\..\..\PSoC6_101\Sensor/driver_max30102.c ****         handle->delay_ms(1);                                                                       
 1628              		.loc 1 607 0
 1629 00fa FB68     		ldr	r3, [r7, #12]
 1630 00fc 5B69     		ldr	r3, [r3, #20]
 1631 00fe 0120     		movs	r0, #1
 1632 0100 9847     		blx	r3
 608:..\..\..\..\PSoC6_101\Sensor/driver_max30102.c ****         timeout--;                                                                                 
 1633              		.loc 1 608 0
 1634 0102 FB8A     		ldrh	r3, [r7, #22]
 1635 0104 013B     		subs	r3, r3, #1
 1636 0106 FB82     		strh	r3, [r7, #22]	@ movhi
 609:..\..\..\..\PSoC6_101\Sensor/driver_max30102.c ****         if (handle->finished_flag != 0)                                                            
 1637              		.loc 1 609 0
 1638 0108 FB68     		ldr	r3, [r7, #12]
 1639 010a 5B7F     		ldrb	r3, [r3, #29]	@ zero_extendqisi2
 1640 010c 002B     		cmp	r3, #0
 1641 010e 03D1     		bne	.L93
 1642              	.L88:
 605:..\..\..\..\PSoC6_101\Sensor/driver_max30102.c ****     {
 1643              		.loc 1 605 0
 1644 0110 FB8A     		ldrh	r3, [r7, #22]
 1645 0112 002B     		cmp	r3, #0
ARM GAS  C:\Users\49148\AppData\Local\Temp\ccWN5cWv.s 			page 43


 1646 0114 F1D1     		bne	.L90
 1647 0116 00E0     		b	.L89
 1648              	.L93:
 610:..\..\..\..\PSoC6_101\Sensor/driver_max30102.c ****         {
 611:..\..\..\..\PSoC6_101\Sensor/driver_max30102.c ****             break;                                                                                 
 1649              		.loc 1 611 0
 1650 0118 00BF     		nop
 1651              	.L89:
 612:..\..\..\..\PSoC6_101\Sensor/driver_max30102.c ****         }
 613:..\..\..\..\PSoC6_101\Sensor/driver_max30102.c ****     }
 614:..\..\..\..\PSoC6_101\Sensor/driver_max30102.c ****     if (timeout == 0)                                                                              
 1652              		.loc 1 614 0
 1653 011a FB8A     		ldrh	r3, [r7, #22]
 1654 011c 002B     		cmp	r3, #0
 1655 011e 05D1     		bne	.L91
 615:..\..\..\..\PSoC6_101\Sensor/driver_max30102.c ****     {
 616:..\..\..\..\PSoC6_101\Sensor/driver_max30102.c ****         handle->debug_print("max30102: read timeout.\n");                                          
 1656              		.loc 1 616 0
 1657 0120 FB68     		ldr	r3, [r7, #12]
 1658 0122 9B69     		ldr	r3, [r3, #24]
 1659 0124 0C48     		ldr	r0, .L94+16
 1660 0126 9847     		blx	r3
 617:..\..\..\..\PSoC6_101\Sensor/driver_max30102.c ****        
 618:..\..\..\..\PSoC6_101\Sensor/driver_max30102.c ****         return 1;                                                                                  
 1661              		.loc 1 618 0
 1662 0128 0123     		movs	r3, #1
 1663 012a 08E0     		b	.L92
 1664              	.L91:
 619:..\..\..\..\PSoC6_101\Sensor/driver_max30102.c ****     }
 620:..\..\..\..\PSoC6_101\Sensor/driver_max30102.c ****     *raw = handle->raw;                                                                            
 1665              		.loc 1 620 0
 1666 012c FB68     		ldr	r3, [r7, #12]
 1667 012e DA8B     		ldrh	r2, [r3, #30]
 1668 0130 BB68     		ldr	r3, [r7, #8]
 1669 0132 1A80     		strh	r2, [r3]	@ movhi
 621:..\..\..\..\PSoC6_101\Sensor/driver_max30102.c ****     *temp = handle->temperature;                                                                   
 1670              		.loc 1 621 0
 1671 0134 FB68     		ldr	r3, [r7, #12]
 1672 0136 1A6A     		ldr	r2, [r3, #32]	@ float
 1673 0138 7B68     		ldr	r3, [r7, #4]
 1674 013a 1A60     		str	r2, [r3]	@ float
 622:..\..\..\..\PSoC6_101\Sensor/driver_max30102.c ****     
 623:..\..\..\..\PSoC6_101\Sensor/driver_max30102.c ****     return 0;                                                                                      
 1675              		.loc 1 623 0
 1676 013c 0023     		movs	r3, #0
 1677              	.L92:
 624:..\..\..\..\PSoC6_101\Sensor/driver_max30102.c **** }
 1678              		.loc 1 624 0 discriminator 1
 1679 013e 1846     		mov	r0, r3
 1680 0140 1C37     		adds	r7, r7, #28
 1681              		.cfi_def_cfa_offset 12
 1682 0142 BD46     		mov	sp, r7
 1683              		.cfi_def_cfa_register 13
 1684              		@ sp needed
 1685 0144 90BD     		pop	{r4, r7, pc}
 1686              	.L95:
 1687 0146 00BF     		.align	2
ARM GAS  C:\Users\49148\AppData\Local\Temp\ccWN5cWv.s 			page 44


 1688              	.L94:
 1689 0148 E4030000 		.word	.LC27
 1690 014c 10040000 		.word	.LC28
 1691 0150 3C040000 		.word	.LC29
 1692 0154 64040000 		.word	.LC30
 1693 0158 90040000 		.word	.LC31
 1694              		.cfi_endproc
 1695              	.LFE5:
 1696              		.size	max30102_read_temperature, .-max30102_read_temperature
 1697              		.section	.text.max30102_get_interrupt_status,"ax",%progbits
 1698              		.align	2
 1699              		.global	max30102_get_interrupt_status
 1700              		.thumb
 1701              		.thumb_func
 1702              		.type	max30102_get_interrupt_status, %function
 1703              	max30102_get_interrupt_status:
 1704              	.LFB6:
 625:..\..\..\..\PSoC6_101\Sensor/driver_max30102.c **** 
 626:..\..\..\..\PSoC6_101\Sensor/driver_max30102.c **** /**
 627:..\..\..\..\PSoC6_101\Sensor/driver_max30102.c ****  * @brief      get the interrupt status
 628:..\..\..\..\PSoC6_101\Sensor/driver_max30102.c ****  * @param[in]  *handle points to a max30102 handle structure
 629:..\..\..\..\PSoC6_101\Sensor/driver_max30102.c ****  * @param[in]  status is the interrupt status
 630:..\..\..\..\PSoC6_101\Sensor/driver_max30102.c ****  * @param[out] *enable points to a bool value buffer
 631:..\..\..\..\PSoC6_101\Sensor/driver_max30102.c ****  * @return     status code
 632:..\..\..\..\PSoC6_101\Sensor/driver_max30102.c ****  *             - 0 success
 633:..\..\..\..\PSoC6_101\Sensor/driver_max30102.c ****  *             - 1 get interrupt status failed
 634:..\..\..\..\PSoC6_101\Sensor/driver_max30102.c ****  *             - 2 handle is NULL
 635:..\..\..\..\PSoC6_101\Sensor/driver_max30102.c ****  *             - 3 handle is not initialized
 636:..\..\..\..\PSoC6_101\Sensor/driver_max30102.c ****  * @note       none
 637:..\..\..\..\PSoC6_101\Sensor/driver_max30102.c ****  */
 638:..\..\..\..\PSoC6_101\Sensor/driver_max30102.c **** uint8_t max30102_get_interrupt_status(max30102_handle_t *handle, max30102_interrupt_status_t status
 639:..\..\..\..\PSoC6_101\Sensor/driver_max30102.c **** {
 1705              		.loc 1 639 0
 1706              		.cfi_startproc
 1707              		@ args = 0, pretend = 0, frame = 24
 1708              		@ frame_needed = 1, uses_anonymous_args = 0
 1709 0000 90B5     		push	{r4, r7, lr}
 1710              		.cfi_def_cfa_offset 12
 1711              		.cfi_offset 4, -12
 1712              		.cfi_offset 7, -8
 1713              		.cfi_offset 14, -4
 1714 0002 87B0     		sub	sp, sp, #28
 1715              		.cfi_def_cfa_offset 40
 1716 0004 00AF     		add	r7, sp, #0
 1717              		.cfi_def_cfa_register 7
 1718 0006 F860     		str	r0, [r7, #12]
 1719 0008 0B46     		mov	r3, r1
 1720 000a 7A60     		str	r2, [r7, #4]
 1721 000c FB72     		strb	r3, [r7, #11]
 640:..\..\..\..\PSoC6_101\Sensor/driver_max30102.c ****     uint8_t res;
 641:..\..\..\..\PSoC6_101\Sensor/driver_max30102.c ****     uint8_t prev;
 642:..\..\..\..\PSoC6_101\Sensor/driver_max30102.c ****     
 643:..\..\..\..\PSoC6_101\Sensor/driver_max30102.c ****     if (handle == NULL)                                                                            
 1722              		.loc 1 643 0
 1723 000e FB68     		ldr	r3, [r7, #12]
 1724 0010 002B     		cmp	r3, #0
 1725 0012 01D1     		bne	.L97
ARM GAS  C:\Users\49148\AppData\Local\Temp\ccWN5cWv.s 			page 45


 644:..\..\..\..\PSoC6_101\Sensor/driver_max30102.c ****     {
 645:..\..\..\..\PSoC6_101\Sensor/driver_max30102.c ****         return 2;                                                                                  
 1726              		.loc 1 645 0
 1727 0014 0223     		movs	r3, #2
 1728 0016 47E0     		b	.L103
 1729              	.L97:
 646:..\..\..\..\PSoC6_101\Sensor/driver_max30102.c ****     }
 647:..\..\..\..\PSoC6_101\Sensor/driver_max30102.c ****     if (handle->inited != 1)                                                                       
 1730              		.loc 1 647 0
 1731 0018 FB68     		ldr	r3, [r7, #12]
 1732 001a 1B7F     		ldrb	r3, [r3, #28]	@ zero_extendqisi2
 1733 001c 012B     		cmp	r3, #1
 1734 001e 01D0     		beq	.L99
 648:..\..\..\..\PSoC6_101\Sensor/driver_max30102.c ****     {
 649:..\..\..\..\PSoC6_101\Sensor/driver_max30102.c ****         return 3;                                                                                  
 1735              		.loc 1 649 0
 1736 0020 0323     		movs	r3, #3
 1737 0022 41E0     		b	.L103
 1738              	.L99:
 650:..\..\..\..\PSoC6_101\Sensor/driver_max30102.c ****     }
 651:..\..\..\..\PSoC6_101\Sensor/driver_max30102.c **** 
 652:..\..\..\..\PSoC6_101\Sensor/driver_max30102.c ****     if (status == MAX30102_INTERRUPT_STATUS_DIE_TEMP_RDY)                                          
 1739              		.loc 1 652 0
 1740 0024 FB7A     		ldrb	r3, [r7, #11]	@ zero_extendqisi2
 1741 0026 012B     		cmp	r3, #1
 1742 0028 1FD1     		bne	.L100
 653:..\..\..\..\PSoC6_101\Sensor/driver_max30102.c ****     {
 654:..\..\..\..\PSoC6_101\Sensor/driver_max30102.c ****         res = handle->iic_read(MAX30102_ADDRESS, MAX30102_REG_INTERRUPT_STATUS_2, (uint8_t *)&prev,
 1743              		.loc 1 654 0
 1744 002a FB68     		ldr	r3, [r7, #12]
 1745 002c 9C68     		ldr	r4, [r3, #8]
 1746 002e 07F11602 		add	r2, r7, #22
 1747 0032 0123     		movs	r3, #1
 1748 0034 0121     		movs	r1, #1
 1749 0036 AE20     		movs	r0, #174
 1750 0038 A047     		blx	r4
 1751 003a 0346     		mov	r3, r0
 1752 003c FB75     		strb	r3, [r7, #23]
 655:..\..\..\..\PSoC6_101\Sensor/driver_max30102.c ****         if (res != 0)                                                                              
 1753              		.loc 1 655 0
 1754 003e FB7D     		ldrb	r3, [r7, #23]	@ zero_extendqisi2
 1755 0040 002B     		cmp	r3, #0
 1756 0042 05D0     		beq	.L101
 656:..\..\..\..\PSoC6_101\Sensor/driver_max30102.c ****         {
 657:..\..\..\..\PSoC6_101\Sensor/driver_max30102.c ****             handle->debug_print("max30102: read interrupt status2 failed.\n");                     
 1757              		.loc 1 657 0
 1758 0044 FB68     		ldr	r3, [r7, #12]
 1759 0046 9B69     		ldr	r3, [r3, #24]
 1760 0048 1948     		ldr	r0, .L104
 1761 004a 9847     		blx	r3
 658:..\..\..\..\PSoC6_101\Sensor/driver_max30102.c ****            
 659:..\..\..\..\PSoC6_101\Sensor/driver_max30102.c ****             return 1;                                                                              
 1762              		.loc 1 659 0
 1763 004c 0123     		movs	r3, #1
 1764 004e 2BE0     		b	.L103
 1765              	.L101:
 660:..\..\..\..\PSoC6_101\Sensor/driver_max30102.c ****         }
ARM GAS  C:\Users\49148\AppData\Local\Temp\ccWN5cWv.s 			page 46


 661:..\..\..\..\PSoC6_101\Sensor/driver_max30102.c ****         *enable = (max30102_bool_t)((prev >> status) & 0x01);                                      
 1766              		.loc 1 661 0
 1767 0050 BB7D     		ldrb	r3, [r7, #22]	@ zero_extendqisi2
 1768 0052 1A46     		mov	r2, r3
 1769 0054 FB7A     		ldrb	r3, [r7, #11]	@ zero_extendqisi2
 1770 0056 42FA03F3 		asr	r3, r2, r3
 1771 005a DBB2     		uxtb	r3, r3
 1772 005c 03F00103 		and	r3, r3, #1
 1773 0060 DAB2     		uxtb	r2, r3
 1774 0062 7B68     		ldr	r3, [r7, #4]
 1775 0064 1A70     		strb	r2, [r3]
 662:..\..\..\..\PSoC6_101\Sensor/driver_max30102.c ****     
 663:..\..\..\..\PSoC6_101\Sensor/driver_max30102.c ****         return 0;                                                                                  
 1776              		.loc 1 663 0
 1777 0066 0023     		movs	r3, #0
 1778 0068 1EE0     		b	.L103
 1779              	.L100:
 664:..\..\..\..\PSoC6_101\Sensor/driver_max30102.c ****     }
 665:..\..\..\..\PSoC6_101\Sensor/driver_max30102.c ****     else
 666:..\..\..\..\PSoC6_101\Sensor/driver_max30102.c ****     {
 667:..\..\..\..\PSoC6_101\Sensor/driver_max30102.c ****         res = handle->iic_read(MAX30102_ADDRESS, MAX30102_REG_INTERRUPT_STATUS_1, (uint8_t *)&prev,
 1780              		.loc 1 667 0
 1781 006a FB68     		ldr	r3, [r7, #12]
 1782 006c 9C68     		ldr	r4, [r3, #8]
 1783 006e 07F11602 		add	r2, r7, #22
 1784 0072 0123     		movs	r3, #1
 1785 0074 0021     		movs	r1, #0
 1786 0076 AE20     		movs	r0, #174
 1787 0078 A047     		blx	r4
 1788 007a 0346     		mov	r3, r0
 1789 007c FB75     		strb	r3, [r7, #23]
 668:..\..\..\..\PSoC6_101\Sensor/driver_max30102.c ****         if (res != 0)                                                                              
 1790              		.loc 1 668 0
 1791 007e FB7D     		ldrb	r3, [r7, #23]	@ zero_extendqisi2
 1792 0080 002B     		cmp	r3, #0
 1793 0082 05D0     		beq	.L102
 669:..\..\..\..\PSoC6_101\Sensor/driver_max30102.c ****         {
 670:..\..\..\..\PSoC6_101\Sensor/driver_max30102.c ****             handle->debug_print("max30102: read interrupt status1 failed.\n");                     
 1794              		.loc 1 670 0
 1795 0084 FB68     		ldr	r3, [r7, #12]
 1796 0086 9B69     		ldr	r3, [r3, #24]
 1797 0088 0A48     		ldr	r0, .L104+4
 1798 008a 9847     		blx	r3
 671:..\..\..\..\PSoC6_101\Sensor/driver_max30102.c ****            
 672:..\..\..\..\PSoC6_101\Sensor/driver_max30102.c ****             return 1;                                                                              
 1799              		.loc 1 672 0
 1800 008c 0123     		movs	r3, #1
 1801 008e 0BE0     		b	.L103
 1802              	.L102:
 673:..\..\..\..\PSoC6_101\Sensor/driver_max30102.c ****         }
 674:..\..\..\..\PSoC6_101\Sensor/driver_max30102.c ****         *enable = (max30102_bool_t)((prev >> status) & 0x01);                                      
 1803              		.loc 1 674 0
 1804 0090 BB7D     		ldrb	r3, [r7, #22]	@ zero_extendqisi2
 1805 0092 1A46     		mov	r2, r3
 1806 0094 FB7A     		ldrb	r3, [r7, #11]	@ zero_extendqisi2
 1807 0096 42FA03F3 		asr	r3, r2, r3
 1808 009a DBB2     		uxtb	r3, r3
ARM GAS  C:\Users\49148\AppData\Local\Temp\ccWN5cWv.s 			page 47


 1809 009c 03F00103 		and	r3, r3, #1
 1810 00a0 DAB2     		uxtb	r2, r3
 1811 00a2 7B68     		ldr	r3, [r7, #4]
 1812 00a4 1A70     		strb	r2, [r3]
 675:..\..\..\..\PSoC6_101\Sensor/driver_max30102.c ****     
 676:..\..\..\..\PSoC6_101\Sensor/driver_max30102.c ****         return 0;                                                                                  
 1813              		.loc 1 676 0
 1814 00a6 0023     		movs	r3, #0
 1815              	.L103:
 677:..\..\..\..\PSoC6_101\Sensor/driver_max30102.c ****     }
 678:..\..\..\..\PSoC6_101\Sensor/driver_max30102.c **** }
 1816              		.loc 1 678 0 discriminator 1
 1817 00a8 1846     		mov	r0, r3
 1818 00aa 1C37     		adds	r7, r7, #28
 1819              		.cfi_def_cfa_offset 12
 1820 00ac BD46     		mov	sp, r7
 1821              		.cfi_def_cfa_register 13
 1822              		@ sp needed
 1823 00ae 90BD     		pop	{r4, r7, pc}
 1824              	.L105:
 1825              		.align	2
 1826              	.L104:
 1827 00b0 58020000 		.word	.LC17
 1828 00b4 2C020000 		.word	.LC16
 1829              		.cfi_endproc
 1830              	.LFE6:
 1831              		.size	max30102_get_interrupt_status, .-max30102_get_interrupt_status
 1832              		.section	.rodata
 1833 04a9 000000   		.align	2
 1834              	.LC32:
 1835 04ac 6D617833 		.ascii	"max30102: read interrupt enable1 failed.\012\000"
 1835      30313032 
 1835      3A207265 
 1835      61642069 
 1835      6E746572 
 1836 04d6 0000     		.align	2
 1837              	.LC33:
 1838 04d8 6D617833 		.ascii	"max30102: write interrupt enable1 failed.\012\000"
 1838      30313032 
 1838      3A207772 
 1838      69746520 
 1838      696E7465 
 1839              		.section	.text.max30102_set_interrupt,"ax",%progbits
 1840              		.align	2
 1841              		.global	max30102_set_interrupt
 1842              		.thumb
 1843              		.thumb_func
 1844              		.type	max30102_set_interrupt, %function
 1845              	max30102_set_interrupt:
 1846              	.LFB7:
 679:..\..\..\..\PSoC6_101\Sensor/driver_max30102.c **** 
 680:..\..\..\..\PSoC6_101\Sensor/driver_max30102.c **** /**
 681:..\..\..\..\PSoC6_101\Sensor/driver_max30102.c ****  * @brief     set the interrupt bool
 682:..\..\..\..\PSoC6_101\Sensor/driver_max30102.c ****  * @param[in] *handle points to a max30102 handle structure
 683:..\..\..\..\PSoC6_101\Sensor/driver_max30102.c ****  * @param[in] type is the interrupt type
 684:..\..\..\..\PSoC6_101\Sensor/driver_max30102.c ****  * @param[in] enable is a bool value
 685:..\..\..\..\PSoC6_101\Sensor/driver_max30102.c ****  * @return    status code
ARM GAS  C:\Users\49148\AppData\Local\Temp\ccWN5cWv.s 			page 48


 686:..\..\..\..\PSoC6_101\Sensor/driver_max30102.c ****  *            - 0 success
 687:..\..\..\..\PSoC6_101\Sensor/driver_max30102.c ****  *            - 1 set interrupt failed
 688:..\..\..\..\PSoC6_101\Sensor/driver_max30102.c ****  *            - 2 handle is NULL
 689:..\..\..\..\PSoC6_101\Sensor/driver_max30102.c ****  *            - 3 handle is not initialized
 690:..\..\..\..\PSoC6_101\Sensor/driver_max30102.c ****  * @note      none
 691:..\..\..\..\PSoC6_101\Sensor/driver_max30102.c ****  */
 692:..\..\..\..\PSoC6_101\Sensor/driver_max30102.c **** uint8_t max30102_set_interrupt(max30102_handle_t *handle, max30102_interrupt_t type, max30102_bool_
 693:..\..\..\..\PSoC6_101\Sensor/driver_max30102.c **** {
 1847              		.loc 1 693 0
 1848              		.cfi_startproc
 1849              		@ args = 0, pretend = 0, frame = 16
 1850              		@ frame_needed = 1, uses_anonymous_args = 0
 1851 0000 90B5     		push	{r4, r7, lr}
 1852              		.cfi_def_cfa_offset 12
 1853              		.cfi_offset 4, -12
 1854              		.cfi_offset 7, -8
 1855              		.cfi_offset 14, -4
 1856 0002 85B0     		sub	sp, sp, #20
 1857              		.cfi_def_cfa_offset 32
 1858 0004 00AF     		add	r7, sp, #0
 1859              		.cfi_def_cfa_register 7
 1860 0006 7860     		str	r0, [r7, #4]
 1861 0008 0B46     		mov	r3, r1
 1862 000a FB70     		strb	r3, [r7, #3]
 1863 000c 1346     		mov	r3, r2
 1864 000e BB70     		strb	r3, [r7, #2]
 694:..\..\..\..\PSoC6_101\Sensor/driver_max30102.c ****     uint8_t res;
 695:..\..\..\..\PSoC6_101\Sensor/driver_max30102.c ****     uint8_t prev;
 696:..\..\..\..\PSoC6_101\Sensor/driver_max30102.c ****     
 697:..\..\..\..\PSoC6_101\Sensor/driver_max30102.c ****     if (handle == NULL)                                                                            
 1865              		.loc 1 697 0
 1866 0010 7B68     		ldr	r3, [r7, #4]
 1867 0012 002B     		cmp	r3, #0
 1868 0014 01D1     		bne	.L107
 698:..\..\..\..\PSoC6_101\Sensor/driver_max30102.c ****     {
 699:..\..\..\..\PSoC6_101\Sensor/driver_max30102.c ****         return 2;                                                                                  
 1869              		.loc 1 699 0
 1870 0016 0223     		movs	r3, #2
 1871 0018 87E0     		b	.L115
 1872              	.L107:
 700:..\..\..\..\PSoC6_101\Sensor/driver_max30102.c ****     }
 701:..\..\..\..\PSoC6_101\Sensor/driver_max30102.c ****     if (handle->inited != 1)                                                                       
 1873              		.loc 1 701 0
 1874 001a 7B68     		ldr	r3, [r7, #4]
 1875 001c 1B7F     		ldrb	r3, [r3, #28]	@ zero_extendqisi2
 1876 001e 012B     		cmp	r3, #1
 1877 0020 01D0     		beq	.L109
 702:..\..\..\..\PSoC6_101\Sensor/driver_max30102.c ****     {
 703:..\..\..\..\PSoC6_101\Sensor/driver_max30102.c ****         return 3;                                                                                  
 1878              		.loc 1 703 0
 1879 0022 0323     		movs	r3, #3
 1880 0024 81E0     		b	.L115
 1881              	.L109:
 704:..\..\..\..\PSoC6_101\Sensor/driver_max30102.c ****     }
 705:..\..\..\..\PSoC6_101\Sensor/driver_max30102.c **** 
 706:..\..\..\..\PSoC6_101\Sensor/driver_max30102.c ****     if (type == MAX30102_INTERRUPT_DIE_TEMP_RDY_EN)                                                
 1882              		.loc 1 706 0
ARM GAS  C:\Users\49148\AppData\Local\Temp\ccWN5cWv.s 			page 49


 1883 0026 FB78     		ldrb	r3, [r7, #3]	@ zero_extendqisi2
 1884 0028 012B     		cmp	r3, #1
 1885 002a 3FD1     		bne	.L110
 707:..\..\..\..\PSoC6_101\Sensor/driver_max30102.c ****     {
 708:..\..\..\..\PSoC6_101\Sensor/driver_max30102.c ****         res = handle->iic_read(MAX30102_ADDRESS, MAX30102_REG_INTERRUPT_ENABLE_2, (uint8_t *)&prev,
 1886              		.loc 1 708 0
 1887 002c 7B68     		ldr	r3, [r7, #4]
 1888 002e 9C68     		ldr	r4, [r3, #8]
 1889 0030 07F10E02 		add	r2, r7, #14
 1890 0034 0123     		movs	r3, #1
 1891 0036 0321     		movs	r1, #3
 1892 0038 AE20     		movs	r0, #174
 1893 003a A047     		blx	r4
 1894 003c 0346     		mov	r3, r0
 1895 003e FB73     		strb	r3, [r7, #15]
 709:..\..\..\..\PSoC6_101\Sensor/driver_max30102.c ****         if (res != 0)                                                                              
 1896              		.loc 1 709 0
 1897 0040 FB7B     		ldrb	r3, [r7, #15]	@ zero_extendqisi2
 1898 0042 002B     		cmp	r3, #0
 1899 0044 05D0     		beq	.L111
 710:..\..\..\..\PSoC6_101\Sensor/driver_max30102.c ****         {
 711:..\..\..\..\PSoC6_101\Sensor/driver_max30102.c ****             handle->debug_print("max30102: read interrupt enable2 failed.\n");                     
 1900              		.loc 1 711 0
 1901 0046 7B68     		ldr	r3, [r7, #4]
 1902 0048 9B69     		ldr	r3, [r3, #24]
 1903 004a 3A48     		ldr	r0, .L116
 1904 004c 9847     		blx	r3
 712:..\..\..\..\PSoC6_101\Sensor/driver_max30102.c ****            
 713:..\..\..\..\PSoC6_101\Sensor/driver_max30102.c ****             return 1;                                                                              
 1905              		.loc 1 713 0
 1906 004e 0123     		movs	r3, #1
 1907 0050 6BE0     		b	.L115
 1908              	.L111:
 714:..\..\..\..\PSoC6_101\Sensor/driver_max30102.c ****         }
 715:..\..\..\..\PSoC6_101\Sensor/driver_max30102.c ****         prev &= ~(1 << type);                                                                      
 1909              		.loc 1 715 0
 1910 0052 FB78     		ldrb	r3, [r7, #3]	@ zero_extendqisi2
 1911 0054 0122     		movs	r2, #1
 1912 0056 02FA03F3 		lsl	r3, r2, r3
 1913 005a 5BB2     		sxtb	r3, r3
 1914 005c DB43     		mvns	r3, r3
 1915 005e 5AB2     		sxtb	r2, r3
 1916 0060 BB7B     		ldrb	r3, [r7, #14]	@ zero_extendqisi2
 1917 0062 5BB2     		sxtb	r3, r3
 1918 0064 1340     		ands	r3, r3, r2
 1919 0066 5BB2     		sxtb	r3, r3
 1920 0068 DBB2     		uxtb	r3, r3
 1921 006a BB73     		strb	r3, [r7, #14]
 716:..\..\..\..\PSoC6_101\Sensor/driver_max30102.c ****         prev |= enable << type;                                                                    
 1922              		.loc 1 716 0
 1923 006c BA78     		ldrb	r2, [r7, #2]	@ zero_extendqisi2
 1924 006e FB78     		ldrb	r3, [r7, #3]	@ zero_extendqisi2
 1925 0070 02FA03F3 		lsl	r3, r2, r3
 1926 0074 5AB2     		sxtb	r2, r3
 1927 0076 BB7B     		ldrb	r3, [r7, #14]	@ zero_extendqisi2
 1928 0078 5BB2     		sxtb	r3, r3
 1929 007a 1343     		orrs	r3, r3, r2
ARM GAS  C:\Users\49148\AppData\Local\Temp\ccWN5cWv.s 			page 50


 1930 007c 5BB2     		sxtb	r3, r3
 1931 007e DBB2     		uxtb	r3, r3
 1932 0080 BB73     		strb	r3, [r7, #14]
 717:..\..\..\..\PSoC6_101\Sensor/driver_max30102.c ****         res = handle->iic_write(MAX30102_ADDRESS, MAX30102_REG_INTERRUPT_ENABLE_2, (uint8_t *)&prev
 1933              		.loc 1 717 0
 1934 0082 7B68     		ldr	r3, [r7, #4]
 1935 0084 DC68     		ldr	r4, [r3, #12]
 1936 0086 07F10E02 		add	r2, r7, #14
 1937 008a 0123     		movs	r3, #1
 1938 008c 0321     		movs	r1, #3
 1939 008e AE20     		movs	r0, #174
 1940 0090 A047     		blx	r4
 1941 0092 0346     		mov	r3, r0
 1942 0094 FB73     		strb	r3, [r7, #15]
 718:..\..\..\..\PSoC6_101\Sensor/driver_max30102.c ****         if (res != 0)                                                                              
 1943              		.loc 1 718 0
 1944 0096 FB7B     		ldrb	r3, [r7, #15]	@ zero_extendqisi2
 1945 0098 002B     		cmp	r3, #0
 1946 009a 05D0     		beq	.L112
 719:..\..\..\..\PSoC6_101\Sensor/driver_max30102.c ****         {
 720:..\..\..\..\PSoC6_101\Sensor/driver_max30102.c ****             handle->debug_print("max30102: write interrupt enable2 failed.\n");                    
 1947              		.loc 1 720 0
 1948 009c 7B68     		ldr	r3, [r7, #4]
 1949 009e 9B69     		ldr	r3, [r3, #24]
 1950 00a0 2548     		ldr	r0, .L116+4
 1951 00a2 9847     		blx	r3
 721:..\..\..\..\PSoC6_101\Sensor/driver_max30102.c ****            
 722:..\..\..\..\PSoC6_101\Sensor/driver_max30102.c ****             return 1;                                                                              
 1952              		.loc 1 722 0
 1953 00a4 0123     		movs	r3, #1
 1954 00a6 40E0     		b	.L115
 1955              	.L112:
 723:..\..\..\..\PSoC6_101\Sensor/driver_max30102.c ****         }
 724:..\..\..\..\PSoC6_101\Sensor/driver_max30102.c ****         
 725:..\..\..\..\PSoC6_101\Sensor/driver_max30102.c ****         return 0;                                                                                  
 1956              		.loc 1 725 0
 1957 00a8 0023     		movs	r3, #0
 1958 00aa 3EE0     		b	.L115
 1959              	.L110:
 726:..\..\..\..\PSoC6_101\Sensor/driver_max30102.c ****     }
 727:..\..\..\..\PSoC6_101\Sensor/driver_max30102.c ****     else
 728:..\..\..\..\PSoC6_101\Sensor/driver_max30102.c ****     {
 729:..\..\..\..\PSoC6_101\Sensor/driver_max30102.c ****         res = handle->iic_read(MAX30102_ADDRESS, MAX30102_REG_INTERRUPT_ENABLE_1, (uint8_t *)&prev,
 1960              		.loc 1 729 0
 1961 00ac 7B68     		ldr	r3, [r7, #4]
 1962 00ae 9C68     		ldr	r4, [r3, #8]
 1963 00b0 07F10E02 		add	r2, r7, #14
 1964 00b4 0123     		movs	r3, #1
 1965 00b6 0221     		movs	r1, #2
 1966 00b8 AE20     		movs	r0, #174
 1967 00ba A047     		blx	r4
 1968 00bc 0346     		mov	r3, r0
 1969 00be FB73     		strb	r3, [r7, #15]
 730:..\..\..\..\PSoC6_101\Sensor/driver_max30102.c ****         if (res != 0)                                                                              
 1970              		.loc 1 730 0
 1971 00c0 FB7B     		ldrb	r3, [r7, #15]	@ zero_extendqisi2
 1972 00c2 002B     		cmp	r3, #0
ARM GAS  C:\Users\49148\AppData\Local\Temp\ccWN5cWv.s 			page 51


 1973 00c4 05D0     		beq	.L113
 731:..\..\..\..\PSoC6_101\Sensor/driver_max30102.c ****         {
 732:..\..\..\..\PSoC6_101\Sensor/driver_max30102.c ****             handle->debug_print("max30102: read interrupt enable1 failed.\n");                     
 1974              		.loc 1 732 0
 1975 00c6 7B68     		ldr	r3, [r7, #4]
 1976 00c8 9B69     		ldr	r3, [r3, #24]
 1977 00ca 1C48     		ldr	r0, .L116+8
 1978 00cc 9847     		blx	r3
 733:..\..\..\..\PSoC6_101\Sensor/driver_max30102.c ****            
 734:..\..\..\..\PSoC6_101\Sensor/driver_max30102.c ****             return 1;                                                                              
 1979              		.loc 1 734 0
 1980 00ce 0123     		movs	r3, #1
 1981 00d0 2BE0     		b	.L115
 1982              	.L113:
 735:..\..\..\..\PSoC6_101\Sensor/driver_max30102.c ****         }
 736:..\..\..\..\PSoC6_101\Sensor/driver_max30102.c ****         prev &= ~(1 << type);                                                                      
 1983              		.loc 1 736 0
 1984 00d2 FB78     		ldrb	r3, [r7, #3]	@ zero_extendqisi2
 1985 00d4 0122     		movs	r2, #1
 1986 00d6 02FA03F3 		lsl	r3, r2, r3
 1987 00da 5BB2     		sxtb	r3, r3
 1988 00dc DB43     		mvns	r3, r3
 1989 00de 5AB2     		sxtb	r2, r3
 1990 00e0 BB7B     		ldrb	r3, [r7, #14]	@ zero_extendqisi2
 1991 00e2 5BB2     		sxtb	r3, r3
 1992 00e4 1340     		ands	r3, r3, r2
 1993 00e6 5BB2     		sxtb	r3, r3
 1994 00e8 DBB2     		uxtb	r3, r3
 1995 00ea BB73     		strb	r3, [r7, #14]
 737:..\..\..\..\PSoC6_101\Sensor/driver_max30102.c ****         prev |= enable << type;                                                                    
 1996              		.loc 1 737 0
 1997 00ec BA78     		ldrb	r2, [r7, #2]	@ zero_extendqisi2
 1998 00ee FB78     		ldrb	r3, [r7, #3]	@ zero_extendqisi2
 1999 00f0 02FA03F3 		lsl	r3, r2, r3
 2000 00f4 5AB2     		sxtb	r2, r3
 2001 00f6 BB7B     		ldrb	r3, [r7, #14]	@ zero_extendqisi2
 2002 00f8 5BB2     		sxtb	r3, r3
 2003 00fa 1343     		orrs	r3, r3, r2
 2004 00fc 5BB2     		sxtb	r3, r3
 2005 00fe DBB2     		uxtb	r3, r3
 2006 0100 BB73     		strb	r3, [r7, #14]
 738:..\..\..\..\PSoC6_101\Sensor/driver_max30102.c ****         res = handle->iic_write(MAX30102_ADDRESS, MAX30102_REG_INTERRUPT_ENABLE_1, (uint8_t *)&prev
 2007              		.loc 1 738 0
 2008 0102 7B68     		ldr	r3, [r7, #4]
 2009 0104 DC68     		ldr	r4, [r3, #12]
 2010 0106 07F10E02 		add	r2, r7, #14
 2011 010a 0123     		movs	r3, #1
 2012 010c 0221     		movs	r1, #2
 2013 010e AE20     		movs	r0, #174
 2014 0110 A047     		blx	r4
 2015 0112 0346     		mov	r3, r0
 2016 0114 FB73     		strb	r3, [r7, #15]
 739:..\..\..\..\PSoC6_101\Sensor/driver_max30102.c ****         if (res != 0)                                                                              
 2017              		.loc 1 739 0
 2018 0116 FB7B     		ldrb	r3, [r7, #15]	@ zero_extendqisi2
 2019 0118 002B     		cmp	r3, #0
 2020 011a 05D0     		beq	.L114
ARM GAS  C:\Users\49148\AppData\Local\Temp\ccWN5cWv.s 			page 52


 740:..\..\..\..\PSoC6_101\Sensor/driver_max30102.c ****         {
 741:..\..\..\..\PSoC6_101\Sensor/driver_max30102.c ****             handle->debug_print("max30102: write interrupt enable1 failed.\n");                    
 2021              		.loc 1 741 0
 2022 011c 7B68     		ldr	r3, [r7, #4]
 2023 011e 9B69     		ldr	r3, [r3, #24]
 2024 0120 0748     		ldr	r0, .L116+12
 2025 0122 9847     		blx	r3
 742:..\..\..\..\PSoC6_101\Sensor/driver_max30102.c ****            
 743:..\..\..\..\PSoC6_101\Sensor/driver_max30102.c ****             return 1;                                                                              
 2026              		.loc 1 743 0
 2027 0124 0123     		movs	r3, #1
 2028 0126 00E0     		b	.L115
 2029              	.L114:
 744:..\..\..\..\PSoC6_101\Sensor/driver_max30102.c ****         }
 745:..\..\..\..\PSoC6_101\Sensor/driver_max30102.c ****     
 746:..\..\..\..\PSoC6_101\Sensor/driver_max30102.c ****         return 0;                                                                                  
 2030              		.loc 1 746 0
 2031 0128 0023     		movs	r3, #0
 2032              	.L115:
 747:..\..\..\..\PSoC6_101\Sensor/driver_max30102.c ****     }
 748:..\..\..\..\PSoC6_101\Sensor/driver_max30102.c **** }
 2033              		.loc 1 748 0 discriminator 1
 2034 012a 1846     		mov	r0, r3
 2035 012c 1437     		adds	r7, r7, #20
 2036              		.cfi_def_cfa_offset 12
 2037 012e BD46     		mov	sp, r7
 2038              		.cfi_def_cfa_register 13
 2039              		@ sp needed
 2040 0130 90BD     		pop	{r4, r7, pc}
 2041              	.L117:
 2042 0132 00BF     		.align	2
 2043              	.L116:
 2044 0134 E4030000 		.word	.LC27
 2045 0138 10040000 		.word	.LC28
 2046 013c AC040000 		.word	.LC32
 2047 0140 D8040000 		.word	.LC33
 2048              		.cfi_endproc
 2049              	.LFE7:
 2050              		.size	max30102_set_interrupt, .-max30102_set_interrupt
 2051              		.section	.text.max30102_get_interrupt,"ax",%progbits
 2052              		.align	2
 2053              		.global	max30102_get_interrupt
 2054              		.thumb
 2055              		.thumb_func
 2056              		.type	max30102_get_interrupt, %function
 2057              	max30102_get_interrupt:
 2058              	.LFB8:
 749:..\..\..\..\PSoC6_101\Sensor/driver_max30102.c **** 
 750:..\..\..\..\PSoC6_101\Sensor/driver_max30102.c **** /**
 751:..\..\..\..\PSoC6_101\Sensor/driver_max30102.c ****  * @brief      get the interrupt bool
 752:..\..\..\..\PSoC6_101\Sensor/driver_max30102.c ****  * @param[in]  *handle points to a max30102 handle structure
 753:..\..\..\..\PSoC6_101\Sensor/driver_max30102.c ****  * @param[in]  type is the interrupt type
 754:..\..\..\..\PSoC6_101\Sensor/driver_max30102.c ****  * @param[out] *enable points to a bool value buffer
 755:..\..\..\..\PSoC6_101\Sensor/driver_max30102.c ****  * @return     status code
 756:..\..\..\..\PSoC6_101\Sensor/driver_max30102.c ****  *             - 0 success
 757:..\..\..\..\PSoC6_101\Sensor/driver_max30102.c ****  *             - 1 get interrupt failed
 758:..\..\..\..\PSoC6_101\Sensor/driver_max30102.c ****  *             - 2 handle is NULL
ARM GAS  C:\Users\49148\AppData\Local\Temp\ccWN5cWv.s 			page 53


 759:..\..\..\..\PSoC6_101\Sensor/driver_max30102.c ****  *             - 3 handle is not initialized
 760:..\..\..\..\PSoC6_101\Sensor/driver_max30102.c ****  * @note       none
 761:..\..\..\..\PSoC6_101\Sensor/driver_max30102.c ****  */
 762:..\..\..\..\PSoC6_101\Sensor/driver_max30102.c **** uint8_t max30102_get_interrupt(max30102_handle_t *handle, max30102_interrupt_t type, max30102_bool_
 763:..\..\..\..\PSoC6_101\Sensor/driver_max30102.c **** {
 2059              		.loc 1 763 0
 2060              		.cfi_startproc
 2061              		@ args = 0, pretend = 0, frame = 24
 2062              		@ frame_needed = 1, uses_anonymous_args = 0
 2063 0000 90B5     		push	{r4, r7, lr}
 2064              		.cfi_def_cfa_offset 12
 2065              		.cfi_offset 4, -12
 2066              		.cfi_offset 7, -8
 2067              		.cfi_offset 14, -4
 2068 0002 87B0     		sub	sp, sp, #28
 2069              		.cfi_def_cfa_offset 40
 2070 0004 00AF     		add	r7, sp, #0
 2071              		.cfi_def_cfa_register 7
 2072 0006 F860     		str	r0, [r7, #12]
 2073 0008 0B46     		mov	r3, r1
 2074 000a 7A60     		str	r2, [r7, #4]
 2075 000c FB72     		strb	r3, [r7, #11]
 764:..\..\..\..\PSoC6_101\Sensor/driver_max30102.c ****     uint8_t res;
 765:..\..\..\..\PSoC6_101\Sensor/driver_max30102.c ****     uint8_t prev;
 766:..\..\..\..\PSoC6_101\Sensor/driver_max30102.c ****     
 767:..\..\..\..\PSoC6_101\Sensor/driver_max30102.c ****     if (handle == NULL)                                                                            
 2076              		.loc 1 767 0
 2077 000e FB68     		ldr	r3, [r7, #12]
 2078 0010 002B     		cmp	r3, #0
 2079 0012 01D1     		bne	.L119
 768:..\..\..\..\PSoC6_101\Sensor/driver_max30102.c ****     {
 769:..\..\..\..\PSoC6_101\Sensor/driver_max30102.c ****         return 2;                                                                                  
 2080              		.loc 1 769 0
 2081 0014 0223     		movs	r3, #2
 2082 0016 47E0     		b	.L125
 2083              	.L119:
 770:..\..\..\..\PSoC6_101\Sensor/driver_max30102.c ****     }
 771:..\..\..\..\PSoC6_101\Sensor/driver_max30102.c ****     if (handle->inited != 1)                                                                       
 2084              		.loc 1 771 0
 2085 0018 FB68     		ldr	r3, [r7, #12]
 2086 001a 1B7F     		ldrb	r3, [r3, #28]	@ zero_extendqisi2
 2087 001c 012B     		cmp	r3, #1
 2088 001e 01D0     		beq	.L121
 772:..\..\..\..\PSoC6_101\Sensor/driver_max30102.c ****     {
 773:..\..\..\..\PSoC6_101\Sensor/driver_max30102.c ****         return 3;                                                                                  
 2089              		.loc 1 773 0
 2090 0020 0323     		movs	r3, #3
 2091 0022 41E0     		b	.L125
 2092              	.L121:
 774:..\..\..\..\PSoC6_101\Sensor/driver_max30102.c ****     }
 775:..\..\..\..\PSoC6_101\Sensor/driver_max30102.c **** 
 776:..\..\..\..\PSoC6_101\Sensor/driver_max30102.c ****     if (type == MAX30102_INTERRUPT_DIE_TEMP_RDY_EN)                                                
 2093              		.loc 1 776 0
 2094 0024 FB7A     		ldrb	r3, [r7, #11]	@ zero_extendqisi2
 2095 0026 012B     		cmp	r3, #1
 2096 0028 1FD1     		bne	.L122
 777:..\..\..\..\PSoC6_101\Sensor/driver_max30102.c ****     {
ARM GAS  C:\Users\49148\AppData\Local\Temp\ccWN5cWv.s 			page 54


 778:..\..\..\..\PSoC6_101\Sensor/driver_max30102.c ****         res = handle->iic_read(MAX30102_ADDRESS, MAX30102_REG_INTERRUPT_ENABLE_2, (uint8_t *)&prev,
 2097              		.loc 1 778 0
 2098 002a FB68     		ldr	r3, [r7, #12]
 2099 002c 9C68     		ldr	r4, [r3, #8]
 2100 002e 07F11602 		add	r2, r7, #22
 2101 0032 0123     		movs	r3, #1
 2102 0034 0321     		movs	r1, #3
 2103 0036 AE20     		movs	r0, #174
 2104 0038 A047     		blx	r4
 2105 003a 0346     		mov	r3, r0
 2106 003c FB75     		strb	r3, [r7, #23]
 779:..\..\..\..\PSoC6_101\Sensor/driver_max30102.c ****         if (res != 0)                                                                              
 2107              		.loc 1 779 0
 2108 003e FB7D     		ldrb	r3, [r7, #23]	@ zero_extendqisi2
 2109 0040 002B     		cmp	r3, #0
 2110 0042 05D0     		beq	.L123
 780:..\..\..\..\PSoC6_101\Sensor/driver_max30102.c ****         {
 781:..\..\..\..\PSoC6_101\Sensor/driver_max30102.c ****             handle->debug_print("max30102: read interrupt enable2 failed.\n");                     
 2111              		.loc 1 781 0
 2112 0044 FB68     		ldr	r3, [r7, #12]
 2113 0046 9B69     		ldr	r3, [r3, #24]
 2114 0048 1948     		ldr	r0, .L126
 2115 004a 9847     		blx	r3
 782:..\..\..\..\PSoC6_101\Sensor/driver_max30102.c ****            
 783:..\..\..\..\PSoC6_101\Sensor/driver_max30102.c ****             return 1;                                                                              
 2116              		.loc 1 783 0
 2117 004c 0123     		movs	r3, #1
 2118 004e 2BE0     		b	.L125
 2119              	.L123:
 784:..\..\..\..\PSoC6_101\Sensor/driver_max30102.c ****         }
 785:..\..\..\..\PSoC6_101\Sensor/driver_max30102.c ****         *enable = (max30102_bool_t)((prev >> type) & 0x01);                                        
 2120              		.loc 1 785 0
 2121 0050 BB7D     		ldrb	r3, [r7, #22]	@ zero_extendqisi2
 2122 0052 1A46     		mov	r2, r3
 2123 0054 FB7A     		ldrb	r3, [r7, #11]	@ zero_extendqisi2
 2124 0056 42FA03F3 		asr	r3, r2, r3
 2125 005a DBB2     		uxtb	r3, r3
 2126 005c 03F00103 		and	r3, r3, #1
 2127 0060 DAB2     		uxtb	r2, r3
 2128 0062 7B68     		ldr	r3, [r7, #4]
 2129 0064 1A70     		strb	r2, [r3]
 786:..\..\..\..\PSoC6_101\Sensor/driver_max30102.c ****     
 787:..\..\..\..\PSoC6_101\Sensor/driver_max30102.c ****         return 0;                                                                                  
 2130              		.loc 1 787 0
 2131 0066 0023     		movs	r3, #0
 2132 0068 1EE0     		b	.L125
 2133              	.L122:
 788:..\..\..\..\PSoC6_101\Sensor/driver_max30102.c ****     }
 789:..\..\..\..\PSoC6_101\Sensor/driver_max30102.c ****     else
 790:..\..\..\..\PSoC6_101\Sensor/driver_max30102.c ****     {
 791:..\..\..\..\PSoC6_101\Sensor/driver_max30102.c ****         res = handle->iic_read(MAX30102_ADDRESS, MAX30102_REG_INTERRUPT_ENABLE_1, (uint8_t *)&prev,
 2134              		.loc 1 791 0
 2135 006a FB68     		ldr	r3, [r7, #12]
 2136 006c 9C68     		ldr	r4, [r3, #8]
 2137 006e 07F11602 		add	r2, r7, #22
 2138 0072 0123     		movs	r3, #1
 2139 0074 0221     		movs	r1, #2
ARM GAS  C:\Users\49148\AppData\Local\Temp\ccWN5cWv.s 			page 55


 2140 0076 AE20     		movs	r0, #174
 2141 0078 A047     		blx	r4
 2142 007a 0346     		mov	r3, r0
 2143 007c FB75     		strb	r3, [r7, #23]
 792:..\..\..\..\PSoC6_101\Sensor/driver_max30102.c ****         if (res != 0)                                                                              
 2144              		.loc 1 792 0
 2145 007e FB7D     		ldrb	r3, [r7, #23]	@ zero_extendqisi2
 2146 0080 002B     		cmp	r3, #0
 2147 0082 05D0     		beq	.L124
 793:..\..\..\..\PSoC6_101\Sensor/driver_max30102.c ****         {
 794:..\..\..\..\PSoC6_101\Sensor/driver_max30102.c ****             handle->debug_print("max30102: read interrupt enable1 failed.\n");                     
 2148              		.loc 1 794 0
 2149 0084 FB68     		ldr	r3, [r7, #12]
 2150 0086 9B69     		ldr	r3, [r3, #24]
 2151 0088 0A48     		ldr	r0, .L126+4
 2152 008a 9847     		blx	r3
 795:..\..\..\..\PSoC6_101\Sensor/driver_max30102.c ****            
 796:..\..\..\..\PSoC6_101\Sensor/driver_max30102.c ****             return 1;                                                                              
 2153              		.loc 1 796 0
 2154 008c 0123     		movs	r3, #1
 2155 008e 0BE0     		b	.L125
 2156              	.L124:
 797:..\..\..\..\PSoC6_101\Sensor/driver_max30102.c ****         }
 798:..\..\..\..\PSoC6_101\Sensor/driver_max30102.c ****         *enable = (max30102_bool_t)((prev >> type) & 0x01);                                        
 2157              		.loc 1 798 0
 2158 0090 BB7D     		ldrb	r3, [r7, #22]	@ zero_extendqisi2
 2159 0092 1A46     		mov	r2, r3
 2160 0094 FB7A     		ldrb	r3, [r7, #11]	@ zero_extendqisi2
 2161 0096 42FA03F3 		asr	r3, r2, r3
 2162 009a DBB2     		uxtb	r3, r3
 2163 009c 03F00103 		and	r3, r3, #1
 2164 00a0 DAB2     		uxtb	r2, r3
 2165 00a2 7B68     		ldr	r3, [r7, #4]
 2166 00a4 1A70     		strb	r2, [r3]
 799:..\..\..\..\PSoC6_101\Sensor/driver_max30102.c ****     
 800:..\..\..\..\PSoC6_101\Sensor/driver_max30102.c ****         return 0;                                                                                  
 2167              		.loc 1 800 0
 2168 00a6 0023     		movs	r3, #0
 2169              	.L125:
 801:..\..\..\..\PSoC6_101\Sensor/driver_max30102.c ****     }
 802:..\..\..\..\PSoC6_101\Sensor/driver_max30102.c **** }
 2170              		.loc 1 802 0 discriminator 1
 2171 00a8 1846     		mov	r0, r3
 2172 00aa 1C37     		adds	r7, r7, #28
 2173              		.cfi_def_cfa_offset 12
 2174 00ac BD46     		mov	sp, r7
 2175              		.cfi_def_cfa_register 13
 2176              		@ sp needed
 2177 00ae 90BD     		pop	{r4, r7, pc}
 2178              	.L127:
 2179              		.align	2
 2180              	.L126:
 2181 00b0 E4030000 		.word	.LC27
 2182 00b4 AC040000 		.word	.LC32
 2183              		.cfi_endproc
 2184              	.LFE8:
 2185              		.size	max30102_get_interrupt, .-max30102_get_interrupt
ARM GAS  C:\Users\49148\AppData\Local\Temp\ccWN5cWv.s 			page 56


 2186              		.section	.rodata
 2187 0503 00       		.align	2
 2188              	.LC34:
 2189 0504 6D617833 		.ascii	"max30102: pointer can't be over 0x1F.\012\000"
 2189      30313032 
 2189      3A20706F 
 2189      696E7465 
 2189      72206361 
 2190              		.section	.text.max30102_set_fifo_write_pointer,"ax",%progbits
 2191              		.align	2
 2192              		.global	max30102_set_fifo_write_pointer
 2193              		.thumb
 2194              		.thumb_func
 2195              		.type	max30102_set_fifo_write_pointer, %function
 2196              	max30102_set_fifo_write_pointer:
 2197              	.LFB9:
 803:..\..\..\..\PSoC6_101\Sensor/driver_max30102.c **** 
 804:..\..\..\..\PSoC6_101\Sensor/driver_max30102.c **** /**
 805:..\..\..\..\PSoC6_101\Sensor/driver_max30102.c ****  * @brief     set the fifo write pointer
 806:..\..\..\..\PSoC6_101\Sensor/driver_max30102.c ****  * @param[in] *handle points to a max30102 handle structure
 807:..\..\..\..\PSoC6_101\Sensor/driver_max30102.c ****  * @param[in] pointer is the written pointer
 808:..\..\..\..\PSoC6_101\Sensor/driver_max30102.c ****  * @return    status code
 809:..\..\..\..\PSoC6_101\Sensor/driver_max30102.c ****  *            - 0 success
 810:..\..\..\..\PSoC6_101\Sensor/driver_max30102.c ****  *            - 1 set fifo write pointer failed
 811:..\..\..\..\PSoC6_101\Sensor/driver_max30102.c ****  *            - 2 handle is NULL
 812:..\..\..\..\PSoC6_101\Sensor/driver_max30102.c ****  *            - 3 handle is not initialized
 813:..\..\..\..\PSoC6_101\Sensor/driver_max30102.c ****  *            - 4 pointer can't be over 0x1F
 814:..\..\..\..\PSoC6_101\Sensor/driver_max30102.c ****  * @note      pointer <= 0x1F
 815:..\..\..\..\PSoC6_101\Sensor/driver_max30102.c ****  */
 816:..\..\..\..\PSoC6_101\Sensor/driver_max30102.c **** uint8_t max30102_set_fifo_write_pointer(max30102_handle_t *handle, uint8_t pointer)
 817:..\..\..\..\PSoC6_101\Sensor/driver_max30102.c **** {
 2198              		.loc 1 817 0
 2199              		.cfi_startproc
 2200              		@ args = 0, pretend = 0, frame = 16
 2201              		@ frame_needed = 1, uses_anonymous_args = 0
 2202 0000 90B5     		push	{r4, r7, lr}
 2203              		.cfi_def_cfa_offset 12
 2204              		.cfi_offset 4, -12
 2205              		.cfi_offset 7, -8
 2206              		.cfi_offset 14, -4
 2207 0002 85B0     		sub	sp, sp, #20
 2208              		.cfi_def_cfa_offset 32
 2209 0004 00AF     		add	r7, sp, #0
 2210              		.cfi_def_cfa_register 7
 2211 0006 7860     		str	r0, [r7, #4]
 2212 0008 0B46     		mov	r3, r1
 2213 000a FB70     		strb	r3, [r7, #3]
 818:..\..\..\..\PSoC6_101\Sensor/driver_max30102.c ****     uint8_t res;
 819:..\..\..\..\PSoC6_101\Sensor/driver_max30102.c ****     uint8_t prev;
 820:..\..\..\..\PSoC6_101\Sensor/driver_max30102.c ****     
 821:..\..\..\..\PSoC6_101\Sensor/driver_max30102.c ****     if (handle == NULL)                                                                            
 2214              		.loc 1 821 0
 2215 000c 7B68     		ldr	r3, [r7, #4]
 2216 000e 002B     		cmp	r3, #0
 2217 0010 01D1     		bne	.L129
 822:..\..\..\..\PSoC6_101\Sensor/driver_max30102.c ****     {
 823:..\..\..\..\PSoC6_101\Sensor/driver_max30102.c ****         return 2;                                                                                  
ARM GAS  C:\Users\49148\AppData\Local\Temp\ccWN5cWv.s 			page 57


 2218              		.loc 1 823 0
 2219 0012 0223     		movs	r3, #2
 2220 0014 27E0     		b	.L134
 2221              	.L129:
 824:..\..\..\..\PSoC6_101\Sensor/driver_max30102.c ****     }
 825:..\..\..\..\PSoC6_101\Sensor/driver_max30102.c ****     if (handle->inited != 1)                                                                       
 2222              		.loc 1 825 0
 2223 0016 7B68     		ldr	r3, [r7, #4]
 2224 0018 1B7F     		ldrb	r3, [r3, #28]	@ zero_extendqisi2
 2225 001a 012B     		cmp	r3, #1
 2226 001c 01D0     		beq	.L131
 826:..\..\..\..\PSoC6_101\Sensor/driver_max30102.c ****     {
 827:..\..\..\..\PSoC6_101\Sensor/driver_max30102.c ****         return 3;                                                                                  
 2227              		.loc 1 827 0
 2228 001e 0323     		movs	r3, #3
 2229 0020 21E0     		b	.L134
 2230              	.L131:
 828:..\..\..\..\PSoC6_101\Sensor/driver_max30102.c ****     }
 829:..\..\..\..\PSoC6_101\Sensor/driver_max30102.c ****     if (pointer > 0x1F)                                                                            
 2231              		.loc 1 829 0
 2232 0022 FB78     		ldrb	r3, [r7, #3]	@ zero_extendqisi2
 2233 0024 1F2B     		cmp	r3, #31
 2234 0026 05D9     		bls	.L132
 830:..\..\..\..\PSoC6_101\Sensor/driver_max30102.c ****     {
 831:..\..\..\..\PSoC6_101\Sensor/driver_max30102.c ****         handle->debug_print("max30102: pointer can't be over 0x1F.\n");                            
 2235              		.loc 1 831 0
 2236 0028 7B68     		ldr	r3, [r7, #4]
 2237 002a 9B69     		ldr	r3, [r3, #24]
 2238 002c 1048     		ldr	r0, .L135
 2239 002e 9847     		blx	r3
 832:..\..\..\..\PSoC6_101\Sensor/driver_max30102.c ****        
 833:..\..\..\..\PSoC6_101\Sensor/driver_max30102.c ****         return 4;                                                                                  
 2240              		.loc 1 833 0
 2241 0030 0423     		movs	r3, #4
 2242 0032 18E0     		b	.L134
 2243              	.L132:
 834:..\..\..\..\PSoC6_101\Sensor/driver_max30102.c ****     }
 835:..\..\..\..\PSoC6_101\Sensor/driver_max30102.c **** 
 836:..\..\..\..\PSoC6_101\Sensor/driver_max30102.c ****     prev = pointer & 0x1F;                                                                         
 2244              		.loc 1 836 0
 2245 0034 FB78     		ldrb	r3, [r7, #3]
 2246 0036 03F01F03 		and	r3, r3, #31
 2247 003a DBB2     		uxtb	r3, r3
 2248 003c BB73     		strb	r3, [r7, #14]
 837:..\..\..\..\PSoC6_101\Sensor/driver_max30102.c ****     res = handle->iic_write(MAX30102_ADDRESS, MAX30102_REG_FIFO_WRITE_POINTER, (uint8_t *)&prev, 1)
 2249              		.loc 1 837 0
 2250 003e 7B68     		ldr	r3, [r7, #4]
 2251 0040 DC68     		ldr	r4, [r3, #12]
 2252 0042 07F10E02 		add	r2, r7, #14
 2253 0046 0123     		movs	r3, #1
 2254 0048 0421     		movs	r1, #4
 2255 004a AE20     		movs	r0, #174
 2256 004c A047     		blx	r4
 2257 004e 0346     		mov	r3, r0
 2258 0050 FB73     		strb	r3, [r7, #15]
 838:..\..\..\..\PSoC6_101\Sensor/driver_max30102.c ****     if (res != 0)                                                                                  
 2259              		.loc 1 838 0
ARM GAS  C:\Users\49148\AppData\Local\Temp\ccWN5cWv.s 			page 58


 2260 0052 FB7B     		ldrb	r3, [r7, #15]	@ zero_extendqisi2
 2261 0054 002B     		cmp	r3, #0
 2262 0056 05D0     		beq	.L133
 839:..\..\..\..\PSoC6_101\Sensor/driver_max30102.c ****     {
 840:..\..\..\..\PSoC6_101\Sensor/driver_max30102.c ****         handle->debug_print("max30102: write fifo write pointer failed.\n");                       
 2263              		.loc 1 840 0
 2264 0058 7B68     		ldr	r3, [r7, #4]
 2265 005a 9B69     		ldr	r3, [r3, #24]
 2266 005c 0548     		ldr	r0, .L135+4
 2267 005e 9847     		blx	r3
 841:..\..\..\..\PSoC6_101\Sensor/driver_max30102.c ****        
 842:..\..\..\..\PSoC6_101\Sensor/driver_max30102.c ****         return 1;                                                                                  
 2268              		.loc 1 842 0
 2269 0060 0123     		movs	r3, #1
 2270 0062 00E0     		b	.L134
 2271              	.L133:
 843:..\..\..\..\PSoC6_101\Sensor/driver_max30102.c ****     }
 844:..\..\..\..\PSoC6_101\Sensor/driver_max30102.c ****     
 845:..\..\..\..\PSoC6_101\Sensor/driver_max30102.c ****     return 0;                                                                                      
 2272              		.loc 1 845 0
 2273 0064 0023     		movs	r3, #0
 2274              	.L134:
 846:..\..\..\..\PSoC6_101\Sensor/driver_max30102.c **** }
 2275              		.loc 1 846 0 discriminator 1
 2276 0066 1846     		mov	r0, r3
 2277 0068 1437     		adds	r7, r7, #20
 2278              		.cfi_def_cfa_offset 12
 2279 006a BD46     		mov	sp, r7
 2280              		.cfi_def_cfa_register 13
 2281              		@ sp needed
 2282 006c 90BD     		pop	{r4, r7, pc}
 2283              	.L136:
 2284 006e 00BF     		.align	2
 2285              	.L135:
 2286 0070 04050000 		.word	.LC34
 2287 0074 B4010000 		.word	.LC13
 2288              		.cfi_endproc
 2289              	.LFE9:
 2290              		.size	max30102_set_fifo_write_pointer, .-max30102_set_fifo_write_pointer
 2291              		.section	.rodata
 2292 052b 00       		.align	2
 2293              	.LC35:
 2294 052c 6D617833 		.ascii	"max30102: read fifo write pointer failed.\012\000"
 2294      30313032 
 2294      3A207265 
 2294      61642066 
 2294      69666F20 
 2295              		.section	.text.max30102_get_fifo_write_pointer,"ax",%progbits
 2296              		.align	2
 2297              		.global	max30102_get_fifo_write_pointer
 2298              		.thumb
 2299              		.thumb_func
 2300              		.type	max30102_get_fifo_write_pointer, %function
 2301              	max30102_get_fifo_write_pointer:
 2302              	.LFB10:
 847:..\..\..\..\PSoC6_101\Sensor/driver_max30102.c **** 
 848:..\..\..\..\PSoC6_101\Sensor/driver_max30102.c **** /**
ARM GAS  C:\Users\49148\AppData\Local\Temp\ccWN5cWv.s 			page 59


 849:..\..\..\..\PSoC6_101\Sensor/driver_max30102.c ****  * @brief      get the fifo write pointer
 850:..\..\..\..\PSoC6_101\Sensor/driver_max30102.c ****  * @param[in]  *handle points to a max30102 handle structure
 851:..\..\..\..\PSoC6_101\Sensor/driver_max30102.c ****  * @param[out] *pointer points to a pointer buffer
 852:..\..\..\..\PSoC6_101\Sensor/driver_max30102.c ****  * @return     status code
 853:..\..\..\..\PSoC6_101\Sensor/driver_max30102.c ****  *             - 0 success
 854:..\..\..\..\PSoC6_101\Sensor/driver_max30102.c ****  *             - 1 get fifo write pointer failed
 855:..\..\..\..\PSoC6_101\Sensor/driver_max30102.c ****  *             - 2 handle is NULL
 856:..\..\..\..\PSoC6_101\Sensor/driver_max30102.c ****  *             - 3 handle is not initialized
 857:..\..\..\..\PSoC6_101\Sensor/driver_max30102.c ****  * @note       none
 858:..\..\..\..\PSoC6_101\Sensor/driver_max30102.c ****  */
 859:..\..\..\..\PSoC6_101\Sensor/driver_max30102.c **** uint8_t max30102_get_fifo_write_pointer(max30102_handle_t *handle, uint8_t *pointer)
 860:..\..\..\..\PSoC6_101\Sensor/driver_max30102.c **** {
 2303              		.loc 1 860 0
 2304              		.cfi_startproc
 2305              		@ args = 0, pretend = 0, frame = 16
 2306              		@ frame_needed = 1, uses_anonymous_args = 0
 2307 0000 90B5     		push	{r4, r7, lr}
 2308              		.cfi_def_cfa_offset 12
 2309              		.cfi_offset 4, -12
 2310              		.cfi_offset 7, -8
 2311              		.cfi_offset 14, -4
 2312 0002 85B0     		sub	sp, sp, #20
 2313              		.cfi_def_cfa_offset 32
 2314 0004 00AF     		add	r7, sp, #0
 2315              		.cfi_def_cfa_register 7
 2316 0006 7860     		str	r0, [r7, #4]
 2317 0008 3960     		str	r1, [r7]
 861:..\..\..\..\PSoC6_101\Sensor/driver_max30102.c ****     uint8_t res;
 862:..\..\..\..\PSoC6_101\Sensor/driver_max30102.c ****     uint8_t prev;
 863:..\..\..\..\PSoC6_101\Sensor/driver_max30102.c ****     
 864:..\..\..\..\PSoC6_101\Sensor/driver_max30102.c ****     if (handle == NULL)                                                                            
 2318              		.loc 1 864 0
 2319 000a 7B68     		ldr	r3, [r7, #4]
 2320 000c 002B     		cmp	r3, #0
 2321 000e 01D1     		bne	.L138
 865:..\..\..\..\PSoC6_101\Sensor/driver_max30102.c ****     {
 866:..\..\..\..\PSoC6_101\Sensor/driver_max30102.c ****         return 2;                                                                                  
 2322              		.loc 1 866 0
 2323 0010 0223     		movs	r3, #2
 2324 0012 1FE0     		b	.L142
 2325              	.L138:
 867:..\..\..\..\PSoC6_101\Sensor/driver_max30102.c ****     }
 868:..\..\..\..\PSoC6_101\Sensor/driver_max30102.c ****     if (handle->inited != 1)                                                                       
 2326              		.loc 1 868 0
 2327 0014 7B68     		ldr	r3, [r7, #4]
 2328 0016 1B7F     		ldrb	r3, [r3, #28]	@ zero_extendqisi2
 2329 0018 012B     		cmp	r3, #1
 2330 001a 01D0     		beq	.L140
 869:..\..\..\..\PSoC6_101\Sensor/driver_max30102.c ****     {
 870:..\..\..\..\PSoC6_101\Sensor/driver_max30102.c ****         return 3;                                                                                  
 2331              		.loc 1 870 0
 2332 001c 0323     		movs	r3, #3
 2333 001e 19E0     		b	.L142
 2334              	.L140:
 871:..\..\..\..\PSoC6_101\Sensor/driver_max30102.c ****     }
 872:..\..\..\..\PSoC6_101\Sensor/driver_max30102.c **** 
 873:..\..\..\..\PSoC6_101\Sensor/driver_max30102.c ****     res = handle->iic_read(MAX30102_ADDRESS, MAX30102_REG_FIFO_WRITE_POINTER, (uint8_t *)&prev, 1);
ARM GAS  C:\Users\49148\AppData\Local\Temp\ccWN5cWv.s 			page 60


 2335              		.loc 1 873 0
 2336 0020 7B68     		ldr	r3, [r7, #4]
 2337 0022 9C68     		ldr	r4, [r3, #8]
 2338 0024 07F10E02 		add	r2, r7, #14
 2339 0028 0123     		movs	r3, #1
 2340 002a 0421     		movs	r1, #4
 2341 002c AE20     		movs	r0, #174
 2342 002e A047     		blx	r4
 2343 0030 0346     		mov	r3, r0
 2344 0032 FB73     		strb	r3, [r7, #15]
 874:..\..\..\..\PSoC6_101\Sensor/driver_max30102.c ****     if (res != 0)                                                                                  
 2345              		.loc 1 874 0
 2346 0034 FB7B     		ldrb	r3, [r7, #15]	@ zero_extendqisi2
 2347 0036 002B     		cmp	r3, #0
 2348 0038 05D0     		beq	.L141
 875:..\..\..\..\PSoC6_101\Sensor/driver_max30102.c ****     {
 876:..\..\..\..\PSoC6_101\Sensor/driver_max30102.c ****         handle->debug_print("max30102: read fifo write pointer failed.\n");                        
 2349              		.loc 1 876 0
 2350 003a 7B68     		ldr	r3, [r7, #4]
 2351 003c 9B69     		ldr	r3, [r3, #24]
 2352 003e 0748     		ldr	r0, .L143
 2353 0040 9847     		blx	r3
 877:..\..\..\..\PSoC6_101\Sensor/driver_max30102.c ****        
 878:..\..\..\..\PSoC6_101\Sensor/driver_max30102.c ****         return 1;                                                                                  
 2354              		.loc 1 878 0
 2355 0042 0123     		movs	r3, #1
 2356 0044 06E0     		b	.L142
 2357              	.L141:
 879:..\..\..\..\PSoC6_101\Sensor/driver_max30102.c ****     }
 880:..\..\..\..\PSoC6_101\Sensor/driver_max30102.c ****     *pointer = prev & 0x1F;                                                                        
 2358              		.loc 1 880 0
 2359 0046 BB7B     		ldrb	r3, [r7, #14]	@ zero_extendqisi2
 2360 0048 03F01F03 		and	r3, r3, #31
 2361 004c DAB2     		uxtb	r2, r3
 2362 004e 3B68     		ldr	r3, [r7]
 2363 0050 1A70     		strb	r2, [r3]
 881:..\..\..\..\PSoC6_101\Sensor/driver_max30102.c ****     
 882:..\..\..\..\PSoC6_101\Sensor/driver_max30102.c ****     return 0;                                                                                      
 2364              		.loc 1 882 0
 2365 0052 0023     		movs	r3, #0
 2366              	.L142:
 883:..\..\..\..\PSoC6_101\Sensor/driver_max30102.c **** }
 2367              		.loc 1 883 0 discriminator 1
 2368 0054 1846     		mov	r0, r3
 2369 0056 1437     		adds	r7, r7, #20
 2370              		.cfi_def_cfa_offset 12
 2371 0058 BD46     		mov	sp, r7
 2372              		.cfi_def_cfa_register 13
 2373              		@ sp needed
 2374 005a 90BD     		pop	{r4, r7, pc}
 2375              	.L144:
 2376              		.align	2
 2377              	.L143:
 2378 005c 2C050000 		.word	.LC35
 2379              		.cfi_endproc
 2380              	.LFE10:
 2381              		.size	max30102_get_fifo_write_pointer, .-max30102_get_fifo_write_pointer
ARM GAS  C:\Users\49148\AppData\Local\Temp\ccWN5cWv.s 			page 61


 2382              		.section	.rodata
 2383 0557 00       		.align	2
 2384              	.LC36:
 2385 0558 6D617833 		.ascii	"max30102: counter can't be over 0x1F.\012\000"
 2385      30313032 
 2385      3A20636F 
 2385      756E7465 
 2385      72206361 
 2386 057f 00       		.align	2
 2387              	.LC37:
 2388 0580 6D617833 		.ascii	"max30102: set fifo overflow counter failed.\012\000"
 2388      30313032 
 2388      3A207365 
 2388      74206669 
 2388      666F206F 
 2389              		.section	.text.max30102_set_fifo_overflow_counter,"ax",%progbits
 2390              		.align	2
 2391              		.global	max30102_set_fifo_overflow_counter
 2392              		.thumb
 2393              		.thumb_func
 2394              		.type	max30102_set_fifo_overflow_counter, %function
 2395              	max30102_set_fifo_overflow_counter:
 2396              	.LFB11:
 884:..\..\..\..\PSoC6_101\Sensor/driver_max30102.c **** 
 885:..\..\..\..\PSoC6_101\Sensor/driver_max30102.c **** /**
 886:..\..\..\..\PSoC6_101\Sensor/driver_max30102.c ****  * @brief     set the fifo overflow counter
 887:..\..\..\..\PSoC6_101\Sensor/driver_max30102.c ****  * @param[in] *handle points to a max30102 handle structure
 888:..\..\..\..\PSoC6_101\Sensor/driver_max30102.c ****  * @param[in] counter is the overflow counter
 889:..\..\..\..\PSoC6_101\Sensor/driver_max30102.c ****  * @return    status code
 890:..\..\..\..\PSoC6_101\Sensor/driver_max30102.c ****  *            - 0 success
 891:..\..\..\..\PSoC6_101\Sensor/driver_max30102.c ****  *            - 1 set fifo overflow counter failed
 892:..\..\..\..\PSoC6_101\Sensor/driver_max30102.c ****  *            - 2 handle is NULL
 893:..\..\..\..\PSoC6_101\Sensor/driver_max30102.c ****  *            - 3 handle is not initialized
 894:..\..\..\..\PSoC6_101\Sensor/driver_max30102.c ****  *            - 4 counter can't be over 0x1F
 895:..\..\..\..\PSoC6_101\Sensor/driver_max30102.c ****  * @note      counter <= 0x1F
 896:..\..\..\..\PSoC6_101\Sensor/driver_max30102.c ****  */
 897:..\..\..\..\PSoC6_101\Sensor/driver_max30102.c **** uint8_t max30102_set_fifo_overflow_counter(max30102_handle_t *handle, uint8_t counter)
 898:..\..\..\..\PSoC6_101\Sensor/driver_max30102.c **** {
 2397              		.loc 1 898 0
 2398              		.cfi_startproc
 2399              		@ args = 0, pretend = 0, frame = 16
 2400              		@ frame_needed = 1, uses_anonymous_args = 0
 2401 0000 90B5     		push	{r4, r7, lr}
 2402              		.cfi_def_cfa_offset 12
 2403              		.cfi_offset 4, -12
 2404              		.cfi_offset 7, -8
 2405              		.cfi_offset 14, -4
 2406 0002 85B0     		sub	sp, sp, #20
 2407              		.cfi_def_cfa_offset 32
 2408 0004 00AF     		add	r7, sp, #0
 2409              		.cfi_def_cfa_register 7
 2410 0006 7860     		str	r0, [r7, #4]
 2411 0008 0B46     		mov	r3, r1
 2412 000a FB70     		strb	r3, [r7, #3]
 899:..\..\..\..\PSoC6_101\Sensor/driver_max30102.c ****     uint8_t res;
 900:..\..\..\..\PSoC6_101\Sensor/driver_max30102.c ****     uint8_t prev;
 901:..\..\..\..\PSoC6_101\Sensor/driver_max30102.c ****     
ARM GAS  C:\Users\49148\AppData\Local\Temp\ccWN5cWv.s 			page 62


 902:..\..\..\..\PSoC6_101\Sensor/driver_max30102.c ****     if (handle == NULL)                                                                            
 2413              		.loc 1 902 0
 2414 000c 7B68     		ldr	r3, [r7, #4]
 2415 000e 002B     		cmp	r3, #0
 2416 0010 01D1     		bne	.L146
 903:..\..\..\..\PSoC6_101\Sensor/driver_max30102.c ****     {
 904:..\..\..\..\PSoC6_101\Sensor/driver_max30102.c ****         return 2;                                                                                  
 2417              		.loc 1 904 0
 2418 0012 0223     		movs	r3, #2
 2419 0014 27E0     		b	.L151
 2420              	.L146:
 905:..\..\..\..\PSoC6_101\Sensor/driver_max30102.c ****     }
 906:..\..\..\..\PSoC6_101\Sensor/driver_max30102.c ****     if (handle->inited != 1)                                                                       
 2421              		.loc 1 906 0
 2422 0016 7B68     		ldr	r3, [r7, #4]
 2423 0018 1B7F     		ldrb	r3, [r3, #28]	@ zero_extendqisi2
 2424 001a 012B     		cmp	r3, #1
 2425 001c 01D0     		beq	.L148
 907:..\..\..\..\PSoC6_101\Sensor/driver_max30102.c ****     {
 908:..\..\..\..\PSoC6_101\Sensor/driver_max30102.c ****         return 3;                                                                                  
 2426              		.loc 1 908 0
 2427 001e 0323     		movs	r3, #3
 2428 0020 21E0     		b	.L151
 2429              	.L148:
 909:..\..\..\..\PSoC6_101\Sensor/driver_max30102.c ****     }
 910:..\..\..\..\PSoC6_101\Sensor/driver_max30102.c ****     if (counter > 0x1F)                                                                            
 2430              		.loc 1 910 0
 2431 0022 FB78     		ldrb	r3, [r7, #3]	@ zero_extendqisi2
 2432 0024 1F2B     		cmp	r3, #31
 2433 0026 05D9     		bls	.L149
 911:..\..\..\..\PSoC6_101\Sensor/driver_max30102.c ****     {
 912:..\..\..\..\PSoC6_101\Sensor/driver_max30102.c ****         handle->debug_print("max30102: counter can't be over 0x1F.\n");                            
 2434              		.loc 1 912 0
 2435 0028 7B68     		ldr	r3, [r7, #4]
 2436 002a 9B69     		ldr	r3, [r3, #24]
 2437 002c 1048     		ldr	r0, .L152
 2438 002e 9847     		blx	r3
 913:..\..\..\..\PSoC6_101\Sensor/driver_max30102.c ****        
 914:..\..\..\..\PSoC6_101\Sensor/driver_max30102.c ****         return 4;                                                                                  
 2439              		.loc 1 914 0
 2440 0030 0423     		movs	r3, #4
 2441 0032 18E0     		b	.L151
 2442              	.L149:
 915:..\..\..\..\PSoC6_101\Sensor/driver_max30102.c ****     }
 916:..\..\..\..\PSoC6_101\Sensor/driver_max30102.c **** 
 917:..\..\..\..\PSoC6_101\Sensor/driver_max30102.c ****     prev = counter & 0x1F;                                                                         
 2443              		.loc 1 917 0
 2444 0034 FB78     		ldrb	r3, [r7, #3]
 2445 0036 03F01F03 		and	r3, r3, #31
 2446 003a DBB2     		uxtb	r3, r3
 2447 003c BB73     		strb	r3, [r7, #14]
 918:..\..\..\..\PSoC6_101\Sensor/driver_max30102.c ****     res = handle->iic_write(MAX30102_ADDRESS, MAX30102_REG_OVERFLOW_COUNTER, (uint8_t *)&prev, 1); 
 2448              		.loc 1 918 0
 2449 003e 7B68     		ldr	r3, [r7, #4]
 2450 0040 DC68     		ldr	r4, [r3, #12]
 2451 0042 07F10E02 		add	r2, r7, #14
 2452 0046 0123     		movs	r3, #1
ARM GAS  C:\Users\49148\AppData\Local\Temp\ccWN5cWv.s 			page 63


 2453 0048 0521     		movs	r1, #5
 2454 004a AE20     		movs	r0, #174
 2455 004c A047     		blx	r4
 2456 004e 0346     		mov	r3, r0
 2457 0050 FB73     		strb	r3, [r7, #15]
 919:..\..\..\..\PSoC6_101\Sensor/driver_max30102.c ****     if (res != 0)                                                                                  
 2458              		.loc 1 919 0
 2459 0052 FB7B     		ldrb	r3, [r7, #15]	@ zero_extendqisi2
 2460 0054 002B     		cmp	r3, #0
 2461 0056 05D0     		beq	.L150
 920:..\..\..\..\PSoC6_101\Sensor/driver_max30102.c ****     {
 921:..\..\..\..\PSoC6_101\Sensor/driver_max30102.c ****         handle->debug_print("max30102: set fifo overflow counter failed.\n");                      
 2462              		.loc 1 921 0
 2463 0058 7B68     		ldr	r3, [r7, #4]
 2464 005a 9B69     		ldr	r3, [r3, #24]
 2465 005c 0548     		ldr	r0, .L152+4
 2466 005e 9847     		blx	r3
 922:..\..\..\..\PSoC6_101\Sensor/driver_max30102.c ****        
 923:..\..\..\..\PSoC6_101\Sensor/driver_max30102.c ****         return 1;                                                                                  
 2467              		.loc 1 923 0
 2468 0060 0123     		movs	r3, #1
 2469 0062 00E0     		b	.L151
 2470              	.L150:
 924:..\..\..\..\PSoC6_101\Sensor/driver_max30102.c ****     }
 925:..\..\..\..\PSoC6_101\Sensor/driver_max30102.c ****     
 926:..\..\..\..\PSoC6_101\Sensor/driver_max30102.c ****     return 0;                                                                                      
 2471              		.loc 1 926 0
 2472 0064 0023     		movs	r3, #0
 2473              	.L151:
 927:..\..\..\..\PSoC6_101\Sensor/driver_max30102.c **** }
 2474              		.loc 1 927 0 discriminator 1
 2475 0066 1846     		mov	r0, r3
 2476 0068 1437     		adds	r7, r7, #20
 2477              		.cfi_def_cfa_offset 12
 2478 006a BD46     		mov	sp, r7
 2479              		.cfi_def_cfa_register 13
 2480              		@ sp needed
 2481 006c 90BD     		pop	{r4, r7, pc}
 2482              	.L153:
 2483 006e 00BF     		.align	2
 2484              	.L152:
 2485 0070 58050000 		.word	.LC36
 2486 0074 80050000 		.word	.LC37
 2487              		.cfi_endproc
 2488              	.LFE11:
 2489              		.size	max30102_set_fifo_overflow_counter, .-max30102_set_fifo_overflow_counter
 2490              		.section	.rodata
 2491 05ad 000000   		.align	2
 2492              	.LC38:
 2493 05b0 6D617833 		.ascii	"max30102: get fifo overflow counter failed.\012\000"
 2493      30313032 
 2493      3A206765 
 2493      74206669 
 2493      666F206F 
 2494              		.section	.text.max30102_get_fifo_overflow_counter,"ax",%progbits
 2495              		.align	2
 2496              		.global	max30102_get_fifo_overflow_counter
ARM GAS  C:\Users\49148\AppData\Local\Temp\ccWN5cWv.s 			page 64


 2497              		.thumb
 2498              		.thumb_func
 2499              		.type	max30102_get_fifo_overflow_counter, %function
 2500              	max30102_get_fifo_overflow_counter:
 2501              	.LFB12:
 928:..\..\..\..\PSoC6_101\Sensor/driver_max30102.c **** 
 929:..\..\..\..\PSoC6_101\Sensor/driver_max30102.c **** /**
 930:..\..\..\..\PSoC6_101\Sensor/driver_max30102.c ****  * @brief      get the fifo overflow counter
 931:..\..\..\..\PSoC6_101\Sensor/driver_max30102.c ****  * @param[in]  *handle points to a max30102 handle structure
 932:..\..\..\..\PSoC6_101\Sensor/driver_max30102.c ****  * @param[out] *counter points to a counter buffer
 933:..\..\..\..\PSoC6_101\Sensor/driver_max30102.c ****  * @return     status code
 934:..\..\..\..\PSoC6_101\Sensor/driver_max30102.c ****  *             - 0 success
 935:..\..\..\..\PSoC6_101\Sensor/driver_max30102.c ****  *             - 1 get fifo overflow counter failed
 936:..\..\..\..\PSoC6_101\Sensor/driver_max30102.c ****  *             - 2 handle is NULL
 937:..\..\..\..\PSoC6_101\Sensor/driver_max30102.c ****  *             - 3 handle is not initialized
 938:..\..\..\..\PSoC6_101\Sensor/driver_max30102.c ****  * @note       none
 939:..\..\..\..\PSoC6_101\Sensor/driver_max30102.c ****  */
 940:..\..\..\..\PSoC6_101\Sensor/driver_max30102.c **** uint8_t max30102_get_fifo_overflow_counter(max30102_handle_t *handle, uint8_t *counter)
 941:..\..\..\..\PSoC6_101\Sensor/driver_max30102.c **** {
 2502              		.loc 1 941 0
 2503              		.cfi_startproc
 2504              		@ args = 0, pretend = 0, frame = 16
 2505              		@ frame_needed = 1, uses_anonymous_args = 0
 2506 0000 90B5     		push	{r4, r7, lr}
 2507              		.cfi_def_cfa_offset 12
 2508              		.cfi_offset 4, -12
 2509              		.cfi_offset 7, -8
 2510              		.cfi_offset 14, -4
 2511 0002 85B0     		sub	sp, sp, #20
 2512              		.cfi_def_cfa_offset 32
 2513 0004 00AF     		add	r7, sp, #0
 2514              		.cfi_def_cfa_register 7
 2515 0006 7860     		str	r0, [r7, #4]
 2516 0008 3960     		str	r1, [r7]
 942:..\..\..\..\PSoC6_101\Sensor/driver_max30102.c ****     uint8_t res;
 943:..\..\..\..\PSoC6_101\Sensor/driver_max30102.c ****     uint8_t prev;
 944:..\..\..\..\PSoC6_101\Sensor/driver_max30102.c ****     
 945:..\..\..\..\PSoC6_101\Sensor/driver_max30102.c ****     if (handle == NULL)                                                                            
 2517              		.loc 1 945 0
 2518 000a 7B68     		ldr	r3, [r7, #4]
 2519 000c 002B     		cmp	r3, #0
 2520 000e 01D1     		bne	.L155
 946:..\..\..\..\PSoC6_101\Sensor/driver_max30102.c ****     {
 947:..\..\..\..\PSoC6_101\Sensor/driver_max30102.c ****         return 2;                                                                                  
 2521              		.loc 1 947 0
 2522 0010 0223     		movs	r3, #2
 2523 0012 1FE0     		b	.L159
 2524              	.L155:
 948:..\..\..\..\PSoC6_101\Sensor/driver_max30102.c ****     }
 949:..\..\..\..\PSoC6_101\Sensor/driver_max30102.c ****     if (handle->inited != 1)                                                                       
 2525              		.loc 1 949 0
 2526 0014 7B68     		ldr	r3, [r7, #4]
 2527 0016 1B7F     		ldrb	r3, [r3, #28]	@ zero_extendqisi2
 2528 0018 012B     		cmp	r3, #1
 2529 001a 01D0     		beq	.L157
 950:..\..\..\..\PSoC6_101\Sensor/driver_max30102.c ****     {
 951:..\..\..\..\PSoC6_101\Sensor/driver_max30102.c ****         return 3;                                                                                  
ARM GAS  C:\Users\49148\AppData\Local\Temp\ccWN5cWv.s 			page 65


 2530              		.loc 1 951 0
 2531 001c 0323     		movs	r3, #3
 2532 001e 19E0     		b	.L159
 2533              	.L157:
 952:..\..\..\..\PSoC6_101\Sensor/driver_max30102.c ****     }
 953:..\..\..\..\PSoC6_101\Sensor/driver_max30102.c **** 
 954:..\..\..\..\PSoC6_101\Sensor/driver_max30102.c ****     res = handle->iic_read(MAX30102_ADDRESS, MAX30102_REG_OVERFLOW_COUNTER, (uint8_t *)&prev, 1);  
 2534              		.loc 1 954 0
 2535 0020 7B68     		ldr	r3, [r7, #4]
 2536 0022 9C68     		ldr	r4, [r3, #8]
 2537 0024 07F10E02 		add	r2, r7, #14
 2538 0028 0123     		movs	r3, #1
 2539 002a 0521     		movs	r1, #5
 2540 002c AE20     		movs	r0, #174
 2541 002e A047     		blx	r4
 2542 0030 0346     		mov	r3, r0
 2543 0032 FB73     		strb	r3, [r7, #15]
 955:..\..\..\..\PSoC6_101\Sensor/driver_max30102.c ****     if (res != 0)                                                                                  
 2544              		.loc 1 955 0
 2545 0034 FB7B     		ldrb	r3, [r7, #15]	@ zero_extendqisi2
 2546 0036 002B     		cmp	r3, #0
 2547 0038 05D0     		beq	.L158
 956:..\..\..\..\PSoC6_101\Sensor/driver_max30102.c ****     {
 957:..\..\..\..\PSoC6_101\Sensor/driver_max30102.c ****         handle->debug_print("max30102: get fifo overflow counter failed.\n");                      
 2548              		.loc 1 957 0
 2549 003a 7B68     		ldr	r3, [r7, #4]
 2550 003c 9B69     		ldr	r3, [r3, #24]
 2551 003e 0748     		ldr	r0, .L160
 2552 0040 9847     		blx	r3
 958:..\..\..\..\PSoC6_101\Sensor/driver_max30102.c ****        
 959:..\..\..\..\PSoC6_101\Sensor/driver_max30102.c ****         return 1;                                                                                  
 2553              		.loc 1 959 0
 2554 0042 0123     		movs	r3, #1
 2555 0044 06E0     		b	.L159
 2556              	.L158:
 960:..\..\..\..\PSoC6_101\Sensor/driver_max30102.c ****     }
 961:..\..\..\..\PSoC6_101\Sensor/driver_max30102.c ****     *counter = prev & 0x1F;                                                                        
 2557              		.loc 1 961 0
 2558 0046 BB7B     		ldrb	r3, [r7, #14]	@ zero_extendqisi2
 2559 0048 03F01F03 		and	r3, r3, #31
 2560 004c DAB2     		uxtb	r2, r3
 2561 004e 3B68     		ldr	r3, [r7]
 2562 0050 1A70     		strb	r2, [r3]
 962:..\..\..\..\PSoC6_101\Sensor/driver_max30102.c ****     
 963:..\..\..\..\PSoC6_101\Sensor/driver_max30102.c ****     return 0;                                                                                      
 2563              		.loc 1 963 0
 2564 0052 0023     		movs	r3, #0
 2565              	.L159:
 964:..\..\..\..\PSoC6_101\Sensor/driver_max30102.c **** }
 2566              		.loc 1 964 0 discriminator 1
 2567 0054 1846     		mov	r0, r3
 2568 0056 1437     		adds	r7, r7, #20
 2569              		.cfi_def_cfa_offset 12
 2570 0058 BD46     		mov	sp, r7
 2571              		.cfi_def_cfa_register 13
 2572              		@ sp needed
 2573 005a 90BD     		pop	{r4, r7, pc}
ARM GAS  C:\Users\49148\AppData\Local\Temp\ccWN5cWv.s 			page 66


 2574              	.L161:
 2575              		.align	2
 2576              	.L160:
 2577 005c B0050000 		.word	.LC38
 2578              		.cfi_endproc
 2579              	.LFE12:
 2580              		.size	max30102_get_fifo_overflow_counter, .-max30102_get_fifo_overflow_counter
 2581              		.section	.text.max30102_set_fifo_read_pointer,"ax",%progbits
 2582              		.align	2
 2583              		.global	max30102_set_fifo_read_pointer
 2584              		.thumb
 2585              		.thumb_func
 2586              		.type	max30102_set_fifo_read_pointer, %function
 2587              	max30102_set_fifo_read_pointer:
 2588              	.LFB13:
 965:..\..\..\..\PSoC6_101\Sensor/driver_max30102.c **** 
 966:..\..\..\..\PSoC6_101\Sensor/driver_max30102.c **** /**
 967:..\..\..\..\PSoC6_101\Sensor/driver_max30102.c ****  * @brief     set the fifo read pointer
 968:..\..\..\..\PSoC6_101\Sensor/driver_max30102.c ****  * @param[in] *handle points to a max30102 handle structure
 969:..\..\..\..\PSoC6_101\Sensor/driver_max30102.c ****  * @param[in] pointer is the read pointer
 970:..\..\..\..\PSoC6_101\Sensor/driver_max30102.c ****  * @return    status code
 971:..\..\..\..\PSoC6_101\Sensor/driver_max30102.c ****  *            - 0 success
 972:..\..\..\..\PSoC6_101\Sensor/driver_max30102.c ****  *            - 1 set fifo read pointer failed
 973:..\..\..\..\PSoC6_101\Sensor/driver_max30102.c ****  *            - 2 handle is NULL
 974:..\..\..\..\PSoC6_101\Sensor/driver_max30102.c ****  *            - 3 handle is not initialized
 975:..\..\..\..\PSoC6_101\Sensor/driver_max30102.c ****  *            - 4 pointer can't be over 0x1F
 976:..\..\..\..\PSoC6_101\Sensor/driver_max30102.c ****  * @note      pointer <= 0x1F
 977:..\..\..\..\PSoC6_101\Sensor/driver_max30102.c ****  */
 978:..\..\..\..\PSoC6_101\Sensor/driver_max30102.c **** uint8_t max30102_set_fifo_read_pointer(max30102_handle_t *handle, uint8_t pointer)
 979:..\..\..\..\PSoC6_101\Sensor/driver_max30102.c **** {
 2589              		.loc 1 979 0
 2590              		.cfi_startproc
 2591              		@ args = 0, pretend = 0, frame = 16
 2592              		@ frame_needed = 1, uses_anonymous_args = 0
 2593 0000 90B5     		push	{r4, r7, lr}
 2594              		.cfi_def_cfa_offset 12
 2595              		.cfi_offset 4, -12
 2596              		.cfi_offset 7, -8
 2597              		.cfi_offset 14, -4
 2598 0002 85B0     		sub	sp, sp, #20
 2599              		.cfi_def_cfa_offset 32
 2600 0004 00AF     		add	r7, sp, #0
 2601              		.cfi_def_cfa_register 7
 2602 0006 7860     		str	r0, [r7, #4]
 2603 0008 0B46     		mov	r3, r1
 2604 000a FB70     		strb	r3, [r7, #3]
 980:..\..\..\..\PSoC6_101\Sensor/driver_max30102.c ****     uint8_t res;
 981:..\..\..\..\PSoC6_101\Sensor/driver_max30102.c ****     uint8_t prev;
 982:..\..\..\..\PSoC6_101\Sensor/driver_max30102.c ****     
 983:..\..\..\..\PSoC6_101\Sensor/driver_max30102.c ****     if (handle == NULL)                                                                            
 2605              		.loc 1 983 0
 2606 000c 7B68     		ldr	r3, [r7, #4]
 2607 000e 002B     		cmp	r3, #0
 2608 0010 01D1     		bne	.L163
 984:..\..\..\..\PSoC6_101\Sensor/driver_max30102.c ****     {
 985:..\..\..\..\PSoC6_101\Sensor/driver_max30102.c ****         return 2;                                                                                  
 2609              		.loc 1 985 0
ARM GAS  C:\Users\49148\AppData\Local\Temp\ccWN5cWv.s 			page 67


 2610 0012 0223     		movs	r3, #2
 2611 0014 27E0     		b	.L168
 2612              	.L163:
 986:..\..\..\..\PSoC6_101\Sensor/driver_max30102.c ****     }
 987:..\..\..\..\PSoC6_101\Sensor/driver_max30102.c ****     if (handle->inited != 1)                                                                       
 2613              		.loc 1 987 0
 2614 0016 7B68     		ldr	r3, [r7, #4]
 2615 0018 1B7F     		ldrb	r3, [r3, #28]	@ zero_extendqisi2
 2616 001a 012B     		cmp	r3, #1
 2617 001c 01D0     		beq	.L165
 988:..\..\..\..\PSoC6_101\Sensor/driver_max30102.c ****     {
 989:..\..\..\..\PSoC6_101\Sensor/driver_max30102.c ****         return 3;                                                                                  
 2618              		.loc 1 989 0
 2619 001e 0323     		movs	r3, #3
 2620 0020 21E0     		b	.L168
 2621              	.L165:
 990:..\..\..\..\PSoC6_101\Sensor/driver_max30102.c ****     }
 991:..\..\..\..\PSoC6_101\Sensor/driver_max30102.c ****     if (pointer > 0x1F)                                                                            
 2622              		.loc 1 991 0
 2623 0022 FB78     		ldrb	r3, [r7, #3]	@ zero_extendqisi2
 2624 0024 1F2B     		cmp	r3, #31
 2625 0026 05D9     		bls	.L166
 992:..\..\..\..\PSoC6_101\Sensor/driver_max30102.c ****     {
 993:..\..\..\..\PSoC6_101\Sensor/driver_max30102.c ****         handle->debug_print("max30102: pointer can't be over 0x1F.\n");                            
 2626              		.loc 1 993 0
 2627 0028 7B68     		ldr	r3, [r7, #4]
 2628 002a 9B69     		ldr	r3, [r3, #24]
 2629 002c 1048     		ldr	r0, .L169
 2630 002e 9847     		blx	r3
 994:..\..\..\..\PSoC6_101\Sensor/driver_max30102.c ****        
 995:..\..\..\..\PSoC6_101\Sensor/driver_max30102.c ****         return 4;                                                                                  
 2631              		.loc 1 995 0
 2632 0030 0423     		movs	r3, #4
 2633 0032 18E0     		b	.L168
 2634              	.L166:
 996:..\..\..\..\PSoC6_101\Sensor/driver_max30102.c ****     }
 997:..\..\..\..\PSoC6_101\Sensor/driver_max30102.c **** 
 998:..\..\..\..\PSoC6_101\Sensor/driver_max30102.c ****     prev = pointer & 0x1F;                                                                         
 2635              		.loc 1 998 0
 2636 0034 FB78     		ldrb	r3, [r7, #3]
 2637 0036 03F01F03 		and	r3, r3, #31
 2638 003a DBB2     		uxtb	r3, r3
 2639 003c BB73     		strb	r3, [r7, #14]
 999:..\..\..\..\PSoC6_101\Sensor/driver_max30102.c ****     res = handle->iic_write(MAX30102_ADDRESS, MAX30102_REG_FIFO_READ_POINTER, (uint8_t *)&prev, 1);
 2640              		.loc 1 999 0
 2641 003e 7B68     		ldr	r3, [r7, #4]
 2642 0040 DC68     		ldr	r4, [r3, #12]
 2643 0042 07F10E02 		add	r2, r7, #14
 2644 0046 0123     		movs	r3, #1
 2645 0048 0621     		movs	r1, #6
 2646 004a AE20     		movs	r0, #174
 2647 004c A047     		blx	r4
 2648 004e 0346     		mov	r3, r0
 2649 0050 FB73     		strb	r3, [r7, #15]
1000:..\..\..\..\PSoC6_101\Sensor/driver_max30102.c ****     if (res != 0)                                                                                  
 2650              		.loc 1 1000 0
 2651 0052 FB7B     		ldrb	r3, [r7, #15]	@ zero_extendqisi2
ARM GAS  C:\Users\49148\AppData\Local\Temp\ccWN5cWv.s 			page 68


 2652 0054 002B     		cmp	r3, #0
 2653 0056 05D0     		beq	.L167
1001:..\..\..\..\PSoC6_101\Sensor/driver_max30102.c ****     {
1002:..\..\..\..\PSoC6_101\Sensor/driver_max30102.c ****         handle->debug_print("max30102: write fifo read pointer failed.\n");                        
 2654              		.loc 1 1002 0
 2655 0058 7B68     		ldr	r3, [r7, #4]
 2656 005a 9B69     		ldr	r3, [r3, #24]
 2657 005c 0548     		ldr	r0, .L169+4
 2658 005e 9847     		blx	r3
1003:..\..\..\..\PSoC6_101\Sensor/driver_max30102.c ****        
1004:..\..\..\..\PSoC6_101\Sensor/driver_max30102.c ****         return 1;                                                                                  
 2659              		.loc 1 1004 0
 2660 0060 0123     		movs	r3, #1
 2661 0062 00E0     		b	.L168
 2662              	.L167:
1005:..\..\..\..\PSoC6_101\Sensor/driver_max30102.c ****     }
1006:..\..\..\..\PSoC6_101\Sensor/driver_max30102.c ****     
1007:..\..\..\..\PSoC6_101\Sensor/driver_max30102.c ****     return 0;                                                                                      
 2663              		.loc 1 1007 0
 2664 0064 0023     		movs	r3, #0
 2665              	.L168:
1008:..\..\..\..\PSoC6_101\Sensor/driver_max30102.c **** }
 2666              		.loc 1 1008 0 discriminator 1
 2667 0066 1846     		mov	r0, r3
 2668 0068 1437     		adds	r7, r7, #20
 2669              		.cfi_def_cfa_offset 12
 2670 006a BD46     		mov	sp, r7
 2671              		.cfi_def_cfa_register 13
 2672              		@ sp needed
 2673 006c 90BD     		pop	{r4, r7, pc}
 2674              	.L170:
 2675 006e 00BF     		.align	2
 2676              	.L169:
 2677 0070 04050000 		.word	.LC34
 2678 0074 88010000 		.word	.LC12
 2679              		.cfi_endproc
 2680              	.LFE13:
 2681              		.size	max30102_set_fifo_read_pointer, .-max30102_set_fifo_read_pointer
 2682              		.section	.rodata
 2683 05dd 000000   		.align	2
 2684              	.LC39:
 2685 05e0 6D617833 		.ascii	"max30102: read fifo read pointer failed.\012\000"
 2685      30313032 
 2685      3A207265 
 2685      61642066 
 2685      69666F20 
 2686              		.section	.text.max30102_get_fifo_read_pointer,"ax",%progbits
 2687              		.align	2
 2688              		.global	max30102_get_fifo_read_pointer
 2689              		.thumb
 2690              		.thumb_func
 2691              		.type	max30102_get_fifo_read_pointer, %function
 2692              	max30102_get_fifo_read_pointer:
 2693              	.LFB14:
1009:..\..\..\..\PSoC6_101\Sensor/driver_max30102.c **** 
1010:..\..\..\..\PSoC6_101\Sensor/driver_max30102.c **** /**
1011:..\..\..\..\PSoC6_101\Sensor/driver_max30102.c ****  * @brief      get the fifo read pointer
ARM GAS  C:\Users\49148\AppData\Local\Temp\ccWN5cWv.s 			page 69


1012:..\..\..\..\PSoC6_101\Sensor/driver_max30102.c ****  * @param[in]  *handle points to a max30102 handle structure
1013:..\..\..\..\PSoC6_101\Sensor/driver_max30102.c ****  * @param[out] *pointer points to a pointer buffer
1014:..\..\..\..\PSoC6_101\Sensor/driver_max30102.c ****  * @return     status code
1015:..\..\..\..\PSoC6_101\Sensor/driver_max30102.c ****  *             - 0 success
1016:..\..\..\..\PSoC6_101\Sensor/driver_max30102.c ****  *             - 1 get fifo read pointer failed
1017:..\..\..\..\PSoC6_101\Sensor/driver_max30102.c ****  *             - 2 handle is NULL
1018:..\..\..\..\PSoC6_101\Sensor/driver_max30102.c ****  *             - 3 handle is not initialized
1019:..\..\..\..\PSoC6_101\Sensor/driver_max30102.c ****  * @note       none
1020:..\..\..\..\PSoC6_101\Sensor/driver_max30102.c ****  */
1021:..\..\..\..\PSoC6_101\Sensor/driver_max30102.c **** uint8_t max30102_get_fifo_read_pointer(max30102_handle_t *handle, uint8_t *pointer)
1022:..\..\..\..\PSoC6_101\Sensor/driver_max30102.c **** {
 2694              		.loc 1 1022 0
 2695              		.cfi_startproc
 2696              		@ args = 0, pretend = 0, frame = 16
 2697              		@ frame_needed = 1, uses_anonymous_args = 0
 2698 0000 90B5     		push	{r4, r7, lr}
 2699              		.cfi_def_cfa_offset 12
 2700              		.cfi_offset 4, -12
 2701              		.cfi_offset 7, -8
 2702              		.cfi_offset 14, -4
 2703 0002 85B0     		sub	sp, sp, #20
 2704              		.cfi_def_cfa_offset 32
 2705 0004 00AF     		add	r7, sp, #0
 2706              		.cfi_def_cfa_register 7
 2707 0006 7860     		str	r0, [r7, #4]
 2708 0008 3960     		str	r1, [r7]
1023:..\..\..\..\PSoC6_101\Sensor/driver_max30102.c ****     uint8_t res;
1024:..\..\..\..\PSoC6_101\Sensor/driver_max30102.c ****     uint8_t prev;
1025:..\..\..\..\PSoC6_101\Sensor/driver_max30102.c ****     
1026:..\..\..\..\PSoC6_101\Sensor/driver_max30102.c ****     if (handle == NULL)                                                                            
 2709              		.loc 1 1026 0
 2710 000a 7B68     		ldr	r3, [r7, #4]
 2711 000c 002B     		cmp	r3, #0
 2712 000e 01D1     		bne	.L172
1027:..\..\..\..\PSoC6_101\Sensor/driver_max30102.c ****     {
1028:..\..\..\..\PSoC6_101\Sensor/driver_max30102.c ****         return 2;                                                                                  
 2713              		.loc 1 1028 0
 2714 0010 0223     		movs	r3, #2
 2715 0012 1FE0     		b	.L176
 2716              	.L172:
1029:..\..\..\..\PSoC6_101\Sensor/driver_max30102.c ****     }
1030:..\..\..\..\PSoC6_101\Sensor/driver_max30102.c ****     if (handle->inited != 1)                                                                       
 2717              		.loc 1 1030 0
 2718 0014 7B68     		ldr	r3, [r7, #4]
 2719 0016 1B7F     		ldrb	r3, [r3, #28]	@ zero_extendqisi2
 2720 0018 012B     		cmp	r3, #1
 2721 001a 01D0     		beq	.L174
1031:..\..\..\..\PSoC6_101\Sensor/driver_max30102.c ****     {
1032:..\..\..\..\PSoC6_101\Sensor/driver_max30102.c ****         return 3;                                                                                  
 2722              		.loc 1 1032 0
 2723 001c 0323     		movs	r3, #3
 2724 001e 19E0     		b	.L176
 2725              	.L174:
1033:..\..\..\..\PSoC6_101\Sensor/driver_max30102.c ****     }
1034:..\..\..\..\PSoC6_101\Sensor/driver_max30102.c **** 
1035:..\..\..\..\PSoC6_101\Sensor/driver_max30102.c ****     res = handle->iic_read(MAX30102_ADDRESS, MAX30102_REG_FIFO_READ_POINTER, (uint8_t *)&prev, 1); 
 2726              		.loc 1 1035 0
ARM GAS  C:\Users\49148\AppData\Local\Temp\ccWN5cWv.s 			page 70


 2727 0020 7B68     		ldr	r3, [r7, #4]
 2728 0022 9C68     		ldr	r4, [r3, #8]
 2729 0024 07F10E02 		add	r2, r7, #14
 2730 0028 0123     		movs	r3, #1
 2731 002a 0621     		movs	r1, #6
 2732 002c AE20     		movs	r0, #174
 2733 002e A047     		blx	r4
 2734 0030 0346     		mov	r3, r0
 2735 0032 FB73     		strb	r3, [r7, #15]
1036:..\..\..\..\PSoC6_101\Sensor/driver_max30102.c ****     if (res != 0)                                                                                  
 2736              		.loc 1 1036 0
 2737 0034 FB7B     		ldrb	r3, [r7, #15]	@ zero_extendqisi2
 2738 0036 002B     		cmp	r3, #0
 2739 0038 05D0     		beq	.L175
1037:..\..\..\..\PSoC6_101\Sensor/driver_max30102.c ****     {
1038:..\..\..\..\PSoC6_101\Sensor/driver_max30102.c ****         handle->debug_print("max30102: read fifo read pointer failed.\n");                         
 2740              		.loc 1 1038 0
 2741 003a 7B68     		ldr	r3, [r7, #4]
 2742 003c 9B69     		ldr	r3, [r3, #24]
 2743 003e 0748     		ldr	r0, .L177
 2744 0040 9847     		blx	r3
1039:..\..\..\..\PSoC6_101\Sensor/driver_max30102.c ****        
1040:..\..\..\..\PSoC6_101\Sensor/driver_max30102.c ****         return 1;                                                                                  
 2745              		.loc 1 1040 0
 2746 0042 0123     		movs	r3, #1
 2747 0044 06E0     		b	.L176
 2748              	.L175:
1041:..\..\..\..\PSoC6_101\Sensor/driver_max30102.c ****     }
1042:..\..\..\..\PSoC6_101\Sensor/driver_max30102.c ****     *pointer = prev & 0x1F;                                                                        
 2749              		.loc 1 1042 0
 2750 0046 BB7B     		ldrb	r3, [r7, #14]	@ zero_extendqisi2
 2751 0048 03F01F03 		and	r3, r3, #31
 2752 004c DAB2     		uxtb	r2, r3
 2753 004e 3B68     		ldr	r3, [r7]
 2754 0050 1A70     		strb	r2, [r3]
1043:..\..\..\..\PSoC6_101\Sensor/driver_max30102.c ****     
1044:..\..\..\..\PSoC6_101\Sensor/driver_max30102.c ****     return 0;                                                                                      
 2755              		.loc 1 1044 0
 2756 0052 0023     		movs	r3, #0
 2757              	.L176:
1045:..\..\..\..\PSoC6_101\Sensor/driver_max30102.c **** }
 2758              		.loc 1 1045 0 discriminator 1
 2759 0054 1846     		mov	r0, r3
 2760 0056 1437     		adds	r7, r7, #20
 2761              		.cfi_def_cfa_offset 12
 2762 0058 BD46     		mov	sp, r7
 2763              		.cfi_def_cfa_register 13
 2764              		@ sp needed
 2765 005a 90BD     		pop	{r4, r7, pc}
 2766              	.L178:
 2767              		.align	2
 2768              	.L177:
 2769 005c E0050000 		.word	.LC39
 2770              		.cfi_endproc
 2771              	.LFE14:
 2772              		.size	max30102_get_fifo_read_pointer, .-max30102_get_fifo_read_pointer
 2773              		.section	.rodata
ARM GAS  C:\Users\49148\AppData\Local\Temp\ccWN5cWv.s 			page 71


 2774 060a 0000     		.align	2
 2775              	.LC40:
 2776 060c 6D617833 		.ascii	"max30102: write fifo data register failed.\012\000"
 2776      30313032 
 2776      3A207772 
 2776      69746520 
 2776      6669666F 
 2777              		.section	.text.max30102_set_fifo_data,"ax",%progbits
 2778              		.align	2
 2779              		.global	max30102_set_fifo_data
 2780              		.thumb
 2781              		.thumb_func
 2782              		.type	max30102_set_fifo_data, %function
 2783              	max30102_set_fifo_data:
 2784              	.LFB15:
1046:..\..\..\..\PSoC6_101\Sensor/driver_max30102.c **** 
1047:..\..\..\..\PSoC6_101\Sensor/driver_max30102.c **** /**
1048:..\..\..\..\PSoC6_101\Sensor/driver_max30102.c ****  * @brief     set the fifo data
1049:..\..\..\..\PSoC6_101\Sensor/driver_max30102.c ****  * @param[in] *handle points to a max30102 handle structure
1050:..\..\..\..\PSoC6_101\Sensor/driver_max30102.c ****  * @param[in] data is the fifo data
1051:..\..\..\..\PSoC6_101\Sensor/driver_max30102.c ****  * @return    status code
1052:..\..\..\..\PSoC6_101\Sensor/driver_max30102.c ****  *            - 0 success
1053:..\..\..\..\PSoC6_101\Sensor/driver_max30102.c ****  *            - 1 set fifo data failed
1054:..\..\..\..\PSoC6_101\Sensor/driver_max30102.c ****  *            - 2 handle is NULL
1055:..\..\..\..\PSoC6_101\Sensor/driver_max30102.c ****  *            - 3 handle is not initialized
1056:..\..\..\..\PSoC6_101\Sensor/driver_max30102.c ****  * @note      none
1057:..\..\..\..\PSoC6_101\Sensor/driver_max30102.c ****  */
1058:..\..\..\..\PSoC6_101\Sensor/driver_max30102.c **** uint8_t max30102_set_fifo_data(max30102_handle_t *handle, uint8_t data)
1059:..\..\..\..\PSoC6_101\Sensor/driver_max30102.c **** {
 2785              		.loc 1 1059 0
 2786              		.cfi_startproc
 2787              		@ args = 0, pretend = 0, frame = 16
 2788              		@ frame_needed = 1, uses_anonymous_args = 0
 2789 0000 90B5     		push	{r4, r7, lr}
 2790              		.cfi_def_cfa_offset 12
 2791              		.cfi_offset 4, -12
 2792              		.cfi_offset 7, -8
 2793              		.cfi_offset 14, -4
 2794 0002 85B0     		sub	sp, sp, #20
 2795              		.cfi_def_cfa_offset 32
 2796 0004 00AF     		add	r7, sp, #0
 2797              		.cfi_def_cfa_register 7
 2798 0006 7860     		str	r0, [r7, #4]
 2799 0008 0B46     		mov	r3, r1
 2800 000a FB70     		strb	r3, [r7, #3]
1060:..\..\..\..\PSoC6_101\Sensor/driver_max30102.c ****     uint8_t res;
1061:..\..\..\..\PSoC6_101\Sensor/driver_max30102.c ****     
1062:..\..\..\..\PSoC6_101\Sensor/driver_max30102.c ****     if (handle == NULL)                                                                            
 2801              		.loc 1 1062 0
 2802 000c 7B68     		ldr	r3, [r7, #4]
 2803 000e 002B     		cmp	r3, #0
 2804 0010 01D1     		bne	.L180
1063:..\..\..\..\PSoC6_101\Sensor/driver_max30102.c ****     {
1064:..\..\..\..\PSoC6_101\Sensor/driver_max30102.c ****         return 2;                                                                                  
 2805              		.loc 1 1064 0
 2806 0012 0223     		movs	r3, #2
 2807 0014 18E0     		b	.L181
ARM GAS  C:\Users\49148\AppData\Local\Temp\ccWN5cWv.s 			page 72


 2808              	.L180:
1065:..\..\..\..\PSoC6_101\Sensor/driver_max30102.c ****     }
1066:..\..\..\..\PSoC6_101\Sensor/driver_max30102.c ****     if (handle->inited != 1)                                                                       
 2809              		.loc 1 1066 0
 2810 0016 7B68     		ldr	r3, [r7, #4]
 2811 0018 1B7F     		ldrb	r3, [r3, #28]	@ zero_extendqisi2
 2812 001a 012B     		cmp	r3, #1
 2813 001c 01D0     		beq	.L182
1067:..\..\..\..\PSoC6_101\Sensor/driver_max30102.c ****     {
1068:..\..\..\..\PSoC6_101\Sensor/driver_max30102.c ****         return 3;                                                                                  
 2814              		.loc 1 1068 0
 2815 001e 0323     		movs	r3, #3
 2816 0020 12E0     		b	.L181
 2817              	.L182:
1069:..\..\..\..\PSoC6_101\Sensor/driver_max30102.c ****     }
1070:..\..\..\..\PSoC6_101\Sensor/driver_max30102.c ****     
1071:..\..\..\..\PSoC6_101\Sensor/driver_max30102.c ****     res = handle->iic_write(MAX30102_ADDRESS, MAX30102_REG_FIFO_DATA_REGISTER, (uint8_t *)&data, 1)
 2818              		.loc 1 1071 0
 2819 0022 7B68     		ldr	r3, [r7, #4]
 2820 0024 DC68     		ldr	r4, [r3, #12]
 2821 0026 FA1C     		adds	r2, r7, #3
 2822 0028 0123     		movs	r3, #1
 2823 002a 0721     		movs	r1, #7
 2824 002c AE20     		movs	r0, #174
 2825 002e A047     		blx	r4
 2826 0030 0346     		mov	r3, r0
 2827 0032 FB73     		strb	r3, [r7, #15]
1072:..\..\..\..\PSoC6_101\Sensor/driver_max30102.c ****     if (res != 0)                                                                                  
 2828              		.loc 1 1072 0
 2829 0034 FB7B     		ldrb	r3, [r7, #15]	@ zero_extendqisi2
 2830 0036 002B     		cmp	r3, #0
 2831 0038 05D0     		beq	.L183
1073:..\..\..\..\PSoC6_101\Sensor/driver_max30102.c ****     {
1074:..\..\..\..\PSoC6_101\Sensor/driver_max30102.c ****         handle->debug_print("max30102: write fifo data register failed.\n");                       
 2832              		.loc 1 1074 0
 2833 003a 7B68     		ldr	r3, [r7, #4]
 2834 003c 9B69     		ldr	r3, [r3, #24]
 2835 003e 0448     		ldr	r0, .L184
 2836 0040 9847     		blx	r3
1075:..\..\..\..\PSoC6_101\Sensor/driver_max30102.c ****        
1076:..\..\..\..\PSoC6_101\Sensor/driver_max30102.c ****         return 1;                                                                                  
 2837              		.loc 1 1076 0
 2838 0042 0123     		movs	r3, #1
 2839 0044 00E0     		b	.L181
 2840              	.L183:
1077:..\..\..\..\PSoC6_101\Sensor/driver_max30102.c ****     }
1078:..\..\..\..\PSoC6_101\Sensor/driver_max30102.c ****     
1079:..\..\..\..\PSoC6_101\Sensor/driver_max30102.c ****     return 0;                                                                                      
 2841              		.loc 1 1079 0
 2842 0046 0023     		movs	r3, #0
 2843              	.L181:
1080:..\..\..\..\PSoC6_101\Sensor/driver_max30102.c **** }
 2844              		.loc 1 1080 0
 2845 0048 1846     		mov	r0, r3
 2846 004a 1437     		adds	r7, r7, #20
 2847              		.cfi_def_cfa_offset 12
 2848 004c BD46     		mov	sp, r7
ARM GAS  C:\Users\49148\AppData\Local\Temp\ccWN5cWv.s 			page 73


 2849              		.cfi_def_cfa_register 13
 2850              		@ sp needed
 2851 004e 90BD     		pop	{r4, r7, pc}
 2852              	.L185:
 2853              		.align	2
 2854              	.L184:
 2855 0050 0C060000 		.word	.LC40
 2856              		.cfi_endproc
 2857              	.LFE15:
 2858              		.size	max30102_set_fifo_data, .-max30102_set_fifo_data
 2859              		.section	.text.max30102_get_fifo_data,"ax",%progbits
 2860              		.align	2
 2861              		.global	max30102_get_fifo_data
 2862              		.thumb
 2863              		.thumb_func
 2864              		.type	max30102_get_fifo_data, %function
 2865              	max30102_get_fifo_data:
 2866              	.LFB16:
1081:..\..\..\..\PSoC6_101\Sensor/driver_max30102.c **** 
1082:..\..\..\..\PSoC6_101\Sensor/driver_max30102.c **** /**
1083:..\..\..\..\PSoC6_101\Sensor/driver_max30102.c ****  * @brief      get the fifo data
1084:..\..\..\..\PSoC6_101\Sensor/driver_max30102.c ****  * @param[in]  *handle points to a max30102 handle structure
1085:..\..\..\..\PSoC6_101\Sensor/driver_max30102.c ****  * @param[out] *data points to a fifo data buffer
1086:..\..\..\..\PSoC6_101\Sensor/driver_max30102.c ****  * @return     status code
1087:..\..\..\..\PSoC6_101\Sensor/driver_max30102.c ****  *             - 0 success
1088:..\..\..\..\PSoC6_101\Sensor/driver_max30102.c ****  *             - 1 get fifo data failed
1089:..\..\..\..\PSoC6_101\Sensor/driver_max30102.c ****  *             - 2 handle is NULL
1090:..\..\..\..\PSoC6_101\Sensor/driver_max30102.c ****  *             - 3 handle is not initialized
1091:..\..\..\..\PSoC6_101\Sensor/driver_max30102.c ****  * @note       none
1092:..\..\..\..\PSoC6_101\Sensor/driver_max30102.c ****  */
1093:..\..\..\..\PSoC6_101\Sensor/driver_max30102.c **** uint8_t max30102_get_fifo_data(max30102_handle_t *handle, uint8_t *data)
1094:..\..\..\..\PSoC6_101\Sensor/driver_max30102.c **** {
 2867              		.loc 1 1094 0
 2868              		.cfi_startproc
 2869              		@ args = 0, pretend = 0, frame = 16
 2870              		@ frame_needed = 1, uses_anonymous_args = 0
 2871 0000 90B5     		push	{r4, r7, lr}
 2872              		.cfi_def_cfa_offset 12
 2873              		.cfi_offset 4, -12
 2874              		.cfi_offset 7, -8
 2875              		.cfi_offset 14, -4
 2876 0002 85B0     		sub	sp, sp, #20
 2877              		.cfi_def_cfa_offset 32
 2878 0004 00AF     		add	r7, sp, #0
 2879              		.cfi_def_cfa_register 7
 2880 0006 7860     		str	r0, [r7, #4]
 2881 0008 3960     		str	r1, [r7]
1095:..\..\..\..\PSoC6_101\Sensor/driver_max30102.c ****     uint8_t res;
1096:..\..\..\..\PSoC6_101\Sensor/driver_max30102.c ****     
1097:..\..\..\..\PSoC6_101\Sensor/driver_max30102.c ****     if (handle == NULL)                                                                            
 2882              		.loc 1 1097 0
 2883 000a 7B68     		ldr	r3, [r7, #4]
 2884 000c 002B     		cmp	r3, #0
 2885 000e 01D1     		bne	.L187
1098:..\..\..\..\PSoC6_101\Sensor/driver_max30102.c ****     {
1099:..\..\..\..\PSoC6_101\Sensor/driver_max30102.c ****         return 2;                                                                                  
 2886              		.loc 1 1099 0
ARM GAS  C:\Users\49148\AppData\Local\Temp\ccWN5cWv.s 			page 74


 2887 0010 0223     		movs	r3, #2
 2888 0012 18E0     		b	.L188
 2889              	.L187:
1100:..\..\..\..\PSoC6_101\Sensor/driver_max30102.c ****     }
1101:..\..\..\..\PSoC6_101\Sensor/driver_max30102.c ****     if (handle->inited != 1)                                                                       
 2890              		.loc 1 1101 0
 2891 0014 7B68     		ldr	r3, [r7, #4]
 2892 0016 1B7F     		ldrb	r3, [r3, #28]	@ zero_extendqisi2
 2893 0018 012B     		cmp	r3, #1
 2894 001a 01D0     		beq	.L189
1102:..\..\..\..\PSoC6_101\Sensor/driver_max30102.c ****     {
1103:..\..\..\..\PSoC6_101\Sensor/driver_max30102.c ****         return 3;                                                                                  
 2895              		.loc 1 1103 0
 2896 001c 0323     		movs	r3, #3
 2897 001e 12E0     		b	.L188
 2898              	.L189:
1104:..\..\..\..\PSoC6_101\Sensor/driver_max30102.c ****     }
1105:..\..\..\..\PSoC6_101\Sensor/driver_max30102.c ****     
1106:..\..\..\..\PSoC6_101\Sensor/driver_max30102.c ****     res = handle->iic_read(MAX30102_ADDRESS, MAX30102_REG_FIFO_DATA_REGISTER, (uint8_t *)data, 1); 
 2899              		.loc 1 1106 0
 2900 0020 7B68     		ldr	r3, [r7, #4]
 2901 0022 9C68     		ldr	r4, [r3, #8]
 2902 0024 0123     		movs	r3, #1
 2903 0026 3A68     		ldr	r2, [r7]
 2904 0028 0721     		movs	r1, #7
 2905 002a AE20     		movs	r0, #174
 2906 002c A047     		blx	r4
 2907 002e 0346     		mov	r3, r0
 2908 0030 FB73     		strb	r3, [r7, #15]
1107:..\..\..\..\PSoC6_101\Sensor/driver_max30102.c ****     if (res != 0)                                                                                  
 2909              		.loc 1 1107 0
 2910 0032 FB7B     		ldrb	r3, [r7, #15]	@ zero_extendqisi2
 2911 0034 002B     		cmp	r3, #0
 2912 0036 05D0     		beq	.L190
1108:..\..\..\..\PSoC6_101\Sensor/driver_max30102.c ****     {
1109:..\..\..\..\PSoC6_101\Sensor/driver_max30102.c ****         handle->debug_print("max30102: read fifo data register failed.\n");                        
 2913              		.loc 1 1109 0
 2914 0038 7B68     		ldr	r3, [r7, #4]
 2915 003a 9B69     		ldr	r3, [r3, #24]
 2916 003c 0448     		ldr	r0, .L191
 2917 003e 9847     		blx	r3
1110:..\..\..\..\PSoC6_101\Sensor/driver_max30102.c ****        
1111:..\..\..\..\PSoC6_101\Sensor/driver_max30102.c ****         return 1;                                                                                  
 2918              		.loc 1 1111 0
 2919 0040 0123     		movs	r3, #1
 2920 0042 00E0     		b	.L188
 2921              	.L190:
1112:..\..\..\..\PSoC6_101\Sensor/driver_max30102.c ****     }
1113:..\..\..\..\PSoC6_101\Sensor/driver_max30102.c ****     
1114:..\..\..\..\PSoC6_101\Sensor/driver_max30102.c ****     return 0;                                                                                      
 2922              		.loc 1 1114 0
 2923 0044 0023     		movs	r3, #0
 2924              	.L188:
1115:..\..\..\..\PSoC6_101\Sensor/driver_max30102.c **** }
 2925              		.loc 1 1115 0
 2926 0046 1846     		mov	r0, r3
 2927 0048 1437     		adds	r7, r7, #20
ARM GAS  C:\Users\49148\AppData\Local\Temp\ccWN5cWv.s 			page 75


 2928              		.cfi_def_cfa_offset 12
 2929 004a BD46     		mov	sp, r7
 2930              		.cfi_def_cfa_register 13
 2931              		@ sp needed
 2932 004c 90BD     		pop	{r4, r7, pc}
 2933              	.L192:
 2934 004e 00BF     		.align	2
 2935              	.L191:
 2936 0050 94030000 		.word	.LC25
 2937              		.cfi_endproc
 2938              	.LFE16:
 2939              		.size	max30102_get_fifo_data, .-max30102_get_fifo_data
 2940              		.section	.rodata
 2941              		.align	2
 2942              	.LC41:
 2943 0638 6D617833 		.ascii	"max30102: read fifo config failed.\012\000"
 2943      30313032 
 2943      3A207265 
 2943      61642066 
 2943      69666F20 
 2944              		.align	2
 2945              	.LC42:
 2946 065c 6D617833 		.ascii	"max30102: write fifo config failed.\012\000"
 2946      30313032 
 2946      3A207772 
 2946      69746520 
 2946      6669666F 
 2947              		.section	.text.max30102_set_fifo_sample_averaging,"ax",%progbits
 2948              		.align	2
 2949              		.global	max30102_set_fifo_sample_averaging
 2950              		.thumb
 2951              		.thumb_func
 2952              		.type	max30102_set_fifo_sample_averaging, %function
 2953              	max30102_set_fifo_sample_averaging:
 2954              	.LFB17:
1116:..\..\..\..\PSoC6_101\Sensor/driver_max30102.c **** 
1117:..\..\..\..\PSoC6_101\Sensor/driver_max30102.c **** /**
1118:..\..\..\..\PSoC6_101\Sensor/driver_max30102.c ****  * @brief     set the fifo sample averaging
1119:..\..\..\..\PSoC6_101\Sensor/driver_max30102.c ****  * @param[in] *handle points to a max30102 handle structure
1120:..\..\..\..\PSoC6_101\Sensor/driver_max30102.c ****  * @param[in] sample is the fifo sample averaging
1121:..\..\..\..\PSoC6_101\Sensor/driver_max30102.c ****  * @return    status code
1122:..\..\..\..\PSoC6_101\Sensor/driver_max30102.c ****  *            - 0 success
1123:..\..\..\..\PSoC6_101\Sensor/driver_max30102.c ****  *            - 1 set fifo sample averaging failed
1124:..\..\..\..\PSoC6_101\Sensor/driver_max30102.c ****  *            - 2 handle is NULL
1125:..\..\..\..\PSoC6_101\Sensor/driver_max30102.c ****  *            - 3 handle is not initialized
1126:..\..\..\..\PSoC6_101\Sensor/driver_max30102.c ****  * @note      none
1127:..\..\..\..\PSoC6_101\Sensor/driver_max30102.c ****  */
1128:..\..\..\..\PSoC6_101\Sensor/driver_max30102.c **** uint8_t max30102_set_fifo_sample_averaging(max30102_handle_t *handle, max30102_sample_averaging_t s
1129:..\..\..\..\PSoC6_101\Sensor/driver_max30102.c **** {
 2955              		.loc 1 1129 0
 2956              		.cfi_startproc
 2957              		@ args = 0, pretend = 0, frame = 16
 2958              		@ frame_needed = 1, uses_anonymous_args = 0
 2959 0000 90B5     		push	{r4, r7, lr}
 2960              		.cfi_def_cfa_offset 12
 2961              		.cfi_offset 4, -12
 2962              		.cfi_offset 7, -8
ARM GAS  C:\Users\49148\AppData\Local\Temp\ccWN5cWv.s 			page 76


 2963              		.cfi_offset 14, -4
 2964 0002 85B0     		sub	sp, sp, #20
 2965              		.cfi_def_cfa_offset 32
 2966 0004 00AF     		add	r7, sp, #0
 2967              		.cfi_def_cfa_register 7
 2968 0006 7860     		str	r0, [r7, #4]
 2969 0008 0B46     		mov	r3, r1
 2970 000a FB70     		strb	r3, [r7, #3]
1130:..\..\..\..\PSoC6_101\Sensor/driver_max30102.c ****     uint8_t res;
1131:..\..\..\..\PSoC6_101\Sensor/driver_max30102.c ****     uint8_t prev;
1132:..\..\..\..\PSoC6_101\Sensor/driver_max30102.c ****     
1133:..\..\..\..\PSoC6_101\Sensor/driver_max30102.c ****     if (handle == NULL)                                                                            
 2971              		.loc 1 1133 0
 2972 000c 7B68     		ldr	r3, [r7, #4]
 2973 000e 002B     		cmp	r3, #0
 2974 0010 01D1     		bne	.L194
1134:..\..\..\..\PSoC6_101\Sensor/driver_max30102.c ****     {
1135:..\..\..\..\PSoC6_101\Sensor/driver_max30102.c ****         return 2;                                                                                  
 2975              		.loc 1 1135 0
 2976 0012 0223     		movs	r3, #2
 2977 0014 3AE0     		b	.L199
 2978              	.L194:
1136:..\..\..\..\PSoC6_101\Sensor/driver_max30102.c ****     }
1137:..\..\..\..\PSoC6_101\Sensor/driver_max30102.c ****     if (handle->inited != 1)                                                                       
 2979              		.loc 1 1137 0
 2980 0016 7B68     		ldr	r3, [r7, #4]
 2981 0018 1B7F     		ldrb	r3, [r3, #28]	@ zero_extendqisi2
 2982 001a 012B     		cmp	r3, #1
 2983 001c 01D0     		beq	.L196
1138:..\..\..\..\PSoC6_101\Sensor/driver_max30102.c ****     {
1139:..\..\..\..\PSoC6_101\Sensor/driver_max30102.c ****         return 3;                                                                                  
 2984              		.loc 1 1139 0
 2985 001e 0323     		movs	r3, #3
 2986 0020 34E0     		b	.L199
 2987              	.L196:
1140:..\..\..\..\PSoC6_101\Sensor/driver_max30102.c ****     }
1141:..\..\..\..\PSoC6_101\Sensor/driver_max30102.c ****     
1142:..\..\..\..\PSoC6_101\Sensor/driver_max30102.c ****     res = handle->iic_read(MAX30102_ADDRESS, MAX30102_REG_FIFO_CONFIG, (uint8_t *)&prev, 1);       
 2988              		.loc 1 1142 0
 2989 0022 7B68     		ldr	r3, [r7, #4]
 2990 0024 9C68     		ldr	r4, [r3, #8]
 2991 0026 07F10E02 		add	r2, r7, #14
 2992 002a 0123     		movs	r3, #1
 2993 002c 0821     		movs	r1, #8
 2994 002e AE20     		movs	r0, #174
 2995 0030 A047     		blx	r4
 2996 0032 0346     		mov	r3, r0
 2997 0034 FB73     		strb	r3, [r7, #15]
1143:..\..\..\..\PSoC6_101\Sensor/driver_max30102.c ****     if (res != 0)                                                                                  
 2998              		.loc 1 1143 0
 2999 0036 FB7B     		ldrb	r3, [r7, #15]	@ zero_extendqisi2
 3000 0038 002B     		cmp	r3, #0
 3001 003a 05D0     		beq	.L197
1144:..\..\..\..\PSoC6_101\Sensor/driver_max30102.c ****     {
1145:..\..\..\..\PSoC6_101\Sensor/driver_max30102.c ****         handle->debug_print("max30102: read fifo config failed.\n");                               
 3002              		.loc 1 1145 0
 3003 003c 7B68     		ldr	r3, [r7, #4]
ARM GAS  C:\Users\49148\AppData\Local\Temp\ccWN5cWv.s 			page 77


 3004 003e 9B69     		ldr	r3, [r3, #24]
 3005 0040 1448     		ldr	r0, .L200
 3006 0042 9847     		blx	r3
1146:..\..\..\..\PSoC6_101\Sensor/driver_max30102.c ****        
1147:..\..\..\..\PSoC6_101\Sensor/driver_max30102.c ****         return 1;                                                                                  
 3007              		.loc 1 1147 0
 3008 0044 0123     		movs	r3, #1
 3009 0046 21E0     		b	.L199
 3010              	.L197:
1148:..\..\..\..\PSoC6_101\Sensor/driver_max30102.c ****     }
1149:..\..\..\..\PSoC6_101\Sensor/driver_max30102.c ****     prev &= ~(0x7 << 5);                                                                           
 3011              		.loc 1 1149 0
 3012 0048 BB7B     		ldrb	r3, [r7, #14]	@ zero_extendqisi2
 3013 004a 03F01F03 		and	r3, r3, #31
 3014 004e DBB2     		uxtb	r3, r3
 3015 0050 BB73     		strb	r3, [r7, #14]
1150:..\..\..\..\PSoC6_101\Sensor/driver_max30102.c ****     prev |= sample << 5;                                                                           
 3016              		.loc 1 1150 0
 3017 0052 FB78     		ldrb	r3, [r7, #3]	@ zero_extendqisi2
 3018 0054 5B01     		lsls	r3, r3, #5
 3019 0056 5AB2     		sxtb	r2, r3
 3020 0058 BB7B     		ldrb	r3, [r7, #14]	@ zero_extendqisi2
 3021 005a 5BB2     		sxtb	r3, r3
 3022 005c 1343     		orrs	r3, r3, r2
 3023 005e 5BB2     		sxtb	r3, r3
 3024 0060 DBB2     		uxtb	r3, r3
 3025 0062 BB73     		strb	r3, [r7, #14]
1151:..\..\..\..\PSoC6_101\Sensor/driver_max30102.c ****     res = handle->iic_write(MAX30102_ADDRESS, MAX30102_REG_FIFO_CONFIG, (uint8_t *)&prev, 1);      
 3026              		.loc 1 1151 0
 3027 0064 7B68     		ldr	r3, [r7, #4]
 3028 0066 DC68     		ldr	r4, [r3, #12]
 3029 0068 07F10E02 		add	r2, r7, #14
 3030 006c 0123     		movs	r3, #1
 3031 006e 0821     		movs	r1, #8
 3032 0070 AE20     		movs	r0, #174
 3033 0072 A047     		blx	r4
 3034 0074 0346     		mov	r3, r0
 3035 0076 FB73     		strb	r3, [r7, #15]
1152:..\..\..\..\PSoC6_101\Sensor/driver_max30102.c ****     if (res != 0)                                                                                  
 3036              		.loc 1 1152 0
 3037 0078 FB7B     		ldrb	r3, [r7, #15]	@ zero_extendqisi2
 3038 007a 002B     		cmp	r3, #0
 3039 007c 05D0     		beq	.L198
1153:..\..\..\..\PSoC6_101\Sensor/driver_max30102.c ****     {
