ARM GAS  C:\Users\49148\AppData\Local\Temp\ccWN5cWv.s 			page 1


   1              		.syntax unified
   2              		.cpu cortex-m4
   3              		.eabi_attribute 27, 1
   4              		.fpu fpv4-sp-d16
   5              		.eabi_attribute 20, 1
   6              		.eabi_attribute 21, 1
   7              		.eabi_attribute 23, 3
   8              		.eabi_attribute 24, 1
   9              		.eabi_attribute 25, 1
  10              		.eabi_attribute 26, 1
  11              		.eabi_attribute 30, 6
  12              		.eabi_attribute 34, 1
  13              		.eabi_attribute 18, 4
  14              		.thumb
  15              		.syntax unified
  16              		.file	"driver_max30102.c"
  17              		.text
  18              	.Ltext0:
  19              		.cfi_sections	.debug_frame
  20              		.section	.rodata
  21              		.align	2
  22              	.LC0:
  23 0000 6D617833 		.ascii	"max30102: iic_init is null.\012\000"
  23      30313032 
  23      3A206969 
  23      635F696E 
  23      69742069 
  24 001d 000000   		.align	2
  25              	.LC1:
  26 0020 6D617833 		.ascii	"max30102: iic_deinit is null.\012\000"
  26      30313032 
  26      3A206969 
  26      635F6465 
  26      696E6974 
  27 003f 00       		.align	2
  28              	.LC2:
  29 0040 6D617833 		.ascii	"max30102: iic_read is null.\012\000"
  29      30313032 
  29      3A206969 
  29      635F7265 
  29      61642069 
  30 005d 000000   		.align	2
  31              	.LC3:
  32 0060 6D617833 		.ascii	"max30102: iic_write is null.\012\000"
  32      30313032 
  32      3A206969 
  32      635F7772 
  32      69746520 
  33 007e 0000     		.align	2
  34              	.LC4:
  35 0080 6D617833 		.ascii	"max30102: receive_callback is null.\012\000"
  35      30313032 
  35      3A207265 
  35      63656976 
  35      655F6361 
  36 00a5 000000   		.align	2
  37              	.LC5:
ARM GAS  C:\Users\49148\AppData\Local\Temp\ccWN5cWv.s 			page 2


  38 00a8 6D617833 		.ascii	"max30102: delay_ms is null.\012\000"
  38      30313032 
  38      3A206465 
  38      6C61795F 
  38      6D732069 
  39 00c5 000000   		.align	2
  40              	.LC6:
  41 00c8 6D617833 		.ascii	"max30102: iic init failed.\012\000"
  41      30313032 
  41      3A206969 
  41      6320696E 
  41      69742066 
  42              		.align	2
  43              	.LC7:
  44 00e4 6D617833 		.ascii	"max30102: read part id failed.\012\000"
  44      30313032 
  44      3A207265 
  44      61642070 
  44      61727420 
  45              		.align	2
  46              	.LC8:
  47 0104 6D617833 		.ascii	"max30102: id is invalid.\012\000"
  47      30313032 
  47      3A206964 
  47      20697320 
  47      696E7661 
  48 011e 0000     		.align	2
  49              	.LC9:
  50 0120 6D617833 		.ascii	"max30102: read mode config failed.\012\000"
  50      30313032 
  50      3A207265 
  50      6164206D 
  50      6F646520 
  51              		.align	2
  52              	.LC10:
  53 0144 6D617833 		.ascii	"max30102: write mode config failed.\012\000"
  53      30313032 
  53      3A207772 
  53      69746520 
  53      6D6F6465 
  54 0169 000000   		.align	2
  55              	.LC11:
  56 016c 6D617833 		.ascii	"max30102: reset failed.\012\000"
  56      30313032 
  56      3A207265 
  56      73657420 
  56      6661696C 
  57 0185 000000   		.align	2
  58              	.LC12:
  59 0188 6D617833 		.ascii	"max30102: write fifo read pointer failed.\012\000"
  59      30313032 
  59      3A207772 
  59      69746520 
  59      6669666F 
  60 01b3 00       		.align	2
  61              	.LC13:
  62 01b4 6D617833 		.ascii	"max30102: write fifo write pointer failed.\012\000"
ARM GAS  C:\Users\49148\AppData\Local\Temp\ccWN5cWv.s 			page 3


  62      30313032 
  62      3A207772 
  62      69746520 
  62      6669666F 
  63              		.align	2
  64              	.LC14:
  65 01e0 6D617833 		.ascii	"max30102: write overflow counter failed.\012\000"
  65      30313032 
  65      3A207772 
  65      69746520 
  65      6F766572 
  66              		.section	.text.max30102_init,"ax",%progbits
  67              		.align	2
  68              		.global	max30102_init
  69              		.thumb
  70              		.thumb_func
  71              		.type	max30102_init, %function
  72              	max30102_init:
  73              	.LFB1:
  74              		.file 1 "..\\..\\..\\..\\PSoC6_101\\Sensor\\driver_max30102.c"
   1:..\..\..\..\PSoC6_101\Sensor/driver_max30102.c **** /**
   2:..\..\..\..\PSoC6_101\Sensor/driver_max30102.c ****  * Copyright (c) 2015 - present LibDriver All rights reserved
   3:..\..\..\..\PSoC6_101\Sensor/driver_max30102.c ****  * 
   4:..\..\..\..\PSoC6_101\Sensor/driver_max30102.c ****  * The MIT License (MIT)
   5:..\..\..\..\PSoC6_101\Sensor/driver_max30102.c ****  *
   6:..\..\..\..\PSoC6_101\Sensor/driver_max30102.c ****  * Permission is hereby granted, free of charge, to any person obtaining a copy
   7:..\..\..\..\PSoC6_101\Sensor/driver_max30102.c ****  * of this software and associated documentation files (the "Software"), to deal
   8:..\..\..\..\PSoC6_101\Sensor/driver_max30102.c ****  * in the Software without restriction, including without limitation the rights
   9:..\..\..\..\PSoC6_101\Sensor/driver_max30102.c ****  * to use, copy, modify, merge, publish, distribute, sublicense, and/or sell
  10:..\..\..\..\PSoC6_101\Sensor/driver_max30102.c ****  * copies of the Software, and to permit persons to whom the Software is
  11:..\..\..\..\PSoC6_101\Sensor/driver_max30102.c ****  * furnished to do so, subject to the following conditions:
  12:..\..\..\..\PSoC6_101\Sensor/driver_max30102.c ****  *
  13:..\..\..\..\PSoC6_101\Sensor/driver_max30102.c ****  * The above copyright notice and this permission notice shall be included in all
  14:..\..\..\..\PSoC6_101\Sensor/driver_max30102.c ****  * copies or substantial portions of the Software.
  15:..\..\..\..\PSoC6_101\Sensor/driver_max30102.c ****  *
  16:..\..\..\..\PSoC6_101\Sensor/driver_max30102.c ****  * THE SOFTWARE IS PROVIDED "AS IS", WITHOUT WARRANTY OF ANY KIND, EXPRESS OR
  17:..\..\..\..\PSoC6_101\Sensor/driver_max30102.c ****  * IMPLIED, INCLUDING BUT NOT LIMITED TO THE WARRANTIES OF MERCHANTABILITY,
  18:..\..\..\..\PSoC6_101\Sensor/driver_max30102.c ****  * FITNESS FOR A PARTICULAR PURPOSE AND NONINFRINGEMENT. IN NO EVENT SHALL THE
  19:..\..\..\..\PSoC6_101\Sensor/driver_max30102.c ****  * AUTHORS OR COPYRIGHT HOLDERS BE LIABLE FOR ANY CLAIM, DAMAGES OR OTHER
  20:..\..\..\..\PSoC6_101\Sensor/driver_max30102.c ****  * LIABILITY, WHETHER IN AN ACTION OF CONTRACT, TORT OR OTHERWISE, ARISING FROM,
  21:..\..\..\..\PSoC6_101\Sensor/driver_max30102.c ****  * OUT OF OR IN CONNECTION WITH THE SOFTWARE OR THE USE OR OTHER DEALINGS IN THE
  22:..\..\..\..\PSoC6_101\Sensor/driver_max30102.c ****  * SOFTWARE. 
  23:..\..\..\..\PSoC6_101\Sensor/driver_max30102.c ****  *
  24:..\..\..\..\PSoC6_101\Sensor/driver_max30102.c ****  * @file      driver_max30102.c
  25:..\..\..\..\PSoC6_101\Sensor/driver_max30102.c ****  * @brief     driver max30102 source file
  26:..\..\..\..\PSoC6_101\Sensor/driver_max30102.c ****  * @version   1.0.0
  27:..\..\..\..\PSoC6_101\Sensor/driver_max30102.c ****  * @author    Shifeng Li
  28:..\..\..\..\PSoC6_101\Sensor/driver_max30102.c ****  * @date      2021-11-13
  29:..\..\..\..\PSoC6_101\Sensor/driver_max30102.c ****  *
  30:..\..\..\..\PSoC6_101\Sensor/driver_max30102.c ****  * <h3>history</h3>
  31:..\..\..\..\PSoC6_101\Sensor/driver_max30102.c ****  * <table>
  32:..\..\..\..\PSoC6_101\Sensor/driver_max30102.c ****  * <tr><th>Date        <th>Version  <th>Author      <th>Description
  33:..\..\..\..\PSoC6_101\Sensor/driver_max30102.c ****  * <tr><td>2021/11/13  <td>1.0      <td>Shifeng Li  <td>first upload
  34:..\..\..\..\PSoC6_101\Sensor/driver_max30102.c ****  * </table>
  35:..\..\..\..\PSoC6_101\Sensor/driver_max30102.c ****  */
  36:..\..\..\..\PSoC6_101\Sensor/driver_max30102.c **** 
  37:..\..\..\..\PSoC6_101\Sensor/driver_max30102.c **** #include "driver_max30102.h"
ARM GAS  C:\Users\49148\AppData\Local\Temp\ccWN5cWv.s 			page 4


  38:..\..\..\..\PSoC6_101\Sensor/driver_max30102.c **** 
  39:..\..\..\..\PSoC6_101\Sensor/driver_max30102.c **** /**
  40:..\..\..\..\PSoC6_101\Sensor/driver_max30102.c ****  * @brief chip information definition
  41:..\..\..\..\PSoC6_101\Sensor/driver_max30102.c ****  */
  42:..\..\..\..\PSoC6_101\Sensor/driver_max30102.c **** #define CHIP_NAME                 "Maxim Integrated MAX30102"        /**< chip name */
  43:..\..\..\..\PSoC6_101\Sensor/driver_max30102.c **** #define MANUFACTURER_NAME         "Maxim Integrated"                 /**< manufacturer name */
  44:..\..\..\..\PSoC6_101\Sensor/driver_max30102.c **** #define SUPPLY_VOLTAGE_MIN        1.7f                               /**< chip min supply voltage *
  45:..\..\..\..\PSoC6_101\Sensor/driver_max30102.c **** #define SUPPLY_VOLTAGE_MAX        2.0f                               /**< chip max supply voltage *
  46:..\..\..\..\PSoC6_101\Sensor/driver_max30102.c **** #define MAX_CURRENT               20.0f                              /**< chip max current */
  47:..\..\..\..\PSoC6_101\Sensor/driver_max30102.c **** #define TEMPERATURE_MIN           -40.0f                             /**< chip min operating temper
  48:..\..\..\..\PSoC6_101\Sensor/driver_max30102.c **** #define TEMPERATURE_MAX           85.0f                              /**< chip max operating temper
  49:..\..\..\..\PSoC6_101\Sensor/driver_max30102.c **** #define DRIVER_VERSION            1000                               /**< driver version */
  50:..\..\..\..\PSoC6_101\Sensor/driver_max30102.c **** 
  51:..\..\..\..\PSoC6_101\Sensor/driver_max30102.c **** /**
  52:..\..\..\..\PSoC6_101\Sensor/driver_max30102.c ****  * @brief iic address definition
  53:..\..\..\..\PSoC6_101\Sensor/driver_max30102.c ****  */
  54:..\..\..\..\PSoC6_101\Sensor/driver_max30102.c **** #define MAX30102_ADDRESS        0xAE        /**< iic address */
  55:..\..\..\..\PSoC6_101\Sensor/driver_max30102.c **** 
  56:..\..\..\..\PSoC6_101\Sensor/driver_max30102.c **** /**
  57:..\..\..\..\PSoC6_101\Sensor/driver_max30102.c ****  * @brief chip register definition
  58:..\..\..\..\PSoC6_101\Sensor/driver_max30102.c ****  */
  59:..\..\..\..\PSoC6_101\Sensor/driver_max30102.c **** #define MAX30102_REG_INTERRUPT_STATUS_1          0x00        /**< interrupt status 1 register */
  60:..\..\..\..\PSoC6_101\Sensor/driver_max30102.c **** #define MAX30102_REG_INTERRUPT_STATUS_2          0x01        /**< interrupt status 2 register */
  61:..\..\..\..\PSoC6_101\Sensor/driver_max30102.c **** #define MAX30102_REG_INTERRUPT_ENABLE_1          0x02        /**< interrupt enable 1 register */
  62:..\..\..\..\PSoC6_101\Sensor/driver_max30102.c **** #define MAX30102_REG_INTERRUPT_ENABLE_2          0x03        /**< interrupt enable 2 register */
  63:..\..\..\..\PSoC6_101\Sensor/driver_max30102.c **** #define MAX30102_REG_FIFO_WRITE_POINTER          0x04        /**< fifo write pointer register */
  64:..\..\..\..\PSoC6_101\Sensor/driver_max30102.c **** #define MAX30102_REG_OVERFLOW_COUNTER            0x05        /**< overflow counter register */
  65:..\..\..\..\PSoC6_101\Sensor/driver_max30102.c **** #define MAX30102_REG_FIFO_READ_POINTER           0x06        /**< fifo read pointer register */
  66:..\..\..\..\PSoC6_101\Sensor/driver_max30102.c **** #define MAX30102_REG_FIFO_DATA_REGISTER          0x07        /**< fifo data register */
  67:..\..\..\..\PSoC6_101\Sensor/driver_max30102.c **** #define MAX30102_REG_FIFO_CONFIG                 0x08        /**< fifo config register */
  68:..\..\..\..\PSoC6_101\Sensor/driver_max30102.c **** #define MAX30102_REG_MODE_CONFIG                 0x09        /**< mode config register */
  69:..\..\..\..\PSoC6_101\Sensor/driver_max30102.c **** #define MAX30102_REG_SPO2_CONFIG                 0x0A        /**< spo2 config register */
  70:..\..\..\..\PSoC6_101\Sensor/driver_max30102.c **** #define MAX30102_REG_LED_PULSE_1                 0x0C        /**< led pulse amplitude 1 register */
  71:..\..\..\..\PSoC6_101\Sensor/driver_max30102.c **** #define MAX30102_REG_LED_PULSE_2                 0x0D        /**< led pulse amplitude 2 register */
  72:..\..\..\..\PSoC6_101\Sensor/driver_max30102.c **** #define MAX30102_REG_MULTI_LED_MODE_CONTROL_1    0x11        /**< multi led mode control 1 register
  73:..\..\..\..\PSoC6_101\Sensor/driver_max30102.c **** #define MAX30102_REG_MULTI_LED_MODE_CONTROL_2    0x12        /**< multi led mode control 2 register
  74:..\..\..\..\PSoC6_101\Sensor/driver_max30102.c **** #define MAX30102_REG_DIE_TEMP_INTEGER            0x1F        /**< die temperature integer register 
  75:..\..\..\..\PSoC6_101\Sensor/driver_max30102.c **** #define MAX30102_REG_DIE_TEMP_FRACTION           0x20        /**< die temperature fraction register
  76:..\..\..\..\PSoC6_101\Sensor/driver_max30102.c **** #define MAX30102_REG_DIE_TEMP_CONFIG             0x21        /**< die temperature config register *
  77:..\..\..\..\PSoC6_101\Sensor/driver_max30102.c **** #define MAX30102_REG_REVISION_ID                 0xFE        /**< revision id register */
  78:..\..\..\..\PSoC6_101\Sensor/driver_max30102.c **** #define MAX30102_REG_PART_ID                     0xFF        /**< part id register */
  79:..\..\..\..\PSoC6_101\Sensor/driver_max30102.c **** 
  80:..\..\..\..\PSoC6_101\Sensor/driver_max30102.c **** /**
  81:..\..\..\..\PSoC6_101\Sensor/driver_max30102.c ****  * @brief     initialize the chip
  82:..\..\..\..\PSoC6_101\Sensor/driver_max30102.c ****  * @param[in] *handle points to a max30102 handle structure
  83:..\..\..\..\PSoC6_101\Sensor/driver_max30102.c ****  * @return    status code
  84:..\..\..\..\PSoC6_101\Sensor/driver_max30102.c ****  *            - 0 success
  85:..\..\..\..\PSoC6_101\Sensor/driver_max30102.c ****  *            - 1 iic initialization failed
  86:..\..\..\..\PSoC6_101\Sensor/driver_max30102.c ****  *            - 2 handle is NULL
  87:..\..\..\..\PSoC6_101\Sensor/driver_max30102.c ****  *            - 3 linked functions is NULL
  88:..\..\..\..\PSoC6_101\Sensor/driver_max30102.c ****  *            - 4 id is invalid
  89:..\..\..\..\PSoC6_101\Sensor/driver_max30102.c ****  *            - 5 reset failed
  90:..\..\..\..\PSoC6_101\Sensor/driver_max30102.c ****  *            - 6 reset fifo failed
  91:..\..\..\..\PSoC6_101\Sensor/driver_max30102.c ****  * @note      none
  92:..\..\..\..\PSoC6_101\Sensor/driver_max30102.c ****  */
  93:..\..\..\..\PSoC6_101\Sensor/driver_max30102.c **** uint8_t max30102_init(max30102_handle_t *handle)
  94:..\..\..\..\PSoC6_101\Sensor/driver_max30102.c **** {
ARM GAS  C:\Users\49148\AppData\Local\Temp\ccWN5cWv.s 			page 5


  75              		.loc 1 94 0
  76              		.cfi_startproc
  77              		@ args = 0, pretend = 0, frame = 16
  78              		@ frame_needed = 1, uses_anonymous_args = 0
  79 0000 90B5     		push	{r4, r7, lr}
  80              		.cfi_def_cfa_offset 12
  81              		.cfi_offset 4, -12
  82              		.cfi_offset 7, -8
  83              		.cfi_offset 14, -4
  84 0002 85B0     		sub	sp, sp, #20
  85              		.cfi_def_cfa_offset 32
  86 0004 00AF     		add	r7, sp, #0
  87              		.cfi_def_cfa_register 7
  88 0006 7860     		str	r0, [r7, #4]
  95:..\..\..\..\PSoC6_101\Sensor/driver_max30102.c ****     uint8_t res;
  96:..\..\..\..\PSoC6_101\Sensor/driver_max30102.c ****     uint8_t prev;
  97:..\..\..\..\PSoC6_101\Sensor/driver_max30102.c ****     uint8_t part_id;
  98:..\..\..\..\PSoC6_101\Sensor/driver_max30102.c ****     
  99:..\..\..\..\PSoC6_101\Sensor/driver_max30102.c ****     if (handle == NULL)                                                                            
  89              		.loc 1 99 0
  90 0008 7B68     		ldr	r3, [r7, #4]
  91 000a 002B     		cmp	r3, #0
  92 000c 01D1     		bne	.L2
 100:..\..\..\..\PSoC6_101\Sensor/driver_max30102.c ****     {
 101:..\..\..\..\PSoC6_101\Sensor/driver_max30102.c ****         return 2;                                                                                  
  93              		.loc 1 101 0
  94 000e 0223     		movs	r3, #2
  95 0010 15E1     		b	.L21
  96              	.L2:
 102:..\..\..\..\PSoC6_101\Sensor/driver_max30102.c ****     }
 103:..\..\..\..\PSoC6_101\Sensor/driver_max30102.c ****     if (handle->debug_print == NULL)                                                               
  97              		.loc 1 103 0
  98 0012 7B68     		ldr	r3, [r7, #4]
  99 0014 9B69     		ldr	r3, [r3, #24]
 100 0016 002B     		cmp	r3, #0
 101 0018 01D1     		bne	.L4
 104:..\..\..\..\PSoC6_101\Sensor/driver_max30102.c ****     {
 105:..\..\..\..\PSoC6_101\Sensor/driver_max30102.c ****         return 3;                                                                                  
 102              		.loc 1 105 0
 103 001a 0323     		movs	r3, #3
 104 001c 0FE1     		b	.L21
 105              	.L4:
 106:..\..\..\..\PSoC6_101\Sensor/driver_max30102.c ****     }
 107:..\..\..\..\PSoC6_101\Sensor/driver_max30102.c ****     if (handle->iic_init == NULL)                                                                  
 106              		.loc 1 107 0
 107 001e 7B68     		ldr	r3, [r7, #4]
 108 0020 1B68     		ldr	r3, [r3]
 109 0022 002B     		cmp	r3, #0
 110 0024 05D1     		bne	.L5
 108:..\..\..\..\PSoC6_101\Sensor/driver_max30102.c ****     {
 109:..\..\..\..\PSoC6_101\Sensor/driver_max30102.c ****         handle->debug_print("max30102: iic_init is null.\n");                                      
 111              		.loc 1 109 0
 112 0026 7B68     		ldr	r3, [r7, #4]
 113 0028 9B69     		ldr	r3, [r3, #24]
 114 002a 8748     		ldr	r0, .L22
 115 002c 9847     		blx	r3
 110:..\..\..\..\PSoC6_101\Sensor/driver_max30102.c ****         
ARM GAS  C:\Users\49148\AppData\Local\Temp\ccWN5cWv.s 			page 6


 111:..\..\..\..\PSoC6_101\Sensor/driver_max30102.c ****         return 3;                                                                                  
 116              		.loc 1 111 0
 117 002e 0323     		movs	r3, #3
 118 0030 05E1     		b	.L21
 119              	.L5:
 112:..\..\..\..\PSoC6_101\Sensor/driver_max30102.c ****     }
 113:..\..\..\..\PSoC6_101\Sensor/driver_max30102.c ****     if (handle->iic_deinit == NULL)                                                                
 120              		.loc 1 113 0
 121 0032 7B68     		ldr	r3, [r7, #4]
 122 0034 5B68     		ldr	r3, [r3, #4]
 123 0036 002B     		cmp	r3, #0
 124 0038 05D1     		bne	.L6
 114:..\..\..\..\PSoC6_101\Sensor/driver_max30102.c ****     {
 115:..\..\..\..\PSoC6_101\Sensor/driver_max30102.c ****         handle->debug_print("max30102: iic_deinit is null.\n");                                    
 125              		.loc 1 115 0
 126 003a 7B68     		ldr	r3, [r7, #4]
 127 003c 9B69     		ldr	r3, [r3, #24]
 128 003e 8348     		ldr	r0, .L22+4
 129 0040 9847     		blx	r3
 116:..\..\..\..\PSoC6_101\Sensor/driver_max30102.c ****         
 117:..\..\..\..\PSoC6_101\Sensor/driver_max30102.c ****         return 3;                                                                                  
 130              		.loc 1 117 0
 131 0042 0323     		movs	r3, #3
 132 0044 FBE0     		b	.L21
 133              	.L6:
 118:..\..\..\..\PSoC6_101\Sensor/driver_max30102.c ****     }
 119:..\..\..\..\PSoC6_101\Sensor/driver_max30102.c ****     if (handle->iic_read == NULL)                                                                  
 134              		.loc 1 119 0
 135 0046 7B68     		ldr	r3, [r7, #4]
 136 0048 9B68     		ldr	r3, [r3, #8]
 137 004a 002B     		cmp	r3, #0
 138 004c 05D1     		bne	.L7
 120:..\..\..\..\PSoC6_101\Sensor/driver_max30102.c ****     {
 121:..\..\..\..\PSoC6_101\Sensor/driver_max30102.c ****         handle->debug_print("max30102: iic_read is null.\n");                                      
 139              		.loc 1 121 0
 140 004e 7B68     		ldr	r3, [r7, #4]
 141 0050 9B69     		ldr	r3, [r3, #24]
 142 0052 7F48     		ldr	r0, .L22+8
 143 0054 9847     		blx	r3
 122:..\..\..\..\PSoC6_101\Sensor/driver_max30102.c ****         
 123:..\..\..\..\PSoC6_101\Sensor/driver_max30102.c ****         return 3;                                                                                  
 144              		.loc 1 123 0
 145 0056 0323     		movs	r3, #3
 146 0058 F1E0     		b	.L21
 147              	.L7:
 124:..\..\..\..\PSoC6_101\Sensor/driver_max30102.c ****     }
 125:..\..\..\..\PSoC6_101\Sensor/driver_max30102.c ****     if (handle->iic_write == NULL)                                                                 
 148              		.loc 1 125 0
 149 005a 7B68     		ldr	r3, [r7, #4]
 150 005c DB68     		ldr	r3, [r3, #12]
 151 005e 002B     		cmp	r3, #0
 152 0060 05D1     		bne	.L8
 126:..\..\..\..\PSoC6_101\Sensor/driver_max30102.c ****     {
 127:..\..\..\..\PSoC6_101\Sensor/driver_max30102.c ****         handle->debug_print("max30102: iic_write is null.\n");                                     
 153              		.loc 1 127 0
 154 0062 7B68     		ldr	r3, [r7, #4]
 155 0064 9B69     		ldr	r3, [r3, #24]
ARM GAS  C:\Users\49148\AppData\Local\Temp\ccWN5cWv.s 			page 7


 156 0066 7B48     		ldr	r0, .L22+12
 157 0068 9847     		blx	r3
 128:..\..\..\..\PSoC6_101\Sensor/driver_max30102.c ****         
 129:..\..\..\..\PSoC6_101\Sensor/driver_max30102.c ****         return 3;                                                                                  
 158              		.loc 1 129 0
 159 006a 0323     		movs	r3, #3
 160 006c E7E0     		b	.L21
 161              	.L8:
 130:..\..\..\..\PSoC6_101\Sensor/driver_max30102.c ****     }
 131:..\..\..\..\PSoC6_101\Sensor/driver_max30102.c ****     if (handle->receive_callback == NULL)                                                          
 162              		.loc 1 131 0
 163 006e 7B68     		ldr	r3, [r7, #4]
 164 0070 1B69     		ldr	r3, [r3, #16]
 165 0072 002B     		cmp	r3, #0
 166 0074 05D1     		bne	.L9
 132:..\..\..\..\PSoC6_101\Sensor/driver_max30102.c ****     {
 133:..\..\..\..\PSoC6_101\Sensor/driver_max30102.c ****         handle->debug_print("max30102: receive_callback is null.\n");                              
 167              		.loc 1 133 0
 168 0076 7B68     		ldr	r3, [r7, #4]
 169 0078 9B69     		ldr	r3, [r3, #24]
 170 007a 7748     		ldr	r0, .L22+16
 171 007c 9847     		blx	r3
 134:..\..\..\..\PSoC6_101\Sensor/driver_max30102.c ****         
 135:..\..\..\..\PSoC6_101\Sensor/driver_max30102.c ****         return 3;                                                                                  
 172              		.loc 1 135 0
 173 007e 0323     		movs	r3, #3
 174 0080 DDE0     		b	.L21
 175              	.L9:
 136:..\..\..\..\PSoC6_101\Sensor/driver_max30102.c ****     }
 137:..\..\..\..\PSoC6_101\Sensor/driver_max30102.c ****     if (handle->delay_ms == NULL)                                                                  
 176              		.loc 1 137 0
 177 0082 7B68     		ldr	r3, [r7, #4]
 178 0084 5B69     		ldr	r3, [r3, #20]
 179 0086 002B     		cmp	r3, #0
 180 0088 05D1     		bne	.L10
 138:..\..\..\..\PSoC6_101\Sensor/driver_max30102.c ****     {
 139:..\..\..\..\PSoC6_101\Sensor/driver_max30102.c ****         handle->debug_print("max30102: delay_ms is null.\n");                                      
 181              		.loc 1 139 0
 182 008a 7B68     		ldr	r3, [r7, #4]
 183 008c 9B69     		ldr	r3, [r3, #24]
 184 008e 7348     		ldr	r0, .L22+20
 185 0090 9847     		blx	r3
 140:..\..\..\..\PSoC6_101\Sensor/driver_max30102.c ****         
 141:..\..\..\..\PSoC6_101\Sensor/driver_max30102.c ****         return 3;                                                                                  
 186              		.loc 1 141 0
 187 0092 0323     		movs	r3, #3
 188 0094 D3E0     		b	.L21
 189              	.L10:
 142:..\..\..\..\PSoC6_101\Sensor/driver_max30102.c ****     }
 143:..\..\..\..\PSoC6_101\Sensor/driver_max30102.c **** 
 144:..\..\..\..\PSoC6_101\Sensor/driver_max30102.c ****     if (handle->iic_init() != 0)                                                                   
 190              		.loc 1 144 0
 191 0096 7B68     		ldr	r3, [r7, #4]
 192 0098 1B68     		ldr	r3, [r3]
 193 009a 9847     		blx	r3
 194 009c 0346     		mov	r3, r0
 195 009e 002B     		cmp	r3, #0
ARM GAS  C:\Users\49148\AppData\Local\Temp\ccWN5cWv.s 			page 8


 196 00a0 05D0     		beq	.L11
 145:..\..\..\..\PSoC6_101\Sensor/driver_max30102.c ****     {
 146:..\..\..\..\PSoC6_101\Sensor/driver_max30102.c ****         handle->debug_print("max30102: iic init failed.\n");                                       
 197              		.loc 1 146 0
 198 00a2 7B68     		ldr	r3, [r7, #4]
 199 00a4 9B69     		ldr	r3, [r3, #24]
 200 00a6 6E48     		ldr	r0, .L22+24
 201 00a8 9847     		blx	r3
 147:..\..\..\..\PSoC6_101\Sensor/driver_max30102.c ****         
 148:..\..\..\..\PSoC6_101\Sensor/driver_max30102.c ****         return 1;                                                                                  
 202              		.loc 1 148 0
 203 00aa 0123     		movs	r3, #1
 204 00ac C7E0     		b	.L21
 205              	.L11:
 149:..\..\..\..\PSoC6_101\Sensor/driver_max30102.c ****     }
 150:..\..\..\..\PSoC6_101\Sensor/driver_max30102.c ****     res = handle->iic_read(MAX30102_ADDRESS, MAX30102_REG_PART_ID, (uint8_t *)&part_id, 1);        
 206              		.loc 1 150 0
 207 00ae 7B68     		ldr	r3, [r7, #4]
 208 00b0 9C68     		ldr	r4, [r3, #8]
 209 00b2 07F10D02 		add	r2, r7, #13
 210 00b6 0123     		movs	r3, #1
 211 00b8 FF21     		movs	r1, #255
 212 00ba AE20     		movs	r0, #174
 213 00bc A047     		blx	r4
 214 00be 0346     		mov	r3, r0
 215 00c0 FB73     		strb	r3, [r7, #15]
 151:..\..\..\..\PSoC6_101\Sensor/driver_max30102.c ****     if (res != 0)                                                                                  
 216              		.loc 1 151 0
 217 00c2 FB7B     		ldrb	r3, [r7, #15]	@ zero_extendqisi2
 218 00c4 002B     		cmp	r3, #0
 219 00c6 08D0     		beq	.L12
 152:..\..\..\..\PSoC6_101\Sensor/driver_max30102.c ****     {
 153:..\..\..\..\PSoC6_101\Sensor/driver_max30102.c ****         handle->debug_print("max30102: read part id failed.\n");                                   
 220              		.loc 1 153 0
 221 00c8 7B68     		ldr	r3, [r7, #4]
 222 00ca 9B69     		ldr	r3, [r3, #24]
 223 00cc 6548     		ldr	r0, .L22+28
 224 00ce 9847     		blx	r3
 154:..\..\..\..\PSoC6_101\Sensor/driver_max30102.c ****         (void)handle->iic_deinit();                                                                
 225              		.loc 1 154 0
 226 00d0 7B68     		ldr	r3, [r7, #4]
 227 00d2 5B68     		ldr	r3, [r3, #4]
 228 00d4 9847     		blx	r3
 155:..\..\..\..\PSoC6_101\Sensor/driver_max30102.c ****         
 156:..\..\..\..\PSoC6_101\Sensor/driver_max30102.c ****         return 4;                                                                                  
 229              		.loc 1 156 0
 230 00d6 0423     		movs	r3, #4
 231 00d8 B1E0     		b	.L21
 232              	.L12:
 157:..\..\..\..\PSoC6_101\Sensor/driver_max30102.c ****     }
 158:..\..\..\..\PSoC6_101\Sensor/driver_max30102.c ****     if (part_id != 0x15)                                                                           
 233              		.loc 1 158 0
 234 00da 7B7B     		ldrb	r3, [r7, #13]	@ zero_extendqisi2
 235 00dc 152B     		cmp	r3, #21
 236 00de 08D0     		beq	.L13
 159:..\..\..\..\PSoC6_101\Sensor/driver_max30102.c ****     {
 160:..\..\..\..\PSoC6_101\Sensor/driver_max30102.c ****         handle->debug_print("max30102: id is invalid.\n");                                         
ARM GAS  C:\Users\49148\AppData\Local\Temp\ccWN5cWv.s 			page 9


 237              		.loc 1 160 0
 238 00e0 7B68     		ldr	r3, [r7, #4]
 239 00e2 9B69     		ldr	r3, [r3, #24]
 240 00e4 6048     		ldr	r0, .L22+32
 241 00e6 9847     		blx	r3
 161:..\..\..\..\PSoC6_101\Sensor/driver_max30102.c ****         (void)handle->iic_deinit();                                                                
 242              		.loc 1 161 0
 243 00e8 7B68     		ldr	r3, [r7, #4]
 244 00ea 5B68     		ldr	r3, [r3, #4]
 245 00ec 9847     		blx	r3
 162:..\..\..\..\PSoC6_101\Sensor/driver_max30102.c ****         
 163:..\..\..\..\PSoC6_101\Sensor/driver_max30102.c ****         return 4;                                                                                  
 246              		.loc 1 163 0
 247 00ee 0423     		movs	r3, #4
 248 00f0 A5E0     		b	.L21
 249              	.L13:
 164:..\..\..\..\PSoC6_101\Sensor/driver_max30102.c ****     }
 165:..\..\..\..\PSoC6_101\Sensor/driver_max30102.c ****     res = handle->iic_read(MAX30102_ADDRESS, MAX30102_REG_MODE_CONFIG, (uint8_t *)&prev, 1);       
 250              		.loc 1 165 0
 251 00f2 7B68     		ldr	r3, [r7, #4]
 252 00f4 9C68     		ldr	r4, [r3, #8]
 253 00f6 07F10E02 		add	r2, r7, #14
 254 00fa 0123     		movs	r3, #1
 255 00fc 0921     		movs	r1, #9
 256 00fe AE20     		movs	r0, #174
 257 0100 A047     		blx	r4
 258 0102 0346     		mov	r3, r0
 259 0104 FB73     		strb	r3, [r7, #15]
 166:..\..\..\..\PSoC6_101\Sensor/driver_max30102.c ****     if (res != 0)                                                                                  
 260              		.loc 1 166 0
 261 0106 FB7B     		ldrb	r3, [r7, #15]	@ zero_extendqisi2
 262 0108 002B     		cmp	r3, #0
 263 010a 08D0     		beq	.L14
 167:..\..\..\..\PSoC6_101\Sensor/driver_max30102.c ****     {
 168:..\..\..\..\PSoC6_101\Sensor/driver_max30102.c ****         handle->debug_print("max30102: read mode config failed.\n");                               
 264              		.loc 1 168 0
 265 010c 7B68     		ldr	r3, [r7, #4]
 266 010e 9B69     		ldr	r3, [r3, #24]
 267 0110 5648     		ldr	r0, .L22+36
 268 0112 9847     		blx	r3
 169:..\..\..\..\PSoC6_101\Sensor/driver_max30102.c ****         (void)handle->iic_deinit();                                                                
 269              		.loc 1 169 0
 270 0114 7B68     		ldr	r3, [r7, #4]
 271 0116 5B68     		ldr	r3, [r3, #4]
 272 0118 9847     		blx	r3
 170:..\..\..\..\PSoC6_101\Sensor/driver_max30102.c ****         
 171:..\..\..\..\PSoC6_101\Sensor/driver_max30102.c ****         return 5;                                                                                  
 273              		.loc 1 171 0
 274 011a 0523     		movs	r3, #5
 275 011c 8FE0     		b	.L21
 276              	.L14:
 172:..\..\..\..\PSoC6_101\Sensor/driver_max30102.c ****     }
 173:..\..\..\..\PSoC6_101\Sensor/driver_max30102.c ****     prev &= ~(1 << 6);                                                                             
 277              		.loc 1 173 0
 278 011e BB7B     		ldrb	r3, [r7, #14]	@ zero_extendqisi2
 279 0120 23F04003 		bic	r3, r3, #64
 280 0124 DBB2     		uxtb	r3, r3
ARM GAS  C:\Users\49148\AppData\Local\Temp\ccWN5cWv.s 			page 10


 281 0126 BB73     		strb	r3, [r7, #14]
 174:..\..\..\..\PSoC6_101\Sensor/driver_max30102.c ****     prev |= 1 << 6;                                                                                
 282              		.loc 1 174 0
 283 0128 BB7B     		ldrb	r3, [r7, #14]	@ zero_extendqisi2
 284 012a 43F04003 		orr	r3, r3, #64
 285 012e DBB2     		uxtb	r3, r3
 286 0130 BB73     		strb	r3, [r7, #14]
 175:..\..\..\..\PSoC6_101\Sensor/driver_max30102.c ****     res = handle->iic_write(MAX30102_ADDRESS, MAX30102_REG_MODE_CONFIG, (uint8_t *)&prev, 1);      
 287              		.loc 1 175 0
 288 0132 7B68     		ldr	r3, [r7, #4]
 289 0134 DC68     		ldr	r4, [r3, #12]
 290 0136 07F10E02 		add	r2, r7, #14
 291 013a 0123     		movs	r3, #1
 292 013c 0921     		movs	r1, #9
 293 013e AE20     		movs	r0, #174
 294 0140 A047     		blx	r4
 295 0142 0346     		mov	r3, r0
 296 0144 FB73     		strb	r3, [r7, #15]
 176:..\..\..\..\PSoC6_101\Sensor/driver_max30102.c ****     if (res != 0)                                                                                  
 297              		.loc 1 176 0
 298 0146 FB7B     		ldrb	r3, [r7, #15]	@ zero_extendqisi2
 299 0148 002B     		cmp	r3, #0
 300 014a 08D0     		beq	.L15
 177:..\..\..\..\PSoC6_101\Sensor/driver_max30102.c ****     {
 178:..\..\..\..\PSoC6_101\Sensor/driver_max30102.c ****         handle->debug_print("max30102: write mode config failed.\n");                              
 301              		.loc 1 178 0
 302 014c 7B68     		ldr	r3, [r7, #4]
 303 014e 9B69     		ldr	r3, [r3, #24]
 304 0150 4748     		ldr	r0, .L22+40
 305 0152 9847     		blx	r3
 179:..\..\..\..\PSoC6_101\Sensor/driver_max30102.c ****         (void)handle->iic_deinit();                                                                
 306              		.loc 1 179 0
 307 0154 7B68     		ldr	r3, [r7, #4]
 308 0156 5B68     		ldr	r3, [r3, #4]
 309 0158 9847     		blx	r3
 180:..\..\..\..\PSoC6_101\Sensor/driver_max30102.c ****         
 181:..\..\..\..\PSoC6_101\Sensor/driver_max30102.c ****         return 5;                                                                                  
 310              		.loc 1 181 0
 311 015a 0523     		movs	r3, #5
 312 015c 6FE0     		b	.L21
 313              	.L15:
 182:..\..\..\..\PSoC6_101\Sensor/driver_max30102.c ****     }
 183:..\..\..\..\PSoC6_101\Sensor/driver_max30102.c ****     handle->delay_ms(10);                                                                          
 314              		.loc 1 183 0
 315 015e 7B68     		ldr	r3, [r7, #4]
 316 0160 5B69     		ldr	r3, [r3, #20]
 317 0162 0A20     		movs	r0, #10
 318 0164 9847     		blx	r3
 184:..\..\..\..\PSoC6_101\Sensor/driver_max30102.c ****     res = handle->iic_read(MAX30102_ADDRESS, MAX30102_REG_MODE_CONFIG, (uint8_t *)&prev, 1);       
 319              		.loc 1 184 0
 320 0166 7B68     		ldr	r3, [r7, #4]
 321 0168 9C68     		ldr	r4, [r3, #8]
 322 016a 07F10E02 		add	r2, r7, #14
 323 016e 0123     		movs	r3, #1
 324 0170 0921     		movs	r1, #9
 325 0172 AE20     		movs	r0, #174
 326 0174 A047     		blx	r4
ARM GAS  C:\Users\49148\AppData\Local\Temp\ccWN5cWv.s 			page 11


 327 0176 0346     		mov	r3, r0
 328 0178 FB73     		strb	r3, [r7, #15]
 185:..\..\..\..\PSoC6_101\Sensor/driver_max30102.c ****     if (res != 0)                                                                                  
 329              		.loc 1 185 0
 330 017a FB7B     		ldrb	r3, [r7, #15]	@ zero_extendqisi2
 331 017c 002B     		cmp	r3, #0
 332 017e 08D0     		beq	.L16
 186:..\..\..\..\PSoC6_101\Sensor/driver_max30102.c ****     {
 187:..\..\..\..\PSoC6_101\Sensor/driver_max30102.c ****         handle->debug_print("max30102: read mode config failed.\n");                               
 333              		.loc 1 187 0
 334 0180 7B68     		ldr	r3, [r7, #4]
 335 0182 9B69     		ldr	r3, [r3, #24]
 336 0184 3948     		ldr	r0, .L22+36
 337 0186 9847     		blx	r3
 188:..\..\..\..\PSoC6_101\Sensor/driver_max30102.c ****         (void)handle->iic_deinit();                                                                
 338              		.loc 1 188 0
 339 0188 7B68     		ldr	r3, [r7, #4]
 340 018a 5B68     		ldr	r3, [r3, #4]
 341 018c 9847     		blx	r3
 189:..\..\..\..\PSoC6_101\Sensor/driver_max30102.c ****         
 190:..\..\..\..\PSoC6_101\Sensor/driver_max30102.c ****         return 5;                                                                                  
 342              		.loc 1 190 0
 343 018e 0523     		movs	r3, #5
 344 0190 55E0     		b	.L21
 345              	.L16:
 191:..\..\..\..\PSoC6_101\Sensor/driver_max30102.c ****     }
 192:..\..\..\..\PSoC6_101\Sensor/driver_max30102.c ****     if ((prev & (1 << 6)) != 0)                                                                    
 346              		.loc 1 192 0
 347 0192 BB7B     		ldrb	r3, [r7, #14]	@ zero_extendqisi2
 348 0194 03F04003 		and	r3, r3, #64
 349 0198 002B     		cmp	r3, #0
 350 019a 08D0     		beq	.L17
 193:..\..\..\..\PSoC6_101\Sensor/driver_max30102.c ****     {
 194:..\..\..\..\PSoC6_101\Sensor/driver_max30102.c ****         handle->debug_print("max30102: reset failed.\n");                                          
 351              		.loc 1 194 0
 352 019c 7B68     		ldr	r3, [r7, #4]
 353 019e 9B69     		ldr	r3, [r3, #24]
 354 01a0 3448     		ldr	r0, .L22+44
 355 01a2 9847     		blx	r3
 195:..\..\..\..\PSoC6_101\Sensor/driver_max30102.c ****         (void)handle->iic_deinit();                                                                
 356              		.loc 1 195 0
 357 01a4 7B68     		ldr	r3, [r7, #4]
 358 01a6 5B68     		ldr	r3, [r3, #4]
 359 01a8 9847     		blx	r3
 196:..\..\..\..\PSoC6_101\Sensor/driver_max30102.c ****         
 197:..\..\..\..\PSoC6_101\Sensor/driver_max30102.c ****         return 5;                                                                                  
 360              		.loc 1 197 0
 361 01aa 0523     		movs	r3, #5
 362 01ac 47E0     		b	.L21
 363              	.L17:
 198:..\..\..\..\PSoC6_101\Sensor/driver_max30102.c ****     }
 199:..\..\..\..\PSoC6_101\Sensor/driver_max30102.c ****     prev = 0;                                                                                      
 364              		.loc 1 199 0
 365 01ae 0023     		movs	r3, #0
 366 01b0 BB73     		strb	r3, [r7, #14]
 200:..\..\..\..\PSoC6_101\Sensor/driver_max30102.c ****     res = handle->iic_write(MAX30102_ADDRESS, MAX30102_REG_FIFO_READ_POINTER, (uint8_t *)&prev, 1);
 367              		.loc 1 200 0
ARM GAS  C:\Users\49148\AppData\Local\Temp\ccWN5cWv.s 			page 12


 368 01b2 7B68     		ldr	r3, [r7, #4]
 369 01b4 DC68     		ldr	r4, [r3, #12]
 370 01b6 07F10E02 		add	r2, r7, #14
 371 01ba 0123     		movs	r3, #1
 372 01bc 0621     		movs	r1, #6
 373 01be AE20     		movs	r0, #174
 374 01c0 A047     		blx	r4
 375 01c2 0346     		mov	r3, r0
 376 01c4 FB73     		strb	r3, [r7, #15]
 201:..\..\..\..\PSoC6_101\Sensor/driver_max30102.c ****     if (res != 0)                                                                                  
 377              		.loc 1 201 0
 378 01c6 FB7B     		ldrb	r3, [r7, #15]	@ zero_extendqisi2
 379 01c8 002B     		cmp	r3, #0
 380 01ca 08D0     		beq	.L18
 202:..\..\..\..\PSoC6_101\Sensor/driver_max30102.c ****     {
 203:..\..\..\..\PSoC6_101\Sensor/driver_max30102.c ****         handle->debug_print("max30102: write fifo read pointer failed.\n");                        
 381              		.loc 1 203 0
 382 01cc 7B68     		ldr	r3, [r7, #4]
 383 01ce 9B69     		ldr	r3, [r3, #24]
 384 01d0 2948     		ldr	r0, .L22+48
 385 01d2 9847     		blx	r3
 204:..\..\..\..\PSoC6_101\Sensor/driver_max30102.c ****         (void)handle->iic_deinit();                                                                
 386              		.loc 1 204 0
 387 01d4 7B68     		ldr	r3, [r7, #4]
 388 01d6 5B68     		ldr	r3, [r3, #4]
 389 01d8 9847     		blx	r3
 205:..\..\..\..\PSoC6_101\Sensor/driver_max30102.c ****         
 206:..\..\..\..\PSoC6_101\Sensor/driver_max30102.c ****         return 6;                                                                                  
 390              		.loc 1 206 0
 391 01da 0623     		movs	r3, #6
 392 01dc 2FE0     		b	.L21
 393              	.L18:
 207:..\..\..\..\PSoC6_101\Sensor/driver_max30102.c ****     }
 208:..\..\..\..\PSoC6_101\Sensor/driver_max30102.c ****     res = handle->iic_write(MAX30102_ADDRESS, MAX30102_REG_FIFO_WRITE_POINTER, (uint8_t *)&prev, 1)
 394              		.loc 1 208 0
 395 01de 7B68     		ldr	r3, [r7, #4]
 396 01e0 DC68     		ldr	r4, [r3, #12]
 397 01e2 07F10E02 		add	r2, r7, #14
 398 01e6 0123     		movs	r3, #1
 399 01e8 0421     		movs	r1, #4
 400 01ea AE20     		movs	r0, #174
 401 01ec A047     		blx	r4
 402 01ee 0346     		mov	r3, r0
 403 01f0 FB73     		strb	r3, [r7, #15]
 209:..\..\..\..\PSoC6_101\Sensor/driver_max30102.c ****     if (res != 0)                                                                                  
 404              		.loc 1 209 0
 405 01f2 FB7B     		ldrb	r3, [r7, #15]	@ zero_extendqisi2
 406 01f4 002B     		cmp	r3, #0
 407 01f6 08D0     		beq	.L19
 210:..\..\..\..\PSoC6_101\Sensor/driver_max30102.c ****     {
 211:..\..\..\..\PSoC6_101\Sensor/driver_max30102.c ****         handle->debug_print("max30102: write fifo write pointer failed.\n");                       
 408              		.loc 1 211 0
 409 01f8 7B68     		ldr	r3, [r7, #4]
 410 01fa 9B69     		ldr	r3, [r3, #24]
 411 01fc 1F48     		ldr	r0, .L22+52
 412 01fe 9847     		blx	r3
 212:..\..\..\..\PSoC6_101\Sensor/driver_max30102.c ****         (void)handle->iic_deinit();                                                                
ARM GAS  C:\Users\49148\AppData\Local\Temp\ccWN5cWv.s 			page 13


 413              		.loc 1 212 0
 414 0200 7B68     		ldr	r3, [r7, #4]
 415 0202 5B68     		ldr	r3, [r3, #4]
 416 0204 9847     		blx	r3
 213:..\..\..\..\PSoC6_101\Sensor/driver_max30102.c ****         
 214:..\..\..\..\PSoC6_101\Sensor/driver_max30102.c ****         return 6;                                                                                  
 417              		.loc 1 214 0
 418 0206 0623     		movs	r3, #6
 419 0208 19E0     		b	.L21
 420              	.L19:
 215:..\..\..\..\PSoC6_101\Sensor/driver_max30102.c ****     }
 216:..\..\..\..\PSoC6_101\Sensor/driver_max30102.c ****     res = handle->iic_write(MAX30102_ADDRESS, MAX30102_REG_OVERFLOW_COUNTER, (uint8_t *)&prev, 1); 
 421              		.loc 1 216 0
 422 020a 7B68     		ldr	r3, [r7, #4]
 423 020c DC68     		ldr	r4, [r3, #12]
 424 020e 07F10E02 		add	r2, r7, #14
 425 0212 0123     		movs	r3, #1
 426 0214 0521     		movs	r1, #5
 427 0216 AE20     		movs	r0, #174
 428 0218 A047     		blx	r4
 429 021a 0346     		mov	r3, r0
 430 021c FB73     		strb	r3, [r7, #15]
 217:..\..\..\..\PSoC6_101\Sensor/driver_max30102.c ****     if (res != 0)                                                                                  
 431              		.loc 1 217 0
 432 021e FB7B     		ldrb	r3, [r7, #15]	@ zero_extendqisi2
 433 0220 002B     		cmp	r3, #0
 434 0222 08D0     		beq	.L20
 218:..\..\..\..\PSoC6_101\Sensor/driver_max30102.c ****     {
 219:..\..\..\..\PSoC6_101\Sensor/driver_max30102.c ****         handle->debug_print("max30102: write overflow counter failed.\n");                         
 435              		.loc 1 219 0
 436 0224 7B68     		ldr	r3, [r7, #4]
 437 0226 9B69     		ldr	r3, [r3, #24]
 438 0228 1548     		ldr	r0, .L22+56
 439 022a 9847     		blx	r3
 220:..\..\..\..\PSoC6_101\Sensor/driver_max30102.c ****         (void)handle->iic_deinit();                                                                
 440              		.loc 1 220 0
 441 022c 7B68     		ldr	r3, [r7, #4]
 442 022e 5B68     		ldr	r3, [r3, #4]
 443 0230 9847     		blx	r3
 221:..\..\..\..\PSoC6_101\Sensor/driver_max30102.c ****         
 222:..\..\..\..\PSoC6_101\Sensor/driver_max30102.c ****         return 6;                                                                                  
 444              		.loc 1 222 0
 445 0232 0623     		movs	r3, #6
 446 0234 03E0     		b	.L21
 447              	.L20:
 223:..\..\..\..\PSoC6_101\Sensor/driver_max30102.c ****     }
 224:..\..\..\..\PSoC6_101\Sensor/driver_max30102.c ****     handle->inited = 1;                                                                            
 448              		.loc 1 224 0
 449 0236 7B68     		ldr	r3, [r7, #4]
 450 0238 0122     		movs	r2, #1
 451 023a 1A77     		strb	r2, [r3, #28]
 225:..\..\..\..\PSoC6_101\Sensor/driver_max30102.c ****     
 226:..\..\..\..\PSoC6_101\Sensor/driver_max30102.c ****     return 0;                                                                                      
 452              		.loc 1 226 0
 453 023c 0023     		movs	r3, #0
 454              	.L21:
 227:..\..\..\..\PSoC6_101\Sensor/driver_max30102.c **** }
ARM GAS  C:\Users\49148\AppData\Local\Temp\ccWN5cWv.s 			page 14


 455              		.loc 1 227 0 discriminator 1
 456 023e 1846     		mov	r0, r3
 457 0240 1437     		adds	r7, r7, #20
 458              		.cfi_def_cfa_offset 12
 459 0242 BD46     		mov	sp, r7
 460              		.cfi_def_cfa_register 13
 461              		@ sp needed
 462 0244 90BD     		pop	{r4, r7, pc}
 463              	.L23:
 464 0246 00BF     		.align	2
 465              	.L22:
 466 0248 00000000 		.word	.LC0
 467 024c 20000000 		.word	.LC1
 468 0250 40000000 		.word	.LC2
 469 0254 60000000 		.word	.LC3
 470 0258 80000000 		.word	.LC4
 471 025c A8000000 		.word	.LC5
 472 0260 C8000000 		.word	.LC6
 473 0264 E4000000 		.word	.LC7
 474 0268 04010000 		.word	.LC8
 475 026c 20010000 		.word	.LC9
 476 0270 44010000 		.word	.LC10
 477 0274 6C010000 		.word	.LC11
 478 0278 88010000 		.word	.LC12
 479 027c B4010000 		.word	.LC13
 480 0280 E0010000 		.word	.LC14
 481              		.cfi_endproc
 482              	.LFE1:
 483              		.size	max30102_init, .-max30102_init
 484              		.section	.rodata
 485 020a 0000     		.align	2
 486              	.LC15:
 487 020c 6D617833 		.ascii	"max30102: iic deinit failed.\012\000"
 487      30313032 
 487      3A206969 
 487      63206465 
 487      696E6974 
 488              		.section	.text.max30102_deinit,"ax",%progbits
 489              		.align	2
 490              		.global	max30102_deinit
 491              		.thumb
 492              		.thumb_func
 493              		.type	max30102_deinit, %function
 494              	max30102_deinit:
 495              	.LFB2:
 228:..\..\..\..\PSoC6_101\Sensor/driver_max30102.c **** 
 229:..\..\..\..\PSoC6_101\Sensor/driver_max30102.c **** /**
 230:..\..\..\..\PSoC6_101\Sensor/driver_max30102.c ****  * @brief     close the chip
 231:..\..\..\..\PSoC6_101\Sensor/driver_max30102.c ****  * @param[in] *handle points to a max30102 handle structure
 232:..\..\..\..\PSoC6_101\Sensor/driver_max30102.c ****  * @return    status code
 233:..\..\..\..\PSoC6_101\Sensor/driver_max30102.c ****  *            - 0 success
 234:..\..\..\..\PSoC6_101\Sensor/driver_max30102.c ****  *            - 1 iic deinit failed
 235:..\..\..\..\PSoC6_101\Sensor/driver_max30102.c ****  *            - 2 handle is NULL
 236:..\..\..\..\PSoC6_101\Sensor/driver_max30102.c ****  *            - 3 handle is not initialized
 237:..\..\..\..\PSoC6_101\Sensor/driver_max30102.c ****  *            - 4 power down failed
 238:..\..\..\..\PSoC6_101\Sensor/driver_max30102.c ****  * @note      none
 239:..\..\..\..\PSoC6_101\Sensor/driver_max30102.c ****  */
ARM GAS  C:\Users\49148\AppData\Local\Temp\ccWN5cWv.s 			page 15


 240:..\..\..\..\PSoC6_101\Sensor/driver_max30102.c **** uint8_t max30102_deinit(max30102_handle_t *handle)
 241:..\..\..\..\PSoC6_101\Sensor/driver_max30102.c **** {
 496              		.loc 1 241 0
 497              		.cfi_startproc
 498              		@ args = 0, pretend = 0, frame = 16
 499              		@ frame_needed = 1, uses_anonymous_args = 0
 500 0000 90B5     		push	{r4, r7, lr}
 501              		.cfi_def_cfa_offset 12
 502              		.cfi_offset 4, -12
 503              		.cfi_offset 7, -8
 504              		.cfi_offset 14, -4
 505 0002 85B0     		sub	sp, sp, #20
 506              		.cfi_def_cfa_offset 32
 507 0004 00AF     		add	r7, sp, #0
 508              		.cfi_def_cfa_register 7
 509 0006 7860     		str	r0, [r7, #4]
 242:..\..\..\..\PSoC6_101\Sensor/driver_max30102.c ****     uint8_t res;
 243:..\..\..\..\PSoC6_101\Sensor/driver_max30102.c ****     uint8_t prev;
 244:..\..\..\..\PSoC6_101\Sensor/driver_max30102.c ****     
 245:..\..\..\..\PSoC6_101\Sensor/driver_max30102.c ****     if (handle == NULL)                                                                            
 510              		.loc 1 245 0
 511 0008 7B68     		ldr	r3, [r7, #4]
 512 000a 002B     		cmp	r3, #0
 513 000c 01D1     		bne	.L25
 246:..\..\..\..\PSoC6_101\Sensor/driver_max30102.c ****     {
 247:..\..\..\..\PSoC6_101\Sensor/driver_max30102.c ****         return 2;                                                                                  
 514              		.loc 1 247 0
 515 000e 0223     		movs	r3, #2
 516 0010 45E0     		b	.L31
 517              	.L25:
 248:..\..\..\..\PSoC6_101\Sensor/driver_max30102.c ****     }
 249:..\..\..\..\PSoC6_101\Sensor/driver_max30102.c ****     if (handle->inited != 1)                                                                       
 518              		.loc 1 249 0
 519 0012 7B68     		ldr	r3, [r7, #4]
 520 0014 1B7F     		ldrb	r3, [r3, #28]	@ zero_extendqisi2
 521 0016 012B     		cmp	r3, #1
 522 0018 01D0     		beq	.L27
 250:..\..\..\..\PSoC6_101\Sensor/driver_max30102.c ****     {
 251:..\..\..\..\PSoC6_101\Sensor/driver_max30102.c ****         return 3;                                                                                  
 523              		.loc 1 251 0
 524 001a 0323     		movs	r3, #3
 525 001c 3FE0     		b	.L31
 526              	.L27:
 252:..\..\..\..\PSoC6_101\Sensor/driver_max30102.c ****     }
 253:..\..\..\..\PSoC6_101\Sensor/driver_max30102.c ****     
 254:..\..\..\..\PSoC6_101\Sensor/driver_max30102.c ****     res = handle->iic_read(MAX30102_ADDRESS, MAX30102_REG_MODE_CONFIG, (uint8_t *)&prev, 1);       
 527              		.loc 1 254 0
 528 001e 7B68     		ldr	r3, [r7, #4]
 529 0020 9C68     		ldr	r4, [r3, #8]
 530 0022 07F10E02 		add	r2, r7, #14
 531 0026 0123     		movs	r3, #1
 532 0028 0921     		movs	r1, #9
 533 002a AE20     		movs	r0, #174
 534 002c A047     		blx	r4
 535 002e 0346     		mov	r3, r0
 536 0030 FB73     		strb	r3, [r7, #15]
 255:..\..\..\..\PSoC6_101\Sensor/driver_max30102.c ****     if (res != 0)                                                                                  
ARM GAS  C:\Users\49148\AppData\Local\Temp\ccWN5cWv.s 			page 16


 537              		.loc 1 255 0
 538 0032 FB7B     		ldrb	r3, [r7, #15]	@ zero_extendqisi2
 539 0034 002B     		cmp	r3, #0
 540 0036 05D0     		beq	.L28
 256:..\..\..\..\PSoC6_101\Sensor/driver_max30102.c ****     {
 257:..\..\..\..\PSoC6_101\Sensor/driver_max30102.c ****         handle->debug_print("max30102: read mode config failed.\n");                               
 541              		.loc 1 257 0
 542 0038 7B68     		ldr	r3, [r7, #4]
 543 003a 9B69     		ldr	r3, [r3, #24]
 544 003c 1A48     		ldr	r0, .L32
 545 003e 9847     		blx	r3
 258:..\..\..\..\PSoC6_101\Sensor/driver_max30102.c ****        
 259:..\..\..\..\PSoC6_101\Sensor/driver_max30102.c ****         return 4;                                                                                  
 546              		.loc 1 259 0
 547 0040 0423     		movs	r3, #4
 548 0042 2CE0     		b	.L31
 549              	.L28:
 260:..\..\..\..\PSoC6_101\Sensor/driver_max30102.c ****     }
 261:..\..\..\..\PSoC6_101\Sensor/driver_max30102.c ****     prev &= ~(1 << 7);                                                                             
 550              		.loc 1 261 0
 551 0044 BB7B     		ldrb	r3, [r7, #14]	@ zero_extendqisi2
 552 0046 03F07F03 		and	r3, r3, #127
 553 004a DBB2     		uxtb	r3, r3
 554 004c BB73     		strb	r3, [r7, #14]
 262:..\..\..\..\PSoC6_101\Sensor/driver_max30102.c ****     prev |= 1 << 7;                                                                                
 555              		.loc 1 262 0
 556 004e BB7B     		ldrb	r3, [r7, #14]	@ zero_extendqisi2
 557 0050 63F07F03 		orn	r3, r3, #127
 558 0054 DBB2     		uxtb	r3, r3
 559 0056 BB73     		strb	r3, [r7, #14]
 263:..\..\..\..\PSoC6_101\Sensor/driver_max30102.c ****     res = handle->iic_write(MAX30102_ADDRESS, MAX30102_REG_MODE_CONFIG, (uint8_t *)&prev, 1);      
 560              		.loc 1 263 0
 561 0058 7B68     		ldr	r3, [r7, #4]
 562 005a DC68     		ldr	r4, [r3, #12]
 563 005c 07F10E02 		add	r2, r7, #14
 564 0060 0123     		movs	r3, #1
 565 0062 0921     		movs	r1, #9
 566 0064 AE20     		movs	r0, #174
 567 0066 A047     		blx	r4
 568 0068 0346     		mov	r3, r0
 569 006a FB73     		strb	r3, [r7, #15]
 264:..\..\..\..\PSoC6_101\Sensor/driver_max30102.c ****     if (res != 0)                                                                                  
 570              		.loc 1 264 0
 571 006c FB7B     		ldrb	r3, [r7, #15]	@ zero_extendqisi2
 572 006e 002B     		cmp	r3, #0
 573 0070 05D0     		beq	.L29
 265:..\..\..\..\PSoC6_101\Sensor/driver_max30102.c ****     {
 266:..\..\..\..\PSoC6_101\Sensor/driver_max30102.c ****         handle->debug_print("max30102: write mode config failed.\n");                              
 574              		.loc 1 266 0
 575 0072 7B68     		ldr	r3, [r7, #4]
 576 0074 9B69     		ldr	r3, [r3, #24]
 577 0076 0D48     		ldr	r0, .L32+4
 578 0078 9847     		blx	r3
 267:..\..\..\..\PSoC6_101\Sensor/driver_max30102.c ****        
 268:..\..\..\..\PSoC6_101\Sensor/driver_max30102.c ****         return 4;                                                                                  
 579              		.loc 1 268 0
 580 007a 0423     		movs	r3, #4
ARM GAS  C:\Users\49148\AppData\Local\Temp\ccWN5cWv.s 			page 17


 581 007c 0FE0     		b	.L31
 582              	.L29:
 269:..\..\..\..\PSoC6_101\Sensor/driver_max30102.c ****     }
 270:..\..\..\..\PSoC6_101\Sensor/driver_max30102.c ****     if (handle->iic_deinit() != 0)                                                                 
 583              		.loc 1 270 0
 584 007e 7B68     		ldr	r3, [r7, #4]
 585 0080 5B68     		ldr	r3, [r3, #4]
 586 0082 9847     		blx	r3
 587 0084 0346     		mov	r3, r0
 588 0086 002B     		cmp	r3, #0
 589 0088 05D0     		beq	.L30
 271:..\..\..\..\PSoC6_101\Sensor/driver_max30102.c ****     {
 272:..\..\..\..\PSoC6_101\Sensor/driver_max30102.c ****         handle->debug_print("max30102: iic deinit failed.\n");                                     
 590              		.loc 1 272 0
 591 008a 7B68     		ldr	r3, [r7, #4]
 592 008c 9B69     		ldr	r3, [r3, #24]
 593 008e 0848     		ldr	r0, .L32+8
 594 0090 9847     		blx	r3
 273:..\..\..\..\PSoC6_101\Sensor/driver_max30102.c ****         
 274:..\..\..\..\PSoC6_101\Sensor/driver_max30102.c ****         return 1;                                                                                  
 595              		.loc 1 274 0
 596 0092 0123     		movs	r3, #1
 597 0094 03E0     		b	.L31
 598              	.L30:
 275:..\..\..\..\PSoC6_101\Sensor/driver_max30102.c ****     }
 276:..\..\..\..\PSoC6_101\Sensor/driver_max30102.c ****     
 277:..\..\..\..\PSoC6_101\Sensor/driver_max30102.c ****     handle->inited = 0;                                                                            
 599              		.loc 1 277 0
 600 0096 7B68     		ldr	r3, [r7, #4]
 601 0098 0022     		movs	r2, #0
 602 009a 1A77     		strb	r2, [r3, #28]
 278:..\..\..\..\PSoC6_101\Sensor/driver_max30102.c ****     
 279:..\..\..\..\PSoC6_101\Sensor/driver_max30102.c ****     return 0;                                                                                      
 603              		.loc 1 279 0
 604 009c 0023     		movs	r3, #0
 605              	.L31:
 280:..\..\..\..\PSoC6_101\Sensor/driver_max30102.c **** }
 606              		.loc 1 280 0 discriminator 1
 607 009e 1846     		mov	r0, r3
 608 00a0 1437     		adds	r7, r7, #20
 609              		.cfi_def_cfa_offset 12
 610 00a2 BD46     		mov	sp, r7
 611              		.cfi_def_cfa_register 13
 612              		@ sp needed
 613 00a4 90BD     		pop	{r4, r7, pc}
 614              	.L33:
 615 00a6 00BF     		.align	2
 616              	.L32:
 617 00a8 20010000 		.word	.LC9
 618 00ac 44010000 		.word	.LC10
 619 00b0 0C020000 		.word	.LC15
 620              		.cfi_endproc
 621              	.LFE2:
 622              		.size	max30102_deinit, .-max30102_deinit
 623              		.section	.rodata
 624 022a 0000     		.align	2
 625              	.LC16:
ARM GAS  C:\Users\49148\AppData\Local\Temp\ccWN5cWv.s 			page 18


 626 022c 6D617833 		.ascii	"max30102: read interrupt status1 failed.\012\000"
 626      30313032 
 626      3A207265 
 626      61642069 
 626      6E746572 
 627 0256 0000     		.align	2
 628              	.LC17:
 629 0258 6D617833 		.ascii	"max30102: read interrupt status2 failed.\012\000"
 629      30313032 
 629      3A207265 
 629      61642069 
 629      6E746572 
 630 0282 0000     		.align	2
 631              	.LC18:
 632 0284 6D617833 		.ascii	"max30102: read die temp integer failed.\012\000"
 632      30313032 
 632      3A207265 
 632      61642064 
 632      69652074 
 633 02ad 000000   		.align	2
 634              	.LC19:
 635 02b0 6D617833 		.ascii	"max30102: read die temp fraction failed.\012\000"
 635      30313032 
 635      3A207265 
 635      61642064 
 635      69652074 
 636              		.section	.text.max30102_irq_handler,"ax",%progbits
 637              		.align	2
 638              		.global	max30102_irq_handler
 639              		.thumb
 640              		.thumb_func
 641              		.type	max30102_irq_handler, %function
 642              	max30102_irq_handler:
 643              	.LFB3:
 281:..\..\..\..\PSoC6_101\Sensor/driver_max30102.c **** 
 282:..\..\..\..\PSoC6_101\Sensor/driver_max30102.c **** /**
 283:..\..\..\..\PSoC6_101\Sensor/driver_max30102.c ****  * @brief     irq handler
 284:..\..\..\..\PSoC6_101\Sensor/driver_max30102.c ****  * @param[in] *handle points to a max30102 handle structure
 285:..\..\..\..\PSoC6_101\Sensor/driver_max30102.c ****  * @return    status code
 286:..\..\..\..\PSoC6_101\Sensor/driver_max30102.c ****  *            - 0 success
 287:..\..\..\..\PSoC6_101\Sensor/driver_max30102.c ****  *            - 1 run failed
 288:..\..\..\..\PSoC6_101\Sensor/driver_max30102.c ****  *            - 2 handle is NULL
 289:..\..\..\..\PSoC6_101\Sensor/driver_max30102.c ****  *            - 3 handle is not initialized
 290:..\..\..\..\PSoC6_101\Sensor/driver_max30102.c ****  * @note      none
 291:..\..\..\..\PSoC6_101\Sensor/driver_max30102.c ****  */
 292:..\..\..\..\PSoC6_101\Sensor/driver_max30102.c **** uint8_t max30102_irq_handler(max30102_handle_t *handle)
 293:..\..\..\..\PSoC6_101\Sensor/driver_max30102.c **** {
 644              		.loc 1 293 0
 645              		.cfi_startproc
 646              		@ args = 0, pretend = 0, frame = 16
 647              		@ frame_needed = 1, uses_anonymous_args = 0
 648 0000 90B5     		push	{r4, r7, lr}
 649              		.cfi_def_cfa_offset 12
 650              		.cfi_offset 4, -12
 651              		.cfi_offset 7, -8
 652              		.cfi_offset 14, -4
 653 0002 85B0     		sub	sp, sp, #20
ARM GAS  C:\Users\49148\AppData\Local\Temp\ccWN5cWv.s 			page 19


 654              		.cfi_def_cfa_offset 32
 655 0004 00AF     		add	r7, sp, #0
 656              		.cfi_def_cfa_register 7
 657 0006 7860     		str	r0, [r7, #4]
 294:..\..\..\..\PSoC6_101\Sensor/driver_max30102.c ****     uint8_t res;
 295:..\..\..\..\PSoC6_101\Sensor/driver_max30102.c ****     uint8_t prev;
 296:..\..\..\..\PSoC6_101\Sensor/driver_max30102.c ****     
 297:..\..\..\..\PSoC6_101\Sensor/driver_max30102.c ****     if (handle == NULL)                                                                            
 658              		.loc 1 297 0
 659 0008 7B68     		ldr	r3, [r7, #4]
 660 000a 002B     		cmp	r3, #0
 661 000c 01D1     		bne	.L35
 298:..\..\..\..\PSoC6_101\Sensor/driver_max30102.c ****     {
 299:..\..\..\..\PSoC6_101\Sensor/driver_max30102.c ****         return 2;                                                                                  
 662              		.loc 1 299 0
 663 000e 0223     		movs	r3, #2
 664 0010 B6E0     		b	.L49
 665              	.L35:
 300:..\..\..\..\PSoC6_101\Sensor/driver_max30102.c ****     }
 301:..\..\..\..\PSoC6_101\Sensor/driver_max30102.c ****     if (handle->inited != 1)                                                                       
 666              		.loc 1 301 0
 667 0012 7B68     		ldr	r3, [r7, #4]
 668 0014 1B7F     		ldrb	r3, [r3, #28]	@ zero_extendqisi2
 669 0016 012B     		cmp	r3, #1
 670 0018 01D0     		beq	.L37
 302:..\..\..\..\PSoC6_101\Sensor/driver_max30102.c ****     {
 303:..\..\..\..\PSoC6_101\Sensor/driver_max30102.c ****         return 3;                                                                                  
 671              		.loc 1 303 0
 672 001a 0323     		movs	r3, #3
 673 001c B0E0     		b	.L49
 674              	.L37:
 304:..\..\..\..\PSoC6_101\Sensor/driver_max30102.c ****     }
 305:..\..\..\..\PSoC6_101\Sensor/driver_max30102.c ****     
 306:..\..\..\..\PSoC6_101\Sensor/driver_max30102.c ****     res = handle->iic_read(MAX30102_ADDRESS, MAX30102_REG_INTERRUPT_STATUS_1, (uint8_t *)&prev, 1);
 675              		.loc 1 306 0
 676 001e 7B68     		ldr	r3, [r7, #4]
 677 0020 9C68     		ldr	r4, [r3, #8]
 678 0022 07F10E02 		add	r2, r7, #14
 679 0026 0123     		movs	r3, #1
 680 0028 0021     		movs	r1, #0
 681 002a AE20     		movs	r0, #174
 682 002c A047     		blx	r4
 683 002e 0346     		mov	r3, r0
 684 0030 FB73     		strb	r3, [r7, #15]
 307:..\..\..\..\PSoC6_101\Sensor/driver_max30102.c ****     if (res != 0)                                                                                  
 685              		.loc 1 307 0
 686 0032 FB7B     		ldrb	r3, [r7, #15]	@ zero_extendqisi2
 687 0034 002B     		cmp	r3, #0
 688 0036 05D0     		beq	.L38
 308:..\..\..\..\PSoC6_101\Sensor/driver_max30102.c ****     {
 309:..\..\..\..\PSoC6_101\Sensor/driver_max30102.c ****         handle->debug_print("max30102: read interrupt status1 failed.\n");                         
 689              		.loc 1 309 0
 690 0038 7B68     		ldr	r3, [r7, #4]
 691 003a 9B69     		ldr	r3, [r3, #24]
 692 003c 5248     		ldr	r0, .L50
 693 003e 9847     		blx	r3
 310:..\..\..\..\PSoC6_101\Sensor/driver_max30102.c ****        
ARM GAS  C:\Users\49148\AppData\Local\Temp\ccWN5cWv.s 			page 20


 311:..\..\..\..\PSoC6_101\Sensor/driver_max30102.c ****         return 1;                                                                                  
 694              		.loc 1 311 0
 695 0040 0123     		movs	r3, #1
 696 0042 9DE0     		b	.L49
 697              	.L38:
 312:..\..\..\..\PSoC6_101\Sensor/driver_max30102.c ****     }
 313:..\..\..\..\PSoC6_101\Sensor/driver_max30102.c ****     if ((prev & (1 << MAX30102_INTERRUPT_STATUS_FIFO_FULL)) != 0)                                  
 698              		.loc 1 313 0
 699 0044 BB7B     		ldrb	r3, [r7, #14]	@ zero_extendqisi2
 700 0046 5BB2     		sxtb	r3, r3
 701 0048 002B     		cmp	r3, #0
 702 004a 07DA     		bge	.L39
 314:..\..\..\..\PSoC6_101\Sensor/driver_max30102.c ****     {
 315:..\..\..\..\PSoC6_101\Sensor/driver_max30102.c ****         if (handle->receive_callback != NULL)                                                      
 703              		.loc 1 315 0
 704 004c 7B68     		ldr	r3, [r7, #4]
 705 004e 1B69     		ldr	r3, [r3, #16]
 706 0050 002B     		cmp	r3, #0
 707 0052 03D0     		beq	.L39
 316:..\..\..\..\PSoC6_101\Sensor/driver_max30102.c ****         {
 317:..\..\..\..\PSoC6_101\Sensor/driver_max30102.c ****             handle->receive_callback(MAX30102_INTERRUPT_STATUS_FIFO_FULL);                         
 708              		.loc 1 317 0
 709 0054 7B68     		ldr	r3, [r7, #4]
 710 0056 1B69     		ldr	r3, [r3, #16]
 711 0058 0720     		movs	r0, #7
 712 005a 9847     		blx	r3
 713              	.L39:
 318:..\..\..\..\PSoC6_101\Sensor/driver_max30102.c ****         }
 319:..\..\..\..\PSoC6_101\Sensor/driver_max30102.c ****     }
 320:..\..\..\..\PSoC6_101\Sensor/driver_max30102.c ****     if ((prev & (1 << MAX30102_INTERRUPT_STATUS_PPG_RDY)) != 0)                                    
 714              		.loc 1 320 0
 715 005c BB7B     		ldrb	r3, [r7, #14]	@ zero_extendqisi2
 716 005e 03F04003 		and	r3, r3, #64
 717 0062 002B     		cmp	r3, #0
 718 0064 07D0     		beq	.L40
 321:..\..\..\..\PSoC6_101\Sensor/driver_max30102.c ****     {
 322:..\..\..\..\PSoC6_101\Sensor/driver_max30102.c ****         if (handle->receive_callback != NULL)                                                      
 719              		.loc 1 322 0
 720 0066 7B68     		ldr	r3, [r7, #4]
 721 0068 1B69     		ldr	r3, [r3, #16]
 722 006a 002B     		cmp	r3, #0
 723 006c 03D0     		beq	.L40
 323:..\..\..\..\PSoC6_101\Sensor/driver_max30102.c ****         {
 324:..\..\..\..\PSoC6_101\Sensor/driver_max30102.c ****             handle->receive_callback(MAX30102_INTERRUPT_STATUS_PPG_RDY);                           
 724              		.loc 1 324 0
 725 006e 7B68     		ldr	r3, [r7, #4]
 726 0070 1B69     		ldr	r3, [r3, #16]
 727 0072 0620     		movs	r0, #6
 728 0074 9847     		blx	r3
 729              	.L40:
 325:..\..\..\..\PSoC6_101\Sensor/driver_max30102.c ****         }
 326:..\..\..\..\PSoC6_101\Sensor/driver_max30102.c ****     }
 327:..\..\..\..\PSoC6_101\Sensor/driver_max30102.c ****     if ((prev & (1 << MAX30102_INTERRUPT_STATUS_ALC_OVF)) != 0)                                    
 730              		.loc 1 327 0
 731 0076 BB7B     		ldrb	r3, [r7, #14]	@ zero_extendqisi2
 732 0078 03F02003 		and	r3, r3, #32
 733 007c 002B     		cmp	r3, #0
ARM GAS  C:\Users\49148\AppData\Local\Temp\ccWN5cWv.s 			page 21


 734 007e 07D0     		beq	.L41
 328:..\..\..\..\PSoC6_101\Sensor/driver_max30102.c ****     {
 329:..\..\..\..\PSoC6_101\Sensor/driver_max30102.c ****         if (handle->receive_callback != NULL)                                                      
 735              		.loc 1 329 0
 736 0080 7B68     		ldr	r3, [r7, #4]
 737 0082 1B69     		ldr	r3, [r3, #16]
 738 0084 002B     		cmp	r3, #0
 739 0086 03D0     		beq	.L41
 330:..\..\..\..\PSoC6_101\Sensor/driver_max30102.c ****         {
 331:..\..\..\..\PSoC6_101\Sensor/driver_max30102.c ****             handle->receive_callback(MAX30102_INTERRUPT_STATUS_ALC_OVF);                           
 740              		.loc 1 331 0
 741 0088 7B68     		ldr	r3, [r7, #4]
 742 008a 1B69     		ldr	r3, [r3, #16]
 743 008c 0520     		movs	r0, #5
 744 008e 9847     		blx	r3
 745              	.L41:
 332:..\..\..\..\PSoC6_101\Sensor/driver_max30102.c ****         }
 333:..\..\..\..\PSoC6_101\Sensor/driver_max30102.c ****     }
 334:..\..\..\..\PSoC6_101\Sensor/driver_max30102.c ****     if ((prev & (1 << MAX30102_INTERRUPT_STATUS_PWR_RDY)) != 0)                                    
 746              		.loc 1 334 0
 747 0090 BB7B     		ldrb	r3, [r7, #14]	@ zero_extendqisi2
 748 0092 03F00103 		and	r3, r3, #1
 749 0096 002B     		cmp	r3, #0
 750 0098 07D0     		beq	.L42
 335:..\..\..\..\PSoC6_101\Sensor/driver_max30102.c ****     {
 336:..\..\..\..\PSoC6_101\Sensor/driver_max30102.c ****         if (handle->receive_callback != NULL)                                                      
 751              		.loc 1 336 0
 752 009a 7B68     		ldr	r3, [r7, #4]
 753 009c 1B69     		ldr	r3, [r3, #16]
 754 009e 002B     		cmp	r3, #0
 755 00a0 03D0     		beq	.L42
 337:..\..\..\..\PSoC6_101\Sensor/driver_max30102.c ****         {
 338:..\..\..\..\PSoC6_101\Sensor/driver_max30102.c ****             handle->receive_callback(MAX30102_INTERRUPT_STATUS_PWR_RDY);                           
 756              		.loc 1 338 0
 757 00a2 7B68     		ldr	r3, [r7, #4]
 758 00a4 1B69     		ldr	r3, [r3, #16]
 759 00a6 0020     		movs	r0, #0
 760 00a8 9847     		blx	r3
 761              	.L42:
 339:..\..\..\..\PSoC6_101\Sensor/driver_max30102.c ****         }
 340:..\..\..\..\PSoC6_101\Sensor/driver_max30102.c ****     }
 341:..\..\..\..\PSoC6_101\Sensor/driver_max30102.c ****     res = handle->iic_read(MAX30102_ADDRESS, MAX30102_REG_INTERRUPT_STATUS_2, (uint8_t *)&prev, 1);
 762              		.loc 1 341 0
 763 00aa 7B68     		ldr	r3, [r7, #4]
 764 00ac 9C68     		ldr	r4, [r3, #8]
 765 00ae 07F10E02 		add	r2, r7, #14
 766 00b2 0123     		movs	r3, #1
 767 00b4 0121     		movs	r1, #1
 768 00b6 AE20     		movs	r0, #174
 769 00b8 A047     		blx	r4
 770 00ba 0346     		mov	r3, r0
 771 00bc FB73     		strb	r3, [r7, #15]
 342:..\..\..\..\PSoC6_101\Sensor/driver_max30102.c ****     if (res != 0)                                                                                  
 772              		.loc 1 342 0
 773 00be FB7B     		ldrb	r3, [r7, #15]	@ zero_extendqisi2
 774 00c0 002B     		cmp	r3, #0
 775 00c2 05D0     		beq	.L43
ARM GAS  C:\Users\49148\AppData\Local\Temp\ccWN5cWv.s 			page 22


 343:..\..\..\..\PSoC6_101\Sensor/driver_max30102.c ****     {
 344:..\..\..\..\PSoC6_101\Sensor/driver_max30102.c ****         handle->debug_print("max30102: read interrupt status2 failed.\n");                         
 776              		.loc 1 344 0
 777 00c4 7B68     		ldr	r3, [r7, #4]
 778 00c6 9B69     		ldr	r3, [r3, #24]
 779 00c8 3048     		ldr	r0, .L50+4
 780 00ca 9847     		blx	r3
 345:..\..\..\..\PSoC6_101\Sensor/driver_max30102.c ****        
 346:..\..\..\..\PSoC6_101\Sensor/driver_max30102.c ****         return 1;                                                                                  
 781              		.loc 1 346 0
 782 00cc 0123     		movs	r3, #1
 783 00ce 57E0     		b	.L49
 784              	.L43:
 347:..\..\..\..\PSoC6_101\Sensor/driver_max30102.c ****     }
 348:..\..\..\..\PSoC6_101\Sensor/driver_max30102.c ****     if ((prev & (1 << MAX30102_INTERRUPT_STATUS_DIE_TEMP_RDY)) != 0)                               
 785              		.loc 1 348 0
 786 00d0 BB7B     		ldrb	r3, [r7, #14]	@ zero_extendqisi2
 787 00d2 03F00203 		and	r3, r3, #2
 788 00d6 002B     		cmp	r3, #0
 789 00d8 51D0     		beq	.L44
 790              	.LBB2:
 349:..\..\..\..\PSoC6_101\Sensor/driver_max30102.c ****     {
 350:..\..\..\..\PSoC6_101\Sensor/driver_max30102.c ****         uint8_t prev1;
 351:..\..\..\..\PSoC6_101\Sensor/driver_max30102.c ****         
 352:..\..\..\..\PSoC6_101\Sensor/driver_max30102.c ****         res = handle->iic_read(MAX30102_ADDRESS, MAX30102_REG_DIE_TEMP_INTEGER, (uint8_t *)&prev, 1
 791              		.loc 1 352 0
 792 00da 7B68     		ldr	r3, [r7, #4]
 793 00dc 9C68     		ldr	r4, [r3, #8]
 794 00de 07F10E02 		add	r2, r7, #14
 795 00e2 0123     		movs	r3, #1
 796 00e4 1F21     		movs	r1, #31
 797 00e6 AE20     		movs	r0, #174
 798 00e8 A047     		blx	r4
 799 00ea 0346     		mov	r3, r0
 800 00ec FB73     		strb	r3, [r7, #15]
 353:..\..\..\..\PSoC6_101\Sensor/driver_max30102.c ****         if (res != 0)                                                                              
 801              		.loc 1 353 0
 802 00ee FB7B     		ldrb	r3, [r7, #15]	@ zero_extendqisi2
 803 00f0 002B     		cmp	r3, #0
 804 00f2 05D0     		beq	.L45
 354:..\..\..\..\PSoC6_101\Sensor/driver_max30102.c ****         {
 355:..\..\..\..\PSoC6_101\Sensor/driver_max30102.c ****             handle->debug_print("max30102: read die temp integer failed.\n");                      
 805              		.loc 1 355 0
 806 00f4 7B68     		ldr	r3, [r7, #4]
 807 00f6 9B69     		ldr	r3, [r3, #24]
 808 00f8 2548     		ldr	r0, .L50+8
 809 00fa 9847     		blx	r3
 356:..\..\..\..\PSoC6_101\Sensor/driver_max30102.c ****            
 357:..\..\..\..\PSoC6_101\Sensor/driver_max30102.c ****             return 1;                                                                              
 810              		.loc 1 357 0
 811 00fc 0123     		movs	r3, #1
 812 00fe 3FE0     		b	.L49
 813              	.L45:
 358:..\..\..\..\PSoC6_101\Sensor/driver_max30102.c ****         }
 359:..\..\..\..\PSoC6_101\Sensor/driver_max30102.c ****         handle->raw = (uint16_t)prev << 4;                                                         
 814              		.loc 1 359 0
 815 0100 BB7B     		ldrb	r3, [r7, #14]	@ zero_extendqisi2
ARM GAS  C:\Users\49148\AppData\Local\Temp\ccWN5cWv.s 			page 23


 816 0102 9BB2     		uxth	r3, r3
 817 0104 1B01     		lsls	r3, r3, #4
 818 0106 9AB2     		uxth	r2, r3
 819 0108 7B68     		ldr	r3, [r7, #4]
 820 010a DA83     		strh	r2, [r3, #30]	@ movhi
 360:..\..\..\..\PSoC6_101\Sensor/driver_max30102.c ****         res = handle->iic_read(MAX30102_ADDRESS, MAX30102_REG_DIE_TEMP_FRACTION, (uint8_t *)&prev1,
 821              		.loc 1 360 0
 822 010c 7B68     		ldr	r3, [r7, #4]
 823 010e 9C68     		ldr	r4, [r3, #8]
 824 0110 07F10D02 		add	r2, r7, #13
 825 0114 0123     		movs	r3, #1
 826 0116 2021     		movs	r1, #32
 827 0118 AE20     		movs	r0, #174
 828 011a A047     		blx	r4
 829 011c 0346     		mov	r3, r0
 830 011e FB73     		strb	r3, [r7, #15]
 361:..\..\..\..\PSoC6_101\Sensor/driver_max30102.c ****         if (res != 0)                                                                              
 831              		.loc 1 361 0
 832 0120 FB7B     		ldrb	r3, [r7, #15]	@ zero_extendqisi2
 833 0122 002B     		cmp	r3, #0
 834 0124 05D0     		beq	.L47
 362:..\..\..\..\PSoC6_101\Sensor/driver_max30102.c ****         {
 363:..\..\..\..\PSoC6_101\Sensor/driver_max30102.c ****             handle->debug_print("max30102: read die temp fraction failed.\n");                     
 835              		.loc 1 363 0
 836 0126 7B68     		ldr	r3, [r7, #4]
 837 0128 9B69     		ldr	r3, [r3, #24]
 838 012a 1A48     		ldr	r0, .L50+12
 839 012c 9847     		blx	r3
 364:..\..\..\..\PSoC6_101\Sensor/driver_max30102.c ****            
 365:..\..\..\..\PSoC6_101\Sensor/driver_max30102.c ****             return 1;                                                                              
 840              		.loc 1 365 0
 841 012e 0123     		movs	r3, #1
 842 0130 26E0     		b	.L49
 843              	.L47:
 366:..\..\..\..\PSoC6_101\Sensor/driver_max30102.c ****         }
 367:..\..\..\..\PSoC6_101\Sensor/driver_max30102.c ****         handle->raw = handle->raw | prev1;                                                         
 844              		.loc 1 367 0
 845 0132 7B68     		ldr	r3, [r7, #4]
 846 0134 DA8B     		ldrh	r2, [r3, #30]
 847 0136 7B7B     		ldrb	r3, [r7, #13]	@ zero_extendqisi2
 848 0138 9BB2     		uxth	r3, r3
 849 013a 1343     		orrs	r3, r3, r2
 850 013c 9AB2     		uxth	r2, r3
 851 013e 7B68     		ldr	r3, [r7, #4]
 852 0140 DA83     		strh	r2, [r3, #30]	@ movhi
 368:..\..\..\..\PSoC6_101\Sensor/driver_max30102.c ****         handle->temperature = (float)(prev) + (float)(prev1) * 0.0625f;                            
 853              		.loc 1 368 0
 854 0142 BB7B     		ldrb	r3, [r7, #14]	@ zero_extendqisi2
 855 0144 07EE903A 		vmov	s15, r3	@ int
 856 0148 B8EE677A 		vcvt.f32.u32	s14, s15
 857 014c 7B7B     		ldrb	r3, [r7, #13]	@ zero_extendqisi2
 858 014e 07EE903A 		vmov	s15, r3	@ int
 859 0152 F8EE677A 		vcvt.f32.u32	s15, s15
 860 0156 DFED106A 		vldr.32	s13, .L50+16
 861 015a 67EEA67A 		vmul.f32	s15, s15, s13
 862 015e 77EE277A 		vadd.f32	s15, s14, s15
 863 0162 7B68     		ldr	r3, [r7, #4]
ARM GAS  C:\Users\49148\AppData\Local\Temp\ccWN5cWv.s 			page 24


 864 0164 C3ED087A 		vstr.32	s15, [r3, #32]
 369:..\..\..\..\PSoC6_101\Sensor/driver_max30102.c ****         handle->finished_flag = 1;                                                                 
 865              		.loc 1 369 0
 866 0168 7B68     		ldr	r3, [r7, #4]
 867 016a 0122     		movs	r2, #1
 868 016c 5A77     		strb	r2, [r3, #29]
 370:..\..\..\..\PSoC6_101\Sensor/driver_max30102.c ****         
 371:..\..\..\..\PSoC6_101\Sensor/driver_max30102.c ****         if (handle->receive_callback != NULL)                                                      
 869              		.loc 1 371 0
 870 016e 7B68     		ldr	r3, [r7, #4]
 871 0170 1B69     		ldr	r3, [r3, #16]
 872 0172 002B     		cmp	r3, #0
 873 0174 03D0     		beq	.L44
 372:..\..\..\..\PSoC6_101\Sensor/driver_max30102.c ****         {
 373:..\..\..\..\PSoC6_101\Sensor/driver_max30102.c ****             handle->receive_callback(MAX30102_INTERRUPT_STATUS_DIE_TEMP_RDY);                      
 874              		.loc 1 373 0
 875 0176 7B68     		ldr	r3, [r7, #4]
 876 0178 1B69     		ldr	r3, [r3, #16]
 877 017a 0120     		movs	r0, #1
 878 017c 9847     		blx	r3
 879              	.L44:
 880              	.LBE2:
 374:..\..\..\..\PSoC6_101\Sensor/driver_max30102.c ****         }
 375:..\..\..\..\PSoC6_101\Sensor/driver_max30102.c ****     }
 376:..\..\..\..\PSoC6_101\Sensor/driver_max30102.c ****     
 377:..\..\..\..\PSoC6_101\Sensor/driver_max30102.c ****     return 0;                                                                                      
 881              		.loc 1 377 0
 882 017e 0023     		movs	r3, #0
 883              	.L49:
 378:..\..\..\..\PSoC6_101\Sensor/driver_max30102.c **** }
 884              		.loc 1 378 0 discriminator 1
 885 0180 1846     		mov	r0, r3
 886 0182 1437     		adds	r7, r7, #20
 887              		.cfi_def_cfa_offset 12
 888 0184 BD46     		mov	sp, r7
 889              		.cfi_def_cfa_register 13
 890              		@ sp needed
 891 0186 90BD     		pop	{r4, r7, pc}
 892              	.L51:
 893              		.align	2
 894              	.L50:
 895 0188 2C020000 		.word	.LC16
 896 018c 58020000 		.word	.LC17
 897 0190 84020000 		.word	.LC18
 898 0194 B0020000 		.word	.LC19
 899 0198 0000803D 		.word	1031798784
 900              		.cfi_endproc
 901              	.LFE3:
 902              		.size	max30102_irq_handler, .-max30102_irq_handler
 903              		.section	.rodata
 904 02da 0000     		.align	2
 905              	.LC20:
 906 02dc 6D617833 		.ascii	"max30102: read overflow counter failed.\012\000"
 906      30313032 
 906      3A207265 
 906      6164206F 
 906      76657266 
ARM GAS  C:\Users\49148\AppData\Local\Temp\ccWN5cWv.s 			page 25


 907 0305 000000   		.align	2
 908              	.LC21:
 909 0308 6D617833 		.ascii	"max30102: fifo overrun.\012\000"
 909      30313032 
 909      3A206669 
 909      666F206F 
 909      76657272 
 910 0321 000000   		.align	2
 911              	.LC22:
 912 0324 6D617833 		.ascii	"max30102: read fifo read point failed.\012\000"
 912      30313032 
 912      3A207265 
 912      61642066 
 912      69666F20 
 913              		.align	2
 914              	.LC23:
 915 034c 6D617833 		.ascii	"max30102: read fifo write point failed.\012\000"
 915      30313032 
 915      3A207265 
 915      61642066 
 915      69666F20 
 916 0375 000000   		.align	2
 917              	.LC24:
 918 0378 6D617833 		.ascii	"max30105: mode is invalid.\012\000"
 918      30313035 
 918      3A206D6F 
 918      64652069 
 918      7320696E 
 919              		.align	2
 920              	.LC25:
 921 0394 6D617833 		.ascii	"max30102: read fifo data register failed.\012\000"
 921      30313032 
 921      3A207265 
 921      61642066 
 921      69666F20 
 922 03bf 00       		.align	2
 923              	.LC26:
 924 03c0 6D617833 		.ascii	"max30102: read spo2 config failed.\012\000"
 924      30313032 
 924      3A207265 
 924      61642073 
 924      706F3220 
 925              		.section	.text.max30102_read,"ax",%progbits
 926              		.align	2
 927              		.global	max30102_read
 928              		.thumb
 929              		.thumb_func
 930              		.type	max30102_read, %function
 931              	max30102_read:
 932              	.LFB4:
 379:..\..\..\..\PSoC6_101\Sensor/driver_max30102.c **** 
 380:..\..\..\..\PSoC6_101\Sensor/driver_max30102.c **** /**
 381:..\..\..\..\PSoC6_101\Sensor/driver_max30102.c ****  * @brief         read the data
 382:..\..\..\..\PSoC6_101\Sensor/driver_max30102.c ****  * @param[in]     *handle points to a max30102 handle structure
 383:..\..\..\..\PSoC6_101\Sensor/driver_max30102.c ****  * @param[out]    *raw_red points to a red raw data buffer
 384:..\..\..\..\PSoC6_101\Sensor/driver_max30102.c ****  * @param[out]    *raw_ir points to an ir raw data buffer
 385:..\..\..\..\PSoC6_101\Sensor/driver_max30102.c ****  * @param[in,out] *len points to a length buffer
ARM GAS  C:\Users\49148\AppData\Local\Temp\ccWN5cWv.s 			page 26


 386:..\..\..\..\PSoC6_101\Sensor/driver_max30102.c ****  * @return        status code
 387:..\..\..\..\PSoC6_101\Sensor/driver_max30102.c ****  *                - 0 success
 388:..\..\..\..\PSoC6_101\Sensor/driver_max30102.c ****  *                - 1 read failed
 389:..\..\..\..\PSoC6_101\Sensor/driver_max30102.c ****  *                - 2 handle is NULL
 390:..\..\..\..\PSoC6_101\Sensor/driver_max30102.c ****  *                - 3 handle is not initialized
 391:..\..\..\..\PSoC6_101\Sensor/driver_max30102.c ****  *                - 4 fifo overrun
 392:..\..\..\..\PSoC6_101\Sensor/driver_max30102.c ****  *                - 5 mode is invalid
 393:..\..\..\..\PSoC6_101\Sensor/driver_max30102.c ****  * @note          none
 394:..\..\..\..\PSoC6_101\Sensor/driver_max30102.c ****  */
 395:..\..\..\..\PSoC6_101\Sensor/driver_max30102.c **** uint8_t max30102_read(max30102_handle_t *handle, uint32_t *raw_red, uint32_t *raw_ir, uint8_t *len)
 396:..\..\..\..\PSoC6_101\Sensor/driver_max30102.c **** {
 933              		.loc 1 396 0
 934              		.cfi_startproc
 935              		@ args = 0, pretend = 0, frame = 32
 936              		@ frame_needed = 1, uses_anonymous_args = 0
 937 0000 90B5     		push	{r4, r7, lr}
 938              		.cfi_def_cfa_offset 12
 939              		.cfi_offset 4, -12
 940              		.cfi_offset 7, -8
 941              		.cfi_offset 14, -4
 942 0002 89B0     		sub	sp, sp, #36
 943              		.cfi_def_cfa_offset 48
 944 0004 00AF     		add	r7, sp, #0
 945              		.cfi_def_cfa_register 7
 946 0006 F860     		str	r0, [r7, #12]
 947 0008 B960     		str	r1, [r7, #8]
 948 000a 7A60     		str	r2, [r7, #4]
 949 000c 3B60     		str	r3, [r7]
 397:..\..\..\..\PSoC6_101\Sensor/driver_max30102.c ****     uint8_t res;
 398:..\..\..\..\PSoC6_101\Sensor/driver_max30102.c ****     uint8_t prev;
 399:..\..\..\..\PSoC6_101\Sensor/driver_max30102.c ****     uint8_t mode;
 400:..\..\..\..\PSoC6_101\Sensor/driver_max30102.c ****     uint8_t k;
 401:..\..\..\..\PSoC6_101\Sensor/driver_max30102.c ****     uint8_t read_point;
 402:..\..\..\..\PSoC6_101\Sensor/driver_max30102.c ****     uint8_t write_point;
 403:..\..\..\..\PSoC6_101\Sensor/driver_max30102.c ****     uint8_t l;
 404:..\..\..\..\PSoC6_101\Sensor/driver_max30102.c ****     uint8_t bit;
 405:..\..\..\..\PSoC6_101\Sensor/driver_max30102.c ****     uint8_t i;
 406:..\..\..\..\PSoC6_101\Sensor/driver_max30102.c ****     uint8_t r;
 407:..\..\..\..\PSoC6_101\Sensor/driver_max30102.c ****     
 408:..\..\..\..\PSoC6_101\Sensor/driver_max30102.c ****     if (handle == NULL)                                                                            
 950              		.loc 1 408 0
 951 000e FB68     		ldr	r3, [r7, #12]
 952 0010 002B     		cmp	r3, #0
 953 0012 01D1     		bne	.L53
 409:..\..\..\..\PSoC6_101\Sensor/driver_max30102.c ****     {
 410:..\..\..\..\PSoC6_101\Sensor/driver_max30102.c ****         return 2;                                                                                  
 954              		.loc 1 410 0
 955 0014 0223     		movs	r3, #2
 956 0016 91E1     		b	.L77
 957              	.L53:
 411:..\..\..\..\PSoC6_101\Sensor/driver_max30102.c ****     }
 412:..\..\..\..\PSoC6_101\Sensor/driver_max30102.c ****     if (handle->inited != 1)                                                                       
 958              		.loc 1 412 0
 959 0018 FB68     		ldr	r3, [r7, #12]
 960 001a 1B7F     		ldrb	r3, [r3, #28]	@ zero_extendqisi2
 961 001c 012B     		cmp	r3, #1
 962 001e 01D0     		beq	.L55
ARM GAS  C:\Users\49148\AppData\Local\Temp\ccWN5cWv.s 			page 27


 413:..\..\..\..\PSoC6_101\Sensor/driver_max30102.c ****     {
 414:..\..\..\..\PSoC6_101\Sensor/driver_max30102.c ****         return 3;                                                                                  
 963              		.loc 1 414 0
 964 0020 0323     		movs	r3, #3
 965 0022 8BE1     		b	.L77
 966              	.L55:
 415:..\..\..\..\PSoC6_101\Sensor/driver_max30102.c ****     }
 416:..\..\..\..\PSoC6_101\Sensor/driver_max30102.c ****     
 417:..\..\..\..\PSoC6_101\Sensor/driver_max30102.c ****     res = handle->iic_read(MAX30102_ADDRESS, MAX30102_REG_OVERFLOW_COUNTER, (uint8_t *)&prev, 1);  
 967              		.loc 1 417 0
 968 0024 FB68     		ldr	r3, [r7, #12]
 969 0026 9C68     		ldr	r4, [r3, #8]
 970 0028 07F11802 		add	r2, r7, #24
 971 002c 0123     		movs	r3, #1
 972 002e 0521     		movs	r1, #5
 973 0030 AE20     		movs	r0, #174
 974 0032 A047     		blx	r4
 975 0034 0346     		mov	r3, r0
 976 0036 BB76     		strb	r3, [r7, #26]
 418:..\..\..\..\PSoC6_101\Sensor/driver_max30102.c ****     if (res != 0)                                                                                  
 977              		.loc 1 418 0
 978 0038 BB7E     		ldrb	r3, [r7, #26]	@ zero_extendqisi2
 979 003a 002B     		cmp	r3, #0
 980 003c 05D0     		beq	.L56
 419:..\..\..\..\PSoC6_101\Sensor/driver_max30102.c ****     {
 420:..\..\..\..\PSoC6_101\Sensor/driver_max30102.c ****         handle->debug_print("max30102: read overflow counter failed.\n");                          
 981              		.loc 1 420 0
 982 003e FB68     		ldr	r3, [r7, #12]
 983 0040 9B69     		ldr	r3, [r3, #24]
 984 0042 7D48     		ldr	r0, .L78
 985 0044 9847     		blx	r3
 421:..\..\..\..\PSoC6_101\Sensor/driver_max30102.c ****        
 422:..\..\..\..\PSoC6_101\Sensor/driver_max30102.c ****         return 1;                                                                                  
 986              		.loc 1 422 0
 987 0046 0123     		movs	r3, #1
 988 0048 78E1     		b	.L77
 989              	.L56:
 423:..\..\..\..\PSoC6_101\Sensor/driver_max30102.c ****     }
 424:..\..\..\..\PSoC6_101\Sensor/driver_max30102.c ****     r = 0;                                                                                         
 990              		.loc 1 424 0
 991 004a 0023     		movs	r3, #0
 992 004c FB76     		strb	r3, [r7, #27]
 425:..\..\..\..\PSoC6_101\Sensor/driver_max30102.c ****     if (prev != 0)                                                                                 
 993              		.loc 1 425 0
 994 004e 3B7E     		ldrb	r3, [r7, #24]	@ zero_extendqisi2
 995 0050 002B     		cmp	r3, #0
 996 0052 05D0     		beq	.L57
 426:..\..\..\..\PSoC6_101\Sensor/driver_max30102.c ****     {
 427:..\..\..\..\PSoC6_101\Sensor/driver_max30102.c ****         r = 4;                                                                                     
 997              		.loc 1 427 0
 998 0054 0423     		movs	r3, #4
 999 0056 FB76     		strb	r3, [r7, #27]
 428:..\..\..\..\PSoC6_101\Sensor/driver_max30102.c ****         
 429:..\..\..\..\PSoC6_101\Sensor/driver_max30102.c ****         handle->debug_print("max30102: fifo overrun.\n");                                          
 1000              		.loc 1 429 0
 1001 0058 FB68     		ldr	r3, [r7, #12]
 1002 005a 9B69     		ldr	r3, [r3, #24]
ARM GAS  C:\Users\49148\AppData\Local\Temp\ccWN5cWv.s 			page 28


 1003 005c 7748     		ldr	r0, .L78+4
 1004 005e 9847     		blx	r3
 1005              	.L57:
 430:..\..\..\..\PSoC6_101\Sensor/driver_max30102.c ****     }
 431:..\..\..\..\PSoC6_101\Sensor/driver_max30102.c ****     res = handle->iic_read(MAX30102_ADDRESS, MAX30102_REG_FIFO_READ_POINTER, (uint8_t *)&read_point
 1006              		.loc 1 431 0
 1007 0060 FB68     		ldr	r3, [r7, #12]
 1008 0062 9C68     		ldr	r4, [r3, #8]
 1009 0064 07F11702 		add	r2, r7, #23
 1010 0068 0123     		movs	r3, #1
 1011 006a 0621     		movs	r1, #6
 1012 006c AE20     		movs	r0, #174
 1013 006e A047     		blx	r4
 1014 0070 0346     		mov	r3, r0
 1015 0072 BB76     		strb	r3, [r7, #26]
 432:..\..\..\..\PSoC6_101\Sensor/driver_max30102.c ****     if (res != 0)                                                                                  
 1016              		.loc 1 432 0
 1017 0074 BB7E     		ldrb	r3, [r7, #26]	@ zero_extendqisi2
 1018 0076 002B     		cmp	r3, #0
 1019 0078 05D0     		beq	.L58
 433:..\..\..\..\PSoC6_101\Sensor/driver_max30102.c ****     {
 434:..\..\..\..\PSoC6_101\Sensor/driver_max30102.c ****         handle->debug_print("max30102: read fifo read point failed.\n");                           
 1020              		.loc 1 434 0
 1021 007a FB68     		ldr	r3, [r7, #12]
 1022 007c 9B69     		ldr	r3, [r3, #24]
 1023 007e 7048     		ldr	r0, .L78+8
 1024 0080 9847     		blx	r3
 435:..\..\..\..\PSoC6_101\Sensor/driver_max30102.c ****        
 436:..\..\..\..\PSoC6_101\Sensor/driver_max30102.c ****         return 1;                                                                                  
 1025              		.loc 1 436 0
 1026 0082 0123     		movs	r3, #1
 1027 0084 5AE1     		b	.L77
 1028              	.L58:
 437:..\..\..\..\PSoC6_101\Sensor/driver_max30102.c ****     }
 438:..\..\..\..\PSoC6_101\Sensor/driver_max30102.c ****     res = handle->iic_read(MAX30102_ADDRESS, MAX30102_REG_FIFO_WRITE_POINTER, (uint8_t *)&write_poi
 1029              		.loc 1 438 0
 1030 0086 FB68     		ldr	r3, [r7, #12]
 1031 0088 9C68     		ldr	r4, [r3, #8]
 1032 008a 07F11602 		add	r2, r7, #22
 1033 008e 0123     		movs	r3, #1
 1034 0090 0421     		movs	r1, #4
 1035 0092 AE20     		movs	r0, #174
 1036 0094 A047     		blx	r4
 1037 0096 0346     		mov	r3, r0
 1038 0098 BB76     		strb	r3, [r7, #26]
 439:..\..\..\..\PSoC6_101\Sensor/driver_max30102.c ****     if (res != 0)                                                                                  
 1039              		.loc 1 439 0
 1040 009a BB7E     		ldrb	r3, [r7, #26]	@ zero_extendqisi2
 1041 009c 002B     		cmp	r3, #0
 1042 009e 05D0     		beq	.L59
 440:..\..\..\..\PSoC6_101\Sensor/driver_max30102.c ****     {
 441:..\..\..\..\PSoC6_101\Sensor/driver_max30102.c ****         handle->debug_print("max30102: read fifo write point failed.\n");                          
 1043              		.loc 1 441 0
 1044 00a0 FB68     		ldr	r3, [r7, #12]
 1045 00a2 9B69     		ldr	r3, [r3, #24]
 1046 00a4 6748     		ldr	r0, .L78+12
 1047 00a6 9847     		blx	r3
ARM GAS  C:\Users\49148\AppData\Local\Temp\ccWN5cWv.s 			page 29


 442:..\..\..\..\PSoC6_101\Sensor/driver_max30102.c ****        
 443:..\..\..\..\PSoC6_101\Sensor/driver_max30102.c ****         return 1;                                                                                  
 1048              		.loc 1 443 0
 1049 00a8 0123     		movs	r3, #1
 1050 00aa 47E1     		b	.L77
 1051              	.L59:
 444:..\..\..\..\PSoC6_101\Sensor/driver_max30102.c ****     }
 445:..\..\..\..\PSoC6_101\Sensor/driver_max30102.c ****     
 446:..\..\..\..\PSoC6_101\Sensor/driver_max30102.c ****     if (write_point > read_point)                                                                  
 1052              		.loc 1 446 0
 1053 00ac BA7D     		ldrb	r2, [r7, #22]	@ zero_extendqisi2
 1054 00ae FB7D     		ldrb	r3, [r7, #23]	@ zero_extendqisi2
 1055 00b0 9A42     		cmp	r2, r3
 1056 00b2 04D9     		bls	.L60
 447:..\..\..\..\PSoC6_101\Sensor/driver_max30102.c ****     {
 448:..\..\..\..\PSoC6_101\Sensor/driver_max30102.c ****         l = write_point - read_point;                                                              
 1057              		.loc 1 448 0
 1058 00b4 BA7D     		ldrb	r2, [r7, #22]	@ zero_extendqisi2
 1059 00b6 FB7D     		ldrb	r3, [r7, #23]	@ zero_extendqisi2
 1060 00b8 D31A     		subs	r3, r2, r3
 1061 00ba BB77     		strb	r3, [r7, #30]
 1062 00bc 05E0     		b	.L61
 1063              	.L60:
 449:..\..\..\..\PSoC6_101\Sensor/driver_max30102.c ****     }
 450:..\..\..\..\PSoC6_101\Sensor/driver_max30102.c ****     else
 451:..\..\..\..\PSoC6_101\Sensor/driver_max30102.c ****     {
 452:..\..\..\..\PSoC6_101\Sensor/driver_max30102.c ****         l = 32 + write_point - read_point;                                                         
 1064              		.loc 1 452 0
 1065 00be BA7D     		ldrb	r2, [r7, #22]	@ zero_extendqisi2
 1066 00c0 FB7D     		ldrb	r3, [r7, #23]	@ zero_extendqisi2
 1067 00c2 D31A     		subs	r3, r2, r3
 1068 00c4 DBB2     		uxtb	r3, r3
 1069 00c6 2033     		adds	r3, r3, #32
 1070 00c8 BB77     		strb	r3, [r7, #30]
 1071              	.L61:
 453:..\..\..\..\PSoC6_101\Sensor/driver_max30102.c ****     }
 454:..\..\..\..\PSoC6_101\Sensor/driver_max30102.c ****     *len = ((*len) > l) ? l : (*len);                                                              
 1072              		.loc 1 454 0
 1073 00ca 3B68     		ldr	r3, [r7]
 1074 00cc 1A78     		ldrb	r2, [r3]	@ zero_extendqisi2
 1075 00ce BB7F     		ldrb	r3, [r7, #30]	@ zero_extendqisi2
 1076 00d0 9342     		cmp	r3, r2
 1077 00d2 28BF     		it	cs
 1078 00d4 1346     		movcs	r3, r2
 1079 00d6 DAB2     		uxtb	r2, r3
 1080 00d8 3B68     		ldr	r3, [r7]
 1081 00da 1A70     		strb	r2, [r3]
 455:..\..\..\..\PSoC6_101\Sensor/driver_max30102.c ****     res = handle->iic_read(MAX30102_ADDRESS, MAX30102_REG_MODE_CONFIG, (uint8_t *)&prev, 1);       
 1082              		.loc 1 455 0
 1083 00dc FB68     		ldr	r3, [r7, #12]
 1084 00de 9C68     		ldr	r4, [r3, #8]
 1085 00e0 07F11802 		add	r2, r7, #24
 1086 00e4 0123     		movs	r3, #1
 1087 00e6 0921     		movs	r1, #9
 1088 00e8 AE20     		movs	r0, #174
 1089 00ea A047     		blx	r4
 1090 00ec 0346     		mov	r3, r0
ARM GAS  C:\Users\49148\AppData\Local\Temp\ccWN5cWv.s 			page 30


 1091 00ee BB76     		strb	r3, [r7, #26]
 456:..\..\..\..\PSoC6_101\Sensor/driver_max30102.c ****     if (res != 0)                                                                                  
 1092              		.loc 1 456 0
 1093 00f0 BB7E     		ldrb	r3, [r7, #26]	@ zero_extendqisi2
 1094 00f2 002B     		cmp	r3, #0
 1095 00f4 05D0     		beq	.L62
 457:..\..\..\..\PSoC6_101\Sensor/driver_max30102.c ****     {
 458:..\..\..\..\PSoC6_101\Sensor/driver_max30102.c ****         handle->debug_print("max30102: read mode config failed.\n");                               
 1096              		.loc 1 458 0
 1097 00f6 FB68     		ldr	r3, [r7, #12]
 1098 00f8 9B69     		ldr	r3, [r3, #24]
 1099 00fa 5348     		ldr	r0, .L78+16
 1100 00fc 9847     		blx	r3
 459:..\..\..\..\PSoC6_101\Sensor/driver_max30102.c ****        
 460:..\..\..\..\PSoC6_101\Sensor/driver_max30102.c ****         return 1;                                                                                  
 1101              		.loc 1 460 0
 1102 00fe 0123     		movs	r3, #1
 1103 0100 1CE1     		b	.L77
 1104              	.L62:
 461:..\..\..\..\PSoC6_101\Sensor/driver_max30102.c ****     }
 462:..\..\..\..\PSoC6_101\Sensor/driver_max30102.c ****     mode = (max30102_mode_t)(prev & 0x7);                                                          
 1105              		.loc 1 462 0
 1106 0102 3B7E     		ldrb	r3, [r7, #24]	@ zero_extendqisi2
 1107 0104 03F00703 		and	r3, r3, #7
 1108 0108 7B76     		strb	r3, [r7, #25]
 463:..\..\..\..\PSoC6_101\Sensor/driver_max30102.c ****     if (mode == MAX30102_MODE_HEART_RATE)                                                          
 1109              		.loc 1 463 0
 1110 010a 7B7E     		ldrb	r3, [r7, #25]	@ zero_extendqisi2
 1111 010c 022B     		cmp	r3, #2
 1112 010e 02D1     		bne	.L63
 464:..\..\..\..\PSoC6_101\Sensor/driver_max30102.c ****     {
 465:..\..\..\..\PSoC6_101\Sensor/driver_max30102.c ****         k = 3;                                                                                     
 1113              		.loc 1 465 0
 1114 0110 0323     		movs	r3, #3
 1115 0112 FB77     		strb	r3, [r7, #31]
 1116 0114 11E0     		b	.L64
 1117              	.L63:
 466:..\..\..\..\PSoC6_101\Sensor/driver_max30102.c ****     }
 467:..\..\..\..\PSoC6_101\Sensor/driver_max30102.c ****     else if (mode == MAX30102_MODE_SPO2)                                                           
 1118              		.loc 1 467 0
 1119 0116 7B7E     		ldrb	r3, [r7, #25]	@ zero_extendqisi2
 1120 0118 032B     		cmp	r3, #3
 1121 011a 02D1     		bne	.L65
 468:..\..\..\..\PSoC6_101\Sensor/driver_max30102.c ****     {
 469:..\..\..\..\PSoC6_101\Sensor/driver_max30102.c ****         k = 6;                                                                                     
 1122              		.loc 1 469 0
 1123 011c 0623     		movs	r3, #6
 1124 011e FB77     		strb	r3, [r7, #31]
 1125 0120 0BE0     		b	.L64
 1126              	.L65:
 470:..\..\..\..\PSoC6_101\Sensor/driver_max30102.c ****     }
 471:..\..\..\..\PSoC6_101\Sensor/driver_max30102.c ****     else if (mode == MAX30102_MODE_MULTI_LED)                                                      
 1127              		.loc 1 471 0
 1128 0122 7B7E     		ldrb	r3, [r7, #25]	@ zero_extendqisi2
 1129 0124 072B     		cmp	r3, #7
 1130 0126 02D1     		bne	.L66
 472:..\..\..\..\PSoC6_101\Sensor/driver_max30102.c ****     {
ARM GAS  C:\Users\49148\AppData\Local\Temp\ccWN5cWv.s 			page 31


 473:..\..\..\..\PSoC6_101\Sensor/driver_max30102.c ****         k = 6;                                                                                     
 1131              		.loc 1 473 0
 1132 0128 0623     		movs	r3, #6
 1133 012a FB77     		strb	r3, [r7, #31]
 1134 012c 05E0     		b	.L64
 1135              	.L66:
 474:..\..\..\..\PSoC6_101\Sensor/driver_max30102.c ****     }
 475:..\..\..\..\PSoC6_101\Sensor/driver_max30102.c ****     else
 476:..\..\..\..\PSoC6_101\Sensor/driver_max30102.c ****     {
 477:..\..\..\..\PSoC6_101\Sensor/driver_max30102.c ****         handle->debug_print("max30105: mode is invalid.\n");                                       
 1136              		.loc 1 477 0
 1137 012e FB68     		ldr	r3, [r7, #12]
 1138 0130 9B69     		ldr	r3, [r3, #24]
 1139 0132 4648     		ldr	r0, .L78+20
 1140 0134 9847     		blx	r3
 478:..\..\..\..\PSoC6_101\Sensor/driver_max30102.c ****        
 479:..\..\..\..\PSoC6_101\Sensor/driver_max30102.c ****         return 5;                                                                                  
 1141              		.loc 1 479 0
 1142 0136 0523     		movs	r3, #5
 1143 0138 00E1     		b	.L77
 1144              	.L64:
 480:..\..\..\..\PSoC6_101\Sensor/driver_max30102.c ****     }
 481:..\..\..\..\PSoC6_101\Sensor/driver_max30102.c ****     
 482:..\..\..\..\PSoC6_101\Sensor/driver_max30102.c ****     res = handle->iic_read(MAX30102_ADDRESS, MAX30102_REG_FIFO_DATA_REGISTER, handle->buf, (*len) *
 1145              		.loc 1 482 0
 1146 013a FB68     		ldr	r3, [r7, #12]
 1147 013c 9C68     		ldr	r4, [r3, #8]
 1148 013e FB68     		ldr	r3, [r7, #12]
 1149 0140 03F12401 		add	r1, r3, #36
 1150 0144 3B68     		ldr	r3, [r7]
 1151 0146 1B78     		ldrb	r3, [r3]	@ zero_extendqisi2
 1152 0148 9AB2     		uxth	r2, r3
 1153 014a FB7F     		ldrb	r3, [r7, #31]	@ zero_extendqisi2
 1154 014c 9BB2     		uxth	r3, r3
 1155 014e 12FB03F3 		smulbb	r3, r2, r3
 1156 0152 9BB2     		uxth	r3, r3
 1157 0154 0A46     		mov	r2, r1
 1158 0156 0721     		movs	r1, #7
 1159 0158 AE20     		movs	r0, #174
 1160 015a A047     		blx	r4
 1161 015c 0346     		mov	r3, r0
 1162 015e BB76     		strb	r3, [r7, #26]
 483:..\..\..\..\PSoC6_101\Sensor/driver_max30102.c ****     if (res != 0)                                                                                  
 1163              		.loc 1 483 0
 1164 0160 BB7E     		ldrb	r3, [r7, #26]	@ zero_extendqisi2
 1165 0162 002B     		cmp	r3, #0
 1166 0164 05D0     		beq	.L67
 484:..\..\..\..\PSoC6_101\Sensor/driver_max30102.c ****     {
 485:..\..\..\..\PSoC6_101\Sensor/driver_max30102.c ****         handle->debug_print("max30102: read fifo data register failed.\n");                        
 1167              		.loc 1 485 0
 1168 0166 FB68     		ldr	r3, [r7, #12]
 1169 0168 9B69     		ldr	r3, [r3, #24]
 1170 016a 3948     		ldr	r0, .L78+24
 1171 016c 9847     		blx	r3
 486:..\..\..\..\PSoC6_101\Sensor/driver_max30102.c ****        
 487:..\..\..\..\PSoC6_101\Sensor/driver_max30102.c ****         return 1;                                                                                  
 1172              		.loc 1 487 0
ARM GAS  C:\Users\49148\AppData\Local\Temp\ccWN5cWv.s 			page 32


 1173 016e 0123     		movs	r3, #1
 1174 0170 E4E0     		b	.L77
 1175              	.L67:
 488:..\..\..\..\PSoC6_101\Sensor/driver_max30102.c ****     }
 489:..\..\..\..\PSoC6_101\Sensor/driver_max30102.c ****     res = handle->iic_read(MAX30102_ADDRESS, MAX30102_REG_SPO2_CONFIG, (uint8_t *)&prev, 1);       
 1176              		.loc 1 489 0
 1177 0172 FB68     		ldr	r3, [r7, #12]
 1178 0174 9C68     		ldr	r4, [r3, #8]
 1179 0176 07F11802 		add	r2, r7, #24
 1180 017a 0123     		movs	r3, #1
 1181 017c 0A21     		movs	r1, #10
 1182 017e AE20     		movs	r0, #174
 1183 0180 A047     		blx	r4
 1184 0182 0346     		mov	r3, r0
 1185 0184 BB76     		strb	r3, [r7, #26]
 490:..\..\..\..\PSoC6_101\Sensor/driver_max30102.c ****     if (res != 0)                                                                                  
 1186              		.loc 1 490 0
 1187 0186 BB7E     		ldrb	r3, [r7, #26]	@ zero_extendqisi2
 1188 0188 002B     		cmp	r3, #0
 1189 018a 05D0     		beq	.L68
 491:..\..\..\..\PSoC6_101\Sensor/driver_max30102.c ****     {
 492:..\..\..\..\PSoC6_101\Sensor/driver_max30102.c ****         handle->debug_print("max30102: read spo2 config failed.\n");                               
 1190              		.loc 1 492 0
 1191 018c FB68     		ldr	r3, [r7, #12]
 1192 018e 9B69     		ldr	r3, [r3, #24]
 1193 0190 3048     		ldr	r0, .L78+28
 1194 0192 9847     		blx	r3
 493:..\..\..\..\PSoC6_101\Sensor/driver_max30102.c ****        
 494:..\..\..\..\PSoC6_101\Sensor/driver_max30102.c ****         return 1;                                                                                  
 1195              		.loc 1 494 0
 1196 0194 0123     		movs	r3, #1
 1197 0196 D1E0     		b	.L77
 1198              	.L68:
 495:..\..\..\..\PSoC6_101\Sensor/driver_max30102.c ****     }
 496:..\..\..\..\PSoC6_101\Sensor/driver_max30102.c ****     prev = prev & 0x3;                                                                             
 1199              		.loc 1 496 0
 1200 0198 3B7E     		ldrb	r3, [r7, #24]	@ zero_extendqisi2
 1201 019a 03F00303 		and	r3, r3, #3
 1202 019e DBB2     		uxtb	r3, r3
 1203 01a0 3B76     		strb	r3, [r7, #24]
 497:..\..\..\..\PSoC6_101\Sensor/driver_max30102.c ****     if (prev == 0)                                                                                 
 1204              		.loc 1 497 0
 1205 01a2 3B7E     		ldrb	r3, [r7, #24]	@ zero_extendqisi2
 1206 01a4 002B     		cmp	r3, #0
 1207 01a6 02D1     		bne	.L69
 498:..\..\..\..\PSoC6_101\Sensor/driver_max30102.c ****     {
 499:..\..\..\..\PSoC6_101\Sensor/driver_max30102.c ****         bit = 3;                                                                                   
 1208              		.loc 1 499 0
 1209 01a8 0323     		movs	r3, #3
 1210 01aa 7B77     		strb	r3, [r7, #29]
 1211 01ac 0DE0     		b	.L70
 1212              	.L69:
 500:..\..\..\..\PSoC6_101\Sensor/driver_max30102.c ****     }
 501:..\..\..\..\PSoC6_101\Sensor/driver_max30102.c ****     else if (prev == 1)                                                                            
 1213              		.loc 1 501 0
 1214 01ae 3B7E     		ldrb	r3, [r7, #24]	@ zero_extendqisi2
 1215 01b0 012B     		cmp	r3, #1
ARM GAS  C:\Users\49148\AppData\Local\Temp\ccWN5cWv.s 			page 33


 1216 01b2 02D1     		bne	.L71
 502:..\..\..\..\PSoC6_101\Sensor/driver_max30102.c ****     {
 503:..\..\..\..\PSoC6_101\Sensor/driver_max30102.c ****         bit = 2;                                                                                   
 1217              		.loc 1 503 0
 1218 01b4 0223     		movs	r3, #2
 1219 01b6 7B77     		strb	r3, [r7, #29]
 1220 01b8 07E0     		b	.L70
 1221              	.L71:
 504:..\..\..\..\PSoC6_101\Sensor/driver_max30102.c ****     }
 505:..\..\..\..\PSoC6_101\Sensor/driver_max30102.c ****     else if (prev == 2)                                                                            
 1222              		.loc 1 505 0
 1223 01ba 3B7E     		ldrb	r3, [r7, #24]	@ zero_extendqisi2
 1224 01bc 022B     		cmp	r3, #2
 1225 01be 02D1     		bne	.L72
 506:..\..\..\..\PSoC6_101\Sensor/driver_max30102.c ****     {
 507:..\..\..\..\PSoC6_101\Sensor/driver_max30102.c ****         bit = 1;                                                                                   
 1226              		.loc 1 507 0
 1227 01c0 0123     		movs	r3, #1
 1228 01c2 7B77     		strb	r3, [r7, #29]
 1229 01c4 01E0     		b	.L70
 1230              	.L72:
 508:..\..\..\..\PSoC6_101\Sensor/driver_max30102.c ****     }
 509:..\..\..\..\PSoC6_101\Sensor/driver_max30102.c ****     else                                                                                           
 510:..\..\..\..\PSoC6_101\Sensor/driver_max30102.c ****     {
 511:..\..\..\..\PSoC6_101\Sensor/driver_max30102.c ****         bit = 0;                                                                                   
 1231              		.loc 1 511 0
 1232 01c6 0023     		movs	r3, #0
 1233 01c8 7B77     		strb	r3, [r7, #29]
 1234              	.L70:
 512:..\..\..\..\PSoC6_101\Sensor/driver_max30102.c ****     }
 513:..\..\..\..\PSoC6_101\Sensor/driver_max30102.c ****     
 514:..\..\..\..\PSoC6_101\Sensor/driver_max30102.c ****     for (i = 0; i < (*len); i++)                                                                   
 1235              		.loc 1 514 0
 1236 01ca 0023     		movs	r3, #0
 1237 01cc 3B77     		strb	r3, [r7, #28]
 1238 01ce AEE0     		b	.L73
 1239              	.L76:
 515:..\..\..\..\PSoC6_101\Sensor/driver_max30102.c ****     {
 516:..\..\..\..\PSoC6_101\Sensor/driver_max30102.c ****         if (mode == MAX30102_MODE_HEART_RATE)                                                      
 1240              		.loc 1 516 0
 1241 01d0 7B7E     		ldrb	r3, [r7, #25]	@ zero_extendqisi2
 1242 01d2 022B     		cmp	r3, #2
 1243 01d4 40D1     		bne	.L74
 517:..\..\..\..\PSoC6_101\Sensor/driver_max30102.c ****         {
 518:..\..\..\..\PSoC6_101\Sensor/driver_max30102.c ****             raw_red[i] = ((uint32_t)handle->buf[i * 3 + 0] << 16) |                                
 1244              		.loc 1 518 0
 1245 01d6 3B7F     		ldrb	r3, [r7, #28]	@ zero_extendqisi2
 1246 01d8 9B00     		lsls	r3, r3, #2
 1247 01da BA68     		ldr	r2, [r7, #8]
 1248 01dc D118     		adds	r1, r2, r3
 1249 01de 3A7F     		ldrb	r2, [r7, #28]	@ zero_extendqisi2
 1250 01e0 1346     		mov	r3, r2
 1251 01e2 5B00     		lsls	r3, r3, #1
 1252 01e4 1344     		add	r3, r3, r2
 1253 01e6 FA68     		ldr	r2, [r7, #12]
 1254 01e8 1344     		add	r3, r3, r2
 1255 01ea 93F82430 		ldrb	r3, [r3, #36]	@ zero_extendqisi2
ARM GAS  C:\Users\49148\AppData\Local\Temp\ccWN5cWv.s 			page 34


 1256 01ee 1804     		lsls	r0, r3, #16
 519:..\..\..\..\PSoC6_101\Sensor/driver_max30102.c ****                          ((uint32_t)handle->buf[i * 3 + 1] << 8) |                                 
 1257              		.loc 1 519 0
 1258 01f0 3A7F     		ldrb	r2, [r7, #28]	@ zero_extendqisi2
 1259 01f2 1346     		mov	r3, r2
 1260 01f4 5B00     		lsls	r3, r3, #1
 1261 01f6 1344     		add	r3, r3, r2
 1262 01f8 0133     		adds	r3, r3, #1
 1263 01fa FA68     		ldr	r2, [r7, #12]
 1264 01fc 1344     		add	r3, r3, r2
 1265 01fe 93F82430 		ldrb	r3, [r3, #36]	@ zero_extendqisi2
 1266 0202 1B02     		lsls	r3, r3, #8
 518:..\..\..\..\PSoC6_101\Sensor/driver_max30102.c ****                          ((uint32_t)handle->buf[i * 3 + 1] << 8) |                                 
 1267              		.loc 1 518 0
 1268 0204 1843     		orrs	r0, r0, r3
 520:..\..\..\..\PSoC6_101\Sensor/driver_max30102.c ****                          ((uint32_t)handle->buf[i * 3 + 2] << 0);                                  
 1269              		.loc 1 520 0
 1270 0206 3A7F     		ldrb	r2, [r7, #28]	@ zero_extendqisi2
 1271 0208 1346     		mov	r3, r2
 1272 020a 5B00     		lsls	r3, r3, #1
 1273 020c 1344     		add	r3, r3, r2
 1274 020e 0233     		adds	r3, r3, #2
 1275 0210 FA68     		ldr	r2, [r7, #12]
 1276 0212 1344     		add	r3, r3, r2
 1277 0214 93F82430 		ldrb	r3, [r3, #36]	@ zero_extendqisi2
 519:..\..\..\..\PSoC6_101\Sensor/driver_max30102.c ****                          ((uint32_t)handle->buf[i * 3 + 1] << 8) |                                 
 1278              		.loc 1 519 0
 1279 0218 0343     		orrs	r3, r3, r0
 518:..\..\..\..\PSoC6_101\Sensor/driver_max30102.c ****                          ((uint32_t)handle->buf[i * 3 + 1] << 8) |                                 
 1280              		.loc 1 518 0
 1281 021a 0B60     		str	r3, [r1]
 521:..\..\..\..\PSoC6_101\Sensor/driver_max30102.c ****             raw_red[i] = raw_red[i] >> bit;                                                        
 1282              		.loc 1 521 0
 1283 021c 3B7F     		ldrb	r3, [r7, #28]	@ zero_extendqisi2
 1284 021e 9B00     		lsls	r3, r3, #2
 1285 0220 BA68     		ldr	r2, [r7, #8]
 1286 0222 1344     		add	r3, r3, r2
 1287 0224 3A7F     		ldrb	r2, [r7, #28]	@ zero_extendqisi2
 1288 0226 9200     		lsls	r2, r2, #2
 1289 0228 B968     		ldr	r1, [r7, #8]
 1290 022a 0A44     		add	r2, r2, r1
 1291 022c 1168     		ldr	r1, [r2]
 1292 022e 7A7F     		ldrb	r2, [r7, #29]	@ zero_extendqisi2
 1293 0230 21FA02F2 		lsr	r2, r1, r2
 1294 0234 1A60     		str	r2, [r3]
 1295 0236 77E0     		b	.L75
 1296              	.L79:
 1297              		.align	2
 1298              	.L78:
 1299 0238 DC020000 		.word	.LC20
 1300 023c 08030000 		.word	.LC21
 1301 0240 24030000 		.word	.LC22
 1302 0244 4C030000 		.word	.LC23
 1303 0248 20010000 		.word	.LC9
 1304 024c 78030000 		.word	.LC24
 1305 0250 94030000 		.word	.LC25
 1306 0254 C0030000 		.word	.LC26
ARM GAS  C:\Users\49148\AppData\Local\Temp\ccWN5cWv.s 			page 35


 1307              	.L74:
 522:..\..\..\..\PSoC6_101\Sensor/driver_max30102.c ****         }
 523:..\..\..\..\PSoC6_101\Sensor/driver_max30102.c ****         else
 524:..\..\..\..\PSoC6_101\Sensor/driver_max30102.c ****         {
 525:..\..\..\..\PSoC6_101\Sensor/driver_max30102.c ****             raw_red[i] = ((uint32_t)handle->buf[i * 6 + 0] << 16) |                                
 1308              		.loc 1 525 0
 1309 0258 3B7F     		ldrb	r3, [r7, #28]	@ zero_extendqisi2
 1310 025a 9B00     		lsls	r3, r3, #2
 1311 025c BA68     		ldr	r2, [r7, #8]
 1312 025e D118     		adds	r1, r2, r3
 1313 0260 3A7F     		ldrb	r2, [r7, #28]	@ zero_extendqisi2
 1314 0262 1346     		mov	r3, r2
 1315 0264 5B00     		lsls	r3, r3, #1
 1316 0266 1344     		add	r3, r3, r2
 1317 0268 5B00     		lsls	r3, r3, #1
 1318 026a 1A46     		mov	r2, r3
 1319 026c FB68     		ldr	r3, [r7, #12]
 1320 026e 1344     		add	r3, r3, r2
 1321 0270 93F82430 		ldrb	r3, [r3, #36]	@ zero_extendqisi2
 1322 0274 1804     		lsls	r0, r3, #16
 526:..\..\..\..\PSoC6_101\Sensor/driver_max30102.c ****                          ((uint32_t)handle->buf[i * 6 + 1] << 8) |                                 
 1323              		.loc 1 526 0
 1324 0276 3A7F     		ldrb	r2, [r7, #28]	@ zero_extendqisi2
 1325 0278 1346     		mov	r3, r2
 1326 027a 5B00     		lsls	r3, r3, #1
 1327 027c 1344     		add	r3, r3, r2
 1328 027e 5B00     		lsls	r3, r3, #1
 1329 0280 0133     		adds	r3, r3, #1
 1330 0282 FA68     		ldr	r2, [r7, #12]
 1331 0284 1344     		add	r3, r3, r2
 1332 0286 93F82430 		ldrb	r3, [r3, #36]	@ zero_extendqisi2
 1333 028a 1B02     		lsls	r3, r3, #8
 525:..\..\..\..\PSoC6_101\Sensor/driver_max30102.c ****                          ((uint32_t)handle->buf[i * 6 + 1] << 8) |                                 
 1334              		.loc 1 525 0
 1335 028c 1843     		orrs	r0, r0, r3
 527:..\..\..\..\PSoC6_101\Sensor/driver_max30102.c ****                          ((uint32_t)handle->buf[i * 6 + 2] << 0);                                  
 1336              		.loc 1 527 0
 1337 028e 3A7F     		ldrb	r2, [r7, #28]	@ zero_extendqisi2
 1338 0290 1346     		mov	r3, r2
 1339 0292 5B00     		lsls	r3, r3, #1
 1340 0294 1344     		add	r3, r3, r2
 1341 0296 5B00     		lsls	r3, r3, #1
 1342 0298 0233     		adds	r3, r3, #2
 1343 029a FA68     		ldr	r2, [r7, #12]
 1344 029c 1344     		add	r3, r3, r2
 1345 029e 93F82430 		ldrb	r3, [r3, #36]	@ zero_extendqisi2
 526:..\..\..\..\PSoC6_101\Sensor/driver_max30102.c ****                          ((uint32_t)handle->buf[i * 6 + 1] << 8) |                                 
 1346              		.loc 1 526 0
 1347 02a2 0343     		orrs	r3, r3, r0
 525:..\..\..\..\PSoC6_101\Sensor/driver_max30102.c ****                          ((uint32_t)handle->buf[i * 6 + 1] << 8) |                                 
 1348              		.loc 1 525 0
 1349 02a4 0B60     		str	r3, [r1]
 528:..\..\..\..\PSoC6_101\Sensor/driver_max30102.c ****             raw_red[i] = raw_red[i] >> bit;                                                        
 1350              		.loc 1 528 0
 1351 02a6 3B7F     		ldrb	r3, [r7, #28]	@ zero_extendqisi2
 1352 02a8 9B00     		lsls	r3, r3, #2
 1353 02aa BA68     		ldr	r2, [r7, #8]
ARM GAS  C:\Users\49148\AppData\Local\Temp\ccWN5cWv.s 			page 36


 1354 02ac 1344     		add	r3, r3, r2
 1355 02ae 3A7F     		ldrb	r2, [r7, #28]	@ zero_extendqisi2
 1356 02b0 9200     		lsls	r2, r2, #2
 1357 02b2 B968     		ldr	r1, [r7, #8]
 1358 02b4 0A44     		add	r2, r2, r1
 1359 02b6 1168     		ldr	r1, [r2]
 1360 02b8 7A7F     		ldrb	r2, [r7, #29]	@ zero_extendqisi2
 1361 02ba 21FA02F2 		lsr	r2, r1, r2
 1362 02be 1A60     		str	r2, [r3]
 529:..\..\..\..\PSoC6_101\Sensor/driver_max30102.c ****             raw_ir[i] = ((uint32_t)handle->buf[i * 6 + 3] << 16) |                                 
 1363              		.loc 1 529 0
 1364 02c0 3B7F     		ldrb	r3, [r7, #28]	@ zero_extendqisi2
 1365 02c2 9B00     		lsls	r3, r3, #2
 1366 02c4 7A68     		ldr	r2, [r7, #4]
 1367 02c6 D118     		adds	r1, r2, r3
 1368 02c8 3A7F     		ldrb	r2, [r7, #28]	@ zero_extendqisi2
 1369 02ca 1346     		mov	r3, r2
 1370 02cc 5B00     		lsls	r3, r3, #1
 1371 02ce 1344     		add	r3, r3, r2
 1372 02d0 5B00     		lsls	r3, r3, #1
 1373 02d2 0333     		adds	r3, r3, #3
 1374 02d4 FA68     		ldr	r2, [r7, #12]
 1375 02d6 1344     		add	r3, r3, r2
 1376 02d8 93F82430 		ldrb	r3, [r3, #36]	@ zero_extendqisi2
 1377 02dc 1804     		lsls	r0, r3, #16
 530:..\..\..\..\PSoC6_101\Sensor/driver_max30102.c ****                         ((uint32_t)handle->buf[i * 6 + 4] << 8) |                                  
 1378              		.loc 1 530 0
 1379 02de 3A7F     		ldrb	r2, [r7, #28]	@ zero_extendqisi2
 1380 02e0 1346     		mov	r3, r2
 1381 02e2 5B00     		lsls	r3, r3, #1
 1382 02e4 1344     		add	r3, r3, r2
 1383 02e6 5B00     		lsls	r3, r3, #1
 1384 02e8 0433     		adds	r3, r3, #4
 1385 02ea FA68     		ldr	r2, [r7, #12]
 1386 02ec 1344     		add	r3, r3, r2
 1387 02ee 93F82430 		ldrb	r3, [r3, #36]	@ zero_extendqisi2
 1388 02f2 1B02     		lsls	r3, r3, #8
 529:..\..\..\..\PSoC6_101\Sensor/driver_max30102.c ****             raw_ir[i] = ((uint32_t)handle->buf[i * 6 + 3] << 16) |                                 
 1389              		.loc 1 529 0
 1390 02f4 1843     		orrs	r0, r0, r3
 531:..\..\..\..\PSoC6_101\Sensor/driver_max30102.c ****                         ((uint32_t)handle->buf[i * 6 + 5] << 0);                                   
 1391              		.loc 1 531 0
 1392 02f6 3A7F     		ldrb	r2, [r7, #28]	@ zero_extendqisi2
 1393 02f8 1346     		mov	r3, r2
 1394 02fa 5B00     		lsls	r3, r3, #1
 1395 02fc 1344     		add	r3, r3, r2
 1396 02fe 5B00     		lsls	r3, r3, #1
 1397 0300 0533     		adds	r3, r3, #5
 1398 0302 FA68     		ldr	r2, [r7, #12]
 1399 0304 1344     		add	r3, r3, r2
 1400 0306 93F82430 		ldrb	r3, [r3, #36]	@ zero_extendqisi2
 530:..\..\..\..\PSoC6_101\Sensor/driver_max30102.c ****                         ((uint32_t)handle->buf[i * 6 + 4] << 8) |                                  
 1401              		.loc 1 530 0
 1402 030a 0343     		orrs	r3, r3, r0
 529:..\..\..\..\PSoC6_101\Sensor/driver_max30102.c ****             raw_ir[i] = ((uint32_t)handle->buf[i * 6 + 3] << 16) |                                 
 1403              		.loc 1 529 0
 1404 030c 0B60     		str	r3, [r1]
ARM GAS  C:\Users\49148\AppData\Local\Temp\ccWN5cWv.s 			page 37


 532:..\..\..\..\PSoC6_101\Sensor/driver_max30102.c ****             raw_ir[i] = raw_ir[i] >> bit;                                                          
 1405              		.loc 1 532 0
 1406 030e 3B7F     		ldrb	r3, [r7, #28]	@ zero_extendqisi2
 1407 0310 9B00     		lsls	r3, r3, #2
 1408 0312 7A68     		ldr	r2, [r7, #4]
 1409 0314 1344     		add	r3, r3, r2
 1410 0316 3A7F     		ldrb	r2, [r7, #28]	@ zero_extendqisi2
 1411 0318 9200     		lsls	r2, r2, #2
 1412 031a 7968     		ldr	r1, [r7, #4]
 1413 031c 0A44     		add	r2, r2, r1
 1414 031e 1168     		ldr	r1, [r2]
 1415 0320 7A7F     		ldrb	r2, [r7, #29]	@ zero_extendqisi2
 1416 0322 21FA02F2 		lsr	r2, r1, r2
 1417 0326 1A60     		str	r2, [r3]
 1418              	.L75:
 514:..\..\..\..\PSoC6_101\Sensor/driver_max30102.c ****     {
 1419              		.loc 1 514 0 discriminator 2
 1420 0328 3B7F     		ldrb	r3, [r7, #28]	@ zero_extendqisi2
 1421 032a 0133     		adds	r3, r3, #1
 1422 032c 3B77     		strb	r3, [r7, #28]
 1423              	.L73:
 514:..\..\..\..\PSoC6_101\Sensor/driver_max30102.c ****     {
 1424              		.loc 1 514 0 is_stmt 0 discriminator 1
 1425 032e 3B68     		ldr	r3, [r7]
 1426 0330 1B78     		ldrb	r3, [r3]	@ zero_extendqisi2
 1427 0332 3A7F     		ldrb	r2, [r7, #28]	@ zero_extendqisi2
 1428 0334 9A42     		cmp	r2, r3
 1429 0336 FFF44BAF 		bcc	.L76
 533:..\..\..\..\PSoC6_101\Sensor/driver_max30102.c ****         }
 534:..\..\..\..\PSoC6_101\Sensor/driver_max30102.c ****     }
 535:..\..\..\..\PSoC6_101\Sensor/driver_max30102.c ****     
 536:..\..\..\..\PSoC6_101\Sensor/driver_max30102.c ****     return r;                                                                                      
 1430              		.loc 1 536 0 is_stmt 1
 1431 033a FB7E     		ldrb	r3, [r7, #27]	@ zero_extendqisi2
 1432              	.L77:
 537:..\..\..\..\PSoC6_101\Sensor/driver_max30102.c **** }
 1433              		.loc 1 537 0 discriminator 1
 1434 033c 1846     		mov	r0, r3
 1435 033e 2437     		adds	r7, r7, #36
 1436              		.cfi_def_cfa_offset 12
 1437 0340 BD46     		mov	sp, r7
 1438              		.cfi_def_cfa_register 13
 1439              		@ sp needed
 1440 0342 90BD     		pop	{r4, r7, pc}
 1441              		.cfi_endproc
 1442              	.LFE4:
 1443              		.size	max30102_read, .-max30102_read
 1444              		.section	.rodata
 1445              		.align	2
 1446              	.LC27:
 1447 03e4 6D617833 		.ascii	"max30102: read interrupt enable2 failed.\012\000"
 1447      30313032 
 1447      3A207265 
 1447      61642069 
 1447      6E746572 
 1448 040e 0000     		.align	2
 1449              	.LC28:
ARM GAS  C:\Users\49148\AppData\Local\Temp\ccWN5cWv.s 			page 38


 1450 0410 6D617833 		.ascii	"max30102: write interrupt enable2 failed.\012\000"
 1450      30313032 
 1450      3A207772 
 1450      69746520 
 1450      696E7465 
 1451 043b 00       		.align	2
 1452              	.LC29:
 1453 043c 6D617833 		.ascii	"max30102: read die temp config failed.\012\000"
 1453      30313032 
 1453      3A207265 
 1453      61642064 
 1453      69652074 
 1454              		.align	2
 1455              	.LC30:
 1456 0464 6D617833 		.ascii	"max30102: write die temp config failed.\012\000"
 1456      30313032 
 1456      3A207772 
 1456      69746520 
 1456      64696520 
 1457 048d 000000   		.align	2
 1458              	.LC31:
 1459 0490 6D617833 		.ascii	"max30102: read timeout.\012\000"
 1459      30313032 
 1459      3A207265 
 1459      61642074 
 1459      696D656F 
 1460              		.section	.text.max30102_read_temperature,"ax",%progbits
 1461              		.align	2
 1462              		.global	max30102_read_temperature
 1463              		.thumb
 1464              		.thumb_func
 1465              		.type	max30102_read_temperature, %function
 1466              	max30102_read_temperature:
 1467              	.LFB5:
 538:..\..\..\..\PSoC6_101\Sensor/driver_max30102.c **** 
 539:..\..\..\..\PSoC6_101\Sensor/driver_max30102.c **** /**
 540:..\..\..\..\PSoC6_101\Sensor/driver_max30102.c ****  * @brief      read the temperature
 541:..\..\..\..\PSoC6_101\Sensor/driver_max30102.c ****  * @param[in]  *handle points to a max30102 handle structure
 542:..\..\..\..\PSoC6_101\Sensor/driver_max30102.c ****  * @param[out] *raw points to a raw data buffer
 543:..\..\..\..\PSoC6_101\Sensor/driver_max30102.c ****  * @param[out] *temp points to a converted temperature buffer
 544:..\..\..\..\PSoC6_101\Sensor/driver_max30102.c ****  * @return     status code
 545:..\..\..\..\PSoC6_101\Sensor/driver_max30102.c ****  *             - 0 success
 546:..\..\..\..\PSoC6_101\Sensor/driver_max30102.c ****  *             - 1 read temperature failed
 547:..\..\..\..\PSoC6_101\Sensor/driver_max30102.c ****  *             - 2 handle is NULL
 548:..\..\..\..\PSoC6_101\Sensor/driver_max30102.c ****  *             - 3 handle is not initialized
 549:..\..\..\..\PSoC6_101\Sensor/driver_max30102.c ****  * @note       none
 550:..\..\..\..\PSoC6_101\Sensor/driver_max30102.c ****  */
 551:..\..\..\..\PSoC6_101\Sensor/driver_max30102.c **** uint8_t max30102_read_temperature(max30102_handle_t *handle, uint16_t *raw, float *temp)
 552:..\..\..\..\PSoC6_101\Sensor/driver_max30102.c **** {
 1468              		.loc 1 552 0
 1469              		.cfi_startproc
 1470              		@ args = 0, pretend = 0, frame = 24
 1471              		@ frame_needed = 1, uses_anonymous_args = 0
 1472 0000 90B5     		push	{r4, r7, lr}
 1473              		.cfi_def_cfa_offset 12
 1474              		.cfi_offset 4, -12
 1475              		.cfi_offset 7, -8
ARM GAS  C:\Users\49148\AppData\Local\Temp\ccWN5cWv.s 			page 39


 1476              		.cfi_offset 14, -4
 1477 0002 87B0     		sub	sp, sp, #28
 1478              		.cfi_def_cfa_offset 40
 1479 0004 00AF     		add	r7, sp, #0
 1480              		.cfi_def_cfa_register 7
 1481 0006 F860     		str	r0, [r7, #12]
 1482 0008 B960     		str	r1, [r7, #8]
 1483 000a 7A60     		str	r2, [r7, #4]
 553:..\..\..\..\PSoC6_101\Sensor/driver_max30102.c ****     uint8_t res;
 554:..\..\..\..\PSoC6_101\Sensor/driver_max30102.c ****     uint8_t prev;
 555:..\..\..\..\PSoC6_101\Sensor/driver_max30102.c ****     uint16_t timeout;
 556:..\..\..\..\PSoC6_101\Sensor/driver_max30102.c ****     
 557:..\..\..\..\PSoC6_101\Sensor/driver_max30102.c ****     if (handle == NULL)                                                                            
 1484              		.loc 1 557 0
 1485 000c FB68     		ldr	r3, [r7, #12]
 1486 000e 002B     		cmp	r3, #0
 1487 0010 01D1     		bne	.L81
 558:..\..\..\..\PSoC6_101\Sensor/driver_max30102.c ****     {
 559:..\..\..\..\PSoC6_101\Sensor/driver_max30102.c ****         return 2;                                                                                  
 1488              		.loc 1 559 0
 1489 0012 0223     		movs	r3, #2
 1490 0014 93E0     		b	.L92
 1491              	.L81:
 560:..\..\..\..\PSoC6_101\Sensor/driver_max30102.c ****     }
 561:..\..\..\..\PSoC6_101\Sensor/driver_max30102.c ****     if (handle->inited != 1)                                                                       
 1492              		.loc 1 561 0
 1493 0016 FB68     		ldr	r3, [r7, #12]
 1494 0018 1B7F     		ldrb	r3, [r3, #28]	@ zero_extendqisi2
 1495 001a 012B     		cmp	r3, #1
 1496 001c 01D0     		beq	.L83
 562:..\..\..\..\PSoC6_101\Sensor/driver_max30102.c ****     {
 563:..\..\..\..\PSoC6_101\Sensor/driver_max30102.c ****         return 3;                                                                                  
 1497              		.loc 1 563 0
 1498 001e 0323     		movs	r3, #3
 1499 0020 8DE0     		b	.L92
 1500              	.L83:
 564:..\..\..\..\PSoC6_101\Sensor/driver_max30102.c ****     }
 565:..\..\..\..\PSoC6_101\Sensor/driver_max30102.c **** 
 566:..\..\..\..\PSoC6_101\Sensor/driver_max30102.c ****     res = handle->iic_read(MAX30102_ADDRESS, MAX30102_REG_INTERRUPT_ENABLE_2, (uint8_t *)&prev, 1);
 1501              		.loc 1 566 0
 1502 0022 FB68     		ldr	r3, [r7, #12]
 1503 0024 9C68     		ldr	r4, [r3, #8]
 1504 0026 07F11402 		add	r2, r7, #20
 1505 002a 0123     		movs	r3, #1
 1506 002c 0321     		movs	r1, #3
 1507 002e AE20     		movs	r0, #174
 1508 0030 A047     		blx	r4
 1509 0032 0346     		mov	r3, r0
 1510 0034 7B75     		strb	r3, [r7, #21]
 567:..\..\..\..\PSoC6_101\Sensor/driver_max30102.c ****     if (res != 0)                                                                                  
 1511              		.loc 1 567 0
 1512 0036 7B7D     		ldrb	r3, [r7, #21]	@ zero_extendqisi2
 1513 0038 002B     		cmp	r3, #0
 1514 003a 05D0     		beq	.L84
 568:..\..\..\..\PSoC6_101\Sensor/driver_max30102.c ****     {
 569:..\..\..\..\PSoC6_101\Sensor/driver_max30102.c ****         handle->debug_print("max30102: read interrupt enable2 failed.\n");                         
 1515              		.loc 1 569 0
ARM GAS  C:\Users\49148\AppData\Local\Temp\ccWN5cWv.s 			page 40


 1516 003c FB68     		ldr	r3, [r7, #12]
 1517 003e 9B69     		ldr	r3, [r3, #24]
 1518 0040 4148     		ldr	r0, .L94
 1519 0042 9847     		blx	r3
 570:..\..\..\..\PSoC6_101\Sensor/driver_max30102.c ****        
 571:..\..\..\..\PSoC6_101\Sensor/driver_max30102.c ****         return 1;                                                                                  
 1520              		.loc 1 571 0
 1521 0044 0123     		movs	r3, #1
 1522 0046 7AE0     		b	.L92
 1523              	.L84:
 572:..\..\..\..\PSoC6_101\Sensor/driver_max30102.c ****     }
 573:..\..\..\..\PSoC6_101\Sensor/driver_max30102.c ****     if ((prev & (1 << 1)) == 0)                                                                    
 1524              		.loc 1 573 0
 1525 0048 3B7D     		ldrb	r3, [r7, #20]	@ zero_extendqisi2
 1526 004a 03F00203 		and	r3, r3, #2
 1527 004e 002B     		cmp	r3, #0
 1528 0050 1CD1     		bne	.L85
 574:..\..\..\..\PSoC6_101\Sensor/driver_max30102.c ****     {
 575:..\..\..\..\PSoC6_101\Sensor/driver_max30102.c ****         prev &= ~(1 << 1);                                                                         
 1529              		.loc 1 575 0
 1530 0052 3B7D     		ldrb	r3, [r7, #20]	@ zero_extendqisi2
 1531 0054 23F00203 		bic	r3, r3, #2
 1532 0058 DBB2     		uxtb	r3, r3
 1533 005a 3B75     		strb	r3, [r7, #20]
 576:..\..\..\..\PSoC6_101\Sensor/driver_max30102.c ****         prev |= 1 << 1;                                                                            
 1534              		.loc 1 576 0
 1535 005c 3B7D     		ldrb	r3, [r7, #20]	@ zero_extendqisi2
 1536 005e 43F00203 		orr	r3, r3, #2
 1537 0062 DBB2     		uxtb	r3, r3
 1538 0064 3B75     		strb	r3, [r7, #20]
 577:..\..\..\..\PSoC6_101\Sensor/driver_max30102.c ****         res = handle->iic_write(MAX30102_ADDRESS, MAX30102_REG_INTERRUPT_ENABLE_2, (uint8_t *)&prev
 1539              		.loc 1 577 0
 1540 0066 FB68     		ldr	r3, [r7, #12]
 1541 0068 DC68     		ldr	r4, [r3, #12]
 1542 006a 07F11402 		add	r2, r7, #20
 1543 006e 0123     		movs	r3, #1
 1544 0070 0321     		movs	r1, #3
 1545 0072 AE20     		movs	r0, #174
 1546 0074 A047     		blx	r4
 1547 0076 0346     		mov	r3, r0
 1548 0078 7B75     		strb	r3, [r7, #21]
 578:..\..\..\..\PSoC6_101\Sensor/driver_max30102.c ****         if (res != 0)                                                                              
 1549              		.loc 1 578 0
 1550 007a 7B7D     		ldrb	r3, [r7, #21]	@ zero_extendqisi2
 1551 007c 002B     		cmp	r3, #0
 1552 007e 05D0     		beq	.L85
 579:..\..\..\..\PSoC6_101\Sensor/driver_max30102.c ****         {
 580:..\..\..\..\PSoC6_101\Sensor/driver_max30102.c ****             handle->debug_print("max30102: write interrupt enable2 failed.\n");                    
 1553              		.loc 1 580 0
 1554 0080 FB68     		ldr	r3, [r7, #12]
 1555 0082 9B69     		ldr	r3, [r3, #24]
 1556 0084 3148     		ldr	r0, .L94+4
 1557 0086 9847     		blx	r3
 581:..\..\..\..\PSoC6_101\Sensor/driver_max30102.c ****            
 582:..\..\..\..\PSoC6_101\Sensor/driver_max30102.c ****             return 1;                                                                              
 1558              		.loc 1 582 0
 1559 0088 0123     		movs	r3, #1
ARM GAS  C:\Users\49148\AppData\Local\Temp\ccWN5cWv.s 			page 41


 1560 008a 58E0     		b	.L92
 1561              	.L85:
 583:..\..\..\..\PSoC6_101\Sensor/driver_max30102.c ****         }
 584:..\..\..\..\PSoC6_101\Sensor/driver_max30102.c ****     }
 585:..\..\..\..\PSoC6_101\Sensor/driver_max30102.c ****     
 586:..\..\..\..\PSoC6_101\Sensor/driver_max30102.c ****     res = handle->iic_read(MAX30102_ADDRESS, MAX30102_REG_DIE_TEMP_CONFIG, (uint8_t *)&prev, 1);   
 1562              		.loc 1 586 0
 1563 008c FB68     		ldr	r3, [r7, #12]
 1564 008e 9C68     		ldr	r4, [r3, #8]
 1565 0090 07F11402 		add	r2, r7, #20
 1566 0094 0123     		movs	r3, #1
 1567 0096 2121     		movs	r1, #33
 1568 0098 AE20     		movs	r0, #174
 1569 009a A047     		blx	r4
 1570 009c 0346     		mov	r3, r0
 1571 009e 7B75     		strb	r3, [r7, #21]
 587:..\..\..\..\PSoC6_101\Sensor/driver_max30102.c ****     if (res != 0)                                                                                  
 1572              		.loc 1 587 0
 1573 00a0 7B7D     		ldrb	r3, [r7, #21]	@ zero_extendqisi2
 1574 00a2 002B     		cmp	r3, #0
 1575 00a4 05D0     		beq	.L86
 588:..\..\..\..\PSoC6_101\Sensor/driver_max30102.c ****     {
 589:..\..\..\..\PSoC6_101\Sensor/driver_max30102.c ****         handle->debug_print("max30102: read die temp config failed.\n");                           
 1576              		.loc 1 589 0
 1577 00a6 FB68     		ldr	r3, [r7, #12]
 1578 00a8 9B69     		ldr	r3, [r3, #24]
 1579 00aa 2948     		ldr	r0, .L94+8
 1580 00ac 9847     		blx	r3
 590:..\..\..\..\PSoC6_101\Sensor/driver_max30102.c ****        
 591:..\..\..\..\PSoC6_101\Sensor/driver_max30102.c ****         return 1;                                                                                  
 1581              		.loc 1 591 0
 1582 00ae 0123     		movs	r3, #1
 1583 00b0 45E0     		b	.L92
 1584              	.L86:
 592:..\..\..\..\PSoC6_101\Sensor/driver_max30102.c ****     }
 593:..\..\..\..\PSoC6_101\Sensor/driver_max30102.c ****     prev &= ~(1 << 0);                                                                             
 1585              		.loc 1 593 0
 1586 00b2 3B7D     		ldrb	r3, [r7, #20]	@ zero_extendqisi2
 1587 00b4 23F00103 		bic	r3, r3, #1
 1588 00b8 DBB2     		uxtb	r3, r3
 1589 00ba 3B75     		strb	r3, [r7, #20]
 594:..\..\..\..\PSoC6_101\Sensor/driver_max30102.c ****     prev |= (1 << 0);                                                                              
 1590              		.loc 1 594 0
 1591 00bc 3B7D     		ldrb	r3, [r7, #20]	@ zero_extendqisi2
 1592 00be 43F00103 		orr	r3, r3, #1
 1593 00c2 DBB2     		uxtb	r3, r3
 1594 00c4 3B75     		strb	r3, [r7, #20]
 595:..\..\..\..\PSoC6_101\Sensor/driver_max30102.c ****     res = handle->iic_write(MAX30102_ADDRESS, MAX30102_REG_DIE_TEMP_CONFIG, (uint8_t *)&prev, 1);  
 1595              		.loc 1 595 0
 1596 00c6 FB68     		ldr	r3, [r7, #12]
 1597 00c8 DC68     		ldr	r4, [r3, #12]
 1598 00ca 07F11402 		add	r2, r7, #20
 1599 00ce 0123     		movs	r3, #1
 1600 00d0 2121     		movs	r1, #33
 1601 00d2 AE20     		movs	r0, #174
 1602 00d4 A047     		blx	r4
 1603 00d6 0346     		mov	r3, r0
ARM GAS  C:\Users\49148\AppData\Local\Temp\ccWN5cWv.s 			page 42


 1604 00d8 7B75     		strb	r3, [r7, #21]
 596:..\..\..\..\PSoC6_101\Sensor/driver_max30102.c ****     if (res != 0)                                                                                  
 1605              		.loc 1 596 0
 1606 00da 7B7D     		ldrb	r3, [r7, #21]	@ zero_extendqisi2
 1607 00dc 002B     		cmp	r3, #0
 1608 00de 05D0     		beq	.L87
 597:..\..\..\..\PSoC6_101\Sensor/driver_max30102.c ****     {
 598:..\..\..\..\PSoC6_101\Sensor/driver_max30102.c ****         handle->debug_print("max30102: write die temp config failed.\n");                          
 1609              		.loc 1 598 0
 1610 00e0 FB68     		ldr	r3, [r7, #12]
 1611 00e2 9B69     		ldr	r3, [r3, #24]
 1612 00e4 1B48     		ldr	r0, .L94+12
 1613 00e6 9847     		blx	r3
 599:..\..\..\..\PSoC6_101\Sensor/driver_max30102.c ****        
 600:..\..\..\..\PSoC6_101\Sensor/driver_max30102.c ****         return 1;                                                                                  
 1614              		.loc 1 600 0
 1615 00e8 0123     		movs	r3, #1
 1616 00ea 28E0     		b	.L92
 1617              	.L87:
 601:..\..\..\..\PSoC6_101\Sensor/driver_max30102.c ****     }
 602:..\..\..\..\PSoC6_101\Sensor/driver_max30102.c ****     
 603:..\..\..\..\PSoC6_101\Sensor/driver_max30102.c ****     timeout = 5000;                                                                                
 1618              		.loc 1 603 0
 1619 00ec 41F28833 		movw	r3, #5000
 1620 00f0 FB82     		strh	r3, [r7, #22]	@ movhi
 604:..\..\..\..\PSoC6_101\Sensor/driver_max30102.c ****     handle->finished_flag = 0;                                                                     
 1621              		.loc 1 604 0
 1622 00f2 FB68     		ldr	r3, [r7, #12]
 1623 00f4 0022     		movs	r2, #0
 1624 00f6 5A77     		strb	r2, [r3, #29]
 605:..\..\..\..\PSoC6_101\Sensor/driver_max30102.c ****     while (timeout != 0)                                                                           
 1625              		.loc 1 605 0
 1626 00f8 0AE0     		b	.L88
 1627              	.L90:
 606:..\..\..\..\PSoC6_101\Sensor/driver_max30102.c ****     {
 607:..\..\..\..\PSoC6_101\Sensor/driver_max30102.c ****         handle->delay_ms(1);                                                                       
 1628              		.loc 1 607 0
 1629 00fa FB68     		ldr	r3, [r7, #12]
 1630 00fc 5B69     		ldr	r3, [r3, #20]
 1631 00fe 0120     		movs	r0, #1
 1632 0100 9847     		blx	r3
 608:..\..\..\..\PSoC6_101\Sensor/driver_max30102.c ****         timeout--;                                                                                 
 1633              		.loc 1 608 0
 1634 0102 FB8A     		ldrh	r3, [r7, #22]
 1635 0104 013B     		subs	r3, r3, #1
 1636 0106 FB82     		strh	r3, [r7, #22]	@ movhi
 609:..\..\..\..\PSoC6_101\Sensor/driver_max30102.c ****         if (handle->finished_flag != 0)                                                            
 1637              		.loc 1 609 0
 1638 0108 FB68     		ldr	r3, [r7, #12]
 1639 010a 5B7F     		ldrb	r3, [r3, #29]	@ zero_extendqisi2
 1640 010c 002B     		cmp	r3, #0
 1641 010e 03D1     		bne	.L93
 1642              	.L88:
 605:..\..\..\..\PSoC6_101\Sensor/driver_max30102.c ****     {
 1643              		.loc 1 605 0
 1644 0110 FB8A     		ldrh	r3, [r7, #22]
 1645 0112 002B     		cmp	r3, #0
ARM GAS  C:\Users\49148\AppData\Local\Temp\ccWN5cWv.s 			page 43


 1646 0114 F1D1     		bne	.L90
 1647 0116 00E0     		b	.L89
 1648              	.L93:
 610:..\..\..\..\PSoC6_101\Sensor/driver_max30102.c ****         {
 611:..\..\..\..\PSoC6_101\Sensor/driver_max30102.c ****             break;                                                                                 
 1649              		.loc 1 611 0
 1650 0118 00BF     		nop
 1651              	.L89:
 612:..\..\..\..\PSoC6_101\Sensor/driver_max30102.c ****         }
 613:..\..\..\..\PSoC6_101\Sensor/driver_max30102.c ****     }
 614:..\..\..\..\PSoC6_101\Sensor/driver_max30102.c ****     if (timeout == 0)                                                                              
 1652              		.loc 1 614 0
 1653 011a FB8A     		ldrh	r3, [r7, #22]
 1654 011c 002B     		cmp	r3, #0
 1655 011e 05D1     		bne	.L91
 615:..\..\..\..\PSoC6_101\Sensor/driver_max30102.c ****     {
 616:..\..\..\..\PSoC6_101\Sensor/driver_max30102.c ****         handle->debug_print("max30102: read timeout.\n");                                          
 1656              		.loc 1 616 0
 1657 0120 FB68     		ldr	r3, [r7, #12]
 1658 0122 9B69     		ldr	r3, [r3, #24]
 1659 0124 0C48     		ldr	r0, .L94+16
 1660 0126 9847     		blx	r3
 617:..\..\..\..\PSoC6_101\Sensor/driver_max30102.c ****        
 618:..\..\..\..\PSoC6_101\Sensor/driver_max30102.c ****         return 1;                                                                                  
 1661              		.loc 1 618 0
 1662 0128 0123     		movs	r3, #1
 1663 012a 08E0     		b	.L92
 1664              	.L91:
 619:..\..\..\..\PSoC6_101\Sensor/driver_max30102.c ****     }
 620:..\..\..\..\PSoC6_101\Sensor/driver_max30102.c ****     *raw = handle->raw;                                                                            
 1665              		.loc 1 620 0
 1666 012c FB68     		ldr	r3, [r7, #12]
 1667 012e DA8B     		ldrh	r2, [r3, #30]
 1668 0130 BB68     		ldr	r3, [r7, #8]
 1669 0132 1A80     		strh	r2, [r3]	@ movhi
 621:..\..\..\..\PSoC6_101\Sensor/driver_max30102.c ****     *temp = handle->temperature;                                                                   
 1670              		.loc 1 621 0
 1671 0134 FB68     		ldr	r3, [r7, #12]
 1672 0136 1A6A     		ldr	r2, [r3, #32]	@ float
 1673 0138 7B68     		ldr	r3, [r7, #4]
 1674 013a 1A60     		str	r2, [r3]	@ float
 622:..\..\..\..\PSoC6_101\Sensor/driver_max30102.c ****     
 623:..\..\..\..\PSoC6_101\Sensor/driver_max30102.c ****     return 0;                                                                                      
 1675              		.loc 1 623 0
 1676 013c 0023     		movs	r3, #0
 1677              	.L92:
 624:..\..\..\..\PSoC6_101\Sensor/driver_max30102.c **** }
 1678              		.loc 1 624 0 discriminator 1
 1679 013e 1846     		mov	r0, r3
 1680 0140 1C37     		adds	r7, r7, #28
 1681              		.cfi_def_cfa_offset 12
 1682 0142 BD46     		mov	sp, r7
 1683              		.cfi_def_cfa_register 13
 1684              		@ sp needed
 1685 0144 90BD     		pop	{r4, r7, pc}
 1686              	.L95:
 1687 0146 00BF     		.align	2
ARM GAS  C:\Users\49148\AppData\Local\Temp\ccWN5cWv.s 			page 44


 1688              	.L94:
 1689 0148 E4030000 		.word	.LC27
 1690 014c 10040000 		.word	.LC28
 1691 0150 3C040000 		.word	.LC29
 1692 0154 64040000 		.word	.LC30
 1693 0158 90040000 		.word	.LC31
 1694              		.cfi_endproc
 1695              	.LFE5:
 1696              		.size	max30102_read_temperature, .-max30102_read_temperature
 1697              		.section	.text.max30102_get_interrupt_status,"ax",%progbits
 1698              		.align	2
 1699              		.global	max30102_get_interrupt_status
 1700              		.thumb
 1701              		.thumb_func
 1702              		.type	max30102_get_interrupt_status, %function
 1703              	max30102_get_interrupt_status:
 1704              	.LFB6:
 625:..\..\..\..\PSoC6_101\Sensor/driver_max30102.c **** 
 626:..\..\..\..\PSoC6_101\Sensor/driver_max30102.c **** /**
 627:..\..\..\..\PSoC6_101\Sensor/driver_max30102.c ****  * @brief      get the interrupt status
 628:..\..\..\..\PSoC6_101\Sensor/driver_max30102.c ****  * @param[in]  *handle points to a max30102 handle structure
 629:..\..\..\..\PSoC6_101\Sensor/driver_max30102.c ****  * @param[in]  status is the interrupt status
 630:..\..\..\..\PSoC6_101\Sensor/driver_max30102.c ****  * @param[out] *enable points to a bool value buffer
 631:..\..\..\..\PSoC6_101\Sensor/driver_max30102.c ****  * @return     status code
 632:..\..\..\..\PSoC6_101\Sensor/driver_max30102.c ****  *             - 0 success
 633:..\..\..\..\PSoC6_101\Sensor/driver_max30102.c ****  *             - 1 get interrupt status failed
 634:..\..\..\..\PSoC6_101\Sensor/driver_max30102.c ****  *             - 2 handle is NULL
 635:..\..\..\..\PSoC6_101\Sensor/driver_max30102.c ****  *             - 3 handle is not initialized
 636:..\..\..\..\PSoC6_101\Sensor/driver_max30102.c ****  * @note       none
 637:..\..\..\..\PSoC6_101\Sensor/driver_max30102.c ****  */
 638:..\..\..\..\PSoC6_101\Sensor/driver_max30102.c **** uint8_t max30102_get_interrupt_status(max30102_handle_t *handle, max30102_interrupt_status_t status
 639:..\..\..\..\PSoC6_101\Sensor/driver_max30102.c **** {
 1705              		.loc 1 639 0
 1706              		.cfi_startproc
 1707              		@ args = 0, pretend = 0, frame = 24
 1708              		@ frame_needed = 1, uses_anonymous_args = 0
 1709 0000 90B5     		push	{r4, r7, lr}
 1710              		.cfi_def_cfa_offset 12
 1711              		.cfi_offset 4, -12
 1712              		.cfi_offset 7, -8
 1713              		.cfi_offset 14, -4
 1714 0002 87B0     		sub	sp, sp, #28
 1715              		.cfi_def_cfa_offset 40
 1716 0004 00AF     		add	r7, sp, #0
 1717              		.cfi_def_cfa_register 7
 1718 0006 F860     		str	r0, [r7, #12]
 1719 0008 0B46     		mov	r3, r1
 1720 000a 7A60     		str	r2, [r7, #4]
 1721 000c FB72     		strb	r3, [r7, #11]
 640:..\..\..\..\PSoC6_101\Sensor/driver_max30102.c ****     uint8_t res;
 641:..\..\..\..\PSoC6_101\Sensor/driver_max30102.c ****     uint8_t prev;
 642:..\..\..\..\PSoC6_101\Sensor/driver_max30102.c ****     
 643:..\..\..\..\PSoC6_101\Sensor/driver_max30102.c ****     if (handle == NULL)                                                                            
 1722              		.loc 1 643 0
 1723 000e FB68     		ldr	r3, [r7, #12]
 1724 0010 002B     		cmp	r3, #0
 1725 0012 01D1     		bne	.L97
ARM GAS  C:\Users\49148\AppData\Local\Temp\ccWN5cWv.s 			page 45


 644:..\..\..\..\PSoC6_101\Sensor/driver_max30102.c ****     {
 645:..\..\..\..\PSoC6_101\Sensor/driver_max30102.c ****         return 2;                                                                                  
 1726              		.loc 1 645 0
 1727 0014 0223     		movs	r3, #2
 1728 0016 47E0     		b	.L103
 1729              	.L97:
 646:..\..\..\..\PSoC6_101\Sensor/driver_max30102.c ****     }
 647:..\..\..\..\PSoC6_101\Sensor/driver_max30102.c ****     if (handle->inited != 1)                                                                       
 1730              		.loc 1 647 0
 1731 0018 FB68     		ldr	r3, [r7, #12]
 1732 001a 1B7F     		ldrb	r3, [r3, #28]	@ zero_extendqisi2
 1733 001c 012B     		cmp	r3, #1
 1734 001e 01D0     		beq	.L99
 648:..\..\..\..\PSoC6_101\Sensor/driver_max30102.c ****     {
 649:..\..\..\..\PSoC6_101\Sensor/driver_max30102.c ****         return 3;                                                                                  
 1735              		.loc 1 649 0
 1736 0020 0323     		movs	r3, #3
 1737 0022 41E0     		b	.L103
 1738              	.L99:
 650:..\..\..\..\PSoC6_101\Sensor/driver_max30102.c ****     }
 651:..\..\..\..\PSoC6_101\Sensor/driver_max30102.c **** 
 652:..\..\..\..\PSoC6_101\Sensor/driver_max30102.c ****     if (status == MAX30102_INTERRUPT_STATUS_DIE_TEMP_RDY)                                          
 1739              		.loc 1 652 0
 1740 0024 FB7A     		ldrb	r3, [r7, #11]	@ zero_extendqisi2
 1741 0026 012B     		cmp	r3, #1
 1742 0028 1FD1     		bne	.L100
 653:..\..\..\..\PSoC6_101\Sensor/driver_max30102.c ****     {
 654:..\..\..\..\PSoC6_101\Sensor/driver_max30102.c ****         res = handle->iic_read(MAX30102_ADDRESS, MAX30102_REG_INTERRUPT_STATUS_2, (uint8_t *)&prev,
 1743              		.loc 1 654 0
 1744 002a FB68     		ldr	r3, [r7, #12]
 1745 002c 9C68     		ldr	r4, [r3, #8]
 1746 002e 07F11602 		add	r2, r7, #22
 1747 0032 0123     		movs	r3, #1
 1748 0034 0121     		movs	r1, #1
 1749 0036 AE20     		movs	r0, #174
 1750 0038 A047     		blx	r4
 1751 003a 0346     		mov	r3, r0
 1752 003c FB75     		strb	r3, [r7, #23]
 655:..\..\..\..\PSoC6_101\Sensor/driver_max30102.c ****         if (res != 0)                                                                              
 1753              		.loc 1 655 0
 1754 003e FB7D     		ldrb	r3, [r7, #23]	@ zero_extendqisi2
 1755 0040 002B     		cmp	r3, #0
 1756 0042 05D0     		beq	.L101
 656:..\..\..\..\PSoC6_101\Sensor/driver_max30102.c ****         {
 657:..\..\..\..\PSoC6_101\Sensor/driver_max30102.c ****             handle->debug_print("max30102: read interrupt status2 failed.\n");                     
 1757              		.loc 1 657 0
 1758 0044 FB68     		ldr	r3, [r7, #12]
 1759 0046 9B69     		ldr	r3, [r3, #24]
 1760 0048 1948     		ldr	r0, .L104
 1761 004a 9847     		blx	r3
 658:..\..\..\..\PSoC6_101\Sensor/driver_max30102.c ****            
 659:..\..\..\..\PSoC6_101\Sensor/driver_max30102.c ****             return 1;                                                                              
 1762              		.loc 1 659 0
 1763 004c 0123     		movs	r3, #1
 1764 004e 2BE0     		b	.L103
 1765              	.L101:
 660:..\..\..\..\PSoC6_101\Sensor/driver_max30102.c ****         }
ARM GAS  C:\Users\49148\AppData\Local\Temp\ccWN5cWv.s 			page 46


 661:..\..\..\..\PSoC6_101\Sensor/driver_max30102.c ****         *enable = (max30102_bool_t)((prev >> status) & 0x01);                                      
 1766              		.loc 1 661 0
 1767 0050 BB7D     		ldrb	r3, [r7, #22]	@ zero_extendqisi2
 1768 0052 1A46     		mov	r2, r3
 1769 0054 FB7A     		ldrb	r3, [r7, #11]	@ zero_extendqisi2
 1770 0056 42FA03F3 		asr	r3, r2, r3
 1771 005a DBB2     		uxtb	r3, r3
 1772 005c 03F00103 		and	r3, r3, #1
 1773 0060 DAB2     		uxtb	r2, r3
 1774 0062 7B68     		ldr	r3, [r7, #4]
 1775 0064 1A70     		strb	r2, [r3]
 662:..\..\..\..\PSoC6_101\Sensor/driver_max30102.c ****     
 663:..\..\..\..\PSoC6_101\Sensor/driver_max30102.c ****         return 0;                                                                                  
 1776              		.loc 1 663 0
 1777 0066 0023     		movs	r3, #0
 1778 0068 1EE0     		b	.L103
 1779              	.L100:
 664:..\..\..\..\PSoC6_101\Sensor/driver_max30102.c ****     }
 665:..\..\..\..\PSoC6_101\Sensor/driver_max30102.c ****     else
 666:..\..\..\..\PSoC6_101\Sensor/driver_max30102.c ****     {
 667:..\..\..\..\PSoC6_101\Sensor/driver_max30102.c ****         res = handle->iic_read(MAX30102_ADDRESS, MAX30102_REG_INTERRUPT_STATUS_1, (uint8_t *)&prev,
 1780              		.loc 1 667 0
 1781 006a FB68     		ldr	r3, [r7, #12]
 1782 006c 9C68     		ldr	r4, [r3, #8]
 1783 006e 07F11602 		add	r2, r7, #22
 1784 0072 0123     		movs	r3, #1
 1785 0074 0021     		movs	r1, #0
 1786 0076 AE20     		movs	r0, #174
 1787 0078 A047     		blx	r4
 1788 007a 0346     		mov	r3, r0
 1789 007c FB75     		strb	r3, [r7, #23]
 668:..\..\..\..\PSoC6_101\Sensor/driver_max30102.c ****         if (res != 0)                                                                              
 1790              		.loc 1 668 0
 1791 007e FB7D     		ldrb	r3, [r7, #23]	@ zero_extendqisi2
 1792 0080 002B     		cmp	r3, #0
 1793 0082 05D0     		beq	.L102
 669:..\..\..\..\PSoC6_101\Sensor/driver_max30102.c ****         {
 670:..\..\..\..\PSoC6_101\Sensor/driver_max30102.c ****             handle->debug_print("max30102: read interrupt status1 failed.\n");                     
 1794              		.loc 1 670 0
 1795 0084 FB68     		ldr	r3, [r7, #12]
 1796 0086 9B69     		ldr	r3, [r3, #24]
 1797 0088 0A48     		ldr	r0, .L104+4
 1798 008a 9847     		blx	r3
 671:..\..\..\..\PSoC6_101\Sensor/driver_max30102.c ****            
 672:..\..\..\..\PSoC6_101\Sensor/driver_max30102.c ****             return 1;                                                                              
 1799              		.loc 1 672 0
 1800 008c 0123     		movs	r3, #1
 1801 008e 0BE0     		b	.L103
 1802              	.L102:
 673:..\..\..\..\PSoC6_101\Sensor/driver_max30102.c ****         }
 674:..\..\..\..\PSoC6_101\Sensor/driver_max30102.c ****         *enable = (max30102_bool_t)((prev >> status) & 0x01);                                      
 1803              		.loc 1 674 0
 1804 0090 BB7D     		ldrb	r3, [r7, #22]	@ zero_extendqisi2
 1805 0092 1A46     		mov	r2, r3
 1806 0094 FB7A     		ldrb	r3, [r7, #11]	@ zero_extendqisi2
 1807 0096 42FA03F3 		asr	r3, r2, r3
 1808 009a DBB2     		uxtb	r3, r3
ARM GAS  C:\Users\49148\AppData\Local\Temp\ccWN5cWv.s 			page 47


 1809 009c 03F00103 		and	r3, r3, #1
 1810 00a0 DAB2     		uxtb	r2, r3
 1811 00a2 7B68     		ldr	r3, [r7, #4]
 1812 00a4 1A70     		strb	r2, [r3]
 675:..\..\..\..\PSoC6_101\Sensor/driver_max30102.c ****     
 676:..\..\..\..\PSoC6_101\Sensor/driver_max30102.c ****         return 0;                                                                                  
 1813              		.loc 1 676 0
 1814 00a6 0023     		movs	r3, #0
 1815              	.L103:
 677:..\..\..\..\PSoC6_101\Sensor/driver_max30102.c ****     }
 678:..\..\..\..\PSoC6_101\Sensor/driver_max30102.c **** }
 1816              		.loc 1 678 0 discriminator 1
 1817 00a8 1846     		mov	r0, r3
 1818 00aa 1C37     		adds	r7, r7, #28
 1819              		.cfi_def_cfa_offset 12
 1820 00ac BD46     		mov	sp, r7
 1821              		.cfi_def_cfa_register 13
 1822              		@ sp needed
 1823 00ae 90BD     		pop	{r4, r7, pc}
 1824              	.L105:
 1825              		.align	2
 1826              	.L104:
 1827 00b0 58020000 		.word	.LC17
 1828 00b4 2C020000 		.word	.LC16
 1829              		.cfi_endproc
 1830              	.LFE6:
 1831              		.size	max30102_get_interrupt_status, .-max30102_get_interrupt_status
 1832              		.section	.rodata
 1833 04a9 000000   		.align	2
 1834              	.LC32:
 1835 04ac 6D617833 		.ascii	"max30102: read interrupt enable1 failed.\012\000"
 1835      30313032 
 1835      3A207265 
 1835      61642069 
 1835      6E746572 
 1836 04d6 0000     		.align	2
 1837              	.LC33:
 1838 04d8 6D617833 		.ascii	"max30102: write interrupt enable1 failed.\012\000"
 1838      30313032 
 1838      3A207772 
 1838      69746520 
 1838      696E7465 
 1839              		.section	.text.max30102_set_interrupt,"ax",%progbits
 1840              		.align	2
 1841              		.global	max30102_set_interrupt
 1842              		.thumb
 1843              		.thumb_func
 1844              		.type	max30102_set_interrupt, %function
 1845              	max30102_set_interrupt:
 1846              	.LFB7:
 679:..\..\..\..\PSoC6_101\Sensor/driver_max30102.c **** 
 680:..\..\..\..\PSoC6_101\Sensor/driver_max30102.c **** /**
 681:..\..\..\..\PSoC6_101\Sensor/driver_max30102.c ****  * @brief     set the interrupt bool
 682:..\..\..\..\PSoC6_101\Sensor/driver_max30102.c ****  * @param[in] *handle points to a max30102 handle structure
 683:..\..\..\..\PSoC6_101\Sensor/driver_max30102.c ****  * @param[in] type is the interrupt type
 684:..\..\..\..\PSoC6_101\Sensor/driver_max30102.c ****  * @param[in] enable is a bool value
 685:..\..\..\..\PSoC6_101\Sensor/driver_max30102.c ****  * @return    status code
ARM GAS  C:\Users\49148\AppData\Local\Temp\ccWN5cWv.s 			page 48


 686:..\..\..\..\PSoC6_101\Sensor/driver_max30102.c ****  *            - 0 success
 687:..\..\..\..\PSoC6_101\Sensor/driver_max30102.c ****  *            - 1 set interrupt failed
 688:..\..\..\..\PSoC6_101\Sensor/driver_max30102.c ****  *            - 2 handle is NULL
 689:..\..\..\..\PSoC6_101\Sensor/driver_max30102.c ****  *            - 3 handle is not initialized
 690:..\..\..\..\PSoC6_101\Sensor/driver_max30102.c ****  * @note      none
 691:..\..\..\..\PSoC6_101\Sensor/driver_max30102.c ****  */
 692:..\..\..\..\PSoC6_101\Sensor/driver_max30102.c **** uint8_t max30102_set_interrupt(max30102_handle_t *handle, max30102_interrupt_t type, max30102_bool_
 693:..\..\..\..\PSoC6_101\Sensor/driver_max30102.c **** {
 1847              		.loc 1 693 0
 1848              		.cfi_startproc
 1849              		@ args = 0, pretend = 0, frame = 16
 1850              		@ frame_needed = 1, uses_anonymous_args = 0
 1851 0000 90B5     		push	{r4, r7, lr}
 1852              		.cfi_def_cfa_offset 12
 1853              		.cfi_offset 4, -12
 1854              		.cfi_offset 7, -8
 1855              		.cfi_offset 14, -4
 1856 0002 85B0     		sub	sp, sp, #20
 1857              		.cfi_def_cfa_offset 32
 1858 0004 00AF     		add	r7, sp, #0
 1859              		.cfi_def_cfa_register 7
 1860 0006 7860     		str	r0, [r7, #4]
 1861 0008 0B46     		mov	r3, r1
 1862 000a FB70     		strb	r3, [r7, #3]
 1863 000c 1346     		mov	r3, r2
 1864 000e BB70     		strb	r3, [r7, #2]
 694:..\..\..\..\PSoC6_101\Sensor/driver_max30102.c ****     uint8_t res;
 695:..\..\..\..\PSoC6_101\Sensor/driver_max30102.c ****     uint8_t prev;
 696:..\..\..\..\PSoC6_101\Sensor/driver_max30102.c ****     
 697:..\..\..\..\PSoC6_101\Sensor/driver_max30102.c ****     if (handle == NULL)                                                                            
 1865              		.loc 1 697 0
 1866 0010 7B68     		ldr	r3, [r7, #4]
 1867 0012 002B     		cmp	r3, #0
 1868 0014 01D1     		bne	.L107
 698:..\..\..\..\PSoC6_101\Sensor/driver_max30102.c ****     {
 699:..\..\..\..\PSoC6_101\Sensor/driver_max30102.c ****         return 2;                                                                                  
 1869              		.loc 1 699 0
 1870 0016 0223     		movs	r3, #2
 1871 0018 87E0     		b	.L115
 1872              	.L107:
 700:..\..\..\..\PSoC6_101\Sensor/driver_max30102.c ****     }
 701:..\..\..\..\PSoC6_101\Sensor/driver_max30102.c ****     if (handle->inited != 1)                                                                       
 1873              		.loc 1 701 0
 1874 001a 7B68     		ldr	r3, [r7, #4]
 1875 001c 1B7F     		ldrb	r3, [r3, #28]	@ zero_extendqisi2
 1876 001e 012B     		cmp	r3, #1
 1877 0020 01D0     		beq	.L109
 702:..\..\..\..\PSoC6_101\Sensor/driver_max30102.c ****     {
 703:..\..\..\..\PSoC6_101\Sensor/driver_max30102.c ****         return 3;                                                                                  
 1878              		.loc 1 703 0
 1879 0022 0323     		movs	r3, #3
 1880 0024 81E0     		b	.L115
 1881              	.L109:
 704:..\..\..\..\PSoC6_101\Sensor/driver_max30102.c ****     }
 705:..\..\..\..\PSoC6_101\Sensor/driver_max30102.c **** 
 706:..\..\..\..\PSoC6_101\Sensor/driver_max30102.c ****     if (type == MAX30102_INTERRUPT_DIE_TEMP_RDY_EN)                                                
 1882              		.loc 1 706 0
ARM GAS  C:\Users\49148\AppData\Local\Temp\ccWN5cWv.s 			page 49


 1883 0026 FB78     		ldrb	r3, [r7, #3]	@ zero_extendqisi2
 1884 0028 012B     		cmp	r3, #1
 1885 002a 3FD1     		bne	.L110
 707:..\..\..\..\PSoC6_101\Sensor/driver_max30102.c ****     {
 708:..\..\..\..\PSoC6_101\Sensor/driver_max30102.c ****         res = handle->iic_read(MAX30102_ADDRESS, MAX30102_REG_INTERRUPT_ENABLE_2, (uint8_t *)&prev,
 1886              		.loc 1 708 0
 1887 002c 7B68     		ldr	r3, [r7, #4]
 1888 002e 9C68     		ldr	r4, [r3, #8]
 1889 0030 07F10E02 		add	r2, r7, #14
 1890 0034 0123     		movs	r3, #1
 1891 0036 0321     		movs	r1, #3
 1892 0038 AE20     		movs	r0, #174
 1893 003a A047     		blx	r4
 1894 003c 0346     		mov	r3, r0
 1895 003e FB73     		strb	r3, [r7, #15]
 709:..\..\..\..\PSoC6_101\Sensor/driver_max30102.c ****         if (res != 0)                                                                              
 1896              		.loc 1 709 0
 1897 0040 FB7B     		ldrb	r3, [r7, #15]	@ zero_extendqisi2
 1898 0042 002B     		cmp	r3, #0
 1899 0044 05D0     		beq	.L111
 710:..\..\..\..\PSoC6_101\Sensor/driver_max30102.c ****         {
 711:..\..\..\..\PSoC6_101\Sensor/driver_max30102.c ****             handle->debug_print("max30102: read interrupt enable2 failed.\n");                     
 1900              		.loc 1 711 0
 1901 0046 7B68     		ldr	r3, [r7, #4]
 1902 0048 9B69     		ldr	r3, [r3, #24]
 1903 004a 3A48     		ldr	r0, .L116
 1904 004c 9847     		blx	r3
 712:..\..\..\..\PSoC6_101\Sensor/driver_max30102.c ****            
 713:..\..\..\..\PSoC6_101\Sensor/driver_max30102.c ****             return 1;                                                                              
 1905              		.loc 1 713 0
 1906 004e 0123     		movs	r3, #1
 1907 0050 6BE0     		b	.L115
 1908              	.L111:
 714:..\..\..\..\PSoC6_101\Sensor/driver_max30102.c ****         }
 715:..\..\..\..\PSoC6_101\Sensor/driver_max30102.c ****         prev &= ~(1 << type);                                                                      
 1909              		.loc 1 715 0
 1910 0052 FB78     		ldrb	r3, [r7, #3]	@ zero_extendqisi2
 1911 0054 0122     		movs	r2, #1
 1912 0056 02FA03F3 		lsl	r3, r2, r3
 1913 005a 5BB2     		sxtb	r3, r3
 1914 005c DB43     		mvns	r3, r3
 1915 005e 5AB2     		sxtb	r2, r3
 1916 0060 BB7B     		ldrb	r3, [r7, #14]	@ zero_extendqisi2
 1917 0062 5BB2     		sxtb	r3, r3
 1918 0064 1340     		ands	r3, r3, r2
 1919 0066 5BB2     		sxtb	r3, r3
 1920 0068 DBB2     		uxtb	r3, r3
 1921 006a BB73     		strb	r3, [r7, #14]
 716:..\..\..\..\PSoC6_101\Sensor/driver_max30102.c ****         prev |= enable << type;                                                                    
 1922              		.loc 1 716 0
 1923 006c BA78     		ldrb	r2, [r7, #2]	@ zero_extendqisi2
 1924 006e FB78     		ldrb	r3, [r7, #3]	@ zero_extendqisi2
 1925 0070 02FA03F3 		lsl	r3, r2, r3
 1926 0074 5AB2     		sxtb	r2, r3
 1927 0076 BB7B     		ldrb	r3, [r7, #14]	@ zero_extendqisi2
 1928 0078 5BB2     		sxtb	r3, r3
 1929 007a 1343     		orrs	r3, r3, r2
ARM GAS  C:\Users\49148\AppData\Local\Temp\ccWN5cWv.s 			page 50


 1930 007c 5BB2     		sxtb	r3, r3
 1931 007e DBB2     		uxtb	r3, r3
 1932 0080 BB73     		strb	r3, [r7, #14]
 717:..\..\..\..\PSoC6_101\Sensor/driver_max30102.c ****         res = handle->iic_write(MAX30102_ADDRESS, MAX30102_REG_INTERRUPT_ENABLE_2, (uint8_t *)&prev
 1933              		.loc 1 717 0
 1934 0082 7B68     		ldr	r3, [r7, #4]
 1935 0084 DC68     		ldr	r4, [r3, #12]
 1936 0086 07F10E02 		add	r2, r7, #14
 1937 008a 0123     		movs	r3, #1
 1938 008c 0321     		movs	r1, #3
 1939 008e AE20     		movs	r0, #174
 1940 0090 A047     		blx	r4
 1941 0092 0346     		mov	r3, r0
 1942 0094 FB73     		strb	r3, [r7, #15]
 718:..\..\..\..\PSoC6_101\Sensor/driver_max30102.c ****         if (res != 0)                                                                              
 1943              		.loc 1 718 0
 1944 0096 FB7B     		ldrb	r3, [r7, #15]	@ zero_extendqisi2
 1945 0098 002B     		cmp	r3, #0
 1946 009a 05D0     		beq	.L112
 719:..\..\..\..\PSoC6_101\Sensor/driver_max30102.c ****         {
 720:..\..\..\..\PSoC6_101\Sensor/driver_max30102.c ****             handle->debug_print("max30102: write interrupt enable2 failed.\n");                    
 1947              		.loc 1 720 0
 1948 009c 7B68     		ldr	r3, [r7, #4]
 1949 009e 9B69     		ldr	r3, [r3, #24]
 1950 00a0 2548     		ldr	r0, .L116+4
 1951 00a2 9847     		blx	r3
 721:..\..\..\..\PSoC6_101\Sensor/driver_max30102.c ****            
 722:..\..\..\..\PSoC6_101\Sensor/driver_max30102.c ****             return 1;                                                                              
 1952              		.loc 1 722 0
 1953 00a4 0123     		movs	r3, #1
 1954 00a6 40E0     		b	.L115
 1955              	.L112:
 723:..\..\..\..\PSoC6_101\Sensor/driver_max30102.c ****         }
 724:..\..\..\..\PSoC6_101\Sensor/driver_max30102.c ****         
 725:..\..\..\..\PSoC6_101\Sensor/driver_max30102.c ****         return 0;                                                                                  
 1956              		.loc 1 725 0
 1957 00a8 0023     		movs	r3, #0
 1958 00aa 3EE0     		b	.L115
 1959              	.L110:
 726:..\..\..\..\PSoC6_101\Sensor/driver_max30102.c ****     }
 727:..\..\..\..\PSoC6_101\Sensor/driver_max30102.c ****     else
 728:..\..\..\..\PSoC6_101\Sensor/driver_max30102.c ****     {
 729:..\..\..\..\PSoC6_101\Sensor/driver_max30102.c ****         res = handle->iic_read(MAX30102_ADDRESS, MAX30102_REG_INTERRUPT_ENABLE_1, (uint8_t *)&prev,
 1960              		.loc 1 729 0
 1961 00ac 7B68     		ldr	r3, [r7, #4]
 1962 00ae 9C68     		ldr	r4, [r3, #8]
 1963 00b0 07F10E02 		add	r2, r7, #14
 1964 00b4 0123     		movs	r3, #1
 1965 00b6 0221     		movs	r1, #2
 1966 00b8 AE20     		movs	r0, #174
 1967 00ba A047     		blx	r4
 1968 00bc 0346     		mov	r3, r0
 1969 00be FB73     		strb	r3, [r7, #15]
 730:..\..\..\..\PSoC6_101\Sensor/driver_max30102.c ****         if (res != 0)                                                                              
 1970              		.loc 1 730 0
 1971 00c0 FB7B     		ldrb	r3, [r7, #15]	@ zero_extendqisi2
 1972 00c2 002B     		cmp	r3, #0
ARM GAS  C:\Users\49148\AppData\Local\Temp\ccWN5cWv.s 			page 51


 1973 00c4 05D0     		beq	.L113
 731:..\..\..\..\PSoC6_101\Sensor/driver_max30102.c ****         {
 732:..\..\..\..\PSoC6_101\Sensor/driver_max30102.c ****             handle->debug_print("max30102: read interrupt enable1 failed.\n");                     
 1974              		.loc 1 732 0
 1975 00c6 7B68     		ldr	r3, [r7, #4]
 1976 00c8 9B69     		ldr	r3, [r3, #24]
 1977 00ca 1C48     		ldr	r0, .L116+8
 1978 00cc 9847     		blx	r3
 733:..\..\..\..\PSoC6_101\Sensor/driver_max30102.c ****            
 734:..\..\..\..\PSoC6_101\Sensor/driver_max30102.c ****             return 1;                                                                              
 1979              		.loc 1 734 0
 1980 00ce 0123     		movs	r3, #1
 1981 00d0 2BE0     		b	.L115
 1982              	.L113:
 735:..\..\..\..\PSoC6_101\Sensor/driver_max30102.c ****         }
 736:..\..\..\..\PSoC6_101\Sensor/driver_max30102.c ****         prev &= ~(1 << type);                                                                      
 1983              		.loc 1 736 0
 1984 00d2 FB78     		ldrb	r3, [r7, #3]	@ zero_extendqisi2
 1985 00d4 0122     		movs	r2, #1
 1986 00d6 02FA03F3 		lsl	r3, r2, r3
 1987 00da 5BB2     		sxtb	r3, r3
 1988 00dc DB43     		mvns	r3, r3
 1989 00de 5AB2     		sxtb	r2, r3
 1990 00e0 BB7B     		ldrb	r3, [r7, #14]	@ zero_extendqisi2
 1991 00e2 5BB2     		sxtb	r3, r3
 1992 00e4 1340     		ands	r3, r3, r2
 1993 00e6 5BB2     		sxtb	r3, r3
 1994 00e8 DBB2     		uxtb	r3, r3
 1995 00ea BB73     		strb	r3, [r7, #14]
 737:..\..\..\..\PSoC6_101\Sensor/driver_max30102.c ****         prev |= enable << type;                                                                    
 1996              		.loc 1 737 0
 1997 00ec BA78     		ldrb	r2, [r7, #2]	@ zero_extendqisi2
 1998 00ee FB78     		ldrb	r3, [r7, #3]	@ zero_extendqisi2
 1999 00f0 02FA03F3 		lsl	r3, r2, r3
 2000 00f4 5AB2     		sxtb	r2, r3
 2001 00f6 BB7B     		ldrb	r3, [r7, #14]	@ zero_extendqisi2
 2002 00f8 5BB2     		sxtb	r3, r3
 2003 00fa 1343     		orrs	r3, r3, r2
 2004 00fc 5BB2     		sxtb	r3, r3
 2005 00fe DBB2     		uxtb	r3, r3
 2006 0100 BB73     		strb	r3, [r7, #14]
 738:..\..\..\..\PSoC6_101\Sensor/driver_max30102.c ****         res = handle->iic_write(MAX30102_ADDRESS, MAX30102_REG_INTERRUPT_ENABLE_1, (uint8_t *)&prev
 2007              		.loc 1 738 0
 2008 0102 7B68     		ldr	r3, [r7, #4]
 2009 0104 DC68     		ldr	r4, [r3, #12]
 2010 0106 07F10E02 		add	r2, r7, #14
 2011 010a 0123     		movs	r3, #1
 2012 010c 0221     		movs	r1, #2
 2013 010e AE20     		movs	r0, #174
 2014 0110 A047     		blx	r4
 2015 0112 0346     		mov	r3, r0
 2016 0114 FB73     		strb	r3, [r7, #15]
 739:..\..\..\..\PSoC6_101\Sensor/driver_max30102.c ****         if (res != 0)                                                                              
 2017              		.loc 1 739 0
 2018 0116 FB7B     		ldrb	r3, [r7, #15]	@ zero_extendqisi2
 2019 0118 002B     		cmp	r3, #0
 2020 011a 05D0     		beq	.L114
ARM GAS  C:\Users\49148\AppData\Local\Temp\ccWN5cWv.s 			page 52


 740:..\..\..\..\PSoC6_101\Sensor/driver_max30102.c ****         {
 741:..\..\..\..\PSoC6_101\Sensor/driver_max30102.c ****             handle->debug_print("max30102: write interrupt enable1 failed.\n");                    
 2021              		.loc 1 741 0
 2022 011c 7B68     		ldr	r3, [r7, #4]
 2023 011e 9B69     		ldr	r3, [r3, #24]
 2024 0120 0748     		ldr	r0, .L116+12
 2025 0122 9847     		blx	r3
 742:..\..\..\..\PSoC6_101\Sensor/driver_max30102.c ****            
 743:..\..\..\..\PSoC6_101\Sensor/driver_max30102.c ****             return 1;                                                                              
 2026              		.loc 1 743 0
 2027 0124 0123     		movs	r3, #1
 2028 0126 00E0     		b	.L115
 2029              	.L114:
 744:..\..\..\..\PSoC6_101\Sensor/driver_max30102.c ****         }
 745:..\..\..\..\PSoC6_101\Sensor/driver_max30102.c ****     
 746:..\..\..\..\PSoC6_101\Sensor/driver_max30102.c ****         return 0;                                                                                  
 2030              		.loc 1 746 0
 2031 0128 0023     		movs	r3, #0
 2032              	.L115:
 747:..\..\..\..\PSoC6_101\Sensor/driver_max30102.c ****     }
 748:..\..\..\..\PSoC6_101\Sensor/driver_max30102.c **** }
 2033              		.loc 1 748 0 discriminator 1
 2034 012a 1846     		mov	r0, r3
 2035 012c 1437     		adds	r7, r7, #20
 2036              		.cfi_def_cfa_offset 12
 2037 012e BD46     		mov	sp, r7
 2038              		.cfi_def_cfa_register 13
 2039              		@ sp needed
 2040 0130 90BD     		pop	{r4, r7, pc}
 2041              	.L117:
 2042 0132 00BF     		.align	2
 2043              	.L116:
 2044 0134 E4030000 		.word	.LC27
 2045 0138 10040000 		.word	.LC28
 2046 013c AC040000 		.word	.LC32
 2047 0140 D8040000 		.word	.LC33
 2048              		.cfi_endproc
 2049              	.LFE7:
 2050              		.size	max30102_set_interrupt, .-max30102_set_interrupt
 2051              		.section	.text.max30102_get_interrupt,"ax",%progbits
 2052              		.align	2
 2053              		.global	max30102_get_interrupt
 2054              		.thumb
 2055              		.thumb_func
 2056              		.type	max30102_get_interrupt, %function
 2057              	max30102_get_interrupt:
 2058              	.LFB8:
 749:..\..\..\..\PSoC6_101\Sensor/driver_max30102.c **** 
 750:..\..\..\..\PSoC6_101\Sensor/driver_max30102.c **** /**
 751:..\..\..\..\PSoC6_101\Sensor/driver_max30102.c ****  * @brief      get the interrupt bool
 752:..\..\..\..\PSoC6_101\Sensor/driver_max30102.c ****  * @param[in]  *handle points to a max30102 handle structure
 753:..\..\..\..\PSoC6_101\Sensor/driver_max30102.c ****  * @param[in]  type is the interrupt type
 754:..\..\..\..\PSoC6_101\Sensor/driver_max30102.c ****  * @param[out] *enable points to a bool value buffer
 755:..\..\..\..\PSoC6_101\Sensor/driver_max30102.c ****  * @return     status code
 756:..\..\..\..\PSoC6_101\Sensor/driver_max30102.c ****  *             - 0 success
 757:..\..\..\..\PSoC6_101\Sensor/driver_max30102.c ****  *             - 1 get interrupt failed
 758:..\..\..\..\PSoC6_101\Sensor/driver_max30102.c ****  *             - 2 handle is NULL
ARM GAS  C:\Users\49148\AppData\Local\Temp\ccWN5cWv.s 			page 53


 759:..\..\..\..\PSoC6_101\Sensor/driver_max30102.c ****  *             - 3 handle is not initialized
 760:..\..\..\..\PSoC6_101\Sensor/driver_max30102.c ****  * @note       none
 761:..\..\..\..\PSoC6_101\Sensor/driver_max30102.c ****  */
 762:..\..\..\..\PSoC6_101\Sensor/driver_max30102.c **** uint8_t max30102_get_interrupt(max30102_handle_t *handle, max30102_interrupt_t type, max30102_bool_
 763:..\..\..\..\PSoC6_101\Sensor/driver_max30102.c **** {
 2059              		.loc 1 763 0
 2060              		.cfi_startproc
 2061              		@ args = 0, pretend = 0, frame = 24
 2062              		@ frame_needed = 1, uses_anonymous_args = 0
 2063 0000 90B5     		push	{r4, r7, lr}
 2064              		.cfi_def_cfa_offset 12
 2065              		.cfi_offset 4, -12
 2066              		.cfi_offset 7, -8
 2067              		.cfi_offset 14, -4
 2068 0002 87B0     		sub	sp, sp, #28
 2069              		.cfi_def_cfa_offset 40
 2070 0004 00AF     		add	r7, sp, #0
 2071              		.cfi_def_cfa_register 7
 2072 0006 F860     		str	r0, [r7, #12]
 2073 0008 0B46     		mov	r3, r1
 2074 000a 7A60     		str	r2, [r7, #4]
 2075 000c FB72     		strb	r3, [r7, #11]
 764:..\..\..\..\PSoC6_101\Sensor/driver_max30102.c ****     uint8_t res;
 765:..\..\..\..\PSoC6_101\Sensor/driver_max30102.c ****     uint8_t prev;
 766:..\..\..\..\PSoC6_101\Sensor/driver_max30102.c ****     
 767:..\..\..\..\PSoC6_101\Sensor/driver_max30102.c ****     if (handle == NULL)                                                                            
 2076              		.loc 1 767 0
 2077 000e FB68     		ldr	r3, [r7, #12]
 2078 0010 002B     		cmp	r3, #0
 2079 0012 01D1     		bne	.L119
 768:..\..\..\..\PSoC6_101\Sensor/driver_max30102.c ****     {
 769:..\..\..\..\PSoC6_101\Sensor/driver_max30102.c ****         return 2;                                                                                  
 2080              		.loc 1 769 0
 2081 0014 0223     		movs	r3, #2
 2082 0016 47E0     		b	.L125
 2083              	.L119:
 770:..\..\..\..\PSoC6_101\Sensor/driver_max30102.c ****     }
 771:..\..\..\..\PSoC6_101\Sensor/driver_max30102.c ****     if (handle->inited != 1)                                                                       
 2084              		.loc 1 771 0
 2085 0018 FB68     		ldr	r3, [r7, #12]
 2086 001a 1B7F     		ldrb	r3, [r3, #28]	@ zero_extendqisi2
 2087 001c 012B     		cmp	r3, #1
 2088 001e 01D0     		beq	.L121
 772:..\..\..\..\PSoC6_101\Sensor/driver_max30102.c ****     {
 773:..\..\..\..\PSoC6_101\Sensor/driver_max30102.c ****         return 3;                                                                                  
 2089              		.loc 1 773 0
 2090 0020 0323     		movs	r3, #3
 2091 0022 41E0     		b	.L125
 2092              	.L121:
 774:..\..\..\..\PSoC6_101\Sensor/driver_max30102.c ****     }
 775:..\..\..\..\PSoC6_101\Sensor/driver_max30102.c **** 
 776:..\..\..\..\PSoC6_101\Sensor/driver_max30102.c ****     if (type == MAX30102_INTERRUPT_DIE_TEMP_RDY_EN)                                                
 2093              		.loc 1 776 0
 2094 0024 FB7A     		ldrb	r3, [r7, #11]	@ zero_extendqisi2
 2095 0026 012B     		cmp	r3, #1
 2096 0028 1FD1     		bne	.L122
 777:..\..\..\..\PSoC6_101\Sensor/driver_max30102.c ****     {
ARM GAS  C:\Users\49148\AppData\Local\Temp\ccWN5cWv.s 			page 54


 778:..\..\..\..\PSoC6_101\Sensor/driver_max30102.c ****         res = handle->iic_read(MAX30102_ADDRESS, MAX30102_REG_INTERRUPT_ENABLE_2, (uint8_t *)&prev,
 2097              		.loc 1 778 0
 2098 002a FB68     		ldr	r3, [r7, #12]
 2099 002c 9C68     		ldr	r4, [r3, #8]
 2100 002e 07F11602 		add	r2, r7, #22
 2101 0032 0123     		movs	r3, #1
 2102 0034 0321     		movs	r1, #3
 2103 0036 AE20     		movs	r0, #174
 2104 0038 A047     		blx	r4
 2105 003a 0346     		mov	r3, r0
 2106 003c FB75     		strb	r3, [r7, #23]
 779:..\..\..\..\PSoC6_101\Sensor/driver_max30102.c ****         if (res != 0)                                                                              
 2107              		.loc 1 779 0
 2108 003e FB7D     		ldrb	r3, [r7, #23]	@ zero_extendqisi2
 2109 0040 002B     		cmp	r3, #0
 2110 0042 05D0     		beq	.L123
 780:..\..\..\..\PSoC6_101\Sensor/driver_max30102.c ****         {
 781:..\..\..\..\PSoC6_101\Sensor/driver_max30102.c ****             handle->debug_print("max30102: read interrupt enable2 failed.\n");                     
 2111              		.loc 1 781 0
 2112 0044 FB68     		ldr	r3, [r7, #12]
 2113 0046 9B69     		ldr	r3, [r3, #24]
 2114 0048 1948     		ldr	r0, .L126
 2115 004a 9847     		blx	r3
 782:..\..\..\..\PSoC6_101\Sensor/driver_max30102.c ****            
 783:..\..\..\..\PSoC6_101\Sensor/driver_max30102.c ****             return 1;                                                                              
 2116              		.loc 1 783 0
 2117 004c 0123     		movs	r3, #1
 2118 004e 2BE0     		b	.L125
 2119              	.L123:
 784:..\..\..\..\PSoC6_101\Sensor/driver_max30102.c ****         }
 785:..\..\..\..\PSoC6_101\Sensor/driver_max30102.c ****         *enable = (max30102_bool_t)((prev >> type) & 0x01);                                        
 2120              		.loc 1 785 0
 2121 0050 BB7D     		ldrb	r3, [r7, #22]	@ zero_extendqisi2
 2122 0052 1A46     		mov	r2, r3
 2123 0054 FB7A     		ldrb	r3, [r7, #11]	@ zero_extendqisi2
 2124 0056 42FA03F3 		asr	r3, r2, r3
 2125 005a DBB2     		uxtb	r3, r3
 2126 005c 03F00103 		and	r3, r3, #1
 2127 0060 DAB2     		uxtb	r2, r3
 2128 0062 7B68     		ldr	r3, [r7, #4]
 2129 0064 1A70     		strb	r2, [r3]
 786:..\..\..\..\PSoC6_101\Sensor/driver_max30102.c ****     
 787:..\..\..\..\PSoC6_101\Sensor/driver_max30102.c ****         return 0;                                                                                  
 2130              		.loc 1 787 0
 2131 0066 0023     		movs	r3, #0
 2132 0068 1EE0     		b	.L125
 2133              	.L122:
 788:..\..\..\..\PSoC6_101\Sensor/driver_max30102.c ****     }
 789:..\..\..\..\PSoC6_101\Sensor/driver_max30102.c ****     else
 790:..\..\..\..\PSoC6_101\Sensor/driver_max30102.c ****     {
 791:..\..\..\..\PSoC6_101\Sensor/driver_max30102.c ****         res = handle->iic_read(MAX30102_ADDRESS, MAX30102_REG_INTERRUPT_ENABLE_1, (uint8_t *)&prev,
 2134              		.loc 1 791 0
 2135 006a FB68     		ldr	r3, [r7, #12]
 2136 006c 9C68     		ldr	r4, [r3, #8]
 2137 006e 07F11602 		add	r2, r7, #22
 2138 0072 0123     		movs	r3, #1
 2139 0074 0221     		movs	r1, #2
ARM GAS  C:\Users\49148\AppData\Local\Temp\ccWN5cWv.s 			page 55


 2140 0076 AE20     		movs	r0, #174
 2141 0078 A047     		blx	r4
 2142 007a 0346     		mov	r3, r0
 2143 007c FB75     		strb	r3, [r7, #23]
 792:..\..\..\..\PSoC6_101\Sensor/driver_max30102.c ****         if (res != 0)                                                                              
 2144              		.loc 1 792 0
 2145 007e FB7D     		ldrb	r3, [r7, #23]	@ zero_extendqisi2
 2146 0080 002B     		cmp	r3, #0
 2147 0082 05D0     		beq	.L124
 793:..\..\..\..\PSoC6_101\Sensor/driver_max30102.c ****         {
 794:..\..\..\..\PSoC6_101\Sensor/driver_max30102.c ****             handle->debug_print("max30102: read interrupt enable1 failed.\n");                     
 2148              		.loc 1 794 0
 2149 0084 FB68     		ldr	r3, [r7, #12]
 2150 0086 9B69     		ldr	r3, [r3, #24]
 2151 0088 0A48     		ldr	r0, .L126+4
 2152 008a 9847     		blx	r3
 795:..\..\..\..\PSoC6_101\Sensor/driver_max30102.c ****            
 796:..\..\..\..\PSoC6_101\Sensor/driver_max30102.c ****             return 1;                                                                              
 2153              		.loc 1 796 0
 2154 008c 0123     		movs	r3, #1
 2155 008e 0BE0     		b	.L125
 2156              	.L124:
 797:..\..\..\..\PSoC6_101\Sensor/driver_max30102.c ****         }
 798:..\..\..\..\PSoC6_101\Sensor/driver_max30102.c ****         *enable = (max30102_bool_t)((prev >> type) & 0x01);                                        
 2157              		.loc 1 798 0
 2158 0090 BB7D     		ldrb	r3, [r7, #22]	@ zero_extendqisi2
 2159 0092 1A46     		mov	r2, r3
 2160 0094 FB7A     		ldrb	r3, [r7, #11]	@ zero_extendqisi2
 2161 0096 42FA03F3 		asr	r3, r2, r3
 2162 009a DBB2     		uxtb	r3, r3
 2163 009c 03F00103 		and	r3, r3, #1
 2164 00a0 DAB2     		uxtb	r2, r3
 2165 00a2 7B68     		ldr	r3, [r7, #4]
 2166 00a4 1A70     		strb	r2, [r3]
 799:..\..\..\..\PSoC6_101\Sensor/driver_max30102.c ****     
 800:..\..\..\..\PSoC6_101\Sensor/driver_max30102.c ****         return 0;                                                                                  
 2167              		.loc 1 800 0
 2168 00a6 0023     		movs	r3, #0
 2169              	.L125:
 801:..\..\..\..\PSoC6_101\Sensor/driver_max30102.c ****     }
 802:..\..\..\..\PSoC6_101\Sensor/driver_max30102.c **** }
 2170              		.loc 1 802 0 discriminator 1
 2171 00a8 1846     		mov	r0, r3
 2172 00aa 1C37     		adds	r7, r7, #28
 2173              		.cfi_def_cfa_offset 12
 2174 00ac BD46     		mov	sp, r7
 2175              		.cfi_def_cfa_register 13
 2176              		@ sp needed
 2177 00ae 90BD     		pop	{r4, r7, pc}
 2178              	.L127:
 2179              		.align	2
 2180              	.L126:
 2181 00b0 E4030000 		.word	.LC27
 2182 00b4 AC040000 		.word	.LC32
 2183              		.cfi_endproc
 2184              	.LFE8:
 2185              		.size	max30102_get_interrupt, .-max30102_get_interrupt
ARM GAS  C:\Users\49148\AppData\Local\Temp\ccWN5cWv.s 			page 56


 2186              		.section	.rodata
 2187 0503 00       		.align	2
 2188              	.LC34:
 2189 0504 6D617833 		.ascii	"max30102: pointer can't be over 0x1F.\012\000"
 2189      30313032 
 2189      3A20706F 
 2189      696E7465 
 2189      72206361 
 2190              		.section	.text.max30102_set_fifo_write_pointer,"ax",%progbits
 2191              		.align	2
 2192              		.global	max30102_set_fifo_write_pointer
 2193              		.thumb
 2194              		.thumb_func
 2195              		.type	max30102_set_fifo_write_pointer, %function
 2196              	max30102_set_fifo_write_pointer:
 2197              	.LFB9:
 803:..\..\..\..\PSoC6_101\Sensor/driver_max30102.c **** 
 804:..\..\..\..\PSoC6_101\Sensor/driver_max30102.c **** /**
 805:..\..\..\..\PSoC6_101\Sensor/driver_max30102.c ****  * @brief     set the fifo write pointer
 806:..\..\..\..\PSoC6_101\Sensor/driver_max30102.c ****  * @param[in] *handle points to a max30102 handle structure
 807:..\..\..\..\PSoC6_101\Sensor/driver_max30102.c ****  * @param[in] pointer is the written pointer
 808:..\..\..\..\PSoC6_101\Sensor/driver_max30102.c ****  * @return    status code
 809:..\..\..\..\PSoC6_101\Sensor/driver_max30102.c ****  *            - 0 success
 810:..\..\..\..\PSoC6_101\Sensor/driver_max30102.c ****  *            - 1 set fifo write pointer failed
 811:..\..\..\..\PSoC6_101\Sensor/driver_max30102.c ****  *            - 2 handle is NULL
 812:..\..\..\..\PSoC6_101\Sensor/driver_max30102.c ****  *            - 3 handle is not initialized
 813:..\..\..\..\PSoC6_101\Sensor/driver_max30102.c ****  *            - 4 pointer can't be over 0x1F
 814:..\..\..\..\PSoC6_101\Sensor/driver_max30102.c ****  * @note      pointer <= 0x1F
 815:..\..\..\..\PSoC6_101\Sensor/driver_max30102.c ****  */
 816:..\..\..\..\PSoC6_101\Sensor/driver_max30102.c **** uint8_t max30102_set_fifo_write_pointer(max30102_handle_t *handle, uint8_t pointer)
 817:..\..\..\..\PSoC6_101\Sensor/driver_max30102.c **** {
 2198              		.loc 1 817 0
 2199              		.cfi_startproc
 2200              		@ args = 0, pretend = 0, frame = 16
 2201              		@ frame_needed = 1, uses_anonymous_args = 0
 2202 0000 90B5     		push	{r4, r7, lr}
 2203              		.cfi_def_cfa_offset 12
 2204              		.cfi_offset 4, -12
 2205              		.cfi_offset 7, -8
 2206              		.cfi_offset 14, -4
 2207 0002 85B0     		sub	sp, sp, #20
 2208              		.cfi_def_cfa_offset 32
 2209 0004 00AF     		add	r7, sp, #0
 2210              		.cfi_def_cfa_register 7
 2211 0006 7860     		str	r0, [r7, #4]
 2212 0008 0B46     		mov	r3, r1
 2213 000a FB70     		strb	r3, [r7, #3]
 818:..\..\..\..\PSoC6_101\Sensor/driver_max30102.c ****     uint8_t res;
 819:..\..\..\..\PSoC6_101\Sensor/driver_max30102.c ****     uint8_t prev;
 820:..\..\..\..\PSoC6_101\Sensor/driver_max30102.c ****     
 821:..\..\..\..\PSoC6_101\Sensor/driver_max30102.c ****     if (handle == NULL)                                                                            
 2214              		.loc 1 821 0
 2215 000c 7B68     		ldr	r3, [r7, #4]
 2216 000e 002B     		cmp	r3, #0
 2217 0010 01D1     		bne	.L129
 822:..\..\..\..\PSoC6_101\Sensor/driver_max30102.c ****     {
 823:..\..\..\..\PSoC6_101\Sensor/driver_max30102.c ****         return 2;                                                                                  
ARM GAS  C:\Users\49148\AppData\Local\Temp\ccWN5cWv.s 			page 57


 2218              		.loc 1 823 0
 2219 0012 0223     		movs	r3, #2
 2220 0014 27E0     		b	.L134
 2221              	.L129:
 824:..\..\..\..\PSoC6_101\Sensor/driver_max30102.c ****     }
 825:..\..\..\..\PSoC6_101\Sensor/driver_max30102.c ****     if (handle->inited != 1)                                                                       
 2222              		.loc 1 825 0
 2223 0016 7B68     		ldr	r3, [r7, #4]
 2224 0018 1B7F     		ldrb	r3, [r3, #28]	@ zero_extendqisi2
 2225 001a 012B     		cmp	r3, #1
 2226 001c 01D0     		beq	.L131
 826:..\..\..\..\PSoC6_101\Sensor/driver_max30102.c ****     {
 827:..\..\..\..\PSoC6_101\Sensor/driver_max30102.c ****         return 3;                                                                                  
 2227              		.loc 1 827 0
 2228 001e 0323     		movs	r3, #3
 2229 0020 21E0     		b	.L134
 2230              	.L131:
 828:..\..\..\..\PSoC6_101\Sensor/driver_max30102.c ****     }
 829:..\..\..\..\PSoC6_101\Sensor/driver_max30102.c ****     if (pointer > 0x1F)                                                                            
 2231              		.loc 1 829 0
 2232 0022 FB78     		ldrb	r3, [r7, #3]	@ zero_extendqisi2
 2233 0024 1F2B     		cmp	r3, #31
 2234 0026 05D9     		bls	.L132
 830:..\..\..\..\PSoC6_101\Sensor/driver_max30102.c ****     {
 831:..\..\..\..\PSoC6_101\Sensor/driver_max30102.c ****         handle->debug_print("max30102: pointer can't be over 0x1F.\n");                            
 2235              		.loc 1 831 0
 2236 0028 7B68     		ldr	r3, [r7, #4]
 2237 002a 9B69     		ldr	r3, [r3, #24]
 2238 002c 1048     		ldr	r0, .L135
 2239 002e 9847     		blx	r3
 832:..\..\..\..\PSoC6_101\Sensor/driver_max30102.c ****        
 833:..\..\..\..\PSoC6_101\Sensor/driver_max30102.c ****         return 4;                                                                                  
 2240              		.loc 1 833 0
 2241 0030 0423     		movs	r3, #4
 2242 0032 18E0     		b	.L134
 2243              	.L132:
 834:..\..\..\..\PSoC6_101\Sensor/driver_max30102.c ****     }
 835:..\..\..\..\PSoC6_101\Sensor/driver_max30102.c **** 
 836:..\..\..\..\PSoC6_101\Sensor/driver_max30102.c ****     prev = pointer & 0x1F;                                                                         
 2244              		.loc 1 836 0
 2245 0034 FB78     		ldrb	r3, [r7, #3]
 2246 0036 03F01F03 		and	r3, r3, #31
 2247 003a DBB2     		uxtb	r3, r3
 2248 003c BB73     		strb	r3, [r7, #14]
 837:..\..\..\..\PSoC6_101\Sensor/driver_max30102.c ****     res = handle->iic_write(MAX30102_ADDRESS, MAX30102_REG_FIFO_WRITE_POINTER, (uint8_t *)&prev, 1)
 2249              		.loc 1 837 0
 2250 003e 7B68     		ldr	r3, [r7, #4]
 2251 0040 DC68     		ldr	r4, [r3, #12]
 2252 0042 07F10E02 		add	r2, r7, #14
 2253 0046 0123     		movs	r3, #1
 2254 0048 0421     		movs	r1, #4
 2255 004a AE20     		movs	r0, #174
 2256 004c A047     		blx	r4
 2257 004e 0346     		mov	r3, r0
 2258 0050 FB73     		strb	r3, [r7, #15]
 838:..\..\..\..\PSoC6_101\Sensor/driver_max30102.c ****     if (res != 0)                                                                                  
 2259              		.loc 1 838 0
ARM GAS  C:\Users\49148\AppData\Local\Temp\ccWN5cWv.s 			page 58


 2260 0052 FB7B     		ldrb	r3, [r7, #15]	@ zero_extendqisi2
 2261 0054 002B     		cmp	r3, #0
 2262 0056 05D0     		beq	.L133
 839:..\..\..\..\PSoC6_101\Sensor/driver_max30102.c ****     {
 840:..\..\..\..\PSoC6_101\Sensor/driver_max30102.c ****         handle->debug_print("max30102: write fifo write pointer failed.\n");                       
 2263              		.loc 1 840 0
 2264 0058 7B68     		ldr	r3, [r7, #4]
 2265 005a 9B69     		ldr	r3, [r3, #24]
 2266 005c 0548     		ldr	r0, .L135+4
 2267 005e 9847     		blx	r3
 841:..\..\..\..\PSoC6_101\Sensor/driver_max30102.c ****        
 842:..\..\..\..\PSoC6_101\Sensor/driver_max30102.c ****         return 1;                                                                                  
 2268              		.loc 1 842 0
 2269 0060 0123     		movs	r3, #1
 2270 0062 00E0     		b	.L134
 2271              	.L133:
 843:..\..\..\..\PSoC6_101\Sensor/driver_max30102.c ****     }
 844:..\..\..\..\PSoC6_101\Sensor/driver_max30102.c ****     
 845:..\..\..\..\PSoC6_101\Sensor/driver_max30102.c ****     return 0;                                                                                      
 2272              		.loc 1 845 0
 2273 0064 0023     		movs	r3, #0
 2274              	.L134:
 846:..\..\..\..\PSoC6_101\Sensor/driver_max30102.c **** }
 2275              		.loc 1 846 0 discriminator 1
 2276 0066 1846     		mov	r0, r3
 2277 0068 1437     		adds	r7, r7, #20
 2278              		.cfi_def_cfa_offset 12
 2279 006a BD46     		mov	sp, r7
 2280              		.cfi_def_cfa_register 13
 2281              		@ sp needed
 2282 006c 90BD     		pop	{r4, r7, pc}
 2283              	.L136:
 2284 006e 00BF     		.align	2
 2285              	.L135:
 2286 0070 04050000 		.word	.LC34
 2287 0074 B4010000 		.word	.LC13
 2288              		.cfi_endproc
 2289              	.LFE9:
 2290              		.size	max30102_set_fifo_write_pointer, .-max30102_set_fifo_write_pointer
 2291              		.section	.rodata
 2292 052b 00       		.align	2
 2293              	.LC35:
 2294 052c 6D617833 		.ascii	"max30102: read fifo write pointer failed.\012\000"
 2294      30313032 
 2294      3A207265 
 2294      61642066 
 2294      69666F20 
 2295              		.section	.text.max30102_get_fifo_write_pointer,"ax",%progbits
 2296              		.align	2
 2297              		.global	max30102_get_fifo_write_pointer
 2298              		.thumb
 2299              		.thumb_func
 2300              		.type	max30102_get_fifo_write_pointer, %function
 2301              	max30102_get_fifo_write_pointer:
 2302              	.LFB10:
 847:..\..\..\..\PSoC6_101\Sensor/driver_max30102.c **** 
 848:..\..\..\..\PSoC6_101\Sensor/driver_max30102.c **** /**
ARM GAS  C:\Users\49148\AppData\Local\Temp\ccWN5cWv.s 			page 59


 849:..\..\..\..\PSoC6_101\Sensor/driver_max30102.c ****  * @brief      get the fifo write pointer
 850:..\..\..\..\PSoC6_101\Sensor/driver_max30102.c ****  * @param[in]  *handle points to a max30102 handle structure
 851:..\..\..\..\PSoC6_101\Sensor/driver_max30102.c ****  * @param[out] *pointer points to a pointer buffer
 852:..\..\..\..\PSoC6_101\Sensor/driver_max30102.c ****  * @return     status code
 853:..\..\..\..\PSoC6_101\Sensor/driver_max30102.c ****  *             - 0 success
 854:..\..\..\..\PSoC6_101\Sensor/driver_max30102.c ****  *             - 1 get fifo write pointer failed
 855:..\..\..\..\PSoC6_101\Sensor/driver_max30102.c ****  *             - 2 handle is NULL
 856:..\..\..\..\PSoC6_101\Sensor/driver_max30102.c ****  *             - 3 handle is not initialized
 857:..\..\..\..\PSoC6_101\Sensor/driver_max30102.c ****  * @note       none
 858:..\..\..\..\PSoC6_101\Sensor/driver_max30102.c ****  */
 859:..\..\..\..\PSoC6_101\Sensor/driver_max30102.c **** uint8_t max30102_get_fifo_write_pointer(max30102_handle_t *handle, uint8_t *pointer)
 860:..\..\..\..\PSoC6_101\Sensor/driver_max30102.c **** {
 2303              		.loc 1 860 0
 2304              		.cfi_startproc
 2305              		@ args = 0, pretend = 0, frame = 16
 2306              		@ frame_needed = 1, uses_anonymous_args = 0
 2307 0000 90B5     		push	{r4, r7, lr}
 2308              		.cfi_def_cfa_offset 12
 2309              		.cfi_offset 4, -12
 2310              		.cfi_offset 7, -8
 2311              		.cfi_offset 14, -4
 2312 0002 85B0     		sub	sp, sp, #20
 2313              		.cfi_def_cfa_offset 32
 2314 0004 00AF     		add	r7, sp, #0
 2315              		.cfi_def_cfa_register 7
 2316 0006 7860     		str	r0, [r7, #4]
 2317 0008 3960     		str	r1, [r7]
 861:..\..\..\..\PSoC6_101\Sensor/driver_max30102.c ****     uint8_t res;
 862:..\..\..\..\PSoC6_101\Sensor/driver_max30102.c ****     uint8_t prev;
 863:..\..\..\..\PSoC6_101\Sensor/driver_max30102.c ****     
 864:..\..\..\..\PSoC6_101\Sensor/driver_max30102.c ****     if (handle == NULL)                                                                            
 2318              		.loc 1 864 0
 2319 000a 7B68     		ldr	r3, [r7, #4]
 2320 000c 002B     		cmp	r3, #0
 2321 000e 01D1     		bne	.L138
 865:..\..\..\..\PSoC6_101\Sensor/driver_max30102.c ****     {
 866:..\..\..\..\PSoC6_101\Sensor/driver_max30102.c ****         return 2;                                                                                  
 2322              		.loc 1 866 0
 2323 0010 0223     		movs	r3, #2
 2324 0012 1FE0     		b	.L142
 2325              	.L138:
 867:..\..\..\..\PSoC6_101\Sensor/driver_max30102.c ****     }
 868:..\..\..\..\PSoC6_101\Sensor/driver_max30102.c ****     if (handle->inited != 1)                                                                       
 2326              		.loc 1 868 0
 2327 0014 7B68     		ldr	r3, [r7, #4]
 2328 0016 1B7F     		ldrb	r3, [r3, #28]	@ zero_extendqisi2
 2329 0018 012B     		cmp	r3, #1
 2330 001a 01D0     		beq	.L140
 869:..\..\..\..\PSoC6_101\Sensor/driver_max30102.c ****     {
 870:..\..\..\..\PSoC6_101\Sensor/driver_max30102.c ****         return 3;                                                                                  
 2331              		.loc 1 870 0
 2332 001c 0323     		movs	r3, #3
 2333 001e 19E0     		b	.L142
 2334              	.L140:
 871:..\..\..\..\PSoC6_101\Sensor/driver_max30102.c ****     }
 872:..\..\..\..\PSoC6_101\Sensor/driver_max30102.c **** 
 873:..\..\..\..\PSoC6_101\Sensor/driver_max30102.c ****     res = handle->iic_read(MAX30102_ADDRESS, MAX30102_REG_FIFO_WRITE_POINTER, (uint8_t *)&prev, 1);
ARM GAS  C:\Users\49148\AppData\Local\Temp\ccWN5cWv.s 			page 60


 2335              		.loc 1 873 0
 2336 0020 7B68     		ldr	r3, [r7, #4]
 2337 0022 9C68     		ldr	r4, [r3, #8]
 2338 0024 07F10E02 		add	r2, r7, #14
 2339 0028 0123     		movs	r3, #1
 2340 002a 0421     		movs	r1, #4
 2341 002c AE20     		movs	r0, #174
 2342 002e A047     		blx	r4
 2343 0030 0346     		mov	r3, r0
 2344 0032 FB73     		strb	r3, [r7, #15]
 874:..\..\..\..\PSoC6_101\Sensor/driver_max30102.c ****     if (res != 0)                                                                                  
 2345              		.loc 1 874 0
 2346 0034 FB7B     		ldrb	r3, [r7, #15]	@ zero_extendqisi2
 2347 0036 002B     		cmp	r3, #0
 2348 0038 05D0     		beq	.L141
 875:..\..\..\..\PSoC6_101\Sensor/driver_max30102.c ****     {
 876:..\..\..\..\PSoC6_101\Sensor/driver_max30102.c ****         handle->debug_print("max30102: read fifo write pointer failed.\n");                        
 2349              		.loc 1 876 0
 2350 003a 7B68     		ldr	r3, [r7, #4]
 2351 003c 9B69     		ldr	r3, [r3, #24]
 2352 003e 0748     		ldr	r0, .L143
 2353 0040 9847     		blx	r3
 877:..\..\..\..\PSoC6_101\Sensor/driver_max30102.c ****        
 878:..\..\..\..\PSoC6_101\Sensor/driver_max30102.c ****         return 1;                                                                                  
 2354              		.loc 1 878 0
 2355 0042 0123     		movs	r3, #1
 2356 0044 06E0     		b	.L142
 2357              	.L141:
 879:..\..\..\..\PSoC6_101\Sensor/driver_max30102.c ****     }
 880:..\..\..\..\PSoC6_101\Sensor/driver_max30102.c ****     *pointer = prev & 0x1F;                                                                        
 2358              		.loc 1 880 0
 2359 0046 BB7B     		ldrb	r3, [r7, #14]	@ zero_extendqisi2
 2360 0048 03F01F03 		and	r3, r3, #31
 2361 004c DAB2     		uxtb	r2, r3
 2362 004e 3B68     		ldr	r3, [r7]
 2363 0050 1A70     		strb	r2, [r3]
 881:..\..\..\..\PSoC6_101\Sensor/driver_max30102.c ****     
 882:..\..\..\..\PSoC6_101\Sensor/driver_max30102.c ****     return 0;                                                                                      
 2364              		.loc 1 882 0
 2365 0052 0023     		movs	r3, #0
 2366              	.L142:
 883:..\..\..\..\PSoC6_101\Sensor/driver_max30102.c **** }
 2367              		.loc 1 883 0 discriminator 1
 2368 0054 1846     		mov	r0, r3
 2369 0056 1437     		adds	r7, r7, #20
 2370              		.cfi_def_cfa_offset 12
 2371 0058 BD46     		mov	sp, r7
 2372              		.cfi_def_cfa_register 13
 2373              		@ sp needed
 2374 005a 90BD     		pop	{r4, r7, pc}
 2375              	.L144:
 2376              		.align	2
 2377              	.L143:
 2378 005c 2C050000 		.word	.LC35
 2379              		.cfi_endproc
 2380              	.LFE10:
 2381              		.size	max30102_get_fifo_write_pointer, .-max30102_get_fifo_write_pointer
ARM GAS  C:\Users\49148\AppData\Local\Temp\ccWN5cWv.s 			page 61


 2382              		.section	.rodata
 2383 0557 00       		.align	2
 2384              	.LC36:
 2385 0558 6D617833 		.ascii	"max30102: counter can't be over 0x1F.\012\000"
 2385      30313032 
 2385      3A20636F 
 2385      756E7465 
 2385      72206361 
 2386 057f 00       		.align	2
 2387              	.LC37:
 2388 0580 6D617833 		.ascii	"max30102: set fifo overflow counter failed.\012\000"
 2388      30313032 
 2388      3A207365 
 2388      74206669 
 2388      666F206F 
 2389              		.section	.text.max30102_set_fifo_overflow_counter,"ax",%progbits
 2390              		.align	2
 2391              		.global	max30102_set_fifo_overflow_counter
 2392              		.thumb
 2393              		.thumb_func
 2394              		.type	max30102_set_fifo_overflow_counter, %function
 2395              	max30102_set_fifo_overflow_counter:
 2396              	.LFB11:
 884:..\..\..\..\PSoC6_101\Sensor/driver_max30102.c **** 
 885:..\..\..\..\PSoC6_101\Sensor/driver_max30102.c **** /**
 886:..\..\..\..\PSoC6_101\Sensor/driver_max30102.c ****  * @brief     set the fifo overflow counter
 887:..\..\..\..\PSoC6_101\Sensor/driver_max30102.c ****  * @param[in] *handle points to a max30102 handle structure
 888:..\..\..\..\PSoC6_101\Sensor/driver_max30102.c ****  * @param[in] counter is the overflow counter
 889:..\..\..\..\PSoC6_101\Sensor/driver_max30102.c ****  * @return    status code
 890:..\..\..\..\PSoC6_101\Sensor/driver_max30102.c ****  *            - 0 success
 891:..\..\..\..\PSoC6_101\Sensor/driver_max30102.c ****  *            - 1 set fifo overflow counter failed
 892:..\..\..\..\PSoC6_101\Sensor/driver_max30102.c ****  *            - 2 handle is NULL
 893:..\..\..\..\PSoC6_101\Sensor/driver_max30102.c ****  *            - 3 handle is not initialized
 894:..\..\..\..\PSoC6_101\Sensor/driver_max30102.c ****  *            - 4 counter can't be over 0x1F
 895:..\..\..\..\PSoC6_101\Sensor/driver_max30102.c ****  * @note      counter <= 0x1F
 896:..\..\..\..\PSoC6_101\Sensor/driver_max30102.c ****  */
 897:..\..\..\..\PSoC6_101\Sensor/driver_max30102.c **** uint8_t max30102_set_fifo_overflow_counter(max30102_handle_t *handle, uint8_t counter)
 898:..\..\..\..\PSoC6_101\Sensor/driver_max30102.c **** {
 2397              		.loc 1 898 0
 2398              		.cfi_startproc
 2399              		@ args = 0, pretend = 0, frame = 16
 2400              		@ frame_needed = 1, uses_anonymous_args = 0
 2401 0000 90B5     		push	{r4, r7, lr}
 2402              		.cfi_def_cfa_offset 12
 2403              		.cfi_offset 4, -12
 2404              		.cfi_offset 7, -8
 2405              		.cfi_offset 14, -4
 2406 0002 85B0     		sub	sp, sp, #20
 2407              		.cfi_def_cfa_offset 32
 2408 0004 00AF     		add	r7, sp, #0
 2409              		.cfi_def_cfa_register 7
 2410 0006 7860     		str	r0, [r7, #4]
 2411 0008 0B46     		mov	r3, r1
 2412 000a FB70     		strb	r3, [r7, #3]
 899:..\..\..\..\PSoC6_101\Sensor/driver_max30102.c ****     uint8_t res;
 900:..\..\..\..\PSoC6_101\Sensor/driver_max30102.c ****     uint8_t prev;
 901:..\..\..\..\PSoC6_101\Sensor/driver_max30102.c ****     
ARM GAS  C:\Users\49148\AppData\Local\Temp\ccWN5cWv.s 			page 62


 902:..\..\..\..\PSoC6_101\Sensor/driver_max30102.c ****     if (handle == NULL)                                                                            
 2413              		.loc 1 902 0
 2414 000c 7B68     		ldr	r3, [r7, #4]
 2415 000e 002B     		cmp	r3, #0
 2416 0010 01D1     		bne	.L146
 903:..\..\..\..\PSoC6_101\Sensor/driver_max30102.c ****     {
 904:..\..\..\..\PSoC6_101\Sensor/driver_max30102.c ****         return 2;                                                                                  
 2417              		.loc 1 904 0
 2418 0012 0223     		movs	r3, #2
 2419 0014 27E0     		b	.L151
 2420              	.L146:
 905:..\..\..\..\PSoC6_101\Sensor/driver_max30102.c ****     }
 906:..\..\..\..\PSoC6_101\Sensor/driver_max30102.c ****     if (handle->inited != 1)                                                                       
 2421              		.loc 1 906 0
 2422 0016 7B68     		ldr	r3, [r7, #4]
 2423 0018 1B7F     		ldrb	r3, [r3, #28]	@ zero_extendqisi2
 2424 001a 012B     		cmp	r3, #1
 2425 001c 01D0     		beq	.L148
 907:..\..\..\..\PSoC6_101\Sensor/driver_max30102.c ****     {
 908:..\..\..\..\PSoC6_101\Sensor/driver_max30102.c ****         return 3;                                                                                  
 2426              		.loc 1 908 0
 2427 001e 0323     		movs	r3, #3
 2428 0020 21E0     		b	.L151
 2429              	.L148:
 909:..\..\..\..\PSoC6_101\Sensor/driver_max30102.c ****     }
 910:..\..\..\..\PSoC6_101\Sensor/driver_max30102.c ****     if (counter > 0x1F)                                                                            
 2430              		.loc 1 910 0
 2431 0022 FB78     		ldrb	r3, [r7, #3]	@ zero_extendqisi2
 2432 0024 1F2B     		cmp	r3, #31
 2433 0026 05D9     		bls	.L149
 911:..\..\..\..\PSoC6_101\Sensor/driver_max30102.c ****     {
 912:..\..\..\..\PSoC6_101\Sensor/driver_max30102.c ****         handle->debug_print("max30102: counter can't be over 0x1F.\n");                            
 2434              		.loc 1 912 0
 2435 0028 7B68     		ldr	r3, [r7, #4]
 2436 002a 9B69     		ldr	r3, [r3, #24]
 2437 002c 1048     		ldr	r0, .L152
 2438 002e 9847     		blx	r3
 913:..\..\..\..\PSoC6_101\Sensor/driver_max30102.c ****        
 914:..\..\..\..\PSoC6_101\Sensor/driver_max30102.c ****         return 4;                                                                                  
 2439              		.loc 1 914 0
 2440 0030 0423     		movs	r3, #4
 2441 0032 18E0     		b	.L151
 2442              	.L149:
 915:..\..\..\..\PSoC6_101\Sensor/driver_max30102.c ****     }
 916:..\..\..\..\PSoC6_101\Sensor/driver_max30102.c **** 
 917:..\..\..\..\PSoC6_101\Sensor/driver_max30102.c ****     prev = counter & 0x1F;                                                                         
 2443              		.loc 1 917 0
 2444 0034 FB78     		ldrb	r3, [r7, #3]
 2445 0036 03F01F03 		and	r3, r3, #31
 2446 003a DBB2     		uxtb	r3, r3
 2447 003c BB73     		strb	r3, [r7, #14]
 918:..\..\..\..\PSoC6_101\Sensor/driver_max30102.c ****     res = handle->iic_write(MAX30102_ADDRESS, MAX30102_REG_OVERFLOW_COUNTER, (uint8_t *)&prev, 1); 
 2448              		.loc 1 918 0
 2449 003e 7B68     		ldr	r3, [r7, #4]
 2450 0040 DC68     		ldr	r4, [r3, #12]
 2451 0042 07F10E02 		add	r2, r7, #14
 2452 0046 0123     		movs	r3, #1
ARM GAS  C:\Users\49148\AppData\Local\Temp\ccWN5cWv.s 			page 63


 2453 0048 0521     		movs	r1, #5
 2454 004a AE20     		movs	r0, #174
 2455 004c A047     		blx	r4
 2456 004e 0346     		mov	r3, r0
 2457 0050 FB73     		strb	r3, [r7, #15]
 919:..\..\..\..\PSoC6_101\Sensor/driver_max30102.c ****     if (res != 0)                                                                                  
 2458              		.loc 1 919 0
 2459 0052 FB7B     		ldrb	r3, [r7, #15]	@ zero_extendqisi2
 2460 0054 002B     		cmp	r3, #0
 2461 0056 05D0     		beq	.L150
 920:..\..\..\..\PSoC6_101\Sensor/driver_max30102.c ****     {
 921:..\..\..\..\PSoC6_101\Sensor/driver_max30102.c ****         handle->debug_print("max30102: set fifo overflow counter failed.\n");                      
 2462              		.loc 1 921 0
 2463 0058 7B68     		ldr	r3, [r7, #4]
 2464 005a 9B69     		ldr	r3, [r3, #24]
 2465 005c 0548     		ldr	r0, .L152+4
 2466 005e 9847     		blx	r3
 922:..\..\..\..\PSoC6_101\Sensor/driver_max30102.c ****        
 923:..\..\..\..\PSoC6_101\Sensor/driver_max30102.c ****         return 1;                                                                                  
 2467              		.loc 1 923 0
 2468 0060 0123     		movs	r3, #1
 2469 0062 00E0     		b	.L151
 2470              	.L150:
 924:..\..\..\..\PSoC6_101\Sensor/driver_max30102.c ****     }
 925:..\..\..\..\PSoC6_101\Sensor/driver_max30102.c ****     
 926:..\..\..\..\PSoC6_101\Sensor/driver_max30102.c ****     return 0;                                                                                      
 2471              		.loc 1 926 0
 2472 0064 0023     		movs	r3, #0
 2473              	.L151:
 927:..\..\..\..\PSoC6_101\Sensor/driver_max30102.c **** }
 2474              		.loc 1 927 0 discriminator 1
 2475 0066 1846     		mov	r0, r3
 2476 0068 1437     		adds	r7, r7, #20
 2477              		.cfi_def_cfa_offset 12
 2478 006a BD46     		mov	sp, r7
 2479              		.cfi_def_cfa_register 13
 2480              		@ sp needed
 2481 006c 90BD     		pop	{r4, r7, pc}
 2482              	.L153:
 2483 006e 00BF     		.align	2
 2484              	.L152:
 2485 0070 58050000 		.word	.LC36
 2486 0074 80050000 		.word	.LC37
 2487              		.cfi_endproc
 2488              	.LFE11:
 2489              		.size	max30102_set_fifo_overflow_counter, .-max30102_set_fifo_overflow_counter
 2490              		.section	.rodata
 2491 05ad 000000   		.align	2
 2492              	.LC38:
 2493 05b0 6D617833 		.ascii	"max30102: get fifo overflow counter failed.\012\000"
 2493      30313032 
 2493      3A206765 
 2493      74206669 
 2493      666F206F 
 2494              		.section	.text.max30102_get_fifo_overflow_counter,"ax",%progbits
 2495              		.align	2
 2496              		.global	max30102_get_fifo_overflow_counter
ARM GAS  C:\Users\49148\AppData\Local\Temp\ccWN5cWv.s 			page 64


 2497              		.thumb
 2498              		.thumb_func
 2499              		.type	max30102_get_fifo_overflow_counter, %function
 2500              	max30102_get_fifo_overflow_counter:
 2501              	.LFB12:
 928:..\..\..\..\PSoC6_101\Sensor/driver_max30102.c **** 
 929:..\..\..\..\PSoC6_101\Sensor/driver_max30102.c **** /**
 930:..\..\..\..\PSoC6_101\Sensor/driver_max30102.c ****  * @brief      get the fifo overflow counter
 931:..\..\..\..\PSoC6_101\Sensor/driver_max30102.c ****  * @param[in]  *handle points to a max30102 handle structure
 932:..\..\..\..\PSoC6_101\Sensor/driver_max30102.c ****  * @param[out] *counter points to a counter buffer
 933:..\..\..\..\PSoC6_101\Sensor/driver_max30102.c ****  * @return     status code
 934:..\..\..\..\PSoC6_101\Sensor/driver_max30102.c ****  *             - 0 success
 935:..\..\..\..\PSoC6_101\Sensor/driver_max30102.c ****  *             - 1 get fifo overflow counter failed
 936:..\..\..\..\PSoC6_101\Sensor/driver_max30102.c ****  *             - 2 handle is NULL
 937:..\..\..\..\PSoC6_101\Sensor/driver_max30102.c ****  *             - 3 handle is not initialized
 938:..\..\..\..\PSoC6_101\Sensor/driver_max30102.c ****  * @note       none
 939:..\..\..\..\PSoC6_101\Sensor/driver_max30102.c ****  */
 940:..\..\..\..\PSoC6_101\Sensor/driver_max30102.c **** uint8_t max30102_get_fifo_overflow_counter(max30102_handle_t *handle, uint8_t *counter)
 941:..\..\..\..\PSoC6_101\Sensor/driver_max30102.c **** {
 2502              		.loc 1 941 0
 2503              		.cfi_startproc
 2504              		@ args = 0, pretend = 0, frame = 16
 2505              		@ frame_needed = 1, uses_anonymous_args = 0
 2506 0000 90B5     		push	{r4, r7, lr}
 2507              		.cfi_def_cfa_offset 12
 2508              		.cfi_offset 4, -12
 2509              		.cfi_offset 7, -8
 2510              		.cfi_offset 14, -4
 2511 0002 85B0     		sub	sp, sp, #20
 2512              		.cfi_def_cfa_offset 32
 2513 0004 00AF     		add	r7, sp, #0
 2514              		.cfi_def_cfa_register 7
 2515 0006 7860     		str	r0, [r7, #4]
 2516 0008 3960     		str	r1, [r7]
 942:..\..\..\..\PSoC6_101\Sensor/driver_max30102.c ****     uint8_t res;
 943:..\..\..\..\PSoC6_101\Sensor/driver_max30102.c ****     uint8_t prev;
 944:..\..\..\..\PSoC6_101\Sensor/driver_max30102.c ****     
 945:..\..\..\..\PSoC6_101\Sensor/driver_max30102.c ****     if (handle == NULL)                                                                            
 2517              		.loc 1 945 0
 2518 000a 7B68     		ldr	r3, [r7, #4]
 2519 000c 002B     		cmp	r3, #0
 2520 000e 01D1     		bne	.L155
 946:..\..\..\..\PSoC6_101\Sensor/driver_max30102.c ****     {
 947:..\..\..\..\PSoC6_101\Sensor/driver_max30102.c ****         return 2;                                                                                  
 2521              		.loc 1 947 0
 2522 0010 0223     		movs	r3, #2
 2523 0012 1FE0     		b	.L159
 2524              	.L155:
 948:..\..\..\..\PSoC6_101\Sensor/driver_max30102.c ****     }
 949:..\..\..\..\PSoC6_101\Sensor/driver_max30102.c ****     if (handle->inited != 1)                                                                       
 2525              		.loc 1 949 0
 2526 0014 7B68     		ldr	r3, [r7, #4]
 2527 0016 1B7F     		ldrb	r3, [r3, #28]	@ zero_extendqisi2
 2528 0018 012B     		cmp	r3, #1
 2529 001a 01D0     		beq	.L157
 950:..\..\..\..\PSoC6_101\Sensor/driver_max30102.c ****     {
 951:..\..\..\..\PSoC6_101\Sensor/driver_max30102.c ****         return 3;                                                                                  
ARM GAS  C:\Users\49148\AppData\Local\Temp\ccWN5cWv.s 			page 65


 2530              		.loc 1 951 0
 2531 001c 0323     		movs	r3, #3
 2532 001e 19E0     		b	.L159
 2533              	.L157:
 952:..\..\..\..\PSoC6_101\Sensor/driver_max30102.c ****     }
 953:..\..\..\..\PSoC6_101\Sensor/driver_max30102.c **** 
 954:..\..\..\..\PSoC6_101\Sensor/driver_max30102.c ****     res = handle->iic_read(MAX30102_ADDRESS, MAX30102_REG_OVERFLOW_COUNTER, (uint8_t *)&prev, 1);  
 2534              		.loc 1 954 0
 2535 0020 7B68     		ldr	r3, [r7, #4]
 2536 0022 9C68     		ldr	r4, [r3, #8]
 2537 0024 07F10E02 		add	r2, r7, #14
 2538 0028 0123     		movs	r3, #1
 2539 002a 0521     		movs	r1, #5
 2540 002c AE20     		movs	r0, #174
 2541 002e A047     		blx	r4
 2542 0030 0346     		mov	r3, r0
 2543 0032 FB73     		strb	r3, [r7, #15]
 955:..\..\..\..\PSoC6_101\Sensor/driver_max30102.c ****     if (res != 0)                                                                                  
 2544              		.loc 1 955 0
 2545 0034 FB7B     		ldrb	r3, [r7, #15]	@ zero_extendqisi2
 2546 0036 002B     		cmp	r3, #0
 2547 0038 05D0     		beq	.L158
 956:..\..\..\..\PSoC6_101\Sensor/driver_max30102.c ****     {
 957:..\..\..\..\PSoC6_101\Sensor/driver_max30102.c ****         handle->debug_print("max30102: get fifo overflow counter failed.\n");                      
 2548              		.loc 1 957 0
 2549 003a 7B68     		ldr	r3, [r7, #4]
 2550 003c 9B69     		ldr	r3, [r3, #24]
 2551 003e 0748     		ldr	r0, .L160
 2552 0040 9847     		blx	r3
 958:..\..\..\..\PSoC6_101\Sensor/driver_max30102.c ****        
 959:..\..\..\..\PSoC6_101\Sensor/driver_max30102.c ****         return 1;                                                                                  
 2553              		.loc 1 959 0
 2554 0042 0123     		movs	r3, #1
 2555 0044 06E0     		b	.L159
 2556              	.L158:
 960:..\..\..\..\PSoC6_101\Sensor/driver_max30102.c ****     }
 961:..\..\..\..\PSoC6_101\Sensor/driver_max30102.c ****     *counter = prev & 0x1F;                                                                        
 2557              		.loc 1 961 0
 2558 0046 BB7B     		ldrb	r3, [r7, #14]	@ zero_extendqisi2
 2559 0048 03F01F03 		and	r3, r3, #31
 2560 004c DAB2     		uxtb	r2, r3
 2561 004e 3B68     		ldr	r3, [r7]
 2562 0050 1A70     		strb	r2, [r3]
 962:..\..\..\..\PSoC6_101\Sensor/driver_max30102.c ****     
 963:..\..\..\..\PSoC6_101\Sensor/driver_max30102.c ****     return 0;                                                                                      
 2563              		.loc 1 963 0
 2564 0052 0023     		movs	r3, #0
 2565              	.L159:
 964:..\..\..\..\PSoC6_101\Sensor/driver_max30102.c **** }
 2566              		.loc 1 964 0 discriminator 1
 2567 0054 1846     		mov	r0, r3
 2568 0056 1437     		adds	r7, r7, #20
 2569              		.cfi_def_cfa_offset 12
 2570 0058 BD46     		mov	sp, r7
 2571              		.cfi_def_cfa_register 13
 2572              		@ sp needed
 2573 005a 90BD     		pop	{r4, r7, pc}
ARM GAS  C:\Users\49148\AppData\Local\Temp\ccWN5cWv.s 			page 66


 2574              	.L161:
 2575              		.align	2
 2576              	.L160:
 2577 005c B0050000 		.word	.LC38
 2578              		.cfi_endproc
 2579              	.LFE12:
 2580              		.size	max30102_get_fifo_overflow_counter, .-max30102_get_fifo_overflow_counter
 2581              		.section	.text.max30102_set_fifo_read_pointer,"ax",%progbits
 2582              		.align	2
 2583              		.global	max30102_set_fifo_read_pointer
 2584              		.thumb
 2585              		.thumb_func
 2586              		.type	max30102_set_fifo_read_pointer, %function
 2587              	max30102_set_fifo_read_pointer:
 2588              	.LFB13:
 965:..\..\..\..\PSoC6_101\Sensor/driver_max30102.c **** 
 966:..\..\..\..\PSoC6_101\Sensor/driver_max30102.c **** /**
 967:..\..\..\..\PSoC6_101\Sensor/driver_max30102.c ****  * @brief     set the fifo read pointer
 968:..\..\..\..\PSoC6_101\Sensor/driver_max30102.c ****  * @param[in] *handle points to a max30102 handle structure
 969:..\..\..\..\PSoC6_101\Sensor/driver_max30102.c ****  * @param[in] pointer is the read pointer
 970:..\..\..\..\PSoC6_101\Sensor/driver_max30102.c ****  * @return    status code
 971:..\..\..\..\PSoC6_101\Sensor/driver_max30102.c ****  *            - 0 success
 972:..\..\..\..\PSoC6_101\Sensor/driver_max30102.c ****  *            - 1 set fifo read pointer failed
 973:..\..\..\..\PSoC6_101\Sensor/driver_max30102.c ****  *            - 2 handle is NULL
 974:..\..\..\..\PSoC6_101\Sensor/driver_max30102.c ****  *            - 3 handle is not initialized
 975:..\..\..\..\PSoC6_101\Sensor/driver_max30102.c ****  *            - 4 pointer can't be over 0x1F
 976:..\..\..\..\PSoC6_101\Sensor/driver_max30102.c ****  * @note      pointer <= 0x1F
 977:..\..\..\..\PSoC6_101\Sensor/driver_max30102.c ****  */
 978:..\..\..\..\PSoC6_101\Sensor/driver_max30102.c **** uint8_t max30102_set_fifo_read_pointer(max30102_handle_t *handle, uint8_t pointer)
 979:..\..\..\..\PSoC6_101\Sensor/driver_max30102.c **** {
 2589              		.loc 1 979 0
 2590              		.cfi_startproc
 2591              		@ args = 0, pretend = 0, frame = 16
 2592              		@ frame_needed = 1, uses_anonymous_args = 0
 2593 0000 90B5     		push	{r4, r7, lr}
 2594              		.cfi_def_cfa_offset 12
 2595              		.cfi_offset 4, -12
 2596              		.cfi_offset 7, -8
 2597              		.cfi_offset 14, -4
 2598 0002 85B0     		sub	sp, sp, #20
 2599              		.cfi_def_cfa_offset 32
 2600 0004 00AF     		add	r7, sp, #0
 2601              		.cfi_def_cfa_register 7
 2602 0006 7860     		str	r0, [r7, #4]
 2603 0008 0B46     		mov	r3, r1
 2604 000a FB70     		strb	r3, [r7, #3]
 980:..\..\..\..\PSoC6_101\Sensor/driver_max30102.c ****     uint8_t res;
 981:..\..\..\..\PSoC6_101\Sensor/driver_max30102.c ****     uint8_t prev;
 982:..\..\..\..\PSoC6_101\Sensor/driver_max30102.c ****     
 983:..\..\..\..\PSoC6_101\Sensor/driver_max30102.c ****     if (handle == NULL)                                                                            
 2605              		.loc 1 983 0
 2606 000c 7B68     		ldr	r3, [r7, #4]
 2607 000e 002B     		cmp	r3, #0
 2608 0010 01D1     		bne	.L163
 984:..\..\..\..\PSoC6_101\Sensor/driver_max30102.c ****     {
 985:..\..\..\..\PSoC6_101\Sensor/driver_max30102.c ****         return 2;                                                                                  
 2609              		.loc 1 985 0
ARM GAS  C:\Users\49148\AppData\Local\Temp\ccWN5cWv.s 			page 67


 2610 0012 0223     		movs	r3, #2
 2611 0014 27E0     		b	.L168
 2612              	.L163:
 986:..\..\..\..\PSoC6_101\Sensor/driver_max30102.c ****     }
 987:..\..\..\..\PSoC6_101\Sensor/driver_max30102.c ****     if (handle->inited != 1)                                                                       
 2613              		.loc 1 987 0
 2614 0016 7B68     		ldr	r3, [r7, #4]
 2615 0018 1B7F     		ldrb	r3, [r3, #28]	@ zero_extendqisi2
 2616 001a 012B     		cmp	r3, #1
 2617 001c 01D0     		beq	.L165
 988:..\..\..\..\PSoC6_101\Sensor/driver_max30102.c ****     {
 989:..\..\..\..\PSoC6_101\Sensor/driver_max30102.c ****         return 3;                                                                                  
 2618              		.loc 1 989 0
 2619 001e 0323     		movs	r3, #3
 2620 0020 21E0     		b	.L168
 2621              	.L165:
 990:..\..\..\..\PSoC6_101\Sensor/driver_max30102.c ****     }
 991:..\..\..\..\PSoC6_101\Sensor/driver_max30102.c ****     if (pointer > 0x1F)                                                                            
 2622              		.loc 1 991 0
 2623 0022 FB78     		ldrb	r3, [r7, #3]	@ zero_extendqisi2
 2624 0024 1F2B     		cmp	r3, #31
 2625 0026 05D9     		bls	.L166
 992:..\..\..\..\PSoC6_101\Sensor/driver_max30102.c ****     {
 993:..\..\..\..\PSoC6_101\Sensor/driver_max30102.c ****         handle->debug_print("max30102: pointer can't be over 0x1F.\n");                            
 2626              		.loc 1 993 0
 2627 0028 7B68     		ldr	r3, [r7, #4]
 2628 002a 9B69     		ldr	r3, [r3, #24]
 2629 002c 1048     		ldr	r0, .L169
 2630 002e 9847     		blx	r3
 994:..\..\..\..\PSoC6_101\Sensor/driver_max30102.c ****        
 995:..\..\..\..\PSoC6_101\Sensor/driver_max30102.c ****         return 4;                                                                                  
 2631              		.loc 1 995 0
 2632 0030 0423     		movs	r3, #4
 2633 0032 18E0     		b	.L168
 2634              	.L166:
 996:..\..\..\..\PSoC6_101\Sensor/driver_max30102.c ****     }
 997:..\..\..\..\PSoC6_101\Sensor/driver_max30102.c **** 
 998:..\..\..\..\PSoC6_101\Sensor/driver_max30102.c ****     prev = pointer & 0x1F;                                                                         
 2635              		.loc 1 998 0
 2636 0034 FB78     		ldrb	r3, [r7, #3]
 2637 0036 03F01F03 		and	r3, r3, #31
 2638 003a DBB2     		uxtb	r3, r3
 2639 003c BB73     		strb	r3, [r7, #14]
 999:..\..\..\..\PSoC6_101\Sensor/driver_max30102.c ****     res = handle->iic_write(MAX30102_ADDRESS, MAX30102_REG_FIFO_READ_POINTER, (uint8_t *)&prev, 1);
 2640              		.loc 1 999 0
 2641 003e 7B68     		ldr	r3, [r7, #4]
 2642 0040 DC68     		ldr	r4, [r3, #12]
 2643 0042 07F10E02 		add	r2, r7, #14
 2644 0046 0123     		movs	r3, #1
 2645 0048 0621     		movs	r1, #6
 2646 004a AE20     		movs	r0, #174
 2647 004c A047     		blx	r4
 2648 004e 0346     		mov	r3, r0
 2649 0050 FB73     		strb	r3, [r7, #15]
1000:..\..\..\..\PSoC6_101\Sensor/driver_max30102.c ****     if (res != 0)                                                                                  
 2650              		.loc 1 1000 0
 2651 0052 FB7B     		ldrb	r3, [r7, #15]	@ zero_extendqisi2
ARM GAS  C:\Users\49148\AppData\Local\Temp\ccWN5cWv.s 			page 68


 2652 0054 002B     		cmp	r3, #0
 2653 0056 05D0     		beq	.L167
1001:..\..\..\..\PSoC6_101\Sensor/driver_max30102.c ****     {
1002:..\..\..\..\PSoC6_101\Sensor/driver_max30102.c ****         handle->debug_print("max30102: write fifo read pointer failed.\n");                        
 2654              		.loc 1 1002 0
 2655 0058 7B68     		ldr	r3, [r7, #4]
 2656 005a 9B69     		ldr	r3, [r3, #24]
 2657 005c 0548     		ldr	r0, .L169+4
 2658 005e 9847     		blx	r3
1003:..\..\..\..\PSoC6_101\Sensor/driver_max30102.c ****        
1004:..\..\..\..\PSoC6_101\Sensor/driver_max30102.c ****         return 1;                                                                                  
 2659              		.loc 1 1004 0
 2660 0060 0123     		movs	r3, #1
 2661 0062 00E0     		b	.L168
 2662              	.L167:
1005:..\..\..\..\PSoC6_101\Sensor/driver_max30102.c ****     }
1006:..\..\..\..\PSoC6_101\Sensor/driver_max30102.c ****     
1007:..\..\..\..\PSoC6_101\Sensor/driver_max30102.c ****     return 0;                                                                                      
 2663              		.loc 1 1007 0
 2664 0064 0023     		movs	r3, #0
 2665              	.L168:
1008:..\..\..\..\PSoC6_101\Sensor/driver_max30102.c **** }
 2666              		.loc 1 1008 0 discriminator 1
 2667 0066 1846     		mov	r0, r3
 2668 0068 1437     		adds	r7, r7, #20
 2669              		.cfi_def_cfa_offset 12
 2670 006a BD46     		mov	sp, r7
 2671              		.cfi_def_cfa_register 13
 2672              		@ sp needed
 2673 006c 90BD     		pop	{r4, r7, pc}
 2674              	.L170:
 2675 006e 00BF     		.align	2
 2676              	.L169:
 2677 0070 04050000 		.word	.LC34
 2678 0074 88010000 		.word	.LC12
 2679              		.cfi_endproc
 2680              	.LFE13:
 2681              		.size	max30102_set_fifo_read_pointer, .-max30102_set_fifo_read_pointer
 2682              		.section	.rodata
 2683 05dd 000000   		.align	2
 2684              	.LC39:
 2685 05e0 6D617833 		.ascii	"max30102: read fifo read pointer failed.\012\000"
 2685      30313032 
 2685      3A207265 
 2685      61642066 
 2685      69666F20 
 2686              		.section	.text.max30102_get_fifo_read_pointer,"ax",%progbits
 2687              		.align	2
 2688              		.global	max30102_get_fifo_read_pointer
 2689              		.thumb
 2690              		.thumb_func
 2691              		.type	max30102_get_fifo_read_pointer, %function
 2692              	max30102_get_fifo_read_pointer:
 2693              	.LFB14:
1009:..\..\..\..\PSoC6_101\Sensor/driver_max30102.c **** 
1010:..\..\..\..\PSoC6_101\Sensor/driver_max30102.c **** /**
1011:..\..\..\..\PSoC6_101\Sensor/driver_max30102.c ****  * @brief      get the fifo read pointer
ARM GAS  C:\Users\49148\AppData\Local\Temp\ccWN5cWv.s 			page 69


1012:..\..\..\..\PSoC6_101\Sensor/driver_max30102.c ****  * @param[in]  *handle points to a max30102 handle structure
1013:..\..\..\..\PSoC6_101\Sensor/driver_max30102.c ****  * @param[out] *pointer points to a pointer buffer
1014:..\..\..\..\PSoC6_101\Sensor/driver_max30102.c ****  * @return     status code
1015:..\..\..\..\PSoC6_101\Sensor/driver_max30102.c ****  *             - 0 success
1016:..\..\..\..\PSoC6_101\Sensor/driver_max30102.c ****  *             - 1 get fifo read pointer failed
1017:..\..\..\..\PSoC6_101\Sensor/driver_max30102.c ****  *             - 2 handle is NULL
1018:..\..\..\..\PSoC6_101\Sensor/driver_max30102.c ****  *             - 3 handle is not initialized
1019:..\..\..\..\PSoC6_101\Sensor/driver_max30102.c ****  * @note       none
1020:..\..\..\..\PSoC6_101\Sensor/driver_max30102.c ****  */
1021:..\..\..\..\PSoC6_101\Sensor/driver_max30102.c **** uint8_t max30102_get_fifo_read_pointer(max30102_handle_t *handle, uint8_t *pointer)
1022:..\..\..\..\PSoC6_101\Sensor/driver_max30102.c **** {
 2694              		.loc 1 1022 0
 2695              		.cfi_startproc
 2696              		@ args = 0, pretend = 0, frame = 16
 2697              		@ frame_needed = 1, uses_anonymous_args = 0
 2698 0000 90B5     		push	{r4, r7, lr}
 2699              		.cfi_def_cfa_offset 12
 2700              		.cfi_offset 4, -12
 2701              		.cfi_offset 7, -8
 2702              		.cfi_offset 14, -4
 2703 0002 85B0     		sub	sp, sp, #20
 2704              		.cfi_def_cfa_offset 32
 2705 0004 00AF     		add	r7, sp, #0
 2706              		.cfi_def_cfa_register 7
 2707 0006 7860     		str	r0, [r7, #4]
 2708 0008 3960     		str	r1, [r7]
1023:..\..\..\..\PSoC6_101\Sensor/driver_max30102.c ****     uint8_t res;
1024:..\..\..\..\PSoC6_101\Sensor/driver_max30102.c ****     uint8_t prev;
1025:..\..\..\..\PSoC6_101\Sensor/driver_max30102.c ****     
1026:..\..\..\..\PSoC6_101\Sensor/driver_max30102.c ****     if (handle == NULL)                                                                            
 2709              		.loc 1 1026 0
 2710 000a 7B68     		ldr	r3, [r7, #4]
 2711 000c 002B     		cmp	r3, #0
 2712 000e 01D1     		bne	.L172
1027:..\..\..\..\PSoC6_101\Sensor/driver_max30102.c ****     {
1028:..\..\..\..\PSoC6_101\Sensor/driver_max30102.c ****         return 2;                                                                                  
 2713              		.loc 1 1028 0
 2714 0010 0223     		movs	r3, #2
 2715 0012 1FE0     		b	.L176
 2716              	.L172:
1029:..\..\..\..\PSoC6_101\Sensor/driver_max30102.c ****     }
1030:..\..\..\..\PSoC6_101\Sensor/driver_max30102.c ****     if (handle->inited != 1)                                                                       
 2717              		.loc 1 1030 0
 2718 0014 7B68     		ldr	r3, [r7, #4]
 2719 0016 1B7F     		ldrb	r3, [r3, #28]	@ zero_extendqisi2
 2720 0018 012B     		cmp	r3, #1
 2721 001a 01D0     		beq	.L174
1031:..\..\..\..\PSoC6_101\Sensor/driver_max30102.c ****     {
1032:..\..\..\..\PSoC6_101\Sensor/driver_max30102.c ****         return 3;                                                                                  
 2722              		.loc 1 1032 0
 2723 001c 0323     		movs	r3, #3
 2724 001e 19E0     		b	.L176
 2725              	.L174:
1033:..\..\..\..\PSoC6_101\Sensor/driver_max30102.c ****     }
1034:..\..\..\..\PSoC6_101\Sensor/driver_max30102.c **** 
1035:..\..\..\..\PSoC6_101\Sensor/driver_max30102.c ****     res = handle->iic_read(MAX30102_ADDRESS, MAX30102_REG_FIFO_READ_POINTER, (uint8_t *)&prev, 1); 
 2726              		.loc 1 1035 0
ARM GAS  C:\Users\49148\AppData\Local\Temp\ccWN5cWv.s 			page 70


 2727 0020 7B68     		ldr	r3, [r7, #4]
 2728 0022 9C68     		ldr	r4, [r3, #8]
 2729 0024 07F10E02 		add	r2, r7, #14
 2730 0028 0123     		movs	r3, #1
 2731 002a 0621     		movs	r1, #6
 2732 002c AE20     		movs	r0, #174
 2733 002e A047     		blx	r4
 2734 0030 0346     		mov	r3, r0
 2735 0032 FB73     		strb	r3, [r7, #15]
1036:..\..\..\..\PSoC6_101\Sensor/driver_max30102.c ****     if (res != 0)                                                                                  
 2736              		.loc 1 1036 0
 2737 0034 FB7B     		ldrb	r3, [r7, #15]	@ zero_extendqisi2
 2738 0036 002B     		cmp	r3, #0
 2739 0038 05D0     		beq	.L175
1037:..\..\..\..\PSoC6_101\Sensor/driver_max30102.c ****     {
1038:..\..\..\..\PSoC6_101\Sensor/driver_max30102.c ****         handle->debug_print("max30102: read fifo read pointer failed.\n");                         
 2740              		.loc 1 1038 0
 2741 003a 7B68     		ldr	r3, [r7, #4]
 2742 003c 9B69     		ldr	r3, [r3, #24]
 2743 003e 0748     		ldr	r0, .L177
 2744 0040 9847     		blx	r3
1039:..\..\..\..\PSoC6_101\Sensor/driver_max30102.c ****        
1040:..\..\..\..\PSoC6_101\Sensor/driver_max30102.c ****         return 1;                                                                                  
 2745              		.loc 1 1040 0
 2746 0042 0123     		movs	r3, #1
 2747 0044 06E0     		b	.L176
 2748              	.L175:
1041:..\..\..\..\PSoC6_101\Sensor/driver_max30102.c ****     }
1042:..\..\..\..\PSoC6_101\Sensor/driver_max30102.c ****     *pointer = prev & 0x1F;                                                                        
 2749              		.loc 1 1042 0
 2750 0046 BB7B     		ldrb	r3, [r7, #14]	@ zero_extendqisi2
 2751 0048 03F01F03 		and	r3, r3, #31
 2752 004c DAB2     		uxtb	r2, r3
 2753 004e 3B68     		ldr	r3, [r7]
 2754 0050 1A70     		strb	r2, [r3]
1043:..\..\..\..\PSoC6_101\Sensor/driver_max30102.c ****     
1044:..\..\..\..\PSoC6_101\Sensor/driver_max30102.c ****     return 0;                                                                                      
 2755              		.loc 1 1044 0
 2756 0052 0023     		movs	r3, #0
 2757              	.L176:
1045:..\..\..\..\PSoC6_101\Sensor/driver_max30102.c **** }
 2758              		.loc 1 1045 0 discriminator 1
 2759 0054 1846     		mov	r0, r3
 2760 0056 1437     		adds	r7, r7, #20
 2761              		.cfi_def_cfa_offset 12
 2762 0058 BD46     		mov	sp, r7
 2763              		.cfi_def_cfa_register 13
 2764              		@ sp needed
 2765 005a 90BD     		pop	{r4, r7, pc}
 2766              	.L178:
 2767              		.align	2
 2768              	.L177:
 2769 005c E0050000 		.word	.LC39
 2770              		.cfi_endproc
 2771              	.LFE14:
 2772              		.size	max30102_get_fifo_read_pointer, .-max30102_get_fifo_read_pointer
 2773              		.section	.rodata
ARM GAS  C:\Users\49148\AppData\Local\Temp\ccWN5cWv.s 			page 71


 2774 060a 0000     		.align	2
 2775              	.LC40:
 2776 060c 6D617833 		.ascii	"max30102: write fifo data register failed.\012\000"
 2776      30313032 
 2776      3A207772 
 2776      69746520 
 2776      6669666F 
 2777              		.section	.text.max30102_set_fifo_data,"ax",%progbits
 2778              		.align	2
 2779              		.global	max30102_set_fifo_data
 2780              		.thumb
 2781              		.thumb_func
 2782              		.type	max30102_set_fifo_data, %function
 2783              	max30102_set_fifo_data:
 2784              	.LFB15:
1046:..\..\..\..\PSoC6_101\Sensor/driver_max30102.c **** 
1047:..\..\..\..\PSoC6_101\Sensor/driver_max30102.c **** /**
1048:..\..\..\..\PSoC6_101\Sensor/driver_max30102.c ****  * @brief     set the fifo data
1049:..\..\..\..\PSoC6_101\Sensor/driver_max30102.c ****  * @param[in] *handle points to a max30102 handle structure
1050:..\..\..\..\PSoC6_101\Sensor/driver_max30102.c ****  * @param[in] data is the fifo data
1051:..\..\..\..\PSoC6_101\Sensor/driver_max30102.c ****  * @return    status code
1052:..\..\..\..\PSoC6_101\Sensor/driver_max30102.c ****  *            - 0 success
1053:..\..\..\..\PSoC6_101\Sensor/driver_max30102.c ****  *            - 1 set fifo data failed
1054:..\..\..\..\PSoC6_101\Sensor/driver_max30102.c ****  *            - 2 handle is NULL
1055:..\..\..\..\PSoC6_101\Sensor/driver_max30102.c ****  *            - 3 handle is not initialized
1056:..\..\..\..\PSoC6_101\Sensor/driver_max30102.c ****  * @note      none
1057:..\..\..\..\PSoC6_101\Sensor/driver_max30102.c ****  */
1058:..\..\..\..\PSoC6_101\Sensor/driver_max30102.c **** uint8_t max30102_set_fifo_data(max30102_handle_t *handle, uint8_t data)
1059:..\..\..\..\PSoC6_101\Sensor/driver_max30102.c **** {
 2785              		.loc 1 1059 0
 2786              		.cfi_startproc
 2787              		@ args = 0, pretend = 0, frame = 16
 2788              		@ frame_needed = 1, uses_anonymous_args = 0
 2789 0000 90B5     		push	{r4, r7, lr}
 2790              		.cfi_def_cfa_offset 12
 2791              		.cfi_offset 4, -12
 2792              		.cfi_offset 7, -8
 2793              		.cfi_offset 14, -4
 2794 0002 85B0     		sub	sp, sp, #20
 2795              		.cfi_def_cfa_offset 32
 2796 0004 00AF     		add	r7, sp, #0
 2797              		.cfi_def_cfa_register 7
 2798 0006 7860     		str	r0, [r7, #4]
 2799 0008 0B46     		mov	r3, r1
 2800 000a FB70     		strb	r3, [r7, #3]
1060:..\..\..\..\PSoC6_101\Sensor/driver_max30102.c ****     uint8_t res;
1061:..\..\..\..\PSoC6_101\Sensor/driver_max30102.c ****     
1062:..\..\..\..\PSoC6_101\Sensor/driver_max30102.c ****     if (handle == NULL)                                                                            
 2801              		.loc 1 1062 0
 2802 000c 7B68     		ldr	r3, [r7, #4]
 2803 000e 002B     		cmp	r3, #0
 2804 0010 01D1     		bne	.L180
1063:..\..\..\..\PSoC6_101\Sensor/driver_max30102.c ****     {
1064:..\..\..\..\PSoC6_101\Sensor/driver_max30102.c ****         return 2;                                                                                  
 2805              		.loc 1 1064 0
 2806 0012 0223     		movs	r3, #2
 2807 0014 18E0     		b	.L181
ARM GAS  C:\Users\49148\AppData\Local\Temp\ccWN5cWv.s 			page 72


 2808              	.L180:
1065:..\..\..\..\PSoC6_101\Sensor/driver_max30102.c ****     }
1066:..\..\..\..\PSoC6_101\Sensor/driver_max30102.c ****     if (handle->inited != 1)                                                                       
 2809              		.loc 1 1066 0
 2810 0016 7B68     		ldr	r3, [r7, #4]
 2811 0018 1B7F     		ldrb	r3, [r3, #28]	@ zero_extendqisi2
 2812 001a 012B     		cmp	r3, #1
 2813 001c 01D0     		beq	.L182
1067:..\..\..\..\PSoC6_101\Sensor/driver_max30102.c ****     {
1068:..\..\..\..\PSoC6_101\Sensor/driver_max30102.c ****         return 3;                                                                                  
 2814              		.loc 1 1068 0
 2815 001e 0323     		movs	r3, #3
 2816 0020 12E0     		b	.L181
 2817              	.L182:
1069:..\..\..\..\PSoC6_101\Sensor/driver_max30102.c ****     }
1070:..\..\..\..\PSoC6_101\Sensor/driver_max30102.c ****     
1071:..\..\..\..\PSoC6_101\Sensor/driver_max30102.c ****     res = handle->iic_write(MAX30102_ADDRESS, MAX30102_REG_FIFO_DATA_REGISTER, (uint8_t *)&data, 1)
 2818              		.loc 1 1071 0
 2819 0022 7B68     		ldr	r3, [r7, #4]
 2820 0024 DC68     		ldr	r4, [r3, #12]
 2821 0026 FA1C     		adds	r2, r7, #3
 2822 0028 0123     		movs	r3, #1
 2823 002a 0721     		movs	r1, #7
 2824 002c AE20     		movs	r0, #174
 2825 002e A047     		blx	r4
 2826 0030 0346     		mov	r3, r0
 2827 0032 FB73     		strb	r3, [r7, #15]
1072:..\..\..\..\PSoC6_101\Sensor/driver_max30102.c ****     if (res != 0)                                                                                  
 2828              		.loc 1 1072 0
 2829 0034 FB7B     		ldrb	r3, [r7, #15]	@ zero_extendqisi2
 2830 0036 002B     		cmp	r3, #0
 2831 0038 05D0     		beq	.L183
1073:..\..\..\..\PSoC6_101\Sensor/driver_max30102.c ****     {
1074:..\..\..\..\PSoC6_101\Sensor/driver_max30102.c ****         handle->debug_print("max30102: write fifo data register failed.\n");                       
 2832              		.loc 1 1074 0
 2833 003a 7B68     		ldr	r3, [r7, #4]
 2834 003c 9B69     		ldr	r3, [r3, #24]
 2835 003e 0448     		ldr	r0, .L184
 2836 0040 9847     		blx	r3
1075:..\..\..\..\PSoC6_101\Sensor/driver_max30102.c ****        
1076:..\..\..\..\PSoC6_101\Sensor/driver_max30102.c ****         return 1;                                                                                  
 2837              		.loc 1 1076 0
 2838 0042 0123     		movs	r3, #1
 2839 0044 00E0     		b	.L181
 2840              	.L183:
1077:..\..\..\..\PSoC6_101\Sensor/driver_max30102.c ****     }
1078:..\..\..\..\PSoC6_101\Sensor/driver_max30102.c ****     
1079:..\..\..\..\PSoC6_101\Sensor/driver_max30102.c ****     return 0;                                                                                      
 2841              		.loc 1 1079 0
 2842 0046 0023     		movs	r3, #0
 2843              	.L181:
1080:..\..\..\..\PSoC6_101\Sensor/driver_max30102.c **** }
 2844              		.loc 1 1080 0
 2845 0048 1846     		mov	r0, r3
 2846 004a 1437     		adds	r7, r7, #20
 2847              		.cfi_def_cfa_offset 12
 2848 004c BD46     		mov	sp, r7
ARM GAS  C:\Users\49148\AppData\Local\Temp\ccWN5cWv.s 			page 73


 2849              		.cfi_def_cfa_register 13
 2850              		@ sp needed
 2851 004e 90BD     		pop	{r4, r7, pc}
 2852              	.L185:
 2853              		.align	2
 2854              	.L184:
 2855 0050 0C060000 		.word	.LC40
 2856              		.cfi_endproc
 2857              	.LFE15:
 2858              		.size	max30102_set_fifo_data, .-max30102_set_fifo_data
 2859              		.section	.text.max30102_get_fifo_data,"ax",%progbits
 2860              		.align	2
 2861              		.global	max30102_get_fifo_data
 2862              		.thumb
 2863              		.thumb_func
 2864              		.type	max30102_get_fifo_data, %function
 2865              	max30102_get_fifo_data:
 2866              	.LFB16:
1081:..\..\..\..\PSoC6_101\Sensor/driver_max30102.c **** 
1082:..\..\..\..\PSoC6_101\Sensor/driver_max30102.c **** /**
1083:..\..\..\..\PSoC6_101\Sensor/driver_max30102.c ****  * @brief      get the fifo data
1084:..\..\..\..\PSoC6_101\Sensor/driver_max30102.c ****  * @param[in]  *handle points to a max30102 handle structure
1085:..\..\..\..\PSoC6_101\Sensor/driver_max30102.c ****  * @param[out] *data points to a fifo data buffer
1086:..\..\..\..\PSoC6_101\Sensor/driver_max30102.c ****  * @return     status code
1087:..\..\..\..\PSoC6_101\Sensor/driver_max30102.c ****  *             - 0 success
1088:..\..\..\..\PSoC6_101\Sensor/driver_max30102.c ****  *             - 1 get fifo data failed
1089:..\..\..\..\PSoC6_101\Sensor/driver_max30102.c ****  *             - 2 handle is NULL
1090:..\..\..\..\PSoC6_101\Sensor/driver_max30102.c ****  *             - 3 handle is not initialized
1091:..\..\..\..\PSoC6_101\Sensor/driver_max30102.c ****  * @note       none
1092:..\..\..\..\PSoC6_101\Sensor/driver_max30102.c ****  */
1093:..\..\..\..\PSoC6_101\Sensor/driver_max30102.c **** uint8_t max30102_get_fifo_data(max30102_handle_t *handle, uint8_t *data)
1094:..\..\..\..\PSoC6_101\Sensor/driver_max30102.c **** {
 2867              		.loc 1 1094 0
 2868              		.cfi_startproc
 2869              		@ args = 0, pretend = 0, frame = 16
 2870              		@ frame_needed = 1, uses_anonymous_args = 0
 2871 0000 90B5     		push	{r4, r7, lr}
 2872              		.cfi_def_cfa_offset 12
 2873              		.cfi_offset 4, -12
 2874              		.cfi_offset 7, -8
 2875              		.cfi_offset 14, -4
 2876 0002 85B0     		sub	sp, sp, #20
 2877              		.cfi_def_cfa_offset 32
 2878 0004 00AF     		add	r7, sp, #0
 2879              		.cfi_def_cfa_register 7
 2880 0006 7860     		str	r0, [r7, #4]
 2881 0008 3960     		str	r1, [r7]
1095:..\..\..\..\PSoC6_101\Sensor/driver_max30102.c ****     uint8_t res;
1096:..\..\..\..\PSoC6_101\Sensor/driver_max30102.c ****     
1097:..\..\..\..\PSoC6_101\Sensor/driver_max30102.c ****     if (handle == NULL)                                                                            
 2882              		.loc 1 1097 0
 2883 000a 7B68     		ldr	r3, [r7, #4]
 2884 000c 002B     		cmp	r3, #0
 2885 000e 01D1     		bne	.L187
1098:..\..\..\..\PSoC6_101\Sensor/driver_max30102.c ****     {
1099:..\..\..\..\PSoC6_101\Sensor/driver_max30102.c ****         return 2;                                                                                  
 2886              		.loc 1 1099 0
ARM GAS  C:\Users\49148\AppData\Local\Temp\ccWN5cWv.s 			page 74


 2887 0010 0223     		movs	r3, #2
 2888 0012 18E0     		b	.L188
 2889              	.L187:
1100:..\..\..\..\PSoC6_101\Sensor/driver_max30102.c ****     }
1101:..\..\..\..\PSoC6_101\Sensor/driver_max30102.c ****     if (handle->inited != 1)                                                                       
 2890              		.loc 1 1101 0
 2891 0014 7B68     		ldr	r3, [r7, #4]
 2892 0016 1B7F     		ldrb	r3, [r3, #28]	@ zero_extendqisi2
 2893 0018 012B     		cmp	r3, #1
 2894 001a 01D0     		beq	.L189
1102:..\..\..\..\PSoC6_101\Sensor/driver_max30102.c ****     {
1103:..\..\..\..\PSoC6_101\Sensor/driver_max30102.c ****         return 3;                                                                                  
 2895              		.loc 1 1103 0
 2896 001c 0323     		movs	r3, #3
 2897 001e 12E0     		b	.L188
 2898              	.L189:
1104:..\..\..\..\PSoC6_101\Sensor/driver_max30102.c ****     }
1105:..\..\..\..\PSoC6_101\Sensor/driver_max30102.c ****     
1106:..\..\..\..\PSoC6_101\Sensor/driver_max30102.c ****     res = handle->iic_read(MAX30102_ADDRESS, MAX30102_REG_FIFO_DATA_REGISTER, (uint8_t *)data, 1); 
 2899              		.loc 1 1106 0
 2900 0020 7B68     		ldr	r3, [r7, #4]
 2901 0022 9C68     		ldr	r4, [r3, #8]
 2902 0024 0123     		movs	r3, #1
 2903 0026 3A68     		ldr	r2, [r7]
 2904 0028 0721     		movs	r1, #7
 2905 002a AE20     		movs	r0, #174
 2906 002c A047     		blx	r4
 2907 002e 0346     		mov	r3, r0
 2908 0030 FB73     		strb	r3, [r7, #15]
1107:..\..\..\..\PSoC6_101\Sensor/driver_max30102.c ****     if (res != 0)                                                                                  
 2909              		.loc 1 1107 0
 2910 0032 FB7B     		ldrb	r3, [r7, #15]	@ zero_extendqisi2
 2911 0034 002B     		cmp	r3, #0
 2912 0036 05D0     		beq	.L190
1108:..\..\..\..\PSoC6_101\Sensor/driver_max30102.c ****     {
1109:..\..\..\..\PSoC6_101\Sensor/driver_max30102.c ****         handle->debug_print("max30102: read fifo data register failed.\n");                        
 2913              		.loc 1 1109 0
 2914 0038 7B68     		ldr	r3, [r7, #4]
 2915 003a 9B69     		ldr	r3, [r3, #24]
 2916 003c 0448     		ldr	r0, .L191
 2917 003e 9847     		blx	r3
1110:..\..\..\..\PSoC6_101\Sensor/driver_max30102.c ****        
1111:..\..\..\..\PSoC6_101\Sensor/driver_max30102.c ****         return 1;                                                                                  
 2918              		.loc 1 1111 0
 2919 0040 0123     		movs	r3, #1
 2920 0042 00E0     		b	.L188
 2921              	.L190:
1112:..\..\..\..\PSoC6_101\Sensor/driver_max30102.c ****     }
1113:..\..\..\..\PSoC6_101\Sensor/driver_max30102.c ****     
1114:..\..\..\..\PSoC6_101\Sensor/driver_max30102.c ****     return 0;                                                                                      
 2922              		.loc 1 1114 0
 2923 0044 0023     		movs	r3, #0
 2924              	.L188:
1115:..\..\..\..\PSoC6_101\Sensor/driver_max30102.c **** }
 2925              		.loc 1 1115 0
 2926 0046 1846     		mov	r0, r3
 2927 0048 1437     		adds	r7, r7, #20
ARM GAS  C:\Users\49148\AppData\Local\Temp\ccWN5cWv.s 			page 75


 2928              		.cfi_def_cfa_offset 12
 2929 004a BD46     		mov	sp, r7
 2930              		.cfi_def_cfa_register 13
 2931              		@ sp needed
 2932 004c 90BD     		pop	{r4, r7, pc}
 2933              	.L192:
 2934 004e 00BF     		.align	2
 2935              	.L191:
 2936 0050 94030000 		.word	.LC25
 2937              		.cfi_endproc
 2938              	.LFE16:
 2939              		.size	max30102_get_fifo_data, .-max30102_get_fifo_data
 2940              		.section	.rodata
 2941              		.align	2
 2942              	.LC41:
 2943 0638 6D617833 		.ascii	"max30102: read fifo config failed.\012\000"
 2943      30313032 
 2943      3A207265 
 2943      61642066 
 2943      69666F20 
 2944              		.align	2
 2945              	.LC42:
 2946 065c 6D617833 		.ascii	"max30102: write fifo config failed.\012\000"
 2946      30313032 
 2946      3A207772 
 2946      69746520 
 2946      6669666F 
 2947              		.section	.text.max30102_set_fifo_sample_averaging,"ax",%progbits
 2948              		.align	2
 2949              		.global	max30102_set_fifo_sample_averaging
 2950              		.thumb
 2951              		.thumb_func
 2952              		.type	max30102_set_fifo_sample_averaging, %function
 2953              	max30102_set_fifo_sample_averaging:
 2954              	.LFB17:
1116:..\..\..\..\PSoC6_101\Sensor/driver_max30102.c **** 
1117:..\..\..\..\PSoC6_101\Sensor/driver_max30102.c **** /**
1118:..\..\..\..\PSoC6_101\Sensor/driver_max30102.c ****  * @brief     set the fifo sample averaging
1119:..\..\..\..\PSoC6_101\Sensor/driver_max30102.c ****  * @param[in] *handle points to a max30102 handle structure
1120:..\..\..\..\PSoC6_101\Sensor/driver_max30102.c ****  * @param[in] sample is the fifo sample averaging
1121:..\..\..\..\PSoC6_101\Sensor/driver_max30102.c ****  * @return    status code
1122:..\..\..\..\PSoC6_101\Sensor/driver_max30102.c ****  *            - 0 success
1123:..\..\..\..\PSoC6_101\Sensor/driver_max30102.c ****  *            - 1 set fifo sample averaging failed
1124:..\..\..\..\PSoC6_101\Sensor/driver_max30102.c ****  *            - 2 handle is NULL
1125:..\..\..\..\PSoC6_101\Sensor/driver_max30102.c ****  *            - 3 handle is not initialized
1126:..\..\..\..\PSoC6_101\Sensor/driver_max30102.c ****  * @note      none
1127:..\..\..\..\PSoC6_101\Sensor/driver_max30102.c ****  */
1128:..\..\..\..\PSoC6_101\Sensor/driver_max30102.c **** uint8_t max30102_set_fifo_sample_averaging(max30102_handle_t *handle, max30102_sample_averaging_t s
1129:..\..\..\..\PSoC6_101\Sensor/driver_max30102.c **** {
 2955              		.loc 1 1129 0
 2956              		.cfi_startproc
 2957              		@ args = 0, pretend = 0, frame = 16
 2958              		@ frame_needed = 1, uses_anonymous_args = 0
 2959 0000 90B5     		push	{r4, r7, lr}
 2960              		.cfi_def_cfa_offset 12
 2961              		.cfi_offset 4, -12
 2962              		.cfi_offset 7, -8
ARM GAS  C:\Users\49148\AppData\Local\Temp\ccWN5cWv.s 			page 76


 2963              		.cfi_offset 14, -4
 2964 0002 85B0     		sub	sp, sp, #20
 2965              		.cfi_def_cfa_offset 32
 2966 0004 00AF     		add	r7, sp, #0
 2967              		.cfi_def_cfa_register 7
 2968 0006 7860     		str	r0, [r7, #4]
 2969 0008 0B46     		mov	r3, r1
 2970 000a FB70     		strb	r3, [r7, #3]
1130:..\..\..\..\PSoC6_101\Sensor/driver_max30102.c ****     uint8_t res;
1131:..\..\..\..\PSoC6_101\Sensor/driver_max30102.c ****     uint8_t prev;
1132:..\..\..\..\PSoC6_101\Sensor/driver_max30102.c ****     
1133:..\..\..\..\PSoC6_101\Sensor/driver_max30102.c ****     if (handle == NULL)                                                                            
 2971              		.loc 1 1133 0
 2972 000c 7B68     		ldr	r3, [r7, #4]
 2973 000e 002B     		cmp	r3, #0
 2974 0010 01D1     		bne	.L194
1134:..\..\..\..\PSoC6_101\Sensor/driver_max30102.c ****     {
1135:..\..\..\..\PSoC6_101\Sensor/driver_max30102.c ****         return 2;                                                                                  
 2975              		.loc 1 1135 0
 2976 0012 0223     		movs	r3, #2
 2977 0014 3AE0     		b	.L199
 2978              	.L194:
1136:..\..\..\..\PSoC6_101\Sensor/driver_max30102.c ****     }
1137:..\..\..\..\PSoC6_101\Sensor/driver_max30102.c ****     if (handle->inited != 1)                                                                       
 2979              		.loc 1 1137 0
 2980 0016 7B68     		ldr	r3, [r7, #4]
 2981 0018 1B7F     		ldrb	r3, [r3, #28]	@ zero_extendqisi2
 2982 001a 012B     		cmp	r3, #1
 2983 001c 01D0     		beq	.L196
1138:..\..\..\..\PSoC6_101\Sensor/driver_max30102.c ****     {
1139:..\..\..\..\PSoC6_101\Sensor/driver_max30102.c ****         return 3;                                                                                  
 2984              		.loc 1 1139 0
 2985 001e 0323     		movs	r3, #3
 2986 0020 34E0     		b	.L199
 2987              	.L196:
1140:..\..\..\..\PSoC6_101\Sensor/driver_max30102.c ****     }
1141:..\..\..\..\PSoC6_101\Sensor/driver_max30102.c ****     
1142:..\..\..\..\PSoC6_101\Sensor/driver_max30102.c ****     res = handle->iic_read(MAX30102_ADDRESS, MAX30102_REG_FIFO_CONFIG, (uint8_t *)&prev, 1);       
 2988              		.loc 1 1142 0
 2989 0022 7B68     		ldr	r3, [r7, #4]
 2990 0024 9C68     		ldr	r4, [r3, #8]
 2991 0026 07F10E02 		add	r2, r7, #14
 2992 002a 0123     		movs	r3, #1
 2993 002c 0821     		movs	r1, #8
 2994 002e AE20     		movs	r0, #174
 2995 0030 A047     		blx	r4
 2996 0032 0346     		mov	r3, r0
 2997 0034 FB73     		strb	r3, [r7, #15]
1143:..\..\..\..\PSoC6_101\Sensor/driver_max30102.c ****     if (res != 0)                                                                                  
 2998              		.loc 1 1143 0
 2999 0036 FB7B     		ldrb	r3, [r7, #15]	@ zero_extendqisi2
 3000 0038 002B     		cmp	r3, #0
 3001 003a 05D0     		beq	.L197
1144:..\..\..\..\PSoC6_101\Sensor/driver_max30102.c ****     {
1145:..\..\..\..\PSoC6_101\Sensor/driver_max30102.c ****         handle->debug_print("max30102: read fifo config failed.\n");                               
 3002              		.loc 1 1145 0
 3003 003c 7B68     		ldr	r3, [r7, #4]
ARM GAS  C:\Users\49148\AppData\Local\Temp\ccWN5cWv.s 			page 77


 3004 003e 9B69     		ldr	r3, [r3, #24]
 3005 0040 1448     		ldr	r0, .L200
 3006 0042 9847     		blx	r3
1146:..\..\..\..\PSoC6_101\Sensor/driver_max30102.c ****        
1147:..\..\..\..\PSoC6_101\Sensor/driver_max30102.c ****         return 1;                                                                                  
 3007              		.loc 1 1147 0
 3008 0044 0123     		movs	r3, #1
 3009 0046 21E0     		b	.L199
 3010              	.L197:
1148:..\..\..\..\PSoC6_101\Sensor/driver_max30102.c ****     }
1149:..\..\..\..\PSoC6_101\Sensor/driver_max30102.c ****     prev &= ~(0x7 << 5);                                                                           
 3011              		.loc 1 1149 0
 3012 0048 BB7B     		ldrb	r3, [r7, #14]	@ zero_extendqisi2
 3013 004a 03F01F03 		and	r3, r3, #31
 3014 004e DBB2     		uxtb	r3, r3
 3015 0050 BB73     		strb	r3, [r7, #14]
1150:..\..\..\..\PSoC6_101\Sensor/driver_max30102.c ****     prev |= sample << 5;                                                                           
 3016              		.loc 1 1150 0
 3017 0052 FB78     		ldrb	r3, [r7, #3]	@ zero_extendqisi2
 3018 0054 5B01     		lsls	r3, r3, #5
 3019 0056 5AB2     		sxtb	r2, r3
 3020 0058 BB7B     		ldrb	r3, [r7, #14]	@ zero_extendqisi2
 3021 005a 5BB2     		sxtb	r3, r3
 3022 005c 1343     		orrs	r3, r3, r2
 3023 005e 5BB2     		sxtb	r3, r3
 3024 0060 DBB2     		uxtb	r3, r3
 3025 0062 BB73     		strb	r3, [r7, #14]
1151:..\..\..\..\PSoC6_101\Sensor/driver_max30102.c ****     res = handle->iic_write(MAX30102_ADDRESS, MAX30102_REG_FIFO_CONFIG, (uint8_t *)&prev, 1);      
 3026              		.loc 1 1151 0
 3027 0064 7B68     		ldr	r3, [r7, #4]
 3028 0066 DC68     		ldr	r4, [r3, #12]
 3029 0068 07F10E02 		add	r2, r7, #14
 3030 006c 0123     		movs	r3, #1
 3031 006e 0821     		movs	r1, #8
 3032 0070 AE20     		movs	r0, #174
 3033 0072 A047     		blx	r4
 3034 0074 0346     		mov	r3, r0
 3035 0076 FB73     		strb	r3, [r7, #15]
1152:..\..\..\..\PSoC6_101\Sensor/driver_max30102.c ****     if (res != 0)                                                                                  
 3036              		.loc 1 1152 0
 3037 0078 FB7B     		ldrb	r3, [r7, #15]	@ zero_extendqisi2
 3038 007a 002B     		cmp	r3, #0
 3039 007c 05D0     		beq	.L198
1153:..\..\..\..\PSoC6_101\Sensor/driver_max30102.c ****     {
1154:..\..\..\..\PSoC6_101\Sensor/driver_max30102.c ****         handle->debug_print("max30102: write fifo config failed.\n");                              
 3040              		.loc 1 1154 0
 3041 007e 7B68     		ldr	r3, [r7, #4]
 3042 0080 9B69     		ldr	r3, [r3, #24]
 3043 0082 0548     		ldr	r0, .L200+4
 3044 0084 9847     		blx	r3
1155:..\..\..\..\PSoC6_101\Sensor/driver_max30102.c ****        
1156:..\..\..\..\PSoC6_101\Sensor/driver_max30102.c ****         return 1;                                                                                  
 3045              		.loc 1 1156 0
 3046 0086 0123     		movs	r3, #1
 3047 0088 00E0     		b	.L199
 3048              	.L198:
1157:..\..\..\..\PSoC6_101\Sensor/driver_max30102.c ****     }
ARM GAS  C:\Users\49148\AppData\Local\Temp\ccWN5cWv.s 			page 78


1158:..\..\..\..\PSoC6_101\Sensor/driver_max30102.c ****     
1159:..\..\..\..\PSoC6_101\Sensor/driver_max30102.c ****     return 0;                                                                                      
 3049              		.loc 1 1159 0
 3050 008a 0023     		movs	r3, #0
 3051              	.L199:
1160:..\..\..\..\PSoC6_101\Sensor/driver_max30102.c **** }
 3052              		.loc 1 1160 0 discriminator 1
 3053 008c 1846     		mov	r0, r3
 3054 008e 1437     		adds	r7, r7, #20
 3055              		.cfi_def_cfa_offset 12
 3056 0090 BD46     		mov	sp, r7
 3057              		.cfi_def_cfa_register 13
 3058              		@ sp needed
 3059 0092 90BD     		pop	{r4, r7, pc}
 3060              	.L201:
 3061              		.align	2
 3062              	.L200:
 3063 0094 38060000 		.word	.LC41
 3064 0098 5C060000 		.word	.LC42
 3065              		.cfi_endproc
 3066              	.LFE17:
 3067              		.size	max30102_set_fifo_sample_averaging, .-max30102_set_fifo_sample_averaging
 3068              		.section	.text.max30102_get_fifo_sample_averaging,"ax",%progbits
 3069              		.align	2
 3070              		.global	max30102_get_fifo_sample_averaging
 3071              		.thumb
 3072              		.thumb_func
 3073              		.type	max30102_get_fifo_sample_averaging, %function
 3074              	max30102_get_fifo_sample_averaging:
 3075              	.LFB18:
1161:..\..\..\..\PSoC6_101\Sensor/driver_max30102.c **** 
1162:..\..\..\..\PSoC6_101\Sensor/driver_max30102.c **** /**
1163:..\..\..\..\PSoC6_101\Sensor/driver_max30102.c ****  * @brief      get the fifo sample averaging
1164:..\..\..\..\PSoC6_101\Sensor/driver_max30102.c ****  * @param[in]  *handle points to a max30102 handle structure
1165:..\..\..\..\PSoC6_101\Sensor/driver_max30102.c ****  * @param[out] *sample points to a fifo sample averaging buffer
1166:..\..\..\..\PSoC6_101\Sensor/driver_max30102.c ****  * @return     status code
1167:..\..\..\..\PSoC6_101\Sensor/driver_max30102.c ****  *             - 0 success
1168:..\..\..\..\PSoC6_101\Sensor/driver_max30102.c ****  *             - 1 get fifo sample averaging failed
1169:..\..\..\..\PSoC6_101\Sensor/driver_max30102.c ****  *             - 2 handle is NULL
1170:..\..\..\..\PSoC6_101\Sensor/driver_max30102.c ****  *             - 3 handle is not initialized
1171:..\..\..\..\PSoC6_101\Sensor/driver_max30102.c ****  * @note       none
1172:..\..\..\..\PSoC6_101\Sensor/driver_max30102.c ****  */
1173:..\..\..\..\PSoC6_101\Sensor/driver_max30102.c **** uint8_t max30102_get_fifo_sample_averaging(max30102_handle_t *handle, max30102_sample_averaging_t *
1174:..\..\..\..\PSoC6_101\Sensor/driver_max30102.c **** {
 3076              		.loc 1 1174 0
 3077              		.cfi_startproc
 3078              		@ args = 0, pretend = 0, frame = 16
 3079              		@ frame_needed = 1, uses_anonymous_args = 0
 3080 0000 90B5     		push	{r4, r7, lr}
 3081              		.cfi_def_cfa_offset 12
 3082              		.cfi_offset 4, -12
 3083              		.cfi_offset 7, -8
 3084              		.cfi_offset 14, -4
 3085 0002 85B0     		sub	sp, sp, #20
 3086              		.cfi_def_cfa_offset 32
 3087 0004 00AF     		add	r7, sp, #0
 3088              		.cfi_def_cfa_register 7
ARM GAS  C:\Users\49148\AppData\Local\Temp\ccWN5cWv.s 			page 79


 3089 0006 7860     		str	r0, [r7, #4]
 3090 0008 3960     		str	r1, [r7]
1175:..\..\..\..\PSoC6_101\Sensor/driver_max30102.c ****     uint8_t res;
1176:..\..\..\..\PSoC6_101\Sensor/driver_max30102.c ****     uint8_t prev;
1177:..\..\..\..\PSoC6_101\Sensor/driver_max30102.c ****     
1178:..\..\..\..\PSoC6_101\Sensor/driver_max30102.c ****     if (handle == NULL)                                                                            
 3091              		.loc 1 1178 0
 3092 000a 7B68     		ldr	r3, [r7, #4]
 3093 000c 002B     		cmp	r3, #0
 3094 000e 01D1     		bne	.L203
1179:..\..\..\..\PSoC6_101\Sensor/driver_max30102.c ****     {
1180:..\..\..\..\PSoC6_101\Sensor/driver_max30102.c ****         return 2;                                                                                  
 3095              		.loc 1 1180 0
 3096 0010 0223     		movs	r3, #2
 3097 0012 1EE0     		b	.L207
 3098              	.L203:
1181:..\..\..\..\PSoC6_101\Sensor/driver_max30102.c ****     }
1182:..\..\..\..\PSoC6_101\Sensor/driver_max30102.c ****     if (handle->inited != 1)                                                                       
 3099              		.loc 1 1182 0
 3100 0014 7B68     		ldr	r3, [r7, #4]
 3101 0016 1B7F     		ldrb	r3, [r3, #28]	@ zero_extendqisi2
 3102 0018 012B     		cmp	r3, #1
 3103 001a 01D0     		beq	.L205
1183:..\..\..\..\PSoC6_101\Sensor/driver_max30102.c ****     {
1184:..\..\..\..\PSoC6_101\Sensor/driver_max30102.c ****         return 3;                                                                                  
 3104              		.loc 1 1184 0
 3105 001c 0323     		movs	r3, #3
 3106 001e 18E0     		b	.L207
 3107              	.L205:
1185:..\..\..\..\PSoC6_101\Sensor/driver_max30102.c ****     }
1186:..\..\..\..\PSoC6_101\Sensor/driver_max30102.c ****     
1187:..\..\..\..\PSoC6_101\Sensor/driver_max30102.c ****     res = handle->iic_read(MAX30102_ADDRESS, MAX30102_REG_FIFO_CONFIG, (uint8_t *)&prev, 1);       
 3108              		.loc 1 1187 0
 3109 0020 7B68     		ldr	r3, [r7, #4]
 3110 0022 9C68     		ldr	r4, [r3, #8]
 3111 0024 07F10E02 		add	r2, r7, #14
 3112 0028 0123     		movs	r3, #1
 3113 002a 0821     		movs	r1, #8
 3114 002c AE20     		movs	r0, #174
 3115 002e A047     		blx	r4
 3116 0030 0346     		mov	r3, r0
 3117 0032 FB73     		strb	r3, [r7, #15]
1188:..\..\..\..\PSoC6_101\Sensor/driver_max30102.c ****     if (res != 0)                                                                                  
 3118              		.loc 1 1188 0
 3119 0034 FB7B     		ldrb	r3, [r7, #15]	@ zero_extendqisi2
 3120 0036 002B     		cmp	r3, #0
 3121 0038 05D0     		beq	.L206
1189:..\..\..\..\PSoC6_101\Sensor/driver_max30102.c ****     {
1190:..\..\..\..\PSoC6_101\Sensor/driver_max30102.c ****         handle->debug_print("max30102: read fifo config failed.\n");                               
 3122              		.loc 1 1190 0
 3123 003a 7B68     		ldr	r3, [r7, #4]
 3124 003c 9B69     		ldr	r3, [r3, #24]
 3125 003e 0748     		ldr	r0, .L208
 3126 0040 9847     		blx	r3
1191:..\..\..\..\PSoC6_101\Sensor/driver_max30102.c ****        
1192:..\..\..\..\PSoC6_101\Sensor/driver_max30102.c ****         return 1;                                                                                  
 3127              		.loc 1 1192 0
ARM GAS  C:\Users\49148\AppData\Local\Temp\ccWN5cWv.s 			page 80


 3128 0042 0123     		movs	r3, #1
 3129 0044 05E0     		b	.L207
 3130              	.L206:
1193:..\..\..\..\PSoC6_101\Sensor/driver_max30102.c ****     }
1194:..\..\..\..\PSoC6_101\Sensor/driver_max30102.c ****     *sample = (max30102_sample_averaging_t)(0x7 & (prev >> 5));                                    
 3131              		.loc 1 1194 0
 3132 0046 BB7B     		ldrb	r3, [r7, #14]	@ zero_extendqisi2
 3133 0048 5B09     		lsrs	r3, r3, #5
 3134 004a DAB2     		uxtb	r2, r3
 3135 004c 3B68     		ldr	r3, [r7]
 3136 004e 1A70     		strb	r2, [r3]
1195:..\..\..\..\PSoC6_101\Sensor/driver_max30102.c ****     
1196:..\..\..\..\PSoC6_101\Sensor/driver_max30102.c ****     return 0;                                                                                      
 3137              		.loc 1 1196 0
 3138 0050 0023     		movs	r3, #0
 3139              	.L207:
1197:..\..\..\..\PSoC6_101\Sensor/driver_max30102.c **** }
 3140              		.loc 1 1197 0 discriminator 1
 3141 0052 1846     		mov	r0, r3
 3142 0054 1437     		adds	r7, r7, #20
 3143              		.cfi_def_cfa_offset 12
 3144 0056 BD46     		mov	sp, r7
 3145              		.cfi_def_cfa_register 13
 3146              		@ sp needed
 3147 0058 90BD     		pop	{r4, r7, pc}
 3148              	.L209:
 3149 005a 00BF     		.align	2
 3150              	.L208:
 3151 005c 38060000 		.word	.LC41
 3152              		.cfi_endproc
 3153              	.LFE18:
 3154              		.size	max30102_get_fifo_sample_averaging, .-max30102_get_fifo_sample_averaging
 3155              		.section	.text.max30102_set_fifo_roll,"ax",%progbits
 3156              		.align	2
 3157              		.global	max30102_set_fifo_roll
 3158              		.thumb
 3159              		.thumb_func
 3160              		.type	max30102_set_fifo_roll, %function
 3161              	max30102_set_fifo_roll:
 3162              	.LFB19:
1198:..\..\..\..\PSoC6_101\Sensor/driver_max30102.c **** 
1199:..\..\..\..\PSoC6_101\Sensor/driver_max30102.c **** /**
1200:..\..\..\..\PSoC6_101\Sensor/driver_max30102.c ****  * @brief     enable or disable the fifo roll 
1201:..\..\..\..\PSoC6_101\Sensor/driver_max30102.c ****  * @param[in] *handle points to a max30102 handle structure
1202:..\..\..\..\PSoC6_101\Sensor/driver_max30102.c ****  * @param[in] enable is a bool value
1203:..\..\..\..\PSoC6_101\Sensor/driver_max30102.c ****  * @return    status code
1204:..\..\..\..\PSoC6_101\Sensor/driver_max30102.c ****  *            - 0 success
1205:..\..\..\..\PSoC6_101\Sensor/driver_max30102.c ****  *            - 1 set fifo roll failed
1206:..\..\..\..\PSoC6_101\Sensor/driver_max30102.c ****  *            - 2 handle is NULL
1207:..\..\..\..\PSoC6_101\Sensor/driver_max30102.c ****  *            - 3 handle is not initialized
1208:..\..\..\..\PSoC6_101\Sensor/driver_max30102.c ****  * @note      none
1209:..\..\..\..\PSoC6_101\Sensor/driver_max30102.c ****  */
1210:..\..\..\..\PSoC6_101\Sensor/driver_max30102.c **** uint8_t max30102_set_fifo_roll(max30102_handle_t *handle, max30102_bool_t enable)
1211:..\..\..\..\PSoC6_101\Sensor/driver_max30102.c **** {
 3163              		.loc 1 1211 0
 3164              		.cfi_startproc
 3165              		@ args = 0, pretend = 0, frame = 16
ARM GAS  C:\Users\49148\AppData\Local\Temp\ccWN5cWv.s 			page 81


 3166              		@ frame_needed = 1, uses_anonymous_args = 0
 3167 0000 90B5     		push	{r4, r7, lr}
 3168              		.cfi_def_cfa_offset 12
 3169              		.cfi_offset 4, -12
 3170              		.cfi_offset 7, -8
 3171              		.cfi_offset 14, -4
 3172 0002 85B0     		sub	sp, sp, #20
 3173              		.cfi_def_cfa_offset 32
 3174 0004 00AF     		add	r7, sp, #0
 3175              		.cfi_def_cfa_register 7
 3176 0006 7860     		str	r0, [r7, #4]
 3177 0008 0B46     		mov	r3, r1
 3178 000a FB70     		strb	r3, [r7, #3]
1212:..\..\..\..\PSoC6_101\Sensor/driver_max30102.c ****     uint8_t res;
1213:..\..\..\..\PSoC6_101\Sensor/driver_max30102.c ****     uint8_t prev;
1214:..\..\..\..\PSoC6_101\Sensor/driver_max30102.c ****     
1215:..\..\..\..\PSoC6_101\Sensor/driver_max30102.c ****     if (handle == NULL)                                                                            
 3179              		.loc 1 1215 0
 3180 000c 7B68     		ldr	r3, [r7, #4]
 3181 000e 002B     		cmp	r3, #0
 3182 0010 01D1     		bne	.L211
1216:..\..\..\..\PSoC6_101\Sensor/driver_max30102.c ****     {
1217:..\..\..\..\PSoC6_101\Sensor/driver_max30102.c ****         return 2;                                                                                  
 3183              		.loc 1 1217 0
 3184 0012 0223     		movs	r3, #2
 3185 0014 3AE0     		b	.L216
 3186              	.L211:
1218:..\..\..\..\PSoC6_101\Sensor/driver_max30102.c ****     }
1219:..\..\..\..\PSoC6_101\Sensor/driver_max30102.c ****     if (handle->inited != 1)                                                                       
 3187              		.loc 1 1219 0
 3188 0016 7B68     		ldr	r3, [r7, #4]
 3189 0018 1B7F     		ldrb	r3, [r3, #28]	@ zero_extendqisi2
 3190 001a 012B     		cmp	r3, #1
 3191 001c 01D0     		beq	.L213
1220:..\..\..\..\PSoC6_101\Sensor/driver_max30102.c ****     {
1221:..\..\..\..\PSoC6_101\Sensor/driver_max30102.c ****         return 3;                                                                                  
 3192              		.loc 1 1221 0
 3193 001e 0323     		movs	r3, #3
 3194 0020 34E0     		b	.L216
 3195              	.L213:
1222:..\..\..\..\PSoC6_101\Sensor/driver_max30102.c ****     }
1223:..\..\..\..\PSoC6_101\Sensor/driver_max30102.c ****     
1224:..\..\..\..\PSoC6_101\Sensor/driver_max30102.c ****     res = handle->iic_read(MAX30102_ADDRESS, MAX30102_REG_FIFO_CONFIG, (uint8_t *)&prev, 1);       
 3196              		.loc 1 1224 0
 3197 0022 7B68     		ldr	r3, [r7, #4]
 3198 0024 9C68     		ldr	r4, [r3, #8]
 3199 0026 07F10E02 		add	r2, r7, #14
 3200 002a 0123     		movs	r3, #1
 3201 002c 0821     		movs	r1, #8
 3202 002e AE20     		movs	r0, #174
 3203 0030 A047     		blx	r4
 3204 0032 0346     		mov	r3, r0
 3205 0034 FB73     		strb	r3, [r7, #15]
1225:..\..\..\..\PSoC6_101\Sensor/driver_max30102.c ****     if (res != 0)                                                                                  
 3206              		.loc 1 1225 0
 3207 0036 FB7B     		ldrb	r3, [r7, #15]	@ zero_extendqisi2
 3208 0038 002B     		cmp	r3, #0
ARM GAS  C:\Users\49148\AppData\Local\Temp\ccWN5cWv.s 			page 82


 3209 003a 05D0     		beq	.L214
1226:..\..\..\..\PSoC6_101\Sensor/driver_max30102.c ****     {
1227:..\..\..\..\PSoC6_101\Sensor/driver_max30102.c ****         handle->debug_print("max30102: read fifo config failed.\n");                               
 3210              		.loc 1 1227 0
 3211 003c 7B68     		ldr	r3, [r7, #4]
 3212 003e 9B69     		ldr	r3, [r3, #24]
 3213 0040 1448     		ldr	r0, .L217
 3214 0042 9847     		blx	r3
1228:..\..\..\..\PSoC6_101\Sensor/driver_max30102.c ****        
1229:..\..\..\..\PSoC6_101\Sensor/driver_max30102.c ****         return 1;                                                                                  
 3215              		.loc 1 1229 0
 3216 0044 0123     		movs	r3, #1
 3217 0046 21E0     		b	.L216
 3218              	.L214:
1230:..\..\..\..\PSoC6_101\Sensor/driver_max30102.c ****     }
1231:..\..\..\..\PSoC6_101\Sensor/driver_max30102.c ****     prev &= ~(0x1 << 4);                                                                           
 3219              		.loc 1 1231 0
 3220 0048 BB7B     		ldrb	r3, [r7, #14]	@ zero_extendqisi2
 3221 004a 23F01003 		bic	r3, r3, #16
 3222 004e DBB2     		uxtb	r3, r3
 3223 0050 BB73     		strb	r3, [r7, #14]
1232:..\..\..\..\PSoC6_101\Sensor/driver_max30102.c ****     prev |= enable << 4;                                                                           
 3224              		.loc 1 1232 0
 3225 0052 FB78     		ldrb	r3, [r7, #3]	@ zero_extendqisi2
 3226 0054 1B01     		lsls	r3, r3, #4
 3227 0056 5AB2     		sxtb	r2, r3
 3228 0058 BB7B     		ldrb	r3, [r7, #14]	@ zero_extendqisi2
 3229 005a 5BB2     		sxtb	r3, r3
 3230 005c 1343     		orrs	r3, r3, r2
 3231 005e 5BB2     		sxtb	r3, r3
 3232 0060 DBB2     		uxtb	r3, r3
 3233 0062 BB73     		strb	r3, [r7, #14]
1233:..\..\..\..\PSoC6_101\Sensor/driver_max30102.c ****     res = handle->iic_write(MAX30102_ADDRESS, MAX30102_REG_FIFO_CONFIG, (uint8_t *)&prev, 1);      
 3234              		.loc 1 1233 0
 3235 0064 7B68     		ldr	r3, [r7, #4]
 3236 0066 DC68     		ldr	r4, [r3, #12]
 3237 0068 07F10E02 		add	r2, r7, #14
 3238 006c 0123     		movs	r3, #1
 3239 006e 0821     		movs	r1, #8
 3240 0070 AE20     		movs	r0, #174
 3241 0072 A047     		blx	r4
 3242 0074 0346     		mov	r3, r0
 3243 0076 FB73     		strb	r3, [r7, #15]
1234:..\..\..\..\PSoC6_101\Sensor/driver_max30102.c ****     if (res != 0)                                                                                  
 3244              		.loc 1 1234 0
 3245 0078 FB7B     		ldrb	r3, [r7, #15]	@ zero_extendqisi2
 3246 007a 002B     		cmp	r3, #0
 3247 007c 05D0     		beq	.L215
1235:..\..\..\..\PSoC6_101\Sensor/driver_max30102.c ****     {
1236:..\..\..\..\PSoC6_101\Sensor/driver_max30102.c ****         handle->debug_print("max30102: write fifo config failed.\n");                              
 3248              		.loc 1 1236 0
 3249 007e 7B68     		ldr	r3, [r7, #4]
 3250 0080 9B69     		ldr	r3, [r3, #24]
 3251 0082 0548     		ldr	r0, .L217+4
 3252 0084 9847     		blx	r3
1237:..\..\..\..\PSoC6_101\Sensor/driver_max30102.c ****        
1238:..\..\..\..\PSoC6_101\Sensor/driver_max30102.c ****         return 1;                                                                                  
ARM GAS  C:\Users\49148\AppData\Local\Temp\ccWN5cWv.s 			page 83


 3253              		.loc 1 1238 0
 3254 0086 0123     		movs	r3, #1
 3255 0088 00E0     		b	.L216
 3256              	.L215:
1239:..\..\..\..\PSoC6_101\Sensor/driver_max30102.c ****     }
1240:..\..\..\..\PSoC6_101\Sensor/driver_max30102.c ****     
1241:..\..\..\..\PSoC6_101\Sensor/driver_max30102.c ****     return 0;                                                                                      
 3257              		.loc 1 1241 0
 3258 008a 0023     		movs	r3, #0
 3259              	.L216:
1242:..\..\..\..\PSoC6_101\Sensor/driver_max30102.c **** }
 3260              		.loc 1 1242 0 discriminator 1
 3261 008c 1846     		mov	r0, r3
 3262 008e 1437     		adds	r7, r7, #20
 3263              		.cfi_def_cfa_offset 12
 3264 0090 BD46     		mov	sp, r7
 3265              		.cfi_def_cfa_register 13
 3266              		@ sp needed
 3267 0092 90BD     		pop	{r4, r7, pc}
 3268              	.L218:
 3269              		.align	2
 3270              	.L217:
 3271 0094 38060000 		.word	.LC41
 3272 0098 5C060000 		.word	.LC42
 3273              		.cfi_endproc
 3274              	.LFE19:
 3275              		.size	max30102_set_fifo_roll, .-max30102_set_fifo_roll
 3276              		.section	.text.max30102_get_fifo_roll,"ax",%progbits
 3277              		.align	2
 3278              		.global	max30102_get_fifo_roll
 3279              		.thumb
 3280              		.thumb_func
 3281              		.type	max30102_get_fifo_roll, %function
 3282              	max30102_get_fifo_roll:
 3283              	.LFB20:
1243:..\..\..\..\PSoC6_101\Sensor/driver_max30102.c **** 
1244:..\..\..\..\PSoC6_101\Sensor/driver_max30102.c **** /**
1245:..\..\..\..\PSoC6_101\Sensor/driver_max30102.c ****  * @brief      get the fifo roll status
1246:..\..\..\..\PSoC6_101\Sensor/driver_max30102.c ****  * @param[in]  *handle points to a max30102 handle structure
1247:..\..\..\..\PSoC6_101\Sensor/driver_max30102.c ****  * @param[out] *enable points to a bool value buffer
1248:..\..\..\..\PSoC6_101\Sensor/driver_max30102.c ****  * @return     status code
1249:..\..\..\..\PSoC6_101\Sensor/driver_max30102.c ****  *             - 0 success
1250:..\..\..\..\PSoC6_101\Sensor/driver_max30102.c ****  *             - 1 get fifo roll failed
1251:..\..\..\..\PSoC6_101\Sensor/driver_max30102.c ****  *             - 2 handle is NULL
1252:..\..\..\..\PSoC6_101\Sensor/driver_max30102.c ****  *             - 3 handle is not initialized
1253:..\..\..\..\PSoC6_101\Sensor/driver_max30102.c ****  * @note       none
1254:..\..\..\..\PSoC6_101\Sensor/driver_max30102.c ****  */
1255:..\..\..\..\PSoC6_101\Sensor/driver_max30102.c **** uint8_t max30102_get_fifo_roll(max30102_handle_t *handle, max30102_bool_t *enable)
1256:..\..\..\..\PSoC6_101\Sensor/driver_max30102.c **** {
 3284              		.loc 1 1256 0
 3285              		.cfi_startproc
 3286              		@ args = 0, pretend = 0, frame = 16
 3287              		@ frame_needed = 1, uses_anonymous_args = 0
 3288 0000 90B5     		push	{r4, r7, lr}
 3289              		.cfi_def_cfa_offset 12
 3290              		.cfi_offset 4, -12
 3291              		.cfi_offset 7, -8
ARM GAS  C:\Users\49148\AppData\Local\Temp\ccWN5cWv.s 			page 84


 3292              		.cfi_offset 14, -4
 3293 0002 85B0     		sub	sp, sp, #20
 3294              		.cfi_def_cfa_offset 32
 3295 0004 00AF     		add	r7, sp, #0
 3296              		.cfi_def_cfa_register 7
 3297 0006 7860     		str	r0, [r7, #4]
 3298 0008 3960     		str	r1, [r7]
1257:..\..\..\..\PSoC6_101\Sensor/driver_max30102.c ****     uint8_t res;
1258:..\..\..\..\PSoC6_101\Sensor/driver_max30102.c ****     uint8_t prev;
1259:..\..\..\..\PSoC6_101\Sensor/driver_max30102.c ****     
1260:..\..\..\..\PSoC6_101\Sensor/driver_max30102.c ****     if (handle == NULL)                                                                            
 3299              		.loc 1 1260 0
 3300 000a 7B68     		ldr	r3, [r7, #4]
 3301 000c 002B     		cmp	r3, #0
 3302 000e 01D1     		bne	.L220
1261:..\..\..\..\PSoC6_101\Sensor/driver_max30102.c ****     {
1262:..\..\..\..\PSoC6_101\Sensor/driver_max30102.c ****         return 2;                                                                                  
 3303              		.loc 1 1262 0
 3304 0010 0223     		movs	r3, #2
 3305 0012 21E0     		b	.L224
 3306              	.L220:
1263:..\..\..\..\PSoC6_101\Sensor/driver_max30102.c ****     }
1264:..\..\..\..\PSoC6_101\Sensor/driver_max30102.c ****     if (handle->inited != 1)                                                                       
 3307              		.loc 1 1264 0
 3308 0014 7B68     		ldr	r3, [r7, #4]
 3309 0016 1B7F     		ldrb	r3, [r3, #28]	@ zero_extendqisi2
 3310 0018 012B     		cmp	r3, #1
 3311 001a 01D0     		beq	.L222
1265:..\..\..\..\PSoC6_101\Sensor/driver_max30102.c ****     {
1266:..\..\..\..\PSoC6_101\Sensor/driver_max30102.c ****         return 3;                                                                                  
 3312              		.loc 1 1266 0
 3313 001c 0323     		movs	r3, #3
 3314 001e 1BE0     		b	.L224
 3315              	.L222:
1267:..\..\..\..\PSoC6_101\Sensor/driver_max30102.c ****     }
1268:..\..\..\..\PSoC6_101\Sensor/driver_max30102.c ****     
1269:..\..\..\..\PSoC6_101\Sensor/driver_max30102.c ****     res = handle->iic_read(MAX30102_ADDRESS, MAX30102_REG_FIFO_CONFIG, (uint8_t *)&prev, 1);       
 3316              		.loc 1 1269 0
 3317 0020 7B68     		ldr	r3, [r7, #4]
 3318 0022 9C68     		ldr	r4, [r3, #8]
 3319 0024 07F10E02 		add	r2, r7, #14
 3320 0028 0123     		movs	r3, #1
 3321 002a 0821     		movs	r1, #8
 3322 002c AE20     		movs	r0, #174
 3323 002e A047     		blx	r4
 3324 0030 0346     		mov	r3, r0
 3325 0032 FB73     		strb	r3, [r7, #15]
1270:..\..\..\..\PSoC6_101\Sensor/driver_max30102.c ****     if (res != 0)                                                                                  
 3326              		.loc 1 1270 0
 3327 0034 FB7B     		ldrb	r3, [r7, #15]	@ zero_extendqisi2
 3328 0036 002B     		cmp	r3, #0
 3329 0038 05D0     		beq	.L223
1271:..\..\..\..\PSoC6_101\Sensor/driver_max30102.c ****     {
1272:..\..\..\..\PSoC6_101\Sensor/driver_max30102.c ****         handle->debug_print("max30102: read fifo config failed.\n");                               
 3330              		.loc 1 1272 0
 3331 003a 7B68     		ldr	r3, [r7, #4]
 3332 003c 9B69     		ldr	r3, [r3, #24]
ARM GAS  C:\Users\49148\AppData\Local\Temp\ccWN5cWv.s 			page 85


 3333 003e 0848     		ldr	r0, .L225
 3334 0040 9847     		blx	r3
1273:..\..\..\..\PSoC6_101\Sensor/driver_max30102.c ****        
1274:..\..\..\..\PSoC6_101\Sensor/driver_max30102.c ****         return 1;                                                                                  
 3335              		.loc 1 1274 0
 3336 0042 0123     		movs	r3, #1
 3337 0044 08E0     		b	.L224
 3338              	.L223:
1275:..\..\..\..\PSoC6_101\Sensor/driver_max30102.c ****     }
1276:..\..\..\..\PSoC6_101\Sensor/driver_max30102.c ****     *enable = (max30102_bool_t)(0x1 & (prev >> 4));                                                
 3339              		.loc 1 1276 0
 3340 0046 BB7B     		ldrb	r3, [r7, #14]	@ zero_extendqisi2
 3341 0048 1B09     		lsrs	r3, r3, #4
 3342 004a DBB2     		uxtb	r3, r3
 3343 004c 03F00103 		and	r3, r3, #1
 3344 0050 DAB2     		uxtb	r2, r3
 3345 0052 3B68     		ldr	r3, [r7]
 3346 0054 1A70     		strb	r2, [r3]
1277:..\..\..\..\PSoC6_101\Sensor/driver_max30102.c ****     
1278:..\..\..\..\PSoC6_101\Sensor/driver_max30102.c ****     return 0;                                                                                      
 3347              		.loc 1 1278 0
 3348 0056 0023     		movs	r3, #0
 3349              	.L224:
1279:..\..\..\..\PSoC6_101\Sensor/driver_max30102.c **** }
 3350              		.loc 1 1279 0 discriminator 1
 3351 0058 1846     		mov	r0, r3
 3352 005a 1437     		adds	r7, r7, #20
 3353              		.cfi_def_cfa_offset 12
 3354 005c BD46     		mov	sp, r7
 3355              		.cfi_def_cfa_register 13
 3356              		@ sp needed
 3357 005e 90BD     		pop	{r4, r7, pc}
 3358              	.L226:
 3359              		.align	2
 3360              	.L225:
 3361 0060 38060000 		.word	.LC41
 3362              		.cfi_endproc
 3363              	.LFE20:
 3364              		.size	max30102_get_fifo_roll, .-max30102_get_fifo_roll
 3365              		.section	.rodata
 3366 0681 000000   		.align	2
 3367              	.LC43:
 3368 0684 6D617833 		.ascii	"max30102: value can't be over 0xF.\012\000"
 3368      30313032 
 3368      3A207661 
 3368      6C756520 
 3368      63616E27 
 3369              		.section	.text.max30102_set_fifo_almost_full,"ax",%progbits
 3370              		.align	2
 3371              		.global	max30102_set_fifo_almost_full
 3372              		.thumb
 3373              		.thumb_func
 3374              		.type	max30102_set_fifo_almost_full, %function
 3375              	max30102_set_fifo_almost_full:
 3376              	.LFB21:
1280:..\..\..\..\PSoC6_101\Sensor/driver_max30102.c **** 
1281:..\..\..\..\PSoC6_101\Sensor/driver_max30102.c **** /**
ARM GAS  C:\Users\49148\AppData\Local\Temp\ccWN5cWv.s 			page 86


1282:..\..\..\..\PSoC6_101\Sensor/driver_max30102.c ****  * @brief     set the fifo almost full value
1283:..\..\..\..\PSoC6_101\Sensor/driver_max30102.c ****  * @param[in] *handle points to a max30102 handle structure
1284:..\..\..\..\PSoC6_101\Sensor/driver_max30102.c ****  * @param[in] value is the fifo almost full value
1285:..\..\..\..\PSoC6_101\Sensor/driver_max30102.c ****  * @return    status code
1286:..\..\..\..\PSoC6_101\Sensor/driver_max30102.c ****  *            - 0 success
1287:..\..\..\..\PSoC6_101\Sensor/driver_max30102.c ****  *            - 1 set fifo almost full failed
1288:..\..\..\..\PSoC6_101\Sensor/driver_max30102.c ****  *            - 2 handle is NULL
1289:..\..\..\..\PSoC6_101\Sensor/driver_max30102.c ****  *            - 3 handle is not initialized
1290:..\..\..\..\PSoC6_101\Sensor/driver_max30102.c ****  *            - 4 value can't be over 0xF
1291:..\..\..\..\PSoC6_101\Sensor/driver_max30102.c ****  * @note      none
1292:..\..\..\..\PSoC6_101\Sensor/driver_max30102.c ****  */
1293:..\..\..\..\PSoC6_101\Sensor/driver_max30102.c **** uint8_t max30102_set_fifo_almost_full(max30102_handle_t *handle, uint8_t value)
1294:..\..\..\..\PSoC6_101\Sensor/driver_max30102.c **** {
 3377              		.loc 1 1294 0
 3378              		.cfi_startproc
 3379              		@ args = 0, pretend = 0, frame = 16
 3380              		@ frame_needed = 1, uses_anonymous_args = 0
 3381 0000 90B5     		push	{r4, r7, lr}
 3382              		.cfi_def_cfa_offset 12
 3383              		.cfi_offset 4, -12
 3384              		.cfi_offset 7, -8
 3385              		.cfi_offset 14, -4
 3386 0002 85B0     		sub	sp, sp, #20
 3387              		.cfi_def_cfa_offset 32
 3388 0004 00AF     		add	r7, sp, #0
 3389              		.cfi_def_cfa_register 7
 3390 0006 7860     		str	r0, [r7, #4]
 3391 0008 0B46     		mov	r3, r1
 3392 000a FB70     		strb	r3, [r7, #3]
1295:..\..\..\..\PSoC6_101\Sensor/driver_max30102.c ****     uint8_t res;
1296:..\..\..\..\PSoC6_101\Sensor/driver_max30102.c ****     uint8_t prev;
1297:..\..\..\..\PSoC6_101\Sensor/driver_max30102.c ****     
1298:..\..\..\..\PSoC6_101\Sensor/driver_max30102.c ****     if (handle == NULL)                                                                            
 3393              		.loc 1 1298 0
 3394 000c 7B68     		ldr	r3, [r7, #4]
 3395 000e 002B     		cmp	r3, #0
 3396 0010 01D1     		bne	.L228
1299:..\..\..\..\PSoC6_101\Sensor/driver_max30102.c ****     {
1300:..\..\..\..\PSoC6_101\Sensor/driver_max30102.c ****         return 2;                                                                                  
 3397              		.loc 1 1300 0
 3398 0012 0223     		movs	r3, #2
 3399 0014 3FE0     		b	.L234
 3400              	.L228:
1301:..\..\..\..\PSoC6_101\Sensor/driver_max30102.c ****     }
1302:..\..\..\..\PSoC6_101\Sensor/driver_max30102.c ****     if (handle->inited != 1)                                                                       
 3401              		.loc 1 1302 0
 3402 0016 7B68     		ldr	r3, [r7, #4]
 3403 0018 1B7F     		ldrb	r3, [r3, #28]	@ zero_extendqisi2
 3404 001a 012B     		cmp	r3, #1
 3405 001c 01D0     		beq	.L230
1303:..\..\..\..\PSoC6_101\Sensor/driver_max30102.c ****     {
1304:..\..\..\..\PSoC6_101\Sensor/driver_max30102.c ****         return 3;                                                                                  
 3406              		.loc 1 1304 0
 3407 001e 0323     		movs	r3, #3
 3408 0020 39E0     		b	.L234
 3409              	.L230:
1305:..\..\..\..\PSoC6_101\Sensor/driver_max30102.c ****     }
ARM GAS  C:\Users\49148\AppData\Local\Temp\ccWN5cWv.s 			page 87


1306:..\..\..\..\PSoC6_101\Sensor/driver_max30102.c ****     if (value > 0xF)                                                                               
 3410              		.loc 1 1306 0
 3411 0022 FB78     		ldrb	r3, [r7, #3]	@ zero_extendqisi2
 3412 0024 0F2B     		cmp	r3, #15
 3413 0026 05D9     		bls	.L231
1307:..\..\..\..\PSoC6_101\Sensor/driver_max30102.c ****     {
1308:..\..\..\..\PSoC6_101\Sensor/driver_max30102.c ****         handle->debug_print("max30102: value can't be over 0xF.\n");                               
 3414              		.loc 1 1308 0
 3415 0028 7B68     		ldr	r3, [r7, #4]
 3416 002a 9B69     		ldr	r3, [r3, #24]
 3417 002c 1C48     		ldr	r0, .L235
 3418 002e 9847     		blx	r3
1309:..\..\..\..\PSoC6_101\Sensor/driver_max30102.c ****        
1310:..\..\..\..\PSoC6_101\Sensor/driver_max30102.c ****         return 4;                                                                                  
 3419              		.loc 1 1310 0
 3420 0030 0423     		movs	r3, #4
 3421 0032 30E0     		b	.L234
 3422              	.L231:
1311:..\..\..\..\PSoC6_101\Sensor/driver_max30102.c ****     }
1312:..\..\..\..\PSoC6_101\Sensor/driver_max30102.c ****     
1313:..\..\..\..\PSoC6_101\Sensor/driver_max30102.c ****     res = handle->iic_read(MAX30102_ADDRESS, MAX30102_REG_FIFO_CONFIG, (uint8_t *)&prev, 1);       
 3423              		.loc 1 1313 0
 3424 0034 7B68     		ldr	r3, [r7, #4]
 3425 0036 9C68     		ldr	r4, [r3, #8]
 3426 0038 07F10E02 		add	r2, r7, #14
 3427 003c 0123     		movs	r3, #1
 3428 003e 0821     		movs	r1, #8
 3429 0040 AE20     		movs	r0, #174
 3430 0042 A047     		blx	r4
 3431 0044 0346     		mov	r3, r0
 3432 0046 FB73     		strb	r3, [r7, #15]
1314:..\..\..\..\PSoC6_101\Sensor/driver_max30102.c ****     if (res != 0)                                                                                  
 3433              		.loc 1 1314 0
 3434 0048 FB7B     		ldrb	r3, [r7, #15]	@ zero_extendqisi2
 3435 004a 002B     		cmp	r3, #0
 3436 004c 05D0     		beq	.L232
1315:..\..\..\..\PSoC6_101\Sensor/driver_max30102.c ****     {
1316:..\..\..\..\PSoC6_101\Sensor/driver_max30102.c ****         handle->debug_print("max30102: read fifo config failed.\n");                               
 3437              		.loc 1 1316 0
 3438 004e 7B68     		ldr	r3, [r7, #4]
 3439 0050 9B69     		ldr	r3, [r3, #24]
 3440 0052 1448     		ldr	r0, .L235+4
 3441 0054 9847     		blx	r3
1317:..\..\..\..\PSoC6_101\Sensor/driver_max30102.c ****        
1318:..\..\..\..\PSoC6_101\Sensor/driver_max30102.c ****         return 1;                                                                                  
 3442              		.loc 1 1318 0
 3443 0056 0123     		movs	r3, #1
 3444 0058 1DE0     		b	.L234
 3445              	.L232:
1319:..\..\..\..\PSoC6_101\Sensor/driver_max30102.c ****     }
1320:..\..\..\..\PSoC6_101\Sensor/driver_max30102.c ****     prev &= ~(0xF << 0);                                                                           
 3446              		.loc 1 1320 0
 3447 005a BB7B     		ldrb	r3, [r7, #14]	@ zero_extendqisi2
 3448 005c 23F00F03 		bic	r3, r3, #15
 3449 0060 DBB2     		uxtb	r3, r3
 3450 0062 BB73     		strb	r3, [r7, #14]
1321:..\..\..\..\PSoC6_101\Sensor/driver_max30102.c ****     prev |= value << 0;                                                                            
ARM GAS  C:\Users\49148\AppData\Local\Temp\ccWN5cWv.s 			page 88


 3451              		.loc 1 1321 0
 3452 0064 BA7B     		ldrb	r2, [r7, #14]	@ zero_extendqisi2
 3453 0066 FB78     		ldrb	r3, [r7, #3]
 3454 0068 1343     		orrs	r3, r3, r2
 3455 006a DBB2     		uxtb	r3, r3
 3456 006c BB73     		strb	r3, [r7, #14]
1322:..\..\..\..\PSoC6_101\Sensor/driver_max30102.c ****     res = handle->iic_write(MAX30102_ADDRESS, MAX30102_REG_FIFO_CONFIG, (uint8_t *)&prev, 1);      
 3457              		.loc 1 1322 0
 3458 006e 7B68     		ldr	r3, [r7, #4]
 3459 0070 DC68     		ldr	r4, [r3, #12]
 3460 0072 07F10E02 		add	r2, r7, #14
 3461 0076 0123     		movs	r3, #1
 3462 0078 0821     		movs	r1, #8
 3463 007a AE20     		movs	r0, #174
 3464 007c A047     		blx	r4
 3465 007e 0346     		mov	r3, r0
 3466 0080 FB73     		strb	r3, [r7, #15]
1323:..\..\..\..\PSoC6_101\Sensor/driver_max30102.c ****     if (res != 0)                                                                                  
 3467              		.loc 1 1323 0
 3468 0082 FB7B     		ldrb	r3, [r7, #15]	@ zero_extendqisi2
 3469 0084 002B     		cmp	r3, #0
 3470 0086 05D0     		beq	.L233
1324:..\..\..\..\PSoC6_101\Sensor/driver_max30102.c ****     {
1325:..\..\..\..\PSoC6_101\Sensor/driver_max30102.c ****         handle->debug_print("max30102: write fifo config failed.\n");                              
 3471              		.loc 1 1325 0
 3472 0088 7B68     		ldr	r3, [r7, #4]
 3473 008a 9B69     		ldr	r3, [r3, #24]
 3474 008c 0648     		ldr	r0, .L235+8
 3475 008e 9847     		blx	r3
1326:..\..\..\..\PSoC6_101\Sensor/driver_max30102.c ****        
1327:..\..\..\..\PSoC6_101\Sensor/driver_max30102.c ****         return 1;                                                                                  
 3476              		.loc 1 1327 0
 3477 0090 0123     		movs	r3, #1
 3478 0092 00E0     		b	.L234
 3479              	.L233:
1328:..\..\..\..\PSoC6_101\Sensor/driver_max30102.c ****     }
1329:..\..\..\..\PSoC6_101\Sensor/driver_max30102.c ****     
1330:..\..\..\..\PSoC6_101\Sensor/driver_max30102.c ****     return 0;                                                                                      
 3480              		.loc 1 1330 0
 3481 0094 0023     		movs	r3, #0
 3482              	.L234:
1331:..\..\..\..\PSoC6_101\Sensor/driver_max30102.c **** }
 3483              		.loc 1 1331 0 discriminator 1
 3484 0096 1846     		mov	r0, r3
 3485 0098 1437     		adds	r7, r7, #20
 3486              		.cfi_def_cfa_offset 12
 3487 009a BD46     		mov	sp, r7
 3488              		.cfi_def_cfa_register 13
 3489              		@ sp needed
 3490 009c 90BD     		pop	{r4, r7, pc}
 3491              	.L236:
 3492 009e 00BF     		.align	2
 3493              	.L235:
 3494 00a0 84060000 		.word	.LC43
 3495 00a4 38060000 		.word	.LC41
 3496 00a8 5C060000 		.word	.LC42
 3497              		.cfi_endproc
ARM GAS  C:\Users\49148\AppData\Local\Temp\ccWN5cWv.s 			page 89


 3498              	.LFE21:
 3499              		.size	max30102_set_fifo_almost_full, .-max30102_set_fifo_almost_full
 3500              		.section	.text.max30102_get_fifo_almost_full,"ax",%progbits
 3501              		.align	2
 3502              		.global	max30102_get_fifo_almost_full
 3503              		.thumb
 3504              		.thumb_func
 3505              		.type	max30102_get_fifo_almost_full, %function
 3506              	max30102_get_fifo_almost_full:
 3507              	.LFB22:
1332:..\..\..\..\PSoC6_101\Sensor/driver_max30102.c **** 
1333:..\..\..\..\PSoC6_101\Sensor/driver_max30102.c **** /**
1334:..\..\..\..\PSoC6_101\Sensor/driver_max30102.c ****  * @brief      get the fifo almost full value
1335:..\..\..\..\PSoC6_101\Sensor/driver_max30102.c ****  * @param[in]  *handle points to a max30102 handle structure
1336:..\..\..\..\PSoC6_101\Sensor/driver_max30102.c ****  * @param[out] *value points to a fifo almost full value buffer
1337:..\..\..\..\PSoC6_101\Sensor/driver_max30102.c ****  * @return     status code
1338:..\..\..\..\PSoC6_101\Sensor/driver_max30102.c ****  *             - 0 success
1339:..\..\..\..\PSoC6_101\Sensor/driver_max30102.c ****  *             - 1 get fifo almost full failed
1340:..\..\..\..\PSoC6_101\Sensor/driver_max30102.c ****  *             - 2 handle is NULL
1341:..\..\..\..\PSoC6_101\Sensor/driver_max30102.c ****  *             - 3 handle is not initialized
1342:..\..\..\..\PSoC6_101\Sensor/driver_max30102.c ****  * @note      none
1343:..\..\..\..\PSoC6_101\Sensor/driver_max30102.c ****  */
1344:..\..\..\..\PSoC6_101\Sensor/driver_max30102.c **** uint8_t max30102_get_fifo_almost_full(max30102_handle_t *handle, uint8_t *value)
1345:..\..\..\..\PSoC6_101\Sensor/driver_max30102.c **** {
 3508              		.loc 1 1345 0
 3509              		.cfi_startproc
 3510              		@ args = 0, pretend = 0, frame = 16
 3511              		@ frame_needed = 1, uses_anonymous_args = 0
 3512 0000 90B5     		push	{r4, r7, lr}
 3513              		.cfi_def_cfa_offset 12
 3514              		.cfi_offset 4, -12
 3515              		.cfi_offset 7, -8
 3516              		.cfi_offset 14, -4
 3517 0002 85B0     		sub	sp, sp, #20
 3518              		.cfi_def_cfa_offset 32
 3519 0004 00AF     		add	r7, sp, #0
 3520              		.cfi_def_cfa_register 7
 3521 0006 7860     		str	r0, [r7, #4]
 3522 0008 3960     		str	r1, [r7]
1346:..\..\..\..\PSoC6_101\Sensor/driver_max30102.c ****     uint8_t res;
1347:..\..\..\..\PSoC6_101\Sensor/driver_max30102.c ****     uint8_t prev;
1348:..\..\..\..\PSoC6_101\Sensor/driver_max30102.c ****     
1349:..\..\..\..\PSoC6_101\Sensor/driver_max30102.c ****     if (handle == NULL)                                                                            
 3523              		.loc 1 1349 0
 3524 000a 7B68     		ldr	r3, [r7, #4]
 3525 000c 002B     		cmp	r3, #0
 3526 000e 01D1     		bne	.L238
1350:..\..\..\..\PSoC6_101\Sensor/driver_max30102.c ****     {
1351:..\..\..\..\PSoC6_101\Sensor/driver_max30102.c ****         return 2;                                                                                  
 3527              		.loc 1 1351 0
 3528 0010 0223     		movs	r3, #2
 3529 0012 1FE0     		b	.L242
 3530              	.L238:
1352:..\..\..\..\PSoC6_101\Sensor/driver_max30102.c ****     }
1353:..\..\..\..\PSoC6_101\Sensor/driver_max30102.c ****     if (handle->inited != 1)                                                                       
 3531              		.loc 1 1353 0
 3532 0014 7B68     		ldr	r3, [r7, #4]
ARM GAS  C:\Users\49148\AppData\Local\Temp\ccWN5cWv.s 			page 90


 3533 0016 1B7F     		ldrb	r3, [r3, #28]	@ zero_extendqisi2
 3534 0018 012B     		cmp	r3, #1
 3535 001a 01D0     		beq	.L240
1354:..\..\..\..\PSoC6_101\Sensor/driver_max30102.c ****     {
1355:..\..\..\..\PSoC6_101\Sensor/driver_max30102.c ****         return 3;                                                                                  
 3536              		.loc 1 1355 0
 3537 001c 0323     		movs	r3, #3
 3538 001e 19E0     		b	.L242
 3539              	.L240:
1356:..\..\..\..\PSoC6_101\Sensor/driver_max30102.c ****     }
1357:..\..\..\..\PSoC6_101\Sensor/driver_max30102.c ****     
1358:..\..\..\..\PSoC6_101\Sensor/driver_max30102.c ****     res = handle->iic_read(MAX30102_ADDRESS, MAX30102_REG_FIFO_CONFIG, (uint8_t *)&prev, 1);       
 3540              		.loc 1 1358 0
 3541 0020 7B68     		ldr	r3, [r7, #4]
 3542 0022 9C68     		ldr	r4, [r3, #8]
 3543 0024 07F10E02 		add	r2, r7, #14
 3544 0028 0123     		movs	r3, #1
 3545 002a 0821     		movs	r1, #8
 3546 002c AE20     		movs	r0, #174
 3547 002e A047     		blx	r4
 3548 0030 0346     		mov	r3, r0
 3549 0032 FB73     		strb	r3, [r7, #15]
1359:..\..\..\..\PSoC6_101\Sensor/driver_max30102.c ****     if (res != 0)                                                                                  
 3550              		.loc 1 1359 0
 3551 0034 FB7B     		ldrb	r3, [r7, #15]	@ zero_extendqisi2
 3552 0036 002B     		cmp	r3, #0
 3553 0038 05D0     		beq	.L241
1360:..\..\..\..\PSoC6_101\Sensor/driver_max30102.c ****     {
1361:..\..\..\..\PSoC6_101\Sensor/driver_max30102.c ****         handle->debug_print("max30102: read fifo config failed.\n");                               
 3554              		.loc 1 1361 0
 3555 003a 7B68     		ldr	r3, [r7, #4]
 3556 003c 9B69     		ldr	r3, [r3, #24]
 3557 003e 0748     		ldr	r0, .L243
 3558 0040 9847     		blx	r3
1362:..\..\..\..\PSoC6_101\Sensor/driver_max30102.c ****        
1363:..\..\..\..\PSoC6_101\Sensor/driver_max30102.c ****         return 1;                                                                                  
 3559              		.loc 1 1363 0
 3560 0042 0123     		movs	r3, #1
 3561 0044 06E0     		b	.L242
 3562              	.L241:
1364:..\..\..\..\PSoC6_101\Sensor/driver_max30102.c ****     }
1365:..\..\..\..\PSoC6_101\Sensor/driver_max30102.c ****     *value = prev & 0xF;                                                                           
 3563              		.loc 1 1365 0
 3564 0046 BB7B     		ldrb	r3, [r7, #14]	@ zero_extendqisi2
 3565 0048 03F00F03 		and	r3, r3, #15
 3566 004c DAB2     		uxtb	r2, r3
 3567 004e 3B68     		ldr	r3, [r7]
 3568 0050 1A70     		strb	r2, [r3]
1366:..\..\..\..\PSoC6_101\Sensor/driver_max30102.c ****     
1367:..\..\..\..\PSoC6_101\Sensor/driver_max30102.c ****     return 0;                                                                                      
 3569              		.loc 1 1367 0
 3570 0052 0023     		movs	r3, #0
 3571              	.L242:
1368:..\..\..\..\PSoC6_101\Sensor/driver_max30102.c **** }
 3572              		.loc 1 1368 0 discriminator 1
 3573 0054 1846     		mov	r0, r3
 3574 0056 1437     		adds	r7, r7, #20
ARM GAS  C:\Users\49148\AppData\Local\Temp\ccWN5cWv.s 			page 91


 3575              		.cfi_def_cfa_offset 12
 3576 0058 BD46     		mov	sp, r7
 3577              		.cfi_def_cfa_register 13
 3578              		@ sp needed
 3579 005a 90BD     		pop	{r4, r7, pc}
 3580              	.L244:
 3581              		.align	2
 3582              	.L243:
 3583 005c 38060000 		.word	.LC41
 3584              		.cfi_endproc
 3585              	.LFE22:
 3586              		.size	max30102_get_fifo_almost_full, .-max30102_get_fifo_almost_full
 3587              		.section	.text.max30102_set_shutdown,"ax",%progbits
 3588              		.align	2
 3589              		.global	max30102_set_shutdown
 3590              		.thumb
 3591              		.thumb_func
 3592              		.type	max30102_set_shutdown, %function
 3593              	max30102_set_shutdown:
 3594              	.LFB23:
1369:..\..\..\..\PSoC6_101\Sensor/driver_max30102.c **** 
1370:..\..\..\..\PSoC6_101\Sensor/driver_max30102.c **** /**
1371:..\..\..\..\PSoC6_101\Sensor/driver_max30102.c ****  * @brief     set the shutdown
1372:..\..\..\..\PSoC6_101\Sensor/driver_max30102.c ****  * @param[in] *handle points to a max30102 handle structure
1373:..\..\..\..\PSoC6_101\Sensor/driver_max30102.c ****  * @param[in] enable is a bool value
1374:..\..\..\..\PSoC6_101\Sensor/driver_max30102.c ****  * @return    status code
1375:..\..\..\..\PSoC6_101\Sensor/driver_max30102.c ****  *            - 0 success
1376:..\..\..\..\PSoC6_101\Sensor/driver_max30102.c ****  *            - 1 set shutdown failed
1377:..\..\..\..\PSoC6_101\Sensor/driver_max30102.c ****  *            - 2 handle is NULL
1378:..\..\..\..\PSoC6_101\Sensor/driver_max30102.c ****  *            - 3 handle is not initialized
1379:..\..\..\..\PSoC6_101\Sensor/driver_max30102.c ****  * @note      none
1380:..\..\..\..\PSoC6_101\Sensor/driver_max30102.c ****  */
1381:..\..\..\..\PSoC6_101\Sensor/driver_max30102.c **** uint8_t max30102_set_shutdown(max30102_handle_t *handle, max30102_bool_t enable)
1382:..\..\..\..\PSoC6_101\Sensor/driver_max30102.c **** {
 3595              		.loc 1 1382 0
 3596              		.cfi_startproc
 3597              		@ args = 0, pretend = 0, frame = 16
 3598              		@ frame_needed = 1, uses_anonymous_args = 0
 3599 0000 90B5     		push	{r4, r7, lr}
 3600              		.cfi_def_cfa_offset 12
 3601              		.cfi_offset 4, -12
 3602              		.cfi_offset 7, -8
 3603              		.cfi_offset 14, -4
 3604 0002 85B0     		sub	sp, sp, #20
 3605              		.cfi_def_cfa_offset 32
 3606 0004 00AF     		add	r7, sp, #0
 3607              		.cfi_def_cfa_register 7
 3608 0006 7860     		str	r0, [r7, #4]
 3609 0008 0B46     		mov	r3, r1
 3610 000a FB70     		strb	r3, [r7, #3]
1383:..\..\..\..\PSoC6_101\Sensor/driver_max30102.c ****     uint8_t res;
1384:..\..\..\..\PSoC6_101\Sensor/driver_max30102.c ****     uint8_t prev;
1385:..\..\..\..\PSoC6_101\Sensor/driver_max30102.c ****     
1386:..\..\..\..\PSoC6_101\Sensor/driver_max30102.c ****     if (handle == NULL)                                                                            
 3611              		.loc 1 1386 0
 3612 000c 7B68     		ldr	r3, [r7, #4]
 3613 000e 002B     		cmp	r3, #0
ARM GAS  C:\Users\49148\AppData\Local\Temp\ccWN5cWv.s 			page 92


 3614 0010 01D1     		bne	.L246
1387:..\..\..\..\PSoC6_101\Sensor/driver_max30102.c ****     {
1388:..\..\..\..\PSoC6_101\Sensor/driver_max30102.c ****         return 2;                                                                                  
 3615              		.loc 1 1388 0
 3616 0012 0223     		movs	r3, #2
 3617 0014 3AE0     		b	.L251
 3618              	.L246:
1389:..\..\..\..\PSoC6_101\Sensor/driver_max30102.c ****     }
1390:..\..\..\..\PSoC6_101\Sensor/driver_max30102.c ****     if (handle->inited != 1)                                                                       
 3619              		.loc 1 1390 0
 3620 0016 7B68     		ldr	r3, [r7, #4]
 3621 0018 1B7F     		ldrb	r3, [r3, #28]	@ zero_extendqisi2
 3622 001a 012B     		cmp	r3, #1
 3623 001c 01D0     		beq	.L248
1391:..\..\..\..\PSoC6_101\Sensor/driver_max30102.c ****     {
1392:..\..\..\..\PSoC6_101\Sensor/driver_max30102.c ****         return 3;                                                                                  
 3624              		.loc 1 1392 0
 3625 001e 0323     		movs	r3, #3
 3626 0020 34E0     		b	.L251
 3627              	.L248:
1393:..\..\..\..\PSoC6_101\Sensor/driver_max30102.c ****     }
1394:..\..\..\..\PSoC6_101\Sensor/driver_max30102.c ****     
1395:..\..\..\..\PSoC6_101\Sensor/driver_max30102.c ****     res = handle->iic_read(MAX30102_ADDRESS, MAX30102_REG_MODE_CONFIG, (uint8_t *)&prev, 1);       
 3628              		.loc 1 1395 0
 3629 0022 7B68     		ldr	r3, [r7, #4]
 3630 0024 9C68     		ldr	r4, [r3, #8]
 3631 0026 07F10E02 		add	r2, r7, #14
 3632 002a 0123     		movs	r3, #1
 3633 002c 0921     		movs	r1, #9
 3634 002e AE20     		movs	r0, #174
 3635 0030 A047     		blx	r4
 3636 0032 0346     		mov	r3, r0
 3637 0034 FB73     		strb	r3, [r7, #15]
1396:..\..\..\..\PSoC6_101\Sensor/driver_max30102.c ****     if (res != 0)                                                                                  
 3638              		.loc 1 1396 0
 3639 0036 FB7B     		ldrb	r3, [r7, #15]	@ zero_extendqisi2
 3640 0038 002B     		cmp	r3, #0
 3641 003a 05D0     		beq	.L249
1397:..\..\..\..\PSoC6_101\Sensor/driver_max30102.c ****     {
1398:..\..\..\..\PSoC6_101\Sensor/driver_max30102.c ****         handle->debug_print("max30102: read mode config failed.\n");                               
 3642              		.loc 1 1398 0
 3643 003c 7B68     		ldr	r3, [r7, #4]
 3644 003e 9B69     		ldr	r3, [r3, #24]
 3645 0040 1448     		ldr	r0, .L252
 3646 0042 9847     		blx	r3
1399:..\..\..\..\PSoC6_101\Sensor/driver_max30102.c ****        
1400:..\..\..\..\PSoC6_101\Sensor/driver_max30102.c ****         return 1;                                                                                  
 3647              		.loc 1 1400 0
 3648 0044 0123     		movs	r3, #1
 3649 0046 21E0     		b	.L251
 3650              	.L249:
1401:..\..\..\..\PSoC6_101\Sensor/driver_max30102.c ****     }
1402:..\..\..\..\PSoC6_101\Sensor/driver_max30102.c ****     prev &= ~(1 << 7);                                                                             
 3651              		.loc 1 1402 0
 3652 0048 BB7B     		ldrb	r3, [r7, #14]	@ zero_extendqisi2
 3653 004a 03F07F03 		and	r3, r3, #127
 3654 004e DBB2     		uxtb	r3, r3
ARM GAS  C:\Users\49148\AppData\Local\Temp\ccWN5cWv.s 			page 93


 3655 0050 BB73     		strb	r3, [r7, #14]
1403:..\..\..\..\PSoC6_101\Sensor/driver_max30102.c ****     prev |= enable << 7;                                                                           
 3656              		.loc 1 1403 0
 3657 0052 FB78     		ldrb	r3, [r7, #3]	@ zero_extendqisi2
 3658 0054 DB01     		lsls	r3, r3, #7
 3659 0056 5AB2     		sxtb	r2, r3
 3660 0058 BB7B     		ldrb	r3, [r7, #14]	@ zero_extendqisi2
 3661 005a 5BB2     		sxtb	r3, r3
 3662 005c 1343     		orrs	r3, r3, r2
 3663 005e 5BB2     		sxtb	r3, r3
 3664 0060 DBB2     		uxtb	r3, r3
 3665 0062 BB73     		strb	r3, [r7, #14]
1404:..\..\..\..\PSoC6_101\Sensor/driver_max30102.c ****     res = handle->iic_write(MAX30102_ADDRESS, MAX30102_REG_MODE_CONFIG, (uint8_t *)&prev, 1);      
 3666              		.loc 1 1404 0
 3667 0064 7B68     		ldr	r3, [r7, #4]
 3668 0066 DC68     		ldr	r4, [r3, #12]
 3669 0068 07F10E02 		add	r2, r7, #14
 3670 006c 0123     		movs	r3, #1
 3671 006e 0921     		movs	r1, #9
 3672 0070 AE20     		movs	r0, #174
 3673 0072 A047     		blx	r4
 3674 0074 0346     		mov	r3, r0
 3675 0076 FB73     		strb	r3, [r7, #15]
1405:..\..\..\..\PSoC6_101\Sensor/driver_max30102.c ****     if (res != 0)                                                                                  
 3676              		.loc 1 1405 0
 3677 0078 FB7B     		ldrb	r3, [r7, #15]	@ zero_extendqisi2
 3678 007a 002B     		cmp	r3, #0
 3679 007c 05D0     		beq	.L250
1406:..\..\..\..\PSoC6_101\Sensor/driver_max30102.c ****     {
1407:..\..\..\..\PSoC6_101\Sensor/driver_max30102.c ****         handle->debug_print("max30102: write mode config failed.\n");                              
 3680              		.loc 1 1407 0
 3681 007e 7B68     		ldr	r3, [r7, #4]
 3682 0080 9B69     		ldr	r3, [r3, #24]
 3683 0082 0548     		ldr	r0, .L252+4
 3684 0084 9847     		blx	r3
1408:..\..\..\..\PSoC6_101\Sensor/driver_max30102.c ****        
1409:..\..\..\..\PSoC6_101\Sensor/driver_max30102.c ****         return 1;                                                                                  
 3685              		.loc 1 1409 0
 3686 0086 0123     		movs	r3, #1
 3687 0088 00E0     		b	.L251
 3688              	.L250:
1410:..\..\..\..\PSoC6_101\Sensor/driver_max30102.c ****     }
1411:..\..\..\..\PSoC6_101\Sensor/driver_max30102.c ****     
1412:..\..\..\..\PSoC6_101\Sensor/driver_max30102.c ****     return 0;                                                                                      
 3689              		.loc 1 1412 0
 3690 008a 0023     		movs	r3, #0
 3691              	.L251:
1413:..\..\..\..\PSoC6_101\Sensor/driver_max30102.c **** }
 3692              		.loc 1 1413 0 discriminator 1
 3693 008c 1846     		mov	r0, r3
 3694 008e 1437     		adds	r7, r7, #20
 3695              		.cfi_def_cfa_offset 12
 3696 0090 BD46     		mov	sp, r7
 3697              		.cfi_def_cfa_register 13
 3698              		@ sp needed
 3699 0092 90BD     		pop	{r4, r7, pc}
 3700              	.L253:
ARM GAS  C:\Users\49148\AppData\Local\Temp\ccWN5cWv.s 			page 94


 3701              		.align	2
 3702              	.L252:
 3703 0094 20010000 		.word	.LC9
 3704 0098 44010000 		.word	.LC10
 3705              		.cfi_endproc
 3706              	.LFE23:
 3707              		.size	max30102_set_shutdown, .-max30102_set_shutdown
 3708              		.section	.text.max30102_get_shutdown,"ax",%progbits
 3709              		.align	2
 3710              		.global	max30102_get_shutdown
 3711              		.thumb
 3712              		.thumb_func
 3713              		.type	max30102_get_shutdown, %function
 3714              	max30102_get_shutdown:
 3715              	.LFB24:
1414:..\..\..\..\PSoC6_101\Sensor/driver_max30102.c **** 
1415:..\..\..\..\PSoC6_101\Sensor/driver_max30102.c **** /**
1416:..\..\..\..\PSoC6_101\Sensor/driver_max30102.c ****  * @brief      get the shutdown
1417:..\..\..\..\PSoC6_101\Sensor/driver_max30102.c ****  * @param[in]  *handle points to a max30102 handle structure
1418:..\..\..\..\PSoC6_101\Sensor/driver_max30102.c ****  * @param[out] *enable points to a bool value buffer
1419:..\..\..\..\PSoC6_101\Sensor/driver_max30102.c ****  * @return     status code
1420:..\..\..\..\PSoC6_101\Sensor/driver_max30102.c ****  *             - 0 success
1421:..\..\..\..\PSoC6_101\Sensor/driver_max30102.c ****  *             - 1 get shutdown failed
1422:..\..\..\..\PSoC6_101\Sensor/driver_max30102.c ****  *             - 2 handle is NULL
1423:..\..\..\..\PSoC6_101\Sensor/driver_max30102.c ****  *             - 3 handle is not initialized
1424:..\..\..\..\PSoC6_101\Sensor/driver_max30102.c ****  * @note       none
1425:..\..\..\..\PSoC6_101\Sensor/driver_max30102.c ****  */
1426:..\..\..\..\PSoC6_101\Sensor/driver_max30102.c **** uint8_t max30102_get_shutdown(max30102_handle_t *handle, max30102_bool_t *enable)
1427:..\..\..\..\PSoC6_101\Sensor/driver_max30102.c **** {
 3716              		.loc 1 1427 0
 3717              		.cfi_startproc
 3718              		@ args = 0, pretend = 0, frame = 16
 3719              		@ frame_needed = 1, uses_anonymous_args = 0
 3720 0000 90B5     		push	{r4, r7, lr}
 3721              		.cfi_def_cfa_offset 12
 3722              		.cfi_offset 4, -12
 3723              		.cfi_offset 7, -8
 3724              		.cfi_offset 14, -4
 3725 0002 85B0     		sub	sp, sp, #20
 3726              		.cfi_def_cfa_offset 32
 3727 0004 00AF     		add	r7, sp, #0
 3728              		.cfi_def_cfa_register 7
 3729 0006 7860     		str	r0, [r7, #4]
 3730 0008 3960     		str	r1, [r7]
1428:..\..\..\..\PSoC6_101\Sensor/driver_max30102.c ****     uint8_t res;
1429:..\..\..\..\PSoC6_101\Sensor/driver_max30102.c ****     uint8_t prev;
1430:..\..\..\..\PSoC6_101\Sensor/driver_max30102.c ****     
1431:..\..\..\..\PSoC6_101\Sensor/driver_max30102.c ****     if (handle == NULL)                                                                            
 3731              		.loc 1 1431 0
 3732 000a 7B68     		ldr	r3, [r7, #4]
 3733 000c 002B     		cmp	r3, #0
 3734 000e 01D1     		bne	.L255
1432:..\..\..\..\PSoC6_101\Sensor/driver_max30102.c ****     {
1433:..\..\..\..\PSoC6_101\Sensor/driver_max30102.c ****         return 2;                                                                                  
 3735              		.loc 1 1433 0
 3736 0010 0223     		movs	r3, #2
 3737 0012 1EE0     		b	.L259
ARM GAS  C:\Users\49148\AppData\Local\Temp\ccWN5cWv.s 			page 95


 3738              	.L255:
1434:..\..\..\..\PSoC6_101\Sensor/driver_max30102.c ****     }
1435:..\..\..\..\PSoC6_101\Sensor/driver_max30102.c ****     if (handle->inited != 1)                                                                       
 3739              		.loc 1 1435 0
 3740 0014 7B68     		ldr	r3, [r7, #4]
 3741 0016 1B7F     		ldrb	r3, [r3, #28]	@ zero_extendqisi2
 3742 0018 012B     		cmp	r3, #1
 3743 001a 01D0     		beq	.L257
1436:..\..\..\..\PSoC6_101\Sensor/driver_max30102.c ****     {
1437:..\..\..\..\PSoC6_101\Sensor/driver_max30102.c ****         return 3;                                                                                  
 3744              		.loc 1 1437 0
 3745 001c 0323     		movs	r3, #3
 3746 001e 18E0     		b	.L259
 3747              	.L257:
1438:..\..\..\..\PSoC6_101\Sensor/driver_max30102.c ****     }
1439:..\..\..\..\PSoC6_101\Sensor/driver_max30102.c ****     
1440:..\..\..\..\PSoC6_101\Sensor/driver_max30102.c ****     res = handle->iic_read(MAX30102_ADDRESS, MAX30102_REG_MODE_CONFIG, (uint8_t *)&prev, 1);       
 3748              		.loc 1 1440 0
 3749 0020 7B68     		ldr	r3, [r7, #4]
 3750 0022 9C68     		ldr	r4, [r3, #8]
 3751 0024 07F10E02 		add	r2, r7, #14
 3752 0028 0123     		movs	r3, #1
 3753 002a 0921     		movs	r1, #9
 3754 002c AE20     		movs	r0, #174
 3755 002e A047     		blx	r4
 3756 0030 0346     		mov	r3, r0
 3757 0032 FB73     		strb	r3, [r7, #15]
1441:..\..\..\..\PSoC6_101\Sensor/driver_max30102.c ****     if (res != 0)                                                                                  
 3758              		.loc 1 1441 0
 3759 0034 FB7B     		ldrb	r3, [r7, #15]	@ zero_extendqisi2
 3760 0036 002B     		cmp	r3, #0
 3761 0038 05D0     		beq	.L258
1442:..\..\..\..\PSoC6_101\Sensor/driver_max30102.c ****     {
1443:..\..\..\..\PSoC6_101\Sensor/driver_max30102.c ****         handle->debug_print("max30102: read mode config failed.\n");                               
 3762              		.loc 1 1443 0
 3763 003a 7B68     		ldr	r3, [r7, #4]
 3764 003c 9B69     		ldr	r3, [r3, #24]
 3765 003e 0748     		ldr	r0, .L260
 3766 0040 9847     		blx	r3
1444:..\..\..\..\PSoC6_101\Sensor/driver_max30102.c ****        
1445:..\..\..\..\PSoC6_101\Sensor/driver_max30102.c ****         return 1;                                                                                  
 3767              		.loc 1 1445 0
 3768 0042 0123     		movs	r3, #1
 3769 0044 05E0     		b	.L259
 3770              	.L258:
1446:..\..\..\..\PSoC6_101\Sensor/driver_max30102.c ****     }
1447:..\..\..\..\PSoC6_101\Sensor/driver_max30102.c ****     *enable = (max30102_bool_t)((prev >> 7) & 0x01);                                               
 3771              		.loc 1 1447 0
 3772 0046 BB7B     		ldrb	r3, [r7, #14]	@ zero_extendqisi2
 3773 0048 DB09     		lsrs	r3, r3, #7
 3774 004a DAB2     		uxtb	r2, r3
 3775 004c 3B68     		ldr	r3, [r7]
 3776 004e 1A70     		strb	r2, [r3]
1448:..\..\..\..\PSoC6_101\Sensor/driver_max30102.c ****     
1449:..\..\..\..\PSoC6_101\Sensor/driver_max30102.c ****     return 0;                                                                                      
 3777              		.loc 1 1449 0
 3778 0050 0023     		movs	r3, #0
ARM GAS  C:\Users\49148\AppData\Local\Temp\ccWN5cWv.s 			page 96


 3779              	.L259:
1450:..\..\..\..\PSoC6_101\Sensor/driver_max30102.c **** }
 3780              		.loc 1 1450 0 discriminator 1
 3781 0052 1846     		mov	r0, r3
 3782 0054 1437     		adds	r7, r7, #20
 3783              		.cfi_def_cfa_offset 12
 3784 0056 BD46     		mov	sp, r7
 3785              		.cfi_def_cfa_register 13
 3786              		@ sp needed
 3787 0058 90BD     		pop	{r4, r7, pc}
 3788              	.L261:
 3789 005a 00BF     		.align	2
 3790              	.L260:
 3791 005c 20010000 		.word	.LC9
 3792              		.cfi_endproc
 3793              	.LFE24:
 3794              		.size	max30102_get_shutdown, .-max30102_get_shutdown
 3795              		.section	.text.max30102_reset,"ax",%progbits
 3796              		.align	2
 3797              		.global	max30102_reset
 3798              		.thumb
 3799              		.thumb_func
 3800              		.type	max30102_reset, %function
 3801              	max30102_reset:
 3802              	.LFB25:
1451:..\..\..\..\PSoC6_101\Sensor/driver_max30102.c **** 
1452:..\..\..\..\PSoC6_101\Sensor/driver_max30102.c **** /**
1453:..\..\..\..\PSoC6_101\Sensor/driver_max30102.c ****  * @brief     reset the chip
1454:..\..\..\..\PSoC6_101\Sensor/driver_max30102.c ****  * @param[in] *handle points to a max30102 handle structure
1455:..\..\..\..\PSoC6_101\Sensor/driver_max30102.c ****  * @return    status code
1456:..\..\..\..\PSoC6_101\Sensor/driver_max30102.c ****  *            - 0 success
1457:..\..\..\..\PSoC6_101\Sensor/driver_max30102.c ****  *            - 1 reset failed
1458:..\..\..\..\PSoC6_101\Sensor/driver_max30102.c ****  *            - 2 handle is NULL
1459:..\..\..\..\PSoC6_101\Sensor/driver_max30102.c ****  *            - 3 handle is not initialized
1460:..\..\..\..\PSoC6_101\Sensor/driver_max30102.c ****  * @note      none
1461:..\..\..\..\PSoC6_101\Sensor/driver_max30102.c ****  */
1462:..\..\..\..\PSoC6_101\Sensor/driver_max30102.c **** uint8_t max30102_reset(max30102_handle_t *handle)
1463:..\..\..\..\PSoC6_101\Sensor/driver_max30102.c **** {
 3803              		.loc 1 1463 0
 3804              		.cfi_startproc
 3805              		@ args = 0, pretend = 0, frame = 16
 3806              		@ frame_needed = 1, uses_anonymous_args = 0
 3807 0000 90B5     		push	{r4, r7, lr}
 3808              		.cfi_def_cfa_offset 12
 3809              		.cfi_offset 4, -12
 3810              		.cfi_offset 7, -8
 3811              		.cfi_offset 14, -4
 3812 0002 85B0     		sub	sp, sp, #20
 3813              		.cfi_def_cfa_offset 32
 3814 0004 00AF     		add	r7, sp, #0
 3815              		.cfi_def_cfa_register 7
 3816 0006 7860     		str	r0, [r7, #4]
1464:..\..\..\..\PSoC6_101\Sensor/driver_max30102.c ****     uint8_t res;
1465:..\..\..\..\PSoC6_101\Sensor/driver_max30102.c ****     uint8_t prev;
1466:..\..\..\..\PSoC6_101\Sensor/driver_max30102.c ****     
1467:..\..\..\..\PSoC6_101\Sensor/driver_max30102.c ****     if (handle == NULL)                                                                            
 3817              		.loc 1 1467 0
ARM GAS  C:\Users\49148\AppData\Local\Temp\ccWN5cWv.s 			page 97


 3818 0008 7B68     		ldr	r3, [r7, #4]
 3819 000a 002B     		cmp	r3, #0
 3820 000c 01D1     		bne	.L263
1468:..\..\..\..\PSoC6_101\Sensor/driver_max30102.c ****     {
1469:..\..\..\..\PSoC6_101\Sensor/driver_max30102.c ****         return 2;                                                                                  
 3821              		.loc 1 1469 0
 3822 000e 0223     		movs	r3, #2
 3823 0010 36E0     		b	.L268
 3824              	.L263:
1470:..\..\..\..\PSoC6_101\Sensor/driver_max30102.c ****     }
1471:..\..\..\..\PSoC6_101\Sensor/driver_max30102.c ****     if (handle->inited != 1)                                                                       
 3825              		.loc 1 1471 0
 3826 0012 7B68     		ldr	r3, [r7, #4]
 3827 0014 1B7F     		ldrb	r3, [r3, #28]	@ zero_extendqisi2
 3828 0016 012B     		cmp	r3, #1
 3829 0018 01D0     		beq	.L265
1472:..\..\..\..\PSoC6_101\Sensor/driver_max30102.c ****     {
1473:..\..\..\..\PSoC6_101\Sensor/driver_max30102.c ****         return 3;                                                                                  
 3830              		.loc 1 1473 0
 3831 001a 0323     		movs	r3, #3
 3832 001c 30E0     		b	.L268
 3833              	.L265:
1474:..\..\..\..\PSoC6_101\Sensor/driver_max30102.c ****     }
1475:..\..\..\..\PSoC6_101\Sensor/driver_max30102.c ****     
1476:..\..\..\..\PSoC6_101\Sensor/driver_max30102.c ****     res = handle->iic_read(MAX30102_ADDRESS, MAX30102_REG_MODE_CONFIG, (uint8_t *)&prev, 1);       
 3834              		.loc 1 1476 0
 3835 001e 7B68     		ldr	r3, [r7, #4]
 3836 0020 9C68     		ldr	r4, [r3, #8]
 3837 0022 07F10E02 		add	r2, r7, #14
 3838 0026 0123     		movs	r3, #1
 3839 0028 0921     		movs	r1, #9
 3840 002a AE20     		movs	r0, #174
 3841 002c A047     		blx	r4
 3842 002e 0346     		mov	r3, r0
 3843 0030 FB73     		strb	r3, [r7, #15]
1477:..\..\..\..\PSoC6_101\Sensor/driver_max30102.c ****     if (res != 0)                                                                                  
 3844              		.loc 1 1477 0
 3845 0032 FB7B     		ldrb	r3, [r7, #15]	@ zero_extendqisi2
 3846 0034 002B     		cmp	r3, #0
 3847 0036 05D0     		beq	.L266
1478:..\..\..\..\PSoC6_101\Sensor/driver_max30102.c ****     {
1479:..\..\..\..\PSoC6_101\Sensor/driver_max30102.c ****         handle->debug_print("max30102: read mode config failed.\n");                               
 3848              		.loc 1 1479 0
 3849 0038 7B68     		ldr	r3, [r7, #4]
 3850 003a 9B69     		ldr	r3, [r3, #24]
 3851 003c 1248     		ldr	r0, .L269
 3852 003e 9847     		blx	r3
1480:..\..\..\..\PSoC6_101\Sensor/driver_max30102.c ****        
1481:..\..\..\..\PSoC6_101\Sensor/driver_max30102.c ****         return 1;                                                                                  
 3853              		.loc 1 1481 0
 3854 0040 0123     		movs	r3, #1
 3855 0042 1DE0     		b	.L268
 3856              	.L266:
1482:..\..\..\..\PSoC6_101\Sensor/driver_max30102.c ****     }
1483:..\..\..\..\PSoC6_101\Sensor/driver_max30102.c ****     prev &= ~(1 << 6);                                                                             
 3857              		.loc 1 1483 0
 3858 0044 BB7B     		ldrb	r3, [r7, #14]	@ zero_extendqisi2
ARM GAS  C:\Users\49148\AppData\Local\Temp\ccWN5cWv.s 			page 98


 3859 0046 23F04003 		bic	r3, r3, #64
 3860 004a DBB2     		uxtb	r3, r3
 3861 004c BB73     		strb	r3, [r7, #14]
1484:..\..\..\..\PSoC6_101\Sensor/driver_max30102.c ****     prev |= 1 << 6;                                                                                
 3862              		.loc 1 1484 0
 3863 004e BB7B     		ldrb	r3, [r7, #14]	@ zero_extendqisi2
 3864 0050 43F04003 		orr	r3, r3, #64
 3865 0054 DBB2     		uxtb	r3, r3
 3866 0056 BB73     		strb	r3, [r7, #14]
1485:..\..\..\..\PSoC6_101\Sensor/driver_max30102.c ****     res = handle->iic_write(MAX30102_ADDRESS, MAX30102_REG_MODE_CONFIG, (uint8_t *)&prev, 1);      
 3867              		.loc 1 1485 0
 3868 0058 7B68     		ldr	r3, [r7, #4]
 3869 005a DC68     		ldr	r4, [r3, #12]
 3870 005c 07F10E02 		add	r2, r7, #14
 3871 0060 0123     		movs	r3, #1
 3872 0062 0921     		movs	r1, #9
 3873 0064 AE20     		movs	r0, #174
 3874 0066 A047     		blx	r4
 3875 0068 0346     		mov	r3, r0
 3876 006a FB73     		strb	r3, [r7, #15]
1486:..\..\..\..\PSoC6_101\Sensor/driver_max30102.c ****     if (res != 0)                                                                                  
 3877              		.loc 1 1486 0
 3878 006c FB7B     		ldrb	r3, [r7, #15]	@ zero_extendqisi2
 3879 006e 002B     		cmp	r3, #0
 3880 0070 05D0     		beq	.L267
1487:..\..\..\..\PSoC6_101\Sensor/driver_max30102.c ****     {
1488:..\..\..\..\PSoC6_101\Sensor/driver_max30102.c ****         handle->debug_print("max30102: write mode config failed.\n");                              
 3881              		.loc 1 1488 0
 3882 0072 7B68     		ldr	r3, [r7, #4]
 3883 0074 9B69     		ldr	r3, [r3, #24]
 3884 0076 0548     		ldr	r0, .L269+4
 3885 0078 9847     		blx	r3
1489:..\..\..\..\PSoC6_101\Sensor/driver_max30102.c ****        
1490:..\..\..\..\PSoC6_101\Sensor/driver_max30102.c ****         return 1;                                                                                  
 3886              		.loc 1 1490 0
 3887 007a 0123     		movs	r3, #1
 3888 007c 00E0     		b	.L268
 3889              	.L267:
1491:..\..\..\..\PSoC6_101\Sensor/driver_max30102.c ****     }
1492:..\..\..\..\PSoC6_101\Sensor/driver_max30102.c ****     
1493:..\..\..\..\PSoC6_101\Sensor/driver_max30102.c ****     return 0;                                                                                      
 3890              		.loc 1 1493 0
 3891 007e 0023     		movs	r3, #0
 3892              	.L268:
1494:..\..\..\..\PSoC6_101\Sensor/driver_max30102.c **** }
 3893              		.loc 1 1494 0 discriminator 1
 3894 0080 1846     		mov	r0, r3
 3895 0082 1437     		adds	r7, r7, #20
 3896              		.cfi_def_cfa_offset 12
 3897 0084 BD46     		mov	sp, r7
 3898              		.cfi_def_cfa_register 13
 3899              		@ sp needed
 3900 0086 90BD     		pop	{r4, r7, pc}
 3901              	.L270:
 3902              		.align	2
 3903              	.L269:
 3904 0088 20010000 		.word	.LC9
ARM GAS  C:\Users\49148\AppData\Local\Temp\ccWN5cWv.s 			page 99


 3905 008c 44010000 		.word	.LC10
 3906              		.cfi_endproc
 3907              	.LFE25:
 3908              		.size	max30102_reset, .-max30102_reset
 3909              		.section	.text.max30102_set_mode,"ax",%progbits
 3910              		.align	2
 3911              		.global	max30102_set_mode
 3912              		.thumb
 3913              		.thumb_func
 3914              		.type	max30102_set_mode, %function
 3915              	max30102_set_mode:
 3916              	.LFB26:
1495:..\..\..\..\PSoC6_101\Sensor/driver_max30102.c **** 
1496:..\..\..\..\PSoC6_101\Sensor/driver_max30102.c **** /**
1497:..\..\..\..\PSoC6_101\Sensor/driver_max30102.c ****  * @brief     set the mode
1498:..\..\..\..\PSoC6_101\Sensor/driver_max30102.c ****  * @param[in] *handle points to a max30102 handle structure
1499:..\..\..\..\PSoC6_101\Sensor/driver_max30102.c ****  * @param[in] mode is the chip mode
1500:..\..\..\..\PSoC6_101\Sensor/driver_max30102.c ****  * @return    status code
1501:..\..\..\..\PSoC6_101\Sensor/driver_max30102.c ****  *            - 0 success
1502:..\..\..\..\PSoC6_101\Sensor/driver_max30102.c ****  *            - 1 set mode failed
1503:..\..\..\..\PSoC6_101\Sensor/driver_max30102.c ****  *            - 2 handle is NULL
1504:..\..\..\..\PSoC6_101\Sensor/driver_max30102.c ****  *            - 3 handle is not initialized
1505:..\..\..\..\PSoC6_101\Sensor/driver_max30102.c ****  * @note      none
1506:..\..\..\..\PSoC6_101\Sensor/driver_max30102.c ****  */
1507:..\..\..\..\PSoC6_101\Sensor/driver_max30102.c **** uint8_t max30102_set_mode(max30102_handle_t *handle, max30102_mode_t mode)
1508:..\..\..\..\PSoC6_101\Sensor/driver_max30102.c **** {
 3917              		.loc 1 1508 0
 3918              		.cfi_startproc
 3919              		@ args = 0, pretend = 0, frame = 16
 3920              		@ frame_needed = 1, uses_anonymous_args = 0
 3921 0000 90B5     		push	{r4, r7, lr}
 3922              		.cfi_def_cfa_offset 12
 3923              		.cfi_offset 4, -12
 3924              		.cfi_offset 7, -8
 3925              		.cfi_offset 14, -4
 3926 0002 85B0     		sub	sp, sp, #20
 3927              		.cfi_def_cfa_offset 32
 3928 0004 00AF     		add	r7, sp, #0
 3929              		.cfi_def_cfa_register 7
 3930 0006 7860     		str	r0, [r7, #4]
 3931 0008 0B46     		mov	r3, r1
 3932 000a FB70     		strb	r3, [r7, #3]
1509:..\..\..\..\PSoC6_101\Sensor/driver_max30102.c ****     uint8_t res;
1510:..\..\..\..\PSoC6_101\Sensor/driver_max30102.c ****     uint8_t prev;
1511:..\..\..\..\PSoC6_101\Sensor/driver_max30102.c ****     
1512:..\..\..\..\PSoC6_101\Sensor/driver_max30102.c ****     if (handle == NULL)                                                                            
 3933              		.loc 1 1512 0
 3934 000c 7B68     		ldr	r3, [r7, #4]
 3935 000e 002B     		cmp	r3, #0
 3936 0010 01D1     		bne	.L272
1513:..\..\..\..\PSoC6_101\Sensor/driver_max30102.c ****     {
1514:..\..\..\..\PSoC6_101\Sensor/driver_max30102.c ****         return 2;                                                                                  
 3937              		.loc 1 1514 0
 3938 0012 0223     		movs	r3, #2
 3939 0014 36E0     		b	.L277
 3940              	.L272:
1515:..\..\..\..\PSoC6_101\Sensor/driver_max30102.c ****     }
ARM GAS  C:\Users\49148\AppData\Local\Temp\ccWN5cWv.s 			page 100


1516:..\..\..\..\PSoC6_101\Sensor/driver_max30102.c ****     if (handle->inited != 1)                                                                       
 3941              		.loc 1 1516 0
 3942 0016 7B68     		ldr	r3, [r7, #4]
 3943 0018 1B7F     		ldrb	r3, [r3, #28]	@ zero_extendqisi2
 3944 001a 012B     		cmp	r3, #1
 3945 001c 01D0     		beq	.L274
1517:..\..\..\..\PSoC6_101\Sensor/driver_max30102.c ****     {
1518:..\..\..\..\PSoC6_101\Sensor/driver_max30102.c ****         return 3;                                                                                  
 3946              		.loc 1 1518 0
 3947 001e 0323     		movs	r3, #3
 3948 0020 30E0     		b	.L277
 3949              	.L274:
1519:..\..\..\..\PSoC6_101\Sensor/driver_max30102.c ****     }
1520:..\..\..\..\PSoC6_101\Sensor/driver_max30102.c ****     
1521:..\..\..\..\PSoC6_101\Sensor/driver_max30102.c ****     res = handle->iic_read(MAX30102_ADDRESS, MAX30102_REG_MODE_CONFIG, (uint8_t *)&prev, 1);       
 3950              		.loc 1 1521 0
 3951 0022 7B68     		ldr	r3, [r7, #4]
 3952 0024 9C68     		ldr	r4, [r3, #8]
 3953 0026 07F10E02 		add	r2, r7, #14
 3954 002a 0123     		movs	r3, #1
 3955 002c 0921     		movs	r1, #9
 3956 002e AE20     		movs	r0, #174
 3957 0030 A047     		blx	r4
 3958 0032 0346     		mov	r3, r0
 3959 0034 FB73     		strb	r3, [r7, #15]
1522:..\..\..\..\PSoC6_101\Sensor/driver_max30102.c ****     if (res != 0)                                                                                  
 3960              		.loc 1 1522 0
 3961 0036 FB7B     		ldrb	r3, [r7, #15]	@ zero_extendqisi2
 3962 0038 002B     		cmp	r3, #0
 3963 003a 05D0     		beq	.L275
1523:..\..\..\..\PSoC6_101\Sensor/driver_max30102.c ****     {
1524:..\..\..\..\PSoC6_101\Sensor/driver_max30102.c ****         handle->debug_print("max30102: read mode config failed.\n");                               
 3964              		.loc 1 1524 0
 3965 003c 7B68     		ldr	r3, [r7, #4]
 3966 003e 9B69     		ldr	r3, [r3, #24]
 3967 0040 1248     		ldr	r0, .L278
 3968 0042 9847     		blx	r3
1525:..\..\..\..\PSoC6_101\Sensor/driver_max30102.c ****        
1526:..\..\..\..\PSoC6_101\Sensor/driver_max30102.c ****         return 1;                                                                                  
 3969              		.loc 1 1526 0
 3970 0044 0123     		movs	r3, #1
 3971 0046 1DE0     		b	.L277
 3972              	.L275:
1527:..\..\..\..\PSoC6_101\Sensor/driver_max30102.c ****     }
1528:..\..\..\..\PSoC6_101\Sensor/driver_max30102.c ****     prev &= ~(7 << 0);                                                                             
 3973              		.loc 1 1528 0
 3974 0048 BB7B     		ldrb	r3, [r7, #14]	@ zero_extendqisi2
 3975 004a 23F00703 		bic	r3, r3, #7
 3976 004e DBB2     		uxtb	r3, r3
 3977 0050 BB73     		strb	r3, [r7, #14]
1529:..\..\..\..\PSoC6_101\Sensor/driver_max30102.c ****     prev |= mode << 0;                                                                             
 3978              		.loc 1 1529 0
 3979 0052 BA7B     		ldrb	r2, [r7, #14]	@ zero_extendqisi2
 3980 0054 FB78     		ldrb	r3, [r7, #3]
 3981 0056 1343     		orrs	r3, r3, r2
 3982 0058 DBB2     		uxtb	r3, r3
 3983 005a BB73     		strb	r3, [r7, #14]
ARM GAS  C:\Users\49148\AppData\Local\Temp\ccWN5cWv.s 			page 101


1530:..\..\..\..\PSoC6_101\Sensor/driver_max30102.c ****     res = handle->iic_write(MAX30102_ADDRESS, MAX30102_REG_MODE_CONFIG, (uint8_t *)&prev, 1);      
 3984              		.loc 1 1530 0
 3985 005c 7B68     		ldr	r3, [r7, #4]
 3986 005e DC68     		ldr	r4, [r3, #12]
 3987 0060 07F10E02 		add	r2, r7, #14
 3988 0064 0123     		movs	r3, #1
 3989 0066 0921     		movs	r1, #9
 3990 0068 AE20     		movs	r0, #174
 3991 006a A047     		blx	r4
 3992 006c 0346     		mov	r3, r0
 3993 006e FB73     		strb	r3, [r7, #15]
1531:..\..\..\..\PSoC6_101\Sensor/driver_max30102.c ****     if (res != 0)                                                                                  
 3994              		.loc 1 1531 0
 3995 0070 FB7B     		ldrb	r3, [r7, #15]	@ zero_extendqisi2
 3996 0072 002B     		cmp	r3, #0
 3997 0074 05D0     		beq	.L276
1532:..\..\..\..\PSoC6_101\Sensor/driver_max30102.c ****     {
1533:..\..\..\..\PSoC6_101\Sensor/driver_max30102.c ****         handle->debug_print("max30102: write mode config failed.\n");                              
 3998              		.loc 1 1533 0
 3999 0076 7B68     		ldr	r3, [r7, #4]
 4000 0078 9B69     		ldr	r3, [r3, #24]
 4001 007a 0548     		ldr	r0, .L278+4
 4002 007c 9847     		blx	r3
1534:..\..\..\..\PSoC6_101\Sensor/driver_max30102.c ****        
1535:..\..\..\..\PSoC6_101\Sensor/driver_max30102.c ****         return 1;                                                                                  
 4003              		.loc 1 1535 0
 4004 007e 0123     		movs	r3, #1
 4005 0080 00E0     		b	.L277
 4006              	.L276:
1536:..\..\..\..\PSoC6_101\Sensor/driver_max30102.c ****     }
1537:..\..\..\..\PSoC6_101\Sensor/driver_max30102.c ****     
1538:..\..\..\..\PSoC6_101\Sensor/driver_max30102.c ****     return 0;                                                                                      
 4007              		.loc 1 1538 0
 4008 0082 0023     		movs	r3, #0
 4009              	.L277:
1539:..\..\..\..\PSoC6_101\Sensor/driver_max30102.c **** }
 4010              		.loc 1 1539 0 discriminator 1
 4011 0084 1846     		mov	r0, r3
 4012 0086 1437     		adds	r7, r7, #20
 4013              		.cfi_def_cfa_offset 12
 4014 0088 BD46     		mov	sp, r7
 4015              		.cfi_def_cfa_register 13
 4016              		@ sp needed
 4017 008a 90BD     		pop	{r4, r7, pc}
 4018              	.L279:
 4019              		.align	2
 4020              	.L278:
 4021 008c 20010000 		.word	.LC9
 4022 0090 44010000 		.word	.LC10
 4023              		.cfi_endproc
 4024              	.LFE26:
 4025              		.size	max30102_set_mode, .-max30102_set_mode
 4026              		.section	.text.max30102_get_mode,"ax",%progbits
 4027              		.align	2
 4028              		.global	max30102_get_mode
 4029              		.thumb
 4030              		.thumb_func
ARM GAS  C:\Users\49148\AppData\Local\Temp\ccWN5cWv.s 			page 102


 4031              		.type	max30102_get_mode, %function
 4032              	max30102_get_mode:
 4033              	.LFB27:
1540:..\..\..\..\PSoC6_101\Sensor/driver_max30102.c **** 
1541:..\..\..\..\PSoC6_101\Sensor/driver_max30102.c **** /**
1542:..\..\..\..\PSoC6_101\Sensor/driver_max30102.c ****  * @brief      get the mode
1543:..\..\..\..\PSoC6_101\Sensor/driver_max30102.c ****  * @param[in]  *handle points to a max30102 handle structure
1544:..\..\..\..\PSoC6_101\Sensor/driver_max30102.c ****  * @param[out] *mode points to a chip mode buffer
1545:..\..\..\..\PSoC6_101\Sensor/driver_max30102.c ****  * @return     status code
1546:..\..\..\..\PSoC6_101\Sensor/driver_max30102.c ****  *             - 0 success
1547:..\..\..\..\PSoC6_101\Sensor/driver_max30102.c ****  *             - 1 get mode failed
1548:..\..\..\..\PSoC6_101\Sensor/driver_max30102.c ****  *             - 2 handle is NULL
1549:..\..\..\..\PSoC6_101\Sensor/driver_max30102.c ****  *             - 3 handle is not initialized
1550:..\..\..\..\PSoC6_101\Sensor/driver_max30102.c ****  * @note       none
1551:..\..\..\..\PSoC6_101\Sensor/driver_max30102.c ****  */
1552:..\..\..\..\PSoC6_101\Sensor/driver_max30102.c **** uint8_t max30102_get_mode(max30102_handle_t *handle, max30102_mode_t *mode)
1553:..\..\..\..\PSoC6_101\Sensor/driver_max30102.c **** {
 4034              		.loc 1 1553 0
 4035              		.cfi_startproc
 4036              		@ args = 0, pretend = 0, frame = 16
 4037              		@ frame_needed = 1, uses_anonymous_args = 0
 4038 0000 90B5     		push	{r4, r7, lr}
 4039              		.cfi_def_cfa_offset 12
 4040              		.cfi_offset 4, -12
 4041              		.cfi_offset 7, -8
 4042              		.cfi_offset 14, -4
 4043 0002 85B0     		sub	sp, sp, #20
 4044              		.cfi_def_cfa_offset 32
 4045 0004 00AF     		add	r7, sp, #0
 4046              		.cfi_def_cfa_register 7
 4047 0006 7860     		str	r0, [r7, #4]
 4048 0008 3960     		str	r1, [r7]
1554:..\..\..\..\PSoC6_101\Sensor/driver_max30102.c ****     uint8_t res;
1555:..\..\..\..\PSoC6_101\Sensor/driver_max30102.c ****     uint8_t prev;
1556:..\..\..\..\PSoC6_101\Sensor/driver_max30102.c ****     
1557:..\..\..\..\PSoC6_101\Sensor/driver_max30102.c ****     if (handle == NULL)                                                                            
 4049              		.loc 1 1557 0
 4050 000a 7B68     		ldr	r3, [r7, #4]
 4051 000c 002B     		cmp	r3, #0
 4052 000e 01D1     		bne	.L281
1558:..\..\..\..\PSoC6_101\Sensor/driver_max30102.c ****     {
1559:..\..\..\..\PSoC6_101\Sensor/driver_max30102.c ****         return 2;                                                                                  
 4053              		.loc 1 1559 0
 4054 0010 0223     		movs	r3, #2
 4055 0012 1FE0     		b	.L285
 4056              	.L281:
1560:..\..\..\..\PSoC6_101\Sensor/driver_max30102.c ****     }
1561:..\..\..\..\PSoC6_101\Sensor/driver_max30102.c ****     if (handle->inited != 1)                                                                       
 4057              		.loc 1 1561 0
 4058 0014 7B68     		ldr	r3, [r7, #4]
 4059 0016 1B7F     		ldrb	r3, [r3, #28]	@ zero_extendqisi2
 4060 0018 012B     		cmp	r3, #1
 4061 001a 01D0     		beq	.L283
1562:..\..\..\..\PSoC6_101\Sensor/driver_max30102.c ****     {
1563:..\..\..\..\PSoC6_101\Sensor/driver_max30102.c ****         return 3;                                                                                  
 4062              		.loc 1 1563 0
 4063 001c 0323     		movs	r3, #3
ARM GAS  C:\Users\49148\AppData\Local\Temp\ccWN5cWv.s 			page 103


 4064 001e 19E0     		b	.L285
 4065              	.L283:
1564:..\..\..\..\PSoC6_101\Sensor/driver_max30102.c ****     }
1565:..\..\..\..\PSoC6_101\Sensor/driver_max30102.c ****     
1566:..\..\..\..\PSoC6_101\Sensor/driver_max30102.c ****     res = handle->iic_read(MAX30102_ADDRESS, MAX30102_REG_MODE_CONFIG, (uint8_t *)&prev, 1);       
 4066              		.loc 1 1566 0
 4067 0020 7B68     		ldr	r3, [r7, #4]
 4068 0022 9C68     		ldr	r4, [r3, #8]
 4069 0024 07F10E02 		add	r2, r7, #14
 4070 0028 0123     		movs	r3, #1
 4071 002a 0921     		movs	r1, #9
 4072 002c AE20     		movs	r0, #174
 4073 002e A047     		blx	r4
 4074 0030 0346     		mov	r3, r0
 4075 0032 FB73     		strb	r3, [r7, #15]
1567:..\..\..\..\PSoC6_101\Sensor/driver_max30102.c ****     if (res != 0)                                                                                  
 4076              		.loc 1 1567 0
 4077 0034 FB7B     		ldrb	r3, [r7, #15]	@ zero_extendqisi2
 4078 0036 002B     		cmp	r3, #0
 4079 0038 05D0     		beq	.L284
1568:..\..\..\..\PSoC6_101\Sensor/driver_max30102.c ****     {
1569:..\..\..\..\PSoC6_101\Sensor/driver_max30102.c ****         handle->debug_print("max30102: read mode config failed.\n");                               
 4080              		.loc 1 1569 0
 4081 003a 7B68     		ldr	r3, [r7, #4]
 4082 003c 9B69     		ldr	r3, [r3, #24]
 4083 003e 0748     		ldr	r0, .L286
 4084 0040 9847     		blx	r3
1570:..\..\..\..\PSoC6_101\Sensor/driver_max30102.c ****        
1571:..\..\..\..\PSoC6_101\Sensor/driver_max30102.c ****         return 1;                                                                                  
 4085              		.loc 1 1571 0
 4086 0042 0123     		movs	r3, #1
 4087 0044 06E0     		b	.L285
 4088              	.L284:
1572:..\..\..\..\PSoC6_101\Sensor/driver_max30102.c ****     }
1573:..\..\..\..\PSoC6_101\Sensor/driver_max30102.c ****     *mode = (max30102_mode_t)(prev & 0x7);                                                         
 4089              		.loc 1 1573 0
 4090 0046 BB7B     		ldrb	r3, [r7, #14]	@ zero_extendqisi2
 4091 0048 03F00703 		and	r3, r3, #7
 4092 004c DAB2     		uxtb	r2, r3
 4093 004e 3B68     		ldr	r3, [r7]
 4094 0050 1A70     		strb	r2, [r3]
1574:..\..\..\..\PSoC6_101\Sensor/driver_max30102.c ****     
1575:..\..\..\..\PSoC6_101\Sensor/driver_max30102.c ****     return 0;                                                                                      
 4095              		.loc 1 1575 0
 4096 0052 0023     		movs	r3, #0
 4097              	.L285:
1576:..\..\..\..\PSoC6_101\Sensor/driver_max30102.c **** }
 4098              		.loc 1 1576 0 discriminator 1
 4099 0054 1846     		mov	r0, r3
 4100 0056 1437     		adds	r7, r7, #20
 4101              		.cfi_def_cfa_offset 12
 4102 0058 BD46     		mov	sp, r7
 4103              		.cfi_def_cfa_register 13
 4104              		@ sp needed
 4105 005a 90BD     		pop	{r4, r7, pc}
 4106              	.L287:
 4107              		.align	2
ARM GAS  C:\Users\49148\AppData\Local\Temp\ccWN5cWv.s 			page 104


 4108              	.L286:
 4109 005c 20010000 		.word	.LC9
 4110              		.cfi_endproc
 4111              	.LFE27:
 4112              		.size	max30102_get_mode, .-max30102_get_mode
 4113              		.section	.rodata
 4114              		.align	2
 4115              	.LC44:
 4116 06a8 6D617833 		.ascii	"max30102: write spo2 config failed.\012\000"
 4116      30313032 
 4116      3A207772 
 4116      69746520 
 4116      73706F32 
 4117              		.section	.text.max30102_set_spo2_adc_range,"ax",%progbits
 4118              		.align	2
 4119              		.global	max30102_set_spo2_adc_range
 4120              		.thumb
 4121              		.thumb_func
 4122              		.type	max30102_set_spo2_adc_range, %function
 4123              	max30102_set_spo2_adc_range:
 4124              	.LFB28:
1577:..\..\..\..\PSoC6_101\Sensor/driver_max30102.c **** 
1578:..\..\..\..\PSoC6_101\Sensor/driver_max30102.c **** /**
1579:..\..\..\..\PSoC6_101\Sensor/driver_max30102.c ****  * @brief     set the spo2 adc range
1580:..\..\..\..\PSoC6_101\Sensor/driver_max30102.c ****  * @param[in] *handle points to a max30102 handle structure
1581:..\..\..\..\PSoC6_101\Sensor/driver_max30102.c ****  * @param[in] range is the spo2 adc range
1582:..\..\..\..\PSoC6_101\Sensor/driver_max30102.c ****  * @return    status code
1583:..\..\..\..\PSoC6_101\Sensor/driver_max30102.c ****  *            - 0 success
1584:..\..\..\..\PSoC6_101\Sensor/driver_max30102.c ****  *            - 1 set spo2 adc range failed
1585:..\..\..\..\PSoC6_101\Sensor/driver_max30102.c ****  *            - 2 handle is NULL
1586:..\..\..\..\PSoC6_101\Sensor/driver_max30102.c ****  *            - 3 handle is not initialized
1587:..\..\..\..\PSoC6_101\Sensor/driver_max30102.c ****  * @note      none
1588:..\..\..\..\PSoC6_101\Sensor/driver_max30102.c ****  */
1589:..\..\..\..\PSoC6_101\Sensor/driver_max30102.c **** uint8_t max30102_set_spo2_adc_range(max30102_handle_t *handle, max30102_spo2_adc_range_t range)
1590:..\..\..\..\PSoC6_101\Sensor/driver_max30102.c **** {
 4125              		.loc 1 1590 0
 4126              		.cfi_startproc
 4127              		@ args = 0, pretend = 0, frame = 16
 4128              		@ frame_needed = 1, uses_anonymous_args = 0
 4129 0000 90B5     		push	{r4, r7, lr}
 4130              		.cfi_def_cfa_offset 12
 4131              		.cfi_offset 4, -12
 4132              		.cfi_offset 7, -8
 4133              		.cfi_offset 14, -4
 4134 0002 85B0     		sub	sp, sp, #20
 4135              		.cfi_def_cfa_offset 32
 4136 0004 00AF     		add	r7, sp, #0
 4137              		.cfi_def_cfa_register 7
 4138 0006 7860     		str	r0, [r7, #4]
 4139 0008 0B46     		mov	r3, r1
 4140 000a FB70     		strb	r3, [r7, #3]
1591:..\..\..\..\PSoC6_101\Sensor/driver_max30102.c ****     uint8_t res;
1592:..\..\..\..\PSoC6_101\Sensor/driver_max30102.c ****     uint8_t prev;
1593:..\..\..\..\PSoC6_101\Sensor/driver_max30102.c ****     
1594:..\..\..\..\PSoC6_101\Sensor/driver_max30102.c ****     if (handle == NULL)                                                                            
 4141              		.loc 1 1594 0
 4142 000c 7B68     		ldr	r3, [r7, #4]
ARM GAS  C:\Users\49148\AppData\Local\Temp\ccWN5cWv.s 			page 105


 4143 000e 002B     		cmp	r3, #0
 4144 0010 01D1     		bne	.L289
1595:..\..\..\..\PSoC6_101\Sensor/driver_max30102.c ****     {
1596:..\..\..\..\PSoC6_101\Sensor/driver_max30102.c ****         return 2;                                                                                  
 4145              		.loc 1 1596 0
 4146 0012 0223     		movs	r3, #2
 4147 0014 3AE0     		b	.L294
 4148              	.L289:
1597:..\..\..\..\PSoC6_101\Sensor/driver_max30102.c ****     }
1598:..\..\..\..\PSoC6_101\Sensor/driver_max30102.c ****     if (handle->inited != 1)                                                                       
 4149              		.loc 1 1598 0
 4150 0016 7B68     		ldr	r3, [r7, #4]
 4151 0018 1B7F     		ldrb	r3, [r3, #28]	@ zero_extendqisi2
 4152 001a 012B     		cmp	r3, #1
 4153 001c 01D0     		beq	.L291
1599:..\..\..\..\PSoC6_101\Sensor/driver_max30102.c ****     {
1600:..\..\..\..\PSoC6_101\Sensor/driver_max30102.c ****         return 3;                                                                                  
 4154              		.loc 1 1600 0
 4155 001e 0323     		movs	r3, #3
 4156 0020 34E0     		b	.L294
 4157              	.L291:
1601:..\..\..\..\PSoC6_101\Sensor/driver_max30102.c ****     }
1602:..\..\..\..\PSoC6_101\Sensor/driver_max30102.c ****     
1603:..\..\..\..\PSoC6_101\Sensor/driver_max30102.c ****     res = handle->iic_read(MAX30102_ADDRESS, MAX30102_REG_SPO2_CONFIG, (uint8_t *)&prev, 1);       
 4158              		.loc 1 1603 0
 4159 0022 7B68     		ldr	r3, [r7, #4]
 4160 0024 9C68     		ldr	r4, [r3, #8]
 4161 0026 07F10E02 		add	r2, r7, #14
 4162 002a 0123     		movs	r3, #1
 4163 002c 0A21     		movs	r1, #10
 4164 002e AE20     		movs	r0, #174
 4165 0030 A047     		blx	r4
 4166 0032 0346     		mov	r3, r0
 4167 0034 FB73     		strb	r3, [r7, #15]
1604:..\..\..\..\PSoC6_101\Sensor/driver_max30102.c ****     if (res != 0)                                                                                  
 4168              		.loc 1 1604 0
 4169 0036 FB7B     		ldrb	r3, [r7, #15]	@ zero_extendqisi2
 4170 0038 002B     		cmp	r3, #0
 4171 003a 05D0     		beq	.L292
1605:..\..\..\..\PSoC6_101\Sensor/driver_max30102.c ****     {
1606:..\..\..\..\PSoC6_101\Sensor/driver_max30102.c ****         handle->debug_print("max30102: read spo2 config failed.\n");                               
 4172              		.loc 1 1606 0
 4173 003c 7B68     		ldr	r3, [r7, #4]
 4174 003e 9B69     		ldr	r3, [r3, #24]
 4175 0040 1448     		ldr	r0, .L295
 4176 0042 9847     		blx	r3
1607:..\..\..\..\PSoC6_101\Sensor/driver_max30102.c ****        
1608:..\..\..\..\PSoC6_101\Sensor/driver_max30102.c ****         return 1;                                                                                  
 4177              		.loc 1 1608 0
 4178 0044 0123     		movs	r3, #1
 4179 0046 21E0     		b	.L294
 4180              	.L292:
1609:..\..\..\..\PSoC6_101\Sensor/driver_max30102.c ****     }
1610:..\..\..\..\PSoC6_101\Sensor/driver_max30102.c ****     prev &= ~(3 << 5);                                                                             
 4181              		.loc 1 1610 0
 4182 0048 BB7B     		ldrb	r3, [r7, #14]	@ zero_extendqisi2
 4183 004a 23F06003 		bic	r3, r3, #96
ARM GAS  C:\Users\49148\AppData\Local\Temp\ccWN5cWv.s 			page 106


 4184 004e DBB2     		uxtb	r3, r3
 4185 0050 BB73     		strb	r3, [r7, #14]
1611:..\..\..\..\PSoC6_101\Sensor/driver_max30102.c ****     prev |= range << 5;                                                                            
 4186              		.loc 1 1611 0
 4187 0052 FB78     		ldrb	r3, [r7, #3]	@ zero_extendqisi2
 4188 0054 5B01     		lsls	r3, r3, #5
 4189 0056 5AB2     		sxtb	r2, r3
 4190 0058 BB7B     		ldrb	r3, [r7, #14]	@ zero_extendqisi2
 4191 005a 5BB2     		sxtb	r3, r3
 4192 005c 1343     		orrs	r3, r3, r2
 4193 005e 5BB2     		sxtb	r3, r3
 4194 0060 DBB2     		uxtb	r3, r3
 4195 0062 BB73     		strb	r3, [r7, #14]
1612:..\..\..\..\PSoC6_101\Sensor/driver_max30102.c ****     res = handle->iic_write(MAX30102_ADDRESS, MAX30102_REG_SPO2_CONFIG, (uint8_t *)&prev, 1);      
 4196              		.loc 1 1612 0
 4197 0064 7B68     		ldr	r3, [r7, #4]
 4198 0066 DC68     		ldr	r4, [r3, #12]
 4199 0068 07F10E02 		add	r2, r7, #14
 4200 006c 0123     		movs	r3, #1
 4201 006e 0A21     		movs	r1, #10
 4202 0070 AE20     		movs	r0, #174
 4203 0072 A047     		blx	r4
 4204 0074 0346     		mov	r3, r0
 4205 0076 FB73     		strb	r3, [r7, #15]
1613:..\..\..\..\PSoC6_101\Sensor/driver_max30102.c ****     if (res != 0)                                                                                  
 4206              		.loc 1 1613 0
 4207 0078 FB7B     		ldrb	r3, [r7, #15]	@ zero_extendqisi2
 4208 007a 002B     		cmp	r3, #0
 4209 007c 05D0     		beq	.L293
1614:..\..\..\..\PSoC6_101\Sensor/driver_max30102.c ****     {
1615:..\..\..\..\PSoC6_101\Sensor/driver_max30102.c ****         handle->debug_print("max30102: write spo2 config failed.\n");                              
 4210              		.loc 1 1615 0
 4211 007e 7B68     		ldr	r3, [r7, #4]
 4212 0080 9B69     		ldr	r3, [r3, #24]
 4213 0082 0548     		ldr	r0, .L295+4
 4214 0084 9847     		blx	r3
1616:..\..\..\..\PSoC6_101\Sensor/driver_max30102.c ****        
1617:..\..\..\..\PSoC6_101\Sensor/driver_max30102.c ****         return 1;                                                                                  
 4215              		.loc 1 1617 0
 4216 0086 0123     		movs	r3, #1
 4217 0088 00E0     		b	.L294
 4218              	.L293:
1618:..\..\..\..\PSoC6_101\Sensor/driver_max30102.c ****     }
1619:..\..\..\..\PSoC6_101\Sensor/driver_max30102.c ****     
1620:..\..\..\..\PSoC6_101\Sensor/driver_max30102.c ****     return 0;                                                                                      
 4219              		.loc 1 1620 0
 4220 008a 0023     		movs	r3, #0
 4221              	.L294:
1621:..\..\..\..\PSoC6_101\Sensor/driver_max30102.c **** }
 4222              		.loc 1 1621 0 discriminator 1
 4223 008c 1846     		mov	r0, r3
 4224 008e 1437     		adds	r7, r7, #20
 4225              		.cfi_def_cfa_offset 12
 4226 0090 BD46     		mov	sp, r7
 4227              		.cfi_def_cfa_register 13
 4228              		@ sp needed
 4229 0092 90BD     		pop	{r4, r7, pc}
ARM GAS  C:\Users\49148\AppData\Local\Temp\ccWN5cWv.s 			page 107


 4230              	.L296:
 4231              		.align	2
 4232              	.L295:
 4233 0094 C0030000 		.word	.LC26
 4234 0098 A8060000 		.word	.LC44
 4235              		.cfi_endproc
 4236              	.LFE28:
 4237              		.size	max30102_set_spo2_adc_range, .-max30102_set_spo2_adc_range
 4238              		.section	.text.max30102_get_spo2_adc_range,"ax",%progbits
 4239              		.align	2
 4240              		.global	max30102_get_spo2_adc_range
 4241              		.thumb
 4242              		.thumb_func
 4243              		.type	max30102_get_spo2_adc_range, %function
 4244              	max30102_get_spo2_adc_range:
 4245              	.LFB29:
1622:..\..\..\..\PSoC6_101\Sensor/driver_max30102.c **** 
1623:..\..\..\..\PSoC6_101\Sensor/driver_max30102.c **** /**
1624:..\..\..\..\PSoC6_101\Sensor/driver_max30102.c ****  * @brief      get the spo2 adc range
1625:..\..\..\..\PSoC6_101\Sensor/driver_max30102.c ****  * @param[in]  *handle points to a max30102 handle structure
1626:..\..\..\..\PSoC6_101\Sensor/driver_max30102.c ****  * @param[out] *range points to an spo2 adc range buffer
1627:..\..\..\..\PSoC6_101\Sensor/driver_max30102.c ****  * @return     status code
1628:..\..\..\..\PSoC6_101\Sensor/driver_max30102.c ****  *             - 0 success
1629:..\..\..\..\PSoC6_101\Sensor/driver_max30102.c ****  *             - 1 get spo2 adc range failed
1630:..\..\..\..\PSoC6_101\Sensor/driver_max30102.c ****  *             - 2 handle is NULL
1631:..\..\..\..\PSoC6_101\Sensor/driver_max30102.c ****  *             - 3 handle is not initialized
1632:..\..\..\..\PSoC6_101\Sensor/driver_max30102.c ****  * @note       none
1633:..\..\..\..\PSoC6_101\Sensor/driver_max30102.c ****  */
1634:..\..\..\..\PSoC6_101\Sensor/driver_max30102.c **** uint8_t max30102_get_spo2_adc_range(max30102_handle_t *handle, max30102_spo2_adc_range_t *range)
1635:..\..\..\..\PSoC6_101\Sensor/driver_max30102.c **** {
 4246              		.loc 1 1635 0
 4247              		.cfi_startproc
 4248              		@ args = 0, pretend = 0, frame = 16
 4249              		@ frame_needed = 1, uses_anonymous_args = 0
 4250 0000 90B5     		push	{r4, r7, lr}
 4251              		.cfi_def_cfa_offset 12
 4252              		.cfi_offset 4, -12
 4253              		.cfi_offset 7, -8
 4254              		.cfi_offset 14, -4
 4255 0002 85B0     		sub	sp, sp, #20
 4256              		.cfi_def_cfa_offset 32
 4257 0004 00AF     		add	r7, sp, #0
 4258              		.cfi_def_cfa_register 7
 4259 0006 7860     		str	r0, [r7, #4]
 4260 0008 3960     		str	r1, [r7]
1636:..\..\..\..\PSoC6_101\Sensor/driver_max30102.c ****     uint8_t res;
1637:..\..\..\..\PSoC6_101\Sensor/driver_max30102.c ****     uint8_t prev;
1638:..\..\..\..\PSoC6_101\Sensor/driver_max30102.c ****     
1639:..\..\..\..\PSoC6_101\Sensor/driver_max30102.c ****     if (handle == NULL)                                                                            
 4261              		.loc 1 1639 0
 4262 000a 7B68     		ldr	r3, [r7, #4]
 4263 000c 002B     		cmp	r3, #0
 4264 000e 01D1     		bne	.L298
1640:..\..\..\..\PSoC6_101\Sensor/driver_max30102.c ****     {
1641:..\..\..\..\PSoC6_101\Sensor/driver_max30102.c ****         return 2;                                                                                  
 4265              		.loc 1 1641 0
 4266 0010 0223     		movs	r3, #2
ARM GAS  C:\Users\49148\AppData\Local\Temp\ccWN5cWv.s 			page 108


 4267 0012 21E0     		b	.L302
 4268              	.L298:
1642:..\..\..\..\PSoC6_101\Sensor/driver_max30102.c ****     }
1643:..\..\..\..\PSoC6_101\Sensor/driver_max30102.c ****     if (handle->inited != 1)                                                                       
 4269              		.loc 1 1643 0
 4270 0014 7B68     		ldr	r3, [r7, #4]
 4271 0016 1B7F     		ldrb	r3, [r3, #28]	@ zero_extendqisi2
 4272 0018 012B     		cmp	r3, #1
 4273 001a 01D0     		beq	.L300
1644:..\..\..\..\PSoC6_101\Sensor/driver_max30102.c ****     {
1645:..\..\..\..\PSoC6_101\Sensor/driver_max30102.c ****         return 3;                                                                                  
 4274              		.loc 1 1645 0
 4275 001c 0323     		movs	r3, #3
 4276 001e 1BE0     		b	.L302
 4277              	.L300:
1646:..\..\..\..\PSoC6_101\Sensor/driver_max30102.c ****     }
1647:..\..\..\..\PSoC6_101\Sensor/driver_max30102.c ****     
1648:..\..\..\..\PSoC6_101\Sensor/driver_max30102.c ****     res = handle->iic_read(MAX30102_ADDRESS, MAX30102_REG_SPO2_CONFIG, (uint8_t *)&prev, 1);       
 4278              		.loc 1 1648 0
 4279 0020 7B68     		ldr	r3, [r7, #4]
 4280 0022 9C68     		ldr	r4, [r3, #8]
 4281 0024 07F10E02 		add	r2, r7, #14
 4282 0028 0123     		movs	r3, #1
 4283 002a 0A21     		movs	r1, #10
 4284 002c AE20     		movs	r0, #174
 4285 002e A047     		blx	r4
 4286 0030 0346     		mov	r3, r0
 4287 0032 FB73     		strb	r3, [r7, #15]
1649:..\..\..\..\PSoC6_101\Sensor/driver_max30102.c ****     if (res != 0)                                                                                  
 4288              		.loc 1 1649 0
 4289 0034 FB7B     		ldrb	r3, [r7, #15]	@ zero_extendqisi2
 4290 0036 002B     		cmp	r3, #0
 4291 0038 05D0     		beq	.L301
1650:..\..\..\..\PSoC6_101\Sensor/driver_max30102.c ****     {
1651:..\..\..\..\PSoC6_101\Sensor/driver_max30102.c ****         handle->debug_print("max30102: read spo2 config failed.\n");                               
 4292              		.loc 1 1651 0
 4293 003a 7B68     		ldr	r3, [r7, #4]
 4294 003c 9B69     		ldr	r3, [r3, #24]
 4295 003e 0848     		ldr	r0, .L303
 4296 0040 9847     		blx	r3
1652:..\..\..\..\PSoC6_101\Sensor/driver_max30102.c ****        
1653:..\..\..\..\PSoC6_101\Sensor/driver_max30102.c ****         return 1;                                                                                  
 4297              		.loc 1 1653 0
 4298 0042 0123     		movs	r3, #1
 4299 0044 08E0     		b	.L302
 4300              	.L301:
1654:..\..\..\..\PSoC6_101\Sensor/driver_max30102.c ****     }
1655:..\..\..\..\PSoC6_101\Sensor/driver_max30102.c ****     *range = (max30102_spo2_adc_range_t)((prev >> 5) & 0x3);                                       
 4301              		.loc 1 1655 0
 4302 0046 BB7B     		ldrb	r3, [r7, #14]	@ zero_extendqisi2
 4303 0048 5B09     		lsrs	r3, r3, #5
 4304 004a DBB2     		uxtb	r3, r3
 4305 004c 03F00303 		and	r3, r3, #3
 4306 0050 DAB2     		uxtb	r2, r3
 4307 0052 3B68     		ldr	r3, [r7]
 4308 0054 1A70     		strb	r2, [r3]
1656:..\..\..\..\PSoC6_101\Sensor/driver_max30102.c ****     
ARM GAS  C:\Users\49148\AppData\Local\Temp\ccWN5cWv.s 			page 109


1657:..\..\..\..\PSoC6_101\Sensor/driver_max30102.c ****     return 0;                                                                                      
 4309              		.loc 1 1657 0
 4310 0056 0023     		movs	r3, #0
 4311              	.L302:
1658:..\..\..\..\PSoC6_101\Sensor/driver_max30102.c **** }
 4312              		.loc 1 1658 0 discriminator 1
 4313 0058 1846     		mov	r0, r3
 4314 005a 1437     		adds	r7, r7, #20
 4315              		.cfi_def_cfa_offset 12
 4316 005c BD46     		mov	sp, r7
 4317              		.cfi_def_cfa_register 13
 4318              		@ sp needed
 4319 005e 90BD     		pop	{r4, r7, pc}
 4320              	.L304:
 4321              		.align	2
 4322              	.L303:
 4323 0060 C0030000 		.word	.LC26
 4324              		.cfi_endproc
 4325              	.LFE29:
 4326              		.size	max30102_get_spo2_adc_range, .-max30102_get_spo2_adc_range
 4327              		.section	.text.max30102_set_spo2_sample_rate,"ax",%progbits
 4328              		.align	2
 4329              		.global	max30102_set_spo2_sample_rate
 4330              		.thumb
 4331              		.thumb_func
 4332              		.type	max30102_set_spo2_sample_rate, %function
 4333              	max30102_set_spo2_sample_rate:
 4334              	.LFB30:
1659:..\..\..\..\PSoC6_101\Sensor/driver_max30102.c **** 
1660:..\..\..\..\PSoC6_101\Sensor/driver_max30102.c **** /**
1661:..\..\..\..\PSoC6_101\Sensor/driver_max30102.c ****  * @brief     set the spo2 sample rate
1662:..\..\..\..\PSoC6_101\Sensor/driver_max30102.c ****  * @param[in] *handle points to a max30102 handle structure
1663:..\..\..\..\PSoC6_101\Sensor/driver_max30102.c ****  * @param[in] rate is the spo2 sample rate
1664:..\..\..\..\PSoC6_101\Sensor/driver_max30102.c ****  * @return    status code
1665:..\..\..\..\PSoC6_101\Sensor/driver_max30102.c ****  *            - 0 success
1666:..\..\..\..\PSoC6_101\Sensor/driver_max30102.c ****  *            - 1 set spo2 sample rate failed
1667:..\..\..\..\PSoC6_101\Sensor/driver_max30102.c ****  *            - 2 handle is NULL
1668:..\..\..\..\PSoC6_101\Sensor/driver_max30102.c ****  *            - 3 handle is not initialized
1669:..\..\..\..\PSoC6_101\Sensor/driver_max30102.c ****  * @note      none
1670:..\..\..\..\PSoC6_101\Sensor/driver_max30102.c ****  */
1671:..\..\..\..\PSoC6_101\Sensor/driver_max30102.c **** uint8_t max30102_set_spo2_sample_rate(max30102_handle_t *handle, max30102_spo2_sample_rate_t rate)
1672:..\..\..\..\PSoC6_101\Sensor/driver_max30102.c **** {
 4335              		.loc 1 1672 0
 4336              		.cfi_startproc
 4337              		@ args = 0, pretend = 0, frame = 16
 4338              		@ frame_needed = 1, uses_anonymous_args = 0
 4339 0000 90B5     		push	{r4, r7, lr}
 4340              		.cfi_def_cfa_offset 12
 4341              		.cfi_offset 4, -12
 4342              		.cfi_offset 7, -8
 4343              		.cfi_offset 14, -4
 4344 0002 85B0     		sub	sp, sp, #20
 4345              		.cfi_def_cfa_offset 32
 4346 0004 00AF     		add	r7, sp, #0
 4347              		.cfi_def_cfa_register 7
 4348 0006 7860     		str	r0, [r7, #4]
 4349 0008 0B46     		mov	r3, r1
ARM GAS  C:\Users\49148\AppData\Local\Temp\ccWN5cWv.s 			page 110


 4350 000a FB70     		strb	r3, [r7, #3]
1673:..\..\..\..\PSoC6_101\Sensor/driver_max30102.c ****     uint8_t res;
1674:..\..\..\..\PSoC6_101\Sensor/driver_max30102.c ****     uint8_t prev;
1675:..\..\..\..\PSoC6_101\Sensor/driver_max30102.c ****     
1676:..\..\..\..\PSoC6_101\Sensor/driver_max30102.c ****     if (handle == NULL)                                                                            
 4351              		.loc 1 1676 0
 4352 000c 7B68     		ldr	r3, [r7, #4]
 4353 000e 002B     		cmp	r3, #0
 4354 0010 01D1     		bne	.L306
1677:..\..\..\..\PSoC6_101\Sensor/driver_max30102.c ****     {
1678:..\..\..\..\PSoC6_101\Sensor/driver_max30102.c ****         return 2;                                                                                  
 4355              		.loc 1 1678 0
 4356 0012 0223     		movs	r3, #2
 4357 0014 3AE0     		b	.L311
 4358              	.L306:
1679:..\..\..\..\PSoC6_101\Sensor/driver_max30102.c ****     }
1680:..\..\..\..\PSoC6_101\Sensor/driver_max30102.c ****     if (handle->inited != 1)                                                                       
 4359              		.loc 1 1680 0
 4360 0016 7B68     		ldr	r3, [r7, #4]
 4361 0018 1B7F     		ldrb	r3, [r3, #28]	@ zero_extendqisi2
 4362 001a 012B     		cmp	r3, #1
 4363 001c 01D0     		beq	.L308
1681:..\..\..\..\PSoC6_101\Sensor/driver_max30102.c ****     {
1682:..\..\..\..\PSoC6_101\Sensor/driver_max30102.c ****         return 3;                                                                                  
 4364              		.loc 1 1682 0
 4365 001e 0323     		movs	r3, #3
 4366 0020 34E0     		b	.L311
 4367              	.L308:
1683:..\..\..\..\PSoC6_101\Sensor/driver_max30102.c ****     }
1684:..\..\..\..\PSoC6_101\Sensor/driver_max30102.c ****     
1685:..\..\..\..\PSoC6_101\Sensor/driver_max30102.c ****     res = handle->iic_read(MAX30102_ADDRESS, MAX30102_REG_SPO2_CONFIG, (uint8_t *)&prev, 1);       
 4368              		.loc 1 1685 0
 4369 0022 7B68     		ldr	r3, [r7, #4]
 4370 0024 9C68     		ldr	r4, [r3, #8]
 4371 0026 07F10E02 		add	r2, r7, #14
 4372 002a 0123     		movs	r3, #1
 4373 002c 0A21     		movs	r1, #10
 4374 002e AE20     		movs	r0, #174
 4375 0030 A047     		blx	r4
 4376 0032 0346     		mov	r3, r0
 4377 0034 FB73     		strb	r3, [r7, #15]
1686:..\..\..\..\PSoC6_101\Sensor/driver_max30102.c ****     if (res != 0)                                                                                  
 4378              		.loc 1 1686 0
 4379 0036 FB7B     		ldrb	r3, [r7, #15]	@ zero_extendqisi2
 4380 0038 002B     		cmp	r3, #0
 4381 003a 05D0     		beq	.L309
1687:..\..\..\..\PSoC6_101\Sensor/driver_max30102.c ****     {
1688:..\..\..\..\PSoC6_101\Sensor/driver_max30102.c ****         handle->debug_print("max30102: read spo2 config failed.\n");                               
 4382              		.loc 1 1688 0
 4383 003c 7B68     		ldr	r3, [r7, #4]
 4384 003e 9B69     		ldr	r3, [r3, #24]
 4385 0040 1448     		ldr	r0, .L312
 4386 0042 9847     		blx	r3
1689:..\..\..\..\PSoC6_101\Sensor/driver_max30102.c ****        
1690:..\..\..\..\PSoC6_101\Sensor/driver_max30102.c ****         return 1;                                                                                  
 4387              		.loc 1 1690 0
 4388 0044 0123     		movs	r3, #1
ARM GAS  C:\Users\49148\AppData\Local\Temp\ccWN5cWv.s 			page 111


 4389 0046 21E0     		b	.L311
 4390              	.L309:
1691:..\..\..\..\PSoC6_101\Sensor/driver_max30102.c ****     }
1692:..\..\..\..\PSoC6_101\Sensor/driver_max30102.c ****     prev &= ~(7 << 2);                                                                             
 4391              		.loc 1 1692 0
 4392 0048 BB7B     		ldrb	r3, [r7, #14]	@ zero_extendqisi2
 4393 004a 23F01C03 		bic	r3, r3, #28
 4394 004e DBB2     		uxtb	r3, r3
 4395 0050 BB73     		strb	r3, [r7, #14]
1693:..\..\..\..\PSoC6_101\Sensor/driver_max30102.c ****     prev |= rate << 2;                                                                             
 4396              		.loc 1 1693 0
 4397 0052 FB78     		ldrb	r3, [r7, #3]	@ zero_extendqisi2
 4398 0054 9B00     		lsls	r3, r3, #2
 4399 0056 5AB2     		sxtb	r2, r3
 4400 0058 BB7B     		ldrb	r3, [r7, #14]	@ zero_extendqisi2
 4401 005a 5BB2     		sxtb	r3, r3
 4402 005c 1343     		orrs	r3, r3, r2
 4403 005e 5BB2     		sxtb	r3, r3
 4404 0060 DBB2     		uxtb	r3, r3
 4405 0062 BB73     		strb	r3, [r7, #14]
1694:..\..\..\..\PSoC6_101\Sensor/driver_max30102.c ****     res = handle->iic_write(MAX30102_ADDRESS, MAX30102_REG_SPO2_CONFIG, (uint8_t *)&prev, 1);      
 4406              		.loc 1 1694 0
 4407 0064 7B68     		ldr	r3, [r7, #4]
 4408 0066 DC68     		ldr	r4, [r3, #12]
 4409 0068 07F10E02 		add	r2, r7, #14
 4410 006c 0123     		movs	r3, #1
 4411 006e 0A21     		movs	r1, #10
 4412 0070 AE20     		movs	r0, #174
 4413 0072 A047     		blx	r4
 4414 0074 0346     		mov	r3, r0
 4415 0076 FB73     		strb	r3, [r7, #15]
1695:..\..\..\..\PSoC6_101\Sensor/driver_max30102.c ****     if (res != 0)                                                                                  
 4416              		.loc 1 1695 0
 4417 0078 FB7B     		ldrb	r3, [r7, #15]	@ zero_extendqisi2
 4418 007a 002B     		cmp	r3, #0
 4419 007c 05D0     		beq	.L310
1696:..\..\..\..\PSoC6_101\Sensor/driver_max30102.c ****     {
1697:..\..\..\..\PSoC6_101\Sensor/driver_max30102.c ****         handle->debug_print("max30102: write spo2 config failed.\n");                              
 4420              		.loc 1 1697 0
 4421 007e 7B68     		ldr	r3, [r7, #4]
 4422 0080 9B69     		ldr	r3, [r3, #24]
 4423 0082 0548     		ldr	r0, .L312+4
 4424 0084 9847     		blx	r3
1698:..\..\..\..\PSoC6_101\Sensor/driver_max30102.c ****        
1699:..\..\..\..\PSoC6_101\Sensor/driver_max30102.c ****         return 1;                                                                                  
 4425              		.loc 1 1699 0
 4426 0086 0123     		movs	r3, #1
 4427 0088 00E0     		b	.L311
 4428              	.L310:
1700:..\..\..\..\PSoC6_101\Sensor/driver_max30102.c ****     }
1701:..\..\..\..\PSoC6_101\Sensor/driver_max30102.c ****     
1702:..\..\..\..\PSoC6_101\Sensor/driver_max30102.c ****     return 0;                                                                                      
 4429              		.loc 1 1702 0
 4430 008a 0023     		movs	r3, #0
 4431              	.L311:
1703:..\..\..\..\PSoC6_101\Sensor/driver_max30102.c **** }
 4432              		.loc 1 1703 0 discriminator 1
ARM GAS  C:\Users\49148\AppData\Local\Temp\ccWN5cWv.s 			page 112


 4433 008c 1846     		mov	r0, r3
 4434 008e 1437     		adds	r7, r7, #20
 4435              		.cfi_def_cfa_offset 12
 4436 0090 BD46     		mov	sp, r7
 4437              		.cfi_def_cfa_register 13
 4438              		@ sp needed
 4439 0092 90BD     		pop	{r4, r7, pc}
 4440              	.L313:
 4441              		.align	2
 4442              	.L312:
 4443 0094 C0030000 		.word	.LC26
 4444 0098 A8060000 		.word	.LC44
 4445              		.cfi_endproc
 4446              	.LFE30:
 4447              		.size	max30102_set_spo2_sample_rate, .-max30102_set_spo2_sample_rate
 4448              		.section	.text.max30102_get_spo2_sample_rate,"ax",%progbits
 4449              		.align	2
 4450              		.global	max30102_get_spo2_sample_rate
 4451              		.thumb
 4452              		.thumb_func
 4453              		.type	max30102_get_spo2_sample_rate, %function
 4454              	max30102_get_spo2_sample_rate:
 4455              	.LFB31:
1704:..\..\..\..\PSoC6_101\Sensor/driver_max30102.c **** 
1705:..\..\..\..\PSoC6_101\Sensor/driver_max30102.c **** /**
1706:..\..\..\..\PSoC6_101\Sensor/driver_max30102.c ****  * @brief      get the spo2 sample rate
1707:..\..\..\..\PSoC6_101\Sensor/driver_max30102.c ****  * @param[in]  *handle points to a max30102 handle structure
1708:..\..\..\..\PSoC6_101\Sensor/driver_max30102.c ****  * @param[out] *rate points to an spo2 sample rate buffer
1709:..\..\..\..\PSoC6_101\Sensor/driver_max30102.c ****  * @return     status code
1710:..\..\..\..\PSoC6_101\Sensor/driver_max30102.c ****  *             - 0 success
1711:..\..\..\..\PSoC6_101\Sensor/driver_max30102.c ****  *             - 1 get spo2 sample rate failed
1712:..\..\..\..\PSoC6_101\Sensor/driver_max30102.c ****  *             - 2 handle is NULL
1713:..\..\..\..\PSoC6_101\Sensor/driver_max30102.c ****  *             - 3 handle is not initialized
1714:..\..\..\..\PSoC6_101\Sensor/driver_max30102.c ****  * @note       none
1715:..\..\..\..\PSoC6_101\Sensor/driver_max30102.c ****  */
1716:..\..\..\..\PSoC6_101\Sensor/driver_max30102.c **** uint8_t max30102_get_spo2_sample_rate(max30102_handle_t *handle, max30102_spo2_sample_rate_t *rate)
1717:..\..\..\..\PSoC6_101\Sensor/driver_max30102.c **** {
 4456              		.loc 1 1717 0
 4457              		.cfi_startproc
 4458              		@ args = 0, pretend = 0, frame = 16
 4459              		@ frame_needed = 1, uses_anonymous_args = 0
 4460 0000 90B5     		push	{r4, r7, lr}
 4461              		.cfi_def_cfa_offset 12
 4462              		.cfi_offset 4, -12
 4463              		.cfi_offset 7, -8
 4464              		.cfi_offset 14, -4
 4465 0002 85B0     		sub	sp, sp, #20
 4466              		.cfi_def_cfa_offset 32
 4467 0004 00AF     		add	r7, sp, #0
 4468              		.cfi_def_cfa_register 7
 4469 0006 7860     		str	r0, [r7, #4]
 4470 0008 3960     		str	r1, [r7]
1718:..\..\..\..\PSoC6_101\Sensor/driver_max30102.c ****     uint8_t res;
1719:..\..\..\..\PSoC6_101\Sensor/driver_max30102.c ****     uint8_t prev;
1720:..\..\..\..\PSoC6_101\Sensor/driver_max30102.c ****     
1721:..\..\..\..\PSoC6_101\Sensor/driver_max30102.c ****     if (handle == NULL)                                                                            
 4471              		.loc 1 1721 0
ARM GAS  C:\Users\49148\AppData\Local\Temp\ccWN5cWv.s 			page 113


 4472 000a 7B68     		ldr	r3, [r7, #4]
 4473 000c 002B     		cmp	r3, #0
 4474 000e 01D1     		bne	.L315
1722:..\..\..\..\PSoC6_101\Sensor/driver_max30102.c ****     {
1723:..\..\..\..\PSoC6_101\Sensor/driver_max30102.c ****         return 2;                                                                                  
 4475              		.loc 1 1723 0
 4476 0010 0223     		movs	r3, #2
 4477 0012 21E0     		b	.L319
 4478              	.L315:
1724:..\..\..\..\PSoC6_101\Sensor/driver_max30102.c ****     }
1725:..\..\..\..\PSoC6_101\Sensor/driver_max30102.c ****     if (handle->inited != 1)                                                                       
 4479              		.loc 1 1725 0
 4480 0014 7B68     		ldr	r3, [r7, #4]
 4481 0016 1B7F     		ldrb	r3, [r3, #28]	@ zero_extendqisi2
 4482 0018 012B     		cmp	r3, #1
 4483 001a 01D0     		beq	.L317
1726:..\..\..\..\PSoC6_101\Sensor/driver_max30102.c ****     {
1727:..\..\..\..\PSoC6_101\Sensor/driver_max30102.c ****         return 3;                                                                                  
 4484              		.loc 1 1727 0
 4485 001c 0323     		movs	r3, #3
 4486 001e 1BE0     		b	.L319
 4487              	.L317:
1728:..\..\..\..\PSoC6_101\Sensor/driver_max30102.c ****     }
1729:..\..\..\..\PSoC6_101\Sensor/driver_max30102.c ****     
1730:..\..\..\..\PSoC6_101\Sensor/driver_max30102.c ****     res = handle->iic_read(MAX30102_ADDRESS, MAX30102_REG_SPO2_CONFIG, (uint8_t *)&prev, 1);       
 4488              		.loc 1 1730 0
 4489 0020 7B68     		ldr	r3, [r7, #4]
 4490 0022 9C68     		ldr	r4, [r3, #8]
 4491 0024 07F10E02 		add	r2, r7, #14
 4492 0028 0123     		movs	r3, #1
 4493 002a 0A21     		movs	r1, #10
 4494 002c AE20     		movs	r0, #174
 4495 002e A047     		blx	r4
 4496 0030 0346     		mov	r3, r0
 4497 0032 FB73     		strb	r3, [r7, #15]
1731:..\..\..\..\PSoC6_101\Sensor/driver_max30102.c ****     if (res != 0)                                                                                  
 4498              		.loc 1 1731 0
 4499 0034 FB7B     		ldrb	r3, [r7, #15]	@ zero_extendqisi2
 4500 0036 002B     		cmp	r3, #0
 4501 0038 05D0     		beq	.L318
1732:..\..\..\..\PSoC6_101\Sensor/driver_max30102.c ****     {
1733:..\..\..\..\PSoC6_101\Sensor/driver_max30102.c ****         handle->debug_print("max30102: read spo2 config failed.\n");                               
 4502              		.loc 1 1733 0
 4503 003a 7B68     		ldr	r3, [r7, #4]
 4504 003c 9B69     		ldr	r3, [r3, #24]
 4505 003e 0848     		ldr	r0, .L320
 4506 0040 9847     		blx	r3
1734:..\..\..\..\PSoC6_101\Sensor/driver_max30102.c ****        
1735:..\..\..\..\PSoC6_101\Sensor/driver_max30102.c ****         return 1;                                                                                  
 4507              		.loc 1 1735 0
 4508 0042 0123     		movs	r3, #1
 4509 0044 08E0     		b	.L319
 4510              	.L318:
1736:..\..\..\..\PSoC6_101\Sensor/driver_max30102.c ****     }
1737:..\..\..\..\PSoC6_101\Sensor/driver_max30102.c ****     *rate = (max30102_spo2_sample_rate_t)((prev >> 2) & 0x7);                                      
 4511              		.loc 1 1737 0
 4512 0046 BB7B     		ldrb	r3, [r7, #14]	@ zero_extendqisi2
ARM GAS  C:\Users\49148\AppData\Local\Temp\ccWN5cWv.s 			page 114


 4513 0048 9B08     		lsrs	r3, r3, #2
 4514 004a DBB2     		uxtb	r3, r3
 4515 004c 03F00703 		and	r3, r3, #7
 4516 0050 DAB2     		uxtb	r2, r3
 4517 0052 3B68     		ldr	r3, [r7]
 4518 0054 1A70     		strb	r2, [r3]
1738:..\..\..\..\PSoC6_101\Sensor/driver_max30102.c ****     
1739:..\..\..\..\PSoC6_101\Sensor/driver_max30102.c ****     return 0;                                                                                      
 4519              		.loc 1 1739 0
 4520 0056 0023     		movs	r3, #0
 4521              	.L319:
1740:..\..\..\..\PSoC6_101\Sensor/driver_max30102.c **** }
 4522              		.loc 1 1740 0 discriminator 1
 4523 0058 1846     		mov	r0, r3
 4524 005a 1437     		adds	r7, r7, #20
 4525              		.cfi_def_cfa_offset 12
 4526 005c BD46     		mov	sp, r7
 4527              		.cfi_def_cfa_register 13
 4528              		@ sp needed
 4529 005e 90BD     		pop	{r4, r7, pc}
 4530              	.L321:
 4531              		.align	2
 4532              	.L320:
 4533 0060 C0030000 		.word	.LC26
 4534              		.cfi_endproc
 4535              	.LFE31:
 4536              		.size	max30102_get_spo2_sample_rate, .-max30102_get_spo2_sample_rate
 4537              		.section	.text.max30102_set_adc_resolution,"ax",%progbits
 4538              		.align	2
 4539              		.global	max30102_set_adc_resolution
 4540              		.thumb
 4541              		.thumb_func
 4542              		.type	max30102_set_adc_resolution, %function
 4543              	max30102_set_adc_resolution:
 4544              	.LFB32:
1741:..\..\..\..\PSoC6_101\Sensor/driver_max30102.c **** 
1742:..\..\..\..\PSoC6_101\Sensor/driver_max30102.c **** /**
1743:..\..\..\..\PSoC6_101\Sensor/driver_max30102.c ****  * @brief     set the adc resolution
1744:..\..\..\..\PSoC6_101\Sensor/driver_max30102.c ****  * @param[in] *handle points to a max30102 handle structure
1745:..\..\..\..\PSoC6_101\Sensor/driver_max30102.c ****  * @param[in] resolution is the adc resolution
1746:..\..\..\..\PSoC6_101\Sensor/driver_max30102.c ****  * @return    status code
1747:..\..\..\..\PSoC6_101\Sensor/driver_max30102.c ****  *            - 0 success
1748:..\..\..\..\PSoC6_101\Sensor/driver_max30102.c ****  *            - 1 set adc resolution failed
1749:..\..\..\..\PSoC6_101\Sensor/driver_max30102.c ****  *            - 2 handle is NULL
1750:..\..\..\..\PSoC6_101\Sensor/driver_max30102.c ****  *            - 3 handle is not initialized
1751:..\..\..\..\PSoC6_101\Sensor/driver_max30102.c ****  * @note      none
1752:..\..\..\..\PSoC6_101\Sensor/driver_max30102.c ****  */
1753:..\..\..\..\PSoC6_101\Sensor/driver_max30102.c **** uint8_t max30102_set_adc_resolution(max30102_handle_t *handle, max30102_adc_resolution_t resolution
1754:..\..\..\..\PSoC6_101\Sensor/driver_max30102.c **** {
 4545              		.loc 1 1754 0
 4546              		.cfi_startproc
 4547              		@ args = 0, pretend = 0, frame = 16
 4548              		@ frame_needed = 1, uses_anonymous_args = 0
 4549 0000 90B5     		push	{r4, r7, lr}
 4550              		.cfi_def_cfa_offset 12
 4551              		.cfi_offset 4, -12
 4552              		.cfi_offset 7, -8
ARM GAS  C:\Users\49148\AppData\Local\Temp\ccWN5cWv.s 			page 115


 4553              		.cfi_offset 14, -4
 4554 0002 85B0     		sub	sp, sp, #20
 4555              		.cfi_def_cfa_offset 32
 4556 0004 00AF     		add	r7, sp, #0
 4557              		.cfi_def_cfa_register 7
 4558 0006 7860     		str	r0, [r7, #4]
 4559 0008 0B46     		mov	r3, r1
 4560 000a FB70     		strb	r3, [r7, #3]
1755:..\..\..\..\PSoC6_101\Sensor/driver_max30102.c ****     uint8_t res;
1756:..\..\..\..\PSoC6_101\Sensor/driver_max30102.c ****     uint8_t prev;
1757:..\..\..\..\PSoC6_101\Sensor/driver_max30102.c ****     
1758:..\..\..\..\PSoC6_101\Sensor/driver_max30102.c ****     if (handle == NULL)                                                                            
 4561              		.loc 1 1758 0
 4562 000c 7B68     		ldr	r3, [r7, #4]
 4563 000e 002B     		cmp	r3, #0
 4564 0010 01D1     		bne	.L323
1759:..\..\..\..\PSoC6_101\Sensor/driver_max30102.c ****     {
1760:..\..\..\..\PSoC6_101\Sensor/driver_max30102.c ****         return 2;                                                                                  
 4565              		.loc 1 1760 0
 4566 0012 0223     		movs	r3, #2
 4567 0014 36E0     		b	.L328
 4568              	.L323:
1761:..\..\..\..\PSoC6_101\Sensor/driver_max30102.c ****     }
1762:..\..\..\..\PSoC6_101\Sensor/driver_max30102.c ****     if (handle->inited != 1)                                                                       
 4569              		.loc 1 1762 0
 4570 0016 7B68     		ldr	r3, [r7, #4]
 4571 0018 1B7F     		ldrb	r3, [r3, #28]	@ zero_extendqisi2
 4572 001a 012B     		cmp	r3, #1
 4573 001c 01D0     		beq	.L325
1763:..\..\..\..\PSoC6_101\Sensor/driver_max30102.c ****     {
1764:..\..\..\..\PSoC6_101\Sensor/driver_max30102.c ****         return 3;                                                                                  
 4574              		.loc 1 1764 0
 4575 001e 0323     		movs	r3, #3
 4576 0020 30E0     		b	.L328
 4577              	.L325:
1765:..\..\..\..\PSoC6_101\Sensor/driver_max30102.c ****     }
1766:..\..\..\..\PSoC6_101\Sensor/driver_max30102.c ****     
1767:..\..\..\..\PSoC6_101\Sensor/driver_max30102.c ****     res = handle->iic_read(MAX30102_ADDRESS, MAX30102_REG_SPO2_CONFIG, (uint8_t *)&prev, 1);       
 4578              		.loc 1 1767 0
 4579 0022 7B68     		ldr	r3, [r7, #4]
 4580 0024 9C68     		ldr	r4, [r3, #8]
 4581 0026 07F10E02 		add	r2, r7, #14
 4582 002a 0123     		movs	r3, #1
 4583 002c 0A21     		movs	r1, #10
 4584 002e AE20     		movs	r0, #174
 4585 0030 A047     		blx	r4
 4586 0032 0346     		mov	r3, r0
 4587 0034 FB73     		strb	r3, [r7, #15]
1768:..\..\..\..\PSoC6_101\Sensor/driver_max30102.c ****     if (res != 0)                                                                                  
 4588              		.loc 1 1768 0
 4589 0036 FB7B     		ldrb	r3, [r7, #15]	@ zero_extendqisi2
 4590 0038 002B     		cmp	r3, #0
 4591 003a 05D0     		beq	.L326
1769:..\..\..\..\PSoC6_101\Sensor/driver_max30102.c ****     {
1770:..\..\..\..\PSoC6_101\Sensor/driver_max30102.c ****         handle->debug_print("max30102: read spo2 config failed.\n");                               
 4592              		.loc 1 1770 0
 4593 003c 7B68     		ldr	r3, [r7, #4]
ARM GAS  C:\Users\49148\AppData\Local\Temp\ccWN5cWv.s 			page 116


 4594 003e 9B69     		ldr	r3, [r3, #24]
 4595 0040 1248     		ldr	r0, .L329
 4596 0042 9847     		blx	r3
1771:..\..\..\..\PSoC6_101\Sensor/driver_max30102.c ****        
1772:..\..\..\..\PSoC6_101\Sensor/driver_max30102.c ****         return 1;                                                                                  
 4597              		.loc 1 1772 0
 4598 0044 0123     		movs	r3, #1
 4599 0046 1DE0     		b	.L328
 4600              	.L326:
1773:..\..\..\..\PSoC6_101\Sensor/driver_max30102.c ****     }
1774:..\..\..\..\PSoC6_101\Sensor/driver_max30102.c ****     prev &= ~(3 << 0);                                                                             
 4601              		.loc 1 1774 0
 4602 0048 BB7B     		ldrb	r3, [r7, #14]	@ zero_extendqisi2
 4603 004a 23F00303 		bic	r3, r3, #3
 4604 004e DBB2     		uxtb	r3, r3
 4605 0050 BB73     		strb	r3, [r7, #14]
1775:..\..\..\..\PSoC6_101\Sensor/driver_max30102.c ****     prev |= resolution << 0;                                                                       
 4606              		.loc 1 1775 0
 4607 0052 BA7B     		ldrb	r2, [r7, #14]	@ zero_extendqisi2
 4608 0054 FB78     		ldrb	r3, [r7, #3]
 4609 0056 1343     		orrs	r3, r3, r2
 4610 0058 DBB2     		uxtb	r3, r3
 4611 005a BB73     		strb	r3, [r7, #14]
1776:..\..\..\..\PSoC6_101\Sensor/driver_max30102.c ****     res = handle->iic_write(MAX30102_ADDRESS, MAX30102_REG_SPO2_CONFIG, (uint8_t *)&prev, 1);      
 4612              		.loc 1 1776 0
 4613 005c 7B68     		ldr	r3, [r7, #4]
 4614 005e DC68     		ldr	r4, [r3, #12]
 4615 0060 07F10E02 		add	r2, r7, #14
 4616 0064 0123     		movs	r3, #1
 4617 0066 0A21     		movs	r1, #10
 4618 0068 AE20     		movs	r0, #174
 4619 006a A047     		blx	r4
 4620 006c 0346     		mov	r3, r0
 4621 006e FB73     		strb	r3, [r7, #15]
1777:..\..\..\..\PSoC6_101\Sensor/driver_max30102.c ****     if (res != 0)                                                                                  
 4622              		.loc 1 1777 0
 4623 0070 FB7B     		ldrb	r3, [r7, #15]	@ zero_extendqisi2
 4624 0072 002B     		cmp	r3, #0
 4625 0074 05D0     		beq	.L327
1778:..\..\..\..\PSoC6_101\Sensor/driver_max30102.c ****     {
1779:..\..\..\..\PSoC6_101\Sensor/driver_max30102.c ****         handle->debug_print("max30102: write spo2 config failed.\n");                              
 4626              		.loc 1 1779 0
 4627 0076 7B68     		ldr	r3, [r7, #4]
 4628 0078 9B69     		ldr	r3, [r3, #24]
 4629 007a 0548     		ldr	r0, .L329+4
 4630 007c 9847     		blx	r3
1780:..\..\..\..\PSoC6_101\Sensor/driver_max30102.c ****        
1781:..\..\..\..\PSoC6_101\Sensor/driver_max30102.c ****         return 1;                                                                                  
 4631              		.loc 1 1781 0
 4632 007e 0123     		movs	r3, #1
 4633 0080 00E0     		b	.L328
 4634              	.L327:
1782:..\..\..\..\PSoC6_101\Sensor/driver_max30102.c ****     }
1783:..\..\..\..\PSoC6_101\Sensor/driver_max30102.c ****     
1784:..\..\..\..\PSoC6_101\Sensor/driver_max30102.c ****     return 0;                                                                                      
 4635              		.loc 1 1784 0
 4636 0082 0023     		movs	r3, #0
ARM GAS  C:\Users\49148\AppData\Local\Temp\ccWN5cWv.s 			page 117


 4637              	.L328:
1785:..\..\..\..\PSoC6_101\Sensor/driver_max30102.c **** }
 4638              		.loc 1 1785 0 discriminator 1
 4639 0084 1846     		mov	r0, r3
 4640 0086 1437     		adds	r7, r7, #20
 4641              		.cfi_def_cfa_offset 12
 4642 0088 BD46     		mov	sp, r7
 4643              		.cfi_def_cfa_register 13
 4644              		@ sp needed
 4645 008a 90BD     		pop	{r4, r7, pc}
 4646              	.L330:
 4647              		.align	2
 4648              	.L329:
 4649 008c C0030000 		.word	.LC26
 4650 0090 A8060000 		.word	.LC44
 4651              		.cfi_endproc
 4652              	.LFE32:
 4653              		.size	max30102_set_adc_resolution, .-max30102_set_adc_resolution
 4654              		.section	.text.max30102_get_adc_resolution,"ax",%progbits
 4655              		.align	2
 4656              		.global	max30102_get_adc_resolution
 4657              		.thumb
 4658              		.thumb_func
 4659              		.type	max30102_get_adc_resolution, %function
 4660              	max30102_get_adc_resolution:
 4661              	.LFB33:
1786:..\..\..\..\PSoC6_101\Sensor/driver_max30102.c **** 
1787:..\..\..\..\PSoC6_101\Sensor/driver_max30102.c **** /**
1788:..\..\..\..\PSoC6_101\Sensor/driver_max30102.c ****  * @brief      get the adc resolution
1789:..\..\..\..\PSoC6_101\Sensor/driver_max30102.c ****  * @param[in]  *handle points to a max30102 handle structure
1790:..\..\..\..\PSoC6_101\Sensor/driver_max30102.c ****  * @param[out] *resolution points to an adc resolution buffer
1791:..\..\..\..\PSoC6_101\Sensor/driver_max30102.c ****  * @return     status code
1792:..\..\..\..\PSoC6_101\Sensor/driver_max30102.c ****  *             - 0 success
1793:..\..\..\..\PSoC6_101\Sensor/driver_max30102.c ****  *             - 1 get adc resolution failed
1794:..\..\..\..\PSoC6_101\Sensor/driver_max30102.c ****  *             - 2 handle is NULL
1795:..\..\..\..\PSoC6_101\Sensor/driver_max30102.c ****  *             - 3 handle is not initialized
1796:..\..\..\..\PSoC6_101\Sensor/driver_max30102.c ****  * @note       none
1797:..\..\..\..\PSoC6_101\Sensor/driver_max30102.c ****  */
1798:..\..\..\..\PSoC6_101\Sensor/driver_max30102.c **** uint8_t max30102_get_adc_resolution(max30102_handle_t *handle, max30102_adc_resolution_t *resolutio
1799:..\..\..\..\PSoC6_101\Sensor/driver_max30102.c **** {
 4662              		.loc 1 1799 0
 4663              		.cfi_startproc
 4664              		@ args = 0, pretend = 0, frame = 16
 4665              		@ frame_needed = 1, uses_anonymous_args = 0
 4666 0000 90B5     		push	{r4, r7, lr}
 4667              		.cfi_def_cfa_offset 12
 4668              		.cfi_offset 4, -12
 4669              		.cfi_offset 7, -8
 4670              		.cfi_offset 14, -4
 4671 0002 85B0     		sub	sp, sp, #20
 4672              		.cfi_def_cfa_offset 32
 4673 0004 00AF     		add	r7, sp, #0
 4674              		.cfi_def_cfa_register 7
 4675 0006 7860     		str	r0, [r7, #4]
 4676 0008 3960     		str	r1, [r7]
1800:..\..\..\..\PSoC6_101\Sensor/driver_max30102.c ****     uint8_t res;
1801:..\..\..\..\PSoC6_101\Sensor/driver_max30102.c ****     uint8_t prev;
ARM GAS  C:\Users\49148\AppData\Local\Temp\ccWN5cWv.s 			page 118


1802:..\..\..\..\PSoC6_101\Sensor/driver_max30102.c ****     
1803:..\..\..\..\PSoC6_101\Sensor/driver_max30102.c ****     if (handle == NULL)                                                                            
 4677              		.loc 1 1803 0
 4678 000a 7B68     		ldr	r3, [r7, #4]
 4679 000c 002B     		cmp	r3, #0
 4680 000e 01D1     		bne	.L332
1804:..\..\..\..\PSoC6_101\Sensor/driver_max30102.c ****     {
1805:..\..\..\..\PSoC6_101\Sensor/driver_max30102.c ****         return 2;                                                                                  
 4681              		.loc 1 1805 0
 4682 0010 0223     		movs	r3, #2
 4683 0012 1FE0     		b	.L336
 4684              	.L332:
1806:..\..\..\..\PSoC6_101\Sensor/driver_max30102.c ****     }
1807:..\..\..\..\PSoC6_101\Sensor/driver_max30102.c ****     if (handle->inited != 1)                                                                       
 4685              		.loc 1 1807 0
 4686 0014 7B68     		ldr	r3, [r7, #4]
 4687 0016 1B7F     		ldrb	r3, [r3, #28]	@ zero_extendqisi2
 4688 0018 012B     		cmp	r3, #1
 4689 001a 01D0     		beq	.L334
1808:..\..\..\..\PSoC6_101\Sensor/driver_max30102.c ****     {
1809:..\..\..\..\PSoC6_101\Sensor/driver_max30102.c ****         return 3;                                                                                  
 4690              		.loc 1 1809 0
 4691 001c 0323     		movs	r3, #3
 4692 001e 19E0     		b	.L336
 4693              	.L334:
1810:..\..\..\..\PSoC6_101\Sensor/driver_max30102.c ****     }
1811:..\..\..\..\PSoC6_101\Sensor/driver_max30102.c ****     
1812:..\..\..\..\PSoC6_101\Sensor/driver_max30102.c ****     res = handle->iic_read(MAX30102_ADDRESS, MAX30102_REG_SPO2_CONFIG, (uint8_t *)&prev, 1);       
 4694              		.loc 1 1812 0
 4695 0020 7B68     		ldr	r3, [r7, #4]
 4696 0022 9C68     		ldr	r4, [r3, #8]
 4697 0024 07F10E02 		add	r2, r7, #14
 4698 0028 0123     		movs	r3, #1
 4699 002a 0A21     		movs	r1, #10
 4700 002c AE20     		movs	r0, #174
 4701 002e A047     		blx	r4
 4702 0030 0346     		mov	r3, r0
 4703 0032 FB73     		strb	r3, [r7, #15]
1813:..\..\..\..\PSoC6_101\Sensor/driver_max30102.c ****     if (res != 0)                                                                                  
 4704              		.loc 1 1813 0
 4705 0034 FB7B     		ldrb	r3, [r7, #15]	@ zero_extendqisi2
 4706 0036 002B     		cmp	r3, #0
 4707 0038 05D0     		beq	.L335
1814:..\..\..\..\PSoC6_101\Sensor/driver_max30102.c ****     {
1815:..\..\..\..\PSoC6_101\Sensor/driver_max30102.c ****         handle->debug_print("max30102: read spo2 config failed.\n");                               
 4708              		.loc 1 1815 0
 4709 003a 7B68     		ldr	r3, [r7, #4]
 4710 003c 9B69     		ldr	r3, [r3, #24]
 4711 003e 0748     		ldr	r0, .L337
 4712 0040 9847     		blx	r3
1816:..\..\..\..\PSoC6_101\Sensor/driver_max30102.c ****        
1817:..\..\..\..\PSoC6_101\Sensor/driver_max30102.c ****         return 1;                                                                                  
 4713              		.loc 1 1817 0
 4714 0042 0123     		movs	r3, #1
 4715 0044 06E0     		b	.L336
 4716              	.L335:
1818:..\..\..\..\PSoC6_101\Sensor/driver_max30102.c ****     }
ARM GAS  C:\Users\49148\AppData\Local\Temp\ccWN5cWv.s 			page 119


1819:..\..\..\..\PSoC6_101\Sensor/driver_max30102.c ****     *resolution = (max30102_adc_resolution_t)((prev >> 0) & 0x3);                                  
 4717              		.loc 1 1819 0
 4718 0046 BB7B     		ldrb	r3, [r7, #14]	@ zero_extendqisi2
 4719 0048 03F00303 		and	r3, r3, #3
 4720 004c DAB2     		uxtb	r2, r3
 4721 004e 3B68     		ldr	r3, [r7]
 4722 0050 1A70     		strb	r2, [r3]
1820:..\..\..\..\PSoC6_101\Sensor/driver_max30102.c ****     
1821:..\..\..\..\PSoC6_101\Sensor/driver_max30102.c ****     return 0;                                                                                      
 4723              		.loc 1 1821 0
 4724 0052 0023     		movs	r3, #0
 4725              	.L336:
1822:..\..\..\..\PSoC6_101\Sensor/driver_max30102.c **** }
 4726              		.loc 1 1822 0 discriminator 1
 4727 0054 1846     		mov	r0, r3
 4728 0056 1437     		adds	r7, r7, #20
 4729              		.cfi_def_cfa_offset 12
 4730 0058 BD46     		mov	sp, r7
 4731              		.cfi_def_cfa_register 13
 4732              		@ sp needed
 4733 005a 90BD     		pop	{r4, r7, pc}
 4734              	.L338:
 4735              		.align	2
 4736              	.L337:
 4737 005c C0030000 		.word	.LC26
 4738              		.cfi_endproc
 4739              	.LFE33:
 4740              		.size	max30102_get_adc_resolution, .-max30102_get_adc_resolution
 4741              		.section	.rodata
 4742 06cd 000000   		.align	2
 4743              	.LC45:
 4744 06d0 6D617833 		.ascii	"max30102: write led pulse 1 failed.\012\000"
 4744      30313032 
 4744      3A207772 
 4744      69746520 
 4744      6C656420 
 4745              		.section	.text.max30102_set_led_red_pulse_amplitude,"ax",%progbits
 4746              		.align	2
 4747              		.global	max30102_set_led_red_pulse_amplitude
 4748              		.thumb
 4749              		.thumb_func
 4750              		.type	max30102_set_led_red_pulse_amplitude, %function
 4751              	max30102_set_led_red_pulse_amplitude:
 4752              	.LFB34:
1823:..\..\..\..\PSoC6_101\Sensor/driver_max30102.c **** 
1824:..\..\..\..\PSoC6_101\Sensor/driver_max30102.c **** /**
1825:..\..\..\..\PSoC6_101\Sensor/driver_max30102.c ****  * @brief     set the red led pulse amplitude
1826:..\..\..\..\PSoC6_101\Sensor/driver_max30102.c ****  * @param[in] *handle points to a max30102 handle structure
1827:..\..\..\..\PSoC6_101\Sensor/driver_max30102.c ****  * @param[in] amp is the red led pulse amplitude
1828:..\..\..\..\PSoC6_101\Sensor/driver_max30102.c ****  * @return    status code
1829:..\..\..\..\PSoC6_101\Sensor/driver_max30102.c ****  *            - 0 success
1830:..\..\..\..\PSoC6_101\Sensor/driver_max30102.c ****  *            - 1 set led red pulse amplitude failed
1831:..\..\..\..\PSoC6_101\Sensor/driver_max30102.c ****  *            - 2 handle is NULL
1832:..\..\..\..\PSoC6_101\Sensor/driver_max30102.c ****  *            - 3 handle is not initialized
1833:..\..\..\..\PSoC6_101\Sensor/driver_max30102.c ****  * @note      none
1834:..\..\..\..\PSoC6_101\Sensor/driver_max30102.c ****  */
1835:..\..\..\..\PSoC6_101\Sensor/driver_max30102.c **** uint8_t max30102_set_led_red_pulse_amplitude(max30102_handle_t *handle, uint8_t amp)
ARM GAS  C:\Users\49148\AppData\Local\Temp\ccWN5cWv.s 			page 120


1836:..\..\..\..\PSoC6_101\Sensor/driver_max30102.c **** {
 4753              		.loc 1 1836 0
 4754              		.cfi_startproc
 4755              		@ args = 0, pretend = 0, frame = 16
 4756              		@ frame_needed = 1, uses_anonymous_args = 0
 4757 0000 90B5     		push	{r4, r7, lr}
 4758              		.cfi_def_cfa_offset 12
 4759              		.cfi_offset 4, -12
 4760              		.cfi_offset 7, -8
 4761              		.cfi_offset 14, -4
 4762 0002 85B0     		sub	sp, sp, #20
 4763              		.cfi_def_cfa_offset 32
 4764 0004 00AF     		add	r7, sp, #0
 4765              		.cfi_def_cfa_register 7
 4766 0006 7860     		str	r0, [r7, #4]
 4767 0008 0B46     		mov	r3, r1
 4768 000a FB70     		strb	r3, [r7, #3]
1837:..\..\..\..\PSoC6_101\Sensor/driver_max30102.c ****     uint8_t res;
1838:..\..\..\..\PSoC6_101\Sensor/driver_max30102.c ****     
1839:..\..\..\..\PSoC6_101\Sensor/driver_max30102.c ****     if (handle == NULL)                                                                            
 4769              		.loc 1 1839 0
 4770 000c 7B68     		ldr	r3, [r7, #4]
 4771 000e 002B     		cmp	r3, #0
 4772 0010 01D1     		bne	.L340
1840:..\..\..\..\PSoC6_101\Sensor/driver_max30102.c ****     {
1841:..\..\..\..\PSoC6_101\Sensor/driver_max30102.c ****         return 2;                                                                                  
 4773              		.loc 1 1841 0
 4774 0012 0223     		movs	r3, #2
 4775 0014 18E0     		b	.L341
 4776              	.L340:
1842:..\..\..\..\PSoC6_101\Sensor/driver_max30102.c ****     }
1843:..\..\..\..\PSoC6_101\Sensor/driver_max30102.c ****     if (handle->inited != 1)                                                                       
 4777              		.loc 1 1843 0
 4778 0016 7B68     		ldr	r3, [r7, #4]
 4779 0018 1B7F     		ldrb	r3, [r3, #28]	@ zero_extendqisi2
 4780 001a 012B     		cmp	r3, #1
 4781 001c 01D0     		beq	.L342
1844:..\..\..\..\PSoC6_101\Sensor/driver_max30102.c ****     {
1845:..\..\..\..\PSoC6_101\Sensor/driver_max30102.c ****         return 3;                                                                                  
 4782              		.loc 1 1845 0
 4783 001e 0323     		movs	r3, #3
 4784 0020 12E0     		b	.L341
 4785              	.L342:
1846:..\..\..\..\PSoC6_101\Sensor/driver_max30102.c ****     }
1847:..\..\..\..\PSoC6_101\Sensor/driver_max30102.c ****     
1848:..\..\..\..\PSoC6_101\Sensor/driver_max30102.c ****     res = handle->iic_write(MAX30102_ADDRESS, MAX30102_REG_LED_PULSE_1, (uint8_t *)&amp, 1);       
 4786              		.loc 1 1848 0
 4787 0022 7B68     		ldr	r3, [r7, #4]
 4788 0024 DC68     		ldr	r4, [r3, #12]
 4789 0026 FA1C     		adds	r2, r7, #3
 4790 0028 0123     		movs	r3, #1
 4791 002a 0C21     		movs	r1, #12
 4792 002c AE20     		movs	r0, #174
 4793 002e A047     		blx	r4
 4794 0030 0346     		mov	r3, r0
 4795 0032 FB73     		strb	r3, [r7, #15]
1849:..\..\..\..\PSoC6_101\Sensor/driver_max30102.c ****     if (res != 0)                                                                                  
ARM GAS  C:\Users\49148\AppData\Local\Temp\ccWN5cWv.s 			page 121


 4796              		.loc 1 1849 0
 4797 0034 FB7B     		ldrb	r3, [r7, #15]	@ zero_extendqisi2
 4798 0036 002B     		cmp	r3, #0
 4799 0038 05D0     		beq	.L343
1850:..\..\..\..\PSoC6_101\Sensor/driver_max30102.c ****     {
1851:..\..\..\..\PSoC6_101\Sensor/driver_max30102.c ****         handle->debug_print("max30102: write led pulse 1 failed.\n");                              
 4800              		.loc 1 1851 0
 4801 003a 7B68     		ldr	r3, [r7, #4]
 4802 003c 9B69     		ldr	r3, [r3, #24]
 4803 003e 0448     		ldr	r0, .L344
 4804 0040 9847     		blx	r3
1852:..\..\..\..\PSoC6_101\Sensor/driver_max30102.c ****        
1853:..\..\..\..\PSoC6_101\Sensor/driver_max30102.c ****         return 1;                                                                                  
 4805              		.loc 1 1853 0
 4806 0042 0123     		movs	r3, #1
 4807 0044 00E0     		b	.L341
 4808              	.L343:
1854:..\..\..\..\PSoC6_101\Sensor/driver_max30102.c ****     }
1855:..\..\..\..\PSoC6_101\Sensor/driver_max30102.c ****     
1856:..\..\..\..\PSoC6_101\Sensor/driver_max30102.c ****     return 0;                                                                                      
 4809              		.loc 1 1856 0
 4810 0046 0023     		movs	r3, #0
 4811              	.L341:
1857:..\..\..\..\PSoC6_101\Sensor/driver_max30102.c **** }
 4812              		.loc 1 1857 0
 4813 0048 1846     		mov	r0, r3
 4814 004a 1437     		adds	r7, r7, #20
 4815              		.cfi_def_cfa_offset 12
 4816 004c BD46     		mov	sp, r7
 4817              		.cfi_def_cfa_register 13
 4818              		@ sp needed
 4819 004e 90BD     		pop	{r4, r7, pc}
 4820              	.L345:
 4821              		.align	2
 4822              	.L344:
 4823 0050 D0060000 		.word	.LC45
 4824              		.cfi_endproc
 4825              	.LFE34:
 4826              		.size	max30102_set_led_red_pulse_amplitude, .-max30102_set_led_red_pulse_amplitude
 4827              		.section	.rodata
 4828 06f5 000000   		.align	2
 4829              	.LC46:
 4830 06f8 6D617833 		.ascii	"max30102: read led pulse 1 failed.\012\000"
 4830      30313032 
 4830      3A207265 
 4830      6164206C 
 4830      65642070 
 4831              		.section	.text.max30102_get_led_red_pulse_amplitude,"ax",%progbits
 4832              		.align	2
 4833              		.global	max30102_get_led_red_pulse_amplitude
 4834              		.thumb
 4835              		.thumb_func
 4836              		.type	max30102_get_led_red_pulse_amplitude, %function
 4837              	max30102_get_led_red_pulse_amplitude:
 4838              	.LFB35:
1858:..\..\..\..\PSoC6_101\Sensor/driver_max30102.c **** 
1859:..\..\..\..\PSoC6_101\Sensor/driver_max30102.c **** /**
ARM GAS  C:\Users\49148\AppData\Local\Temp\ccWN5cWv.s 			page 122


1860:..\..\..\..\PSoC6_101\Sensor/driver_max30102.c ****  * @brief      get the red led pulse amplitude
1861:..\..\..\..\PSoC6_101\Sensor/driver_max30102.c ****  * @param[in]  *handle points to a max30102 handle structure
1862:..\..\..\..\PSoC6_101\Sensor/driver_max30102.c ****  * @param[out] *amp points to a red led pulse amplitude buffer
1863:..\..\..\..\PSoC6_101\Sensor/driver_max30102.c ****  * @return     status code
1864:..\..\..\..\PSoC6_101\Sensor/driver_max30102.c ****  *             - 0 success
1865:..\..\..\..\PSoC6_101\Sensor/driver_max30102.c ****  *             - 1 get led red pulse amplitude failed
1866:..\..\..\..\PSoC6_101\Sensor/driver_max30102.c ****  *             - 2 handle is NULL
1867:..\..\..\..\PSoC6_101\Sensor/driver_max30102.c ****  *             - 3 handle is not initialized
1868:..\..\..\..\PSoC6_101\Sensor/driver_max30102.c ****  * @note       none
1869:..\..\..\..\PSoC6_101\Sensor/driver_max30102.c ****  */
1870:..\..\..\..\PSoC6_101\Sensor/driver_max30102.c **** uint8_t max30102_get_led_red_pulse_amplitude(max30102_handle_t *handle, uint8_t *amp)
1871:..\..\..\..\PSoC6_101\Sensor/driver_max30102.c **** {
 4839              		.loc 1 1871 0
 4840              		.cfi_startproc
 4841              		@ args = 0, pretend = 0, frame = 16
 4842              		@ frame_needed = 1, uses_anonymous_args = 0
 4843 0000 90B5     		push	{r4, r7, lr}
 4844              		.cfi_def_cfa_offset 12
 4845              		.cfi_offset 4, -12
 4846              		.cfi_offset 7, -8
 4847              		.cfi_offset 14, -4
 4848 0002 85B0     		sub	sp, sp, #20
 4849              		.cfi_def_cfa_offset 32
 4850 0004 00AF     		add	r7, sp, #0
 4851              		.cfi_def_cfa_register 7
 4852 0006 7860     		str	r0, [r7, #4]
 4853 0008 3960     		str	r1, [r7]
1872:..\..\..\..\PSoC6_101\Sensor/driver_max30102.c ****     uint8_t res;
1873:..\..\..\..\PSoC6_101\Sensor/driver_max30102.c ****     
1874:..\..\..\..\PSoC6_101\Sensor/driver_max30102.c ****     if (handle == NULL)                                                                           /
 4854              		.loc 1 1874 0
 4855 000a 7B68     		ldr	r3, [r7, #4]
 4856 000c 002B     		cmp	r3, #0
 4857 000e 01D1     		bne	.L347
1875:..\..\..\..\PSoC6_101\Sensor/driver_max30102.c ****     {
1876:..\..\..\..\PSoC6_101\Sensor/driver_max30102.c ****         return 2;                                                                                 /
 4858              		.loc 1 1876 0
 4859 0010 0223     		movs	r3, #2
 4860 0012 18E0     		b	.L348
 4861              	.L347:
1877:..\..\..\..\PSoC6_101\Sensor/driver_max30102.c ****     }
1878:..\..\..\..\PSoC6_101\Sensor/driver_max30102.c ****     if (handle->inited != 1)                                                                      /
 4862              		.loc 1 1878 0
 4863 0014 7B68     		ldr	r3, [r7, #4]
 4864 0016 1B7F     		ldrb	r3, [r3, #28]	@ zero_extendqisi2
 4865 0018 012B     		cmp	r3, #1
 4866 001a 01D0     		beq	.L349
1879:..\..\..\..\PSoC6_101\Sensor/driver_max30102.c ****     {
1880:..\..\..\..\PSoC6_101\Sensor/driver_max30102.c ****         return 3;                                                                                 /
 4867              		.loc 1 1880 0
 4868 001c 0323     		movs	r3, #3
 4869 001e 12E0     		b	.L348
 4870              	.L349:
1881:..\..\..\..\PSoC6_101\Sensor/driver_max30102.c ****     }
1882:..\..\..\..\PSoC6_101\Sensor/driver_max30102.c ****     
1883:..\..\..\..\PSoC6_101\Sensor/driver_max30102.c ****     res = handle->iic_read(MAX30102_ADDRESS, MAX30102_REG_LED_PULSE_1, (uint8_t *)amp, 1);        /
 4871              		.loc 1 1883 0
ARM GAS  C:\Users\49148\AppData\Local\Temp\ccWN5cWv.s 			page 123


 4872 0020 7B68     		ldr	r3, [r7, #4]
 4873 0022 9C68     		ldr	r4, [r3, #8]
 4874 0024 0123     		movs	r3, #1
 4875 0026 3A68     		ldr	r2, [r7]
 4876 0028 0C21     		movs	r1, #12
 4877 002a AE20     		movs	r0, #174
 4878 002c A047     		blx	r4
 4879 002e 0346     		mov	r3, r0
 4880 0030 FB73     		strb	r3, [r7, #15]
1884:..\..\..\..\PSoC6_101\Sensor/driver_max30102.c ****     if (res != 0)                                                                                 /
 4881              		.loc 1 1884 0
 4882 0032 FB7B     		ldrb	r3, [r7, #15]	@ zero_extendqisi2
 4883 0034 002B     		cmp	r3, #0
 4884 0036 05D0     		beq	.L350
1885:..\..\..\..\PSoC6_101\Sensor/driver_max30102.c ****     {
1886:..\..\..\..\PSoC6_101\Sensor/driver_max30102.c ****         handle->debug_print("max30102: read led pulse 1 failed.\n");                              /
 4885              		.loc 1 1886 0
 4886 0038 7B68     		ldr	r3, [r7, #4]
 4887 003a 9B69     		ldr	r3, [r3, #24]
 4888 003c 0448     		ldr	r0, .L351
 4889 003e 9847     		blx	r3
1887:..\..\..\..\PSoC6_101\Sensor/driver_max30102.c ****        
1888:..\..\..\..\PSoC6_101\Sensor/driver_max30102.c ****         return 1;                                                                                 /
 4890              		.loc 1 1888 0
 4891 0040 0123     		movs	r3, #1
 4892 0042 00E0     		b	.L348
 4893              	.L350:
1889:..\..\..\..\PSoC6_101\Sensor/driver_max30102.c ****     }
1890:..\..\..\..\PSoC6_101\Sensor/driver_max30102.c ****     
1891:..\..\..\..\PSoC6_101\Sensor/driver_max30102.c ****     return 0;                                                                                     /
 4894              		.loc 1 1891 0
 4895 0044 0023     		movs	r3, #0
 4896              	.L348:
1892:..\..\..\..\PSoC6_101\Sensor/driver_max30102.c **** }
 4897              		.loc 1 1892 0
 4898 0046 1846     		mov	r0, r3
 4899 0048 1437     		adds	r7, r7, #20
 4900              		.cfi_def_cfa_offset 12
 4901 004a BD46     		mov	sp, r7
 4902              		.cfi_def_cfa_register 13
 4903              		@ sp needed
 4904 004c 90BD     		pop	{r4, r7, pc}
 4905              	.L352:
 4906 004e 00BF     		.align	2
 4907              	.L351:
 4908 0050 F8060000 		.word	.LC46
 4909              		.cfi_endproc
 4910              	.LFE35:
 4911              		.size	max30102_get_led_red_pulse_amplitude, .-max30102_get_led_red_pulse_amplitude
 4912              		.section	.rodata
 4913              		.align	2
 4914              	.LC47:
 4915 071c 6D617833 		.ascii	"max30102: write led pulse 2 failed.\012\000"
 4915      30313032 
 4915      3A207772 
 4915      69746520 
 4915      6C656420 
ARM GAS  C:\Users\49148\AppData\Local\Temp\ccWN5cWv.s 			page 124


 4916              		.section	.text.max30102_set_led_ir_pulse_amplitude,"ax",%progbits
 4917              		.align	2
 4918              		.global	max30102_set_led_ir_pulse_amplitude
 4919              		.thumb
 4920              		.thumb_func
 4921              		.type	max30102_set_led_ir_pulse_amplitude, %function
 4922              	max30102_set_led_ir_pulse_amplitude:
 4923              	.LFB36:
1893:..\..\..\..\PSoC6_101\Sensor/driver_max30102.c **** 
1894:..\..\..\..\PSoC6_101\Sensor/driver_max30102.c **** /**
1895:..\..\..\..\PSoC6_101\Sensor/driver_max30102.c ****  * @brief     set the ir led pulse amplitude
1896:..\..\..\..\PSoC6_101\Sensor/driver_max30102.c ****  * @param[in] *handle points to a max30102 handle structure
1897:..\..\..\..\PSoC6_101\Sensor/driver_max30102.c ****  * @param[in] amp is the ir led pulse amplitude
1898:..\..\..\..\PSoC6_101\Sensor/driver_max30102.c ****  * @return    status code
1899:..\..\..\..\PSoC6_101\Sensor/driver_max30102.c ****  *            - 0 success
1900:..\..\..\..\PSoC6_101\Sensor/driver_max30102.c ****  *            - 1 set led ir pulse amplitude failed
1901:..\..\..\..\PSoC6_101\Sensor/driver_max30102.c ****  *            - 2 handle is NULL
1902:..\..\..\..\PSoC6_101\Sensor/driver_max30102.c ****  *            - 3 handle is not initialized
1903:..\..\..\..\PSoC6_101\Sensor/driver_max30102.c ****  * @note      none
1904:..\..\..\..\PSoC6_101\Sensor/driver_max30102.c ****  */
1905:..\..\..\..\PSoC6_101\Sensor/driver_max30102.c **** uint8_t max30102_set_led_ir_pulse_amplitude(max30102_handle_t *handle, uint8_t amp)
1906:..\..\..\..\PSoC6_101\Sensor/driver_max30102.c **** {
 4924              		.loc 1 1906 0
 4925              		.cfi_startproc
 4926              		@ args = 0, pretend = 0, frame = 16
 4927              		@ frame_needed = 1, uses_anonymous_args = 0
 4928 0000 90B5     		push	{r4, r7, lr}
 4929              		.cfi_def_cfa_offset 12
 4930              		.cfi_offset 4, -12
 4931              		.cfi_offset 7, -8
 4932              		.cfi_offset 14, -4
 4933 0002 85B0     		sub	sp, sp, #20
 4934              		.cfi_def_cfa_offset 32
 4935 0004 00AF     		add	r7, sp, #0
 4936              		.cfi_def_cfa_register 7
 4937 0006 7860     		str	r0, [r7, #4]
 4938 0008 0B46     		mov	r3, r1
 4939 000a FB70     		strb	r3, [r7, #3]
1907:..\..\..\..\PSoC6_101\Sensor/driver_max30102.c ****     uint8_t res;
1908:..\..\..\..\PSoC6_101\Sensor/driver_max30102.c ****     
1909:..\..\..\..\PSoC6_101\Sensor/driver_max30102.c ****     if (handle == NULL)                                                                            
 4940              		.loc 1 1909 0
 4941 000c 7B68     		ldr	r3, [r7, #4]
 4942 000e 002B     		cmp	r3, #0
 4943 0010 01D1     		bne	.L354
1910:..\..\..\..\PSoC6_101\Sensor/driver_max30102.c ****     {
1911:..\..\..\..\PSoC6_101\Sensor/driver_max30102.c ****         return 2;                                                                                  
 4944              		.loc 1 1911 0
 4945 0012 0223     		movs	r3, #2
 4946 0014 18E0     		b	.L355
 4947              	.L354:
1912:..\..\..\..\PSoC6_101\Sensor/driver_max30102.c ****     }
1913:..\..\..\..\PSoC6_101\Sensor/driver_max30102.c ****     if (handle->inited != 1)                                                                       
 4948              		.loc 1 1913 0
 4949 0016 7B68     		ldr	r3, [r7, #4]
 4950 0018 1B7F     		ldrb	r3, [r3, #28]	@ zero_extendqisi2
 4951 001a 012B     		cmp	r3, #1
ARM GAS  C:\Users\49148\AppData\Local\Temp\ccWN5cWv.s 			page 125


 4952 001c 01D0     		beq	.L356
1914:..\..\..\..\PSoC6_101\Sensor/driver_max30102.c ****     {
1915:..\..\..\..\PSoC6_101\Sensor/driver_max30102.c ****         return 3;                                                                                  
 4953              		.loc 1 1915 0
 4954 001e 0323     		movs	r3, #3
 4955 0020 12E0     		b	.L355
 4956              	.L356:
1916:..\..\..\..\PSoC6_101\Sensor/driver_max30102.c ****     }
1917:..\..\..\..\PSoC6_101\Sensor/driver_max30102.c ****     
1918:..\..\..\..\PSoC6_101\Sensor/driver_max30102.c ****     res = handle->iic_write(MAX30102_ADDRESS, MAX30102_REG_LED_PULSE_2, (uint8_t *)&amp, 1);       
 4957              		.loc 1 1918 0
 4958 0022 7B68     		ldr	r3, [r7, #4]
 4959 0024 DC68     		ldr	r4, [r3, #12]
 4960 0026 FA1C     		adds	r2, r7, #3
 4961 0028 0123     		movs	r3, #1
 4962 002a 0D21     		movs	r1, #13
 4963 002c AE20     		movs	r0, #174
 4964 002e A047     		blx	r4
 4965 0030 0346     		mov	r3, r0
 4966 0032 FB73     		strb	r3, [r7, #15]
1919:..\..\..\..\PSoC6_101\Sensor/driver_max30102.c ****     if (res != 0)                                                                                  
 4967              		.loc 1 1919 0
 4968 0034 FB7B     		ldrb	r3, [r7, #15]	@ zero_extendqisi2
 4969 0036 002B     		cmp	r3, #0
 4970 0038 05D0     		beq	.L357
1920:..\..\..\..\PSoC6_101\Sensor/driver_max30102.c ****     {
1921:..\..\..\..\PSoC6_101\Sensor/driver_max30102.c ****         handle->debug_print("max30102: write led pulse 2 failed.\n");                              
 4971              		.loc 1 1921 0
 4972 003a 7B68     		ldr	r3, [r7, #4]
 4973 003c 9B69     		ldr	r3, [r3, #24]
 4974 003e 0448     		ldr	r0, .L358
 4975 0040 9847     		blx	r3
1922:..\..\..\..\PSoC6_101\Sensor/driver_max30102.c ****        
1923:..\..\..\..\PSoC6_101\Sensor/driver_max30102.c ****         return 1;                                                                                  
 4976              		.loc 1 1923 0
 4977 0042 0123     		movs	r3, #1
 4978 0044 00E0     		b	.L355
 4979              	.L357:
1924:..\..\..\..\PSoC6_101\Sensor/driver_max30102.c ****     }
1925:..\..\..\..\PSoC6_101\Sensor/driver_max30102.c ****     
1926:..\..\..\..\PSoC6_101\Sensor/driver_max30102.c ****     return 0;                                                                                      
 4980              		.loc 1 1926 0
 4981 0046 0023     		movs	r3, #0
 4982              	.L355:
1927:..\..\..\..\PSoC6_101\Sensor/driver_max30102.c **** }
 4983              		.loc 1 1927 0
 4984 0048 1846     		mov	r0, r3
 4985 004a 1437     		adds	r7, r7, #20
 4986              		.cfi_def_cfa_offset 12
 4987 004c BD46     		mov	sp, r7
 4988              		.cfi_def_cfa_register 13
 4989              		@ sp needed
 4990 004e 90BD     		pop	{r4, r7, pc}
 4991              	.L359:
 4992              		.align	2
 4993              	.L358:
 4994 0050 1C070000 		.word	.LC47
ARM GAS  C:\Users\49148\AppData\Local\Temp\ccWN5cWv.s 			page 126


 4995              		.cfi_endproc
 4996              	.LFE36:
 4997              		.size	max30102_set_led_ir_pulse_amplitude, .-max30102_set_led_ir_pulse_amplitude
 4998              		.section	.rodata
 4999 0741 000000   		.align	2
 5000              	.LC48:
 5001 0744 6D617833 		.ascii	"max30102: read led pulse 2 failed.\012\000"
 5001      30313032 
 5001      3A207265 
 5001      6164206C 
 5001      65642070 
 5002              		.section	.text.max30102_get_led_ir_pulse_amplitude,"ax",%progbits
 5003              		.align	2
 5004              		.global	max30102_get_led_ir_pulse_amplitude
 5005              		.thumb
 5006              		.thumb_func
 5007              		.type	max30102_get_led_ir_pulse_amplitude, %function
 5008              	max30102_get_led_ir_pulse_amplitude:
 5009              	.LFB37:
1928:..\..\..\..\PSoC6_101\Sensor/driver_max30102.c **** 
1929:..\..\..\..\PSoC6_101\Sensor/driver_max30102.c **** /**
1930:..\..\..\..\PSoC6_101\Sensor/driver_max30102.c ****  * @brief      get the ir led pulse amplitude
1931:..\..\..\..\PSoC6_101\Sensor/driver_max30102.c ****  * @param[in]  *handle points to a max30102 handle structure
1932:..\..\..\..\PSoC6_101\Sensor/driver_max30102.c ****  * @param[out] *amp points to an ir led pulse amplitude buffer
1933:..\..\..\..\PSoC6_101\Sensor/driver_max30102.c ****  * @return     status code
1934:..\..\..\..\PSoC6_101\Sensor/driver_max30102.c ****  *             - 0 success
1935:..\..\..\..\PSoC6_101\Sensor/driver_max30102.c ****  *             - 1 get led ir pulse amplitude failed
1936:..\..\..\..\PSoC6_101\Sensor/driver_max30102.c ****  *             - 2 handle is NULL
1937:..\..\..\..\PSoC6_101\Sensor/driver_max30102.c ****  *             - 3 handle is not initialized
1938:..\..\..\..\PSoC6_101\Sensor/driver_max30102.c ****  * @note       none
1939:..\..\..\..\PSoC6_101\Sensor/driver_max30102.c ****  */
1940:..\..\..\..\PSoC6_101\Sensor/driver_max30102.c **** uint8_t max30102_get_led_ir_pulse_amplitude(max30102_handle_t *handle, uint8_t *amp)
1941:..\..\..\..\PSoC6_101\Sensor/driver_max30102.c **** {
 5010              		.loc 1 1941 0
 5011              		.cfi_startproc
 5012              		@ args = 0, pretend = 0, frame = 16
 5013              		@ frame_needed = 1, uses_anonymous_args = 0
 5014 0000 90B5     		push	{r4, r7, lr}
 5015              		.cfi_def_cfa_offset 12
 5016              		.cfi_offset 4, -12
 5017              		.cfi_offset 7, -8
 5018              		.cfi_offset 14, -4
 5019 0002 85B0     		sub	sp, sp, #20
 5020              		.cfi_def_cfa_offset 32
 5021 0004 00AF     		add	r7, sp, #0
 5022              		.cfi_def_cfa_register 7
 5023 0006 7860     		str	r0, [r7, #4]
 5024 0008 3960     		str	r1, [r7]
1942:..\..\..\..\PSoC6_101\Sensor/driver_max30102.c ****     uint8_t res;
1943:..\..\..\..\PSoC6_101\Sensor/driver_max30102.c ****     
1944:..\..\..\..\PSoC6_101\Sensor/driver_max30102.c ****     if (handle == NULL)                                                                           /
 5025              		.loc 1 1944 0
 5026 000a 7B68     		ldr	r3, [r7, #4]
 5027 000c 002B     		cmp	r3, #0
 5028 000e 01D1     		bne	.L361
1945:..\..\..\..\PSoC6_101\Sensor/driver_max30102.c ****     {
1946:..\..\..\..\PSoC6_101\Sensor/driver_max30102.c ****         return 2;                                                                                 /
ARM GAS  C:\Users\49148\AppData\Local\Temp\ccWN5cWv.s 			page 127


 5029              		.loc 1 1946 0
 5030 0010 0223     		movs	r3, #2
 5031 0012 18E0     		b	.L362
 5032              	.L361:
1947:..\..\..\..\PSoC6_101\Sensor/driver_max30102.c ****     }
1948:..\..\..\..\PSoC6_101\Sensor/driver_max30102.c ****     if (handle->inited != 1)                                                                      /
 5033              		.loc 1 1948 0
 5034 0014 7B68     		ldr	r3, [r7, #4]
 5035 0016 1B7F     		ldrb	r3, [r3, #28]	@ zero_extendqisi2
 5036 0018 012B     		cmp	r3, #1
 5037 001a 01D0     		beq	.L363
1949:..\..\..\..\PSoC6_101\Sensor/driver_max30102.c ****     {
1950:..\..\..\..\PSoC6_101\Sensor/driver_max30102.c ****         return 3;                                                                                 /
 5038              		.loc 1 1950 0
 5039 001c 0323     		movs	r3, #3
 5040 001e 12E0     		b	.L362
 5041              	.L363:
1951:..\..\..\..\PSoC6_101\Sensor/driver_max30102.c ****     }
1952:..\..\..\..\PSoC6_101\Sensor/driver_max30102.c ****     
1953:..\..\..\..\PSoC6_101\Sensor/driver_max30102.c ****     res = handle->iic_read(MAX30102_ADDRESS, MAX30102_REG_LED_PULSE_2, (uint8_t *)amp, 1);        /
 5042              		.loc 1 1953 0
 5043 0020 7B68     		ldr	r3, [r7, #4]
 5044 0022 9C68     		ldr	r4, [r3, #8]
 5045 0024 0123     		movs	r3, #1
 5046 0026 3A68     		ldr	r2, [r7]
 5047 0028 0D21     		movs	r1, #13
 5048 002a AE20     		movs	r0, #174
 5049 002c A047     		blx	r4
 5050 002e 0346     		mov	r3, r0
 5051 0030 FB73     		strb	r3, [r7, #15]
1954:..\..\..\..\PSoC6_101\Sensor/driver_max30102.c ****     if (res != 0)                                                                                 /
 5052              		.loc 1 1954 0
 5053 0032 FB7B     		ldrb	r3, [r7, #15]	@ zero_extendqisi2
 5054 0034 002B     		cmp	r3, #0
 5055 0036 05D0     		beq	.L364
1955:..\..\..\..\PSoC6_101\Sensor/driver_max30102.c ****     {
1956:..\..\..\..\PSoC6_101\Sensor/driver_max30102.c ****         handle->debug_print("max30102: read led pulse 2 failed.\n");                              /
 5056              		.loc 1 1956 0
 5057 0038 7B68     		ldr	r3, [r7, #4]
 5058 003a 9B69     		ldr	r3, [r3, #24]
 5059 003c 0448     		ldr	r0, .L365
 5060 003e 9847     		blx	r3
1957:..\..\..\..\PSoC6_101\Sensor/driver_max30102.c ****        
1958:..\..\..\..\PSoC6_101\Sensor/driver_max30102.c ****         return 1;                                                                                 /
 5061              		.loc 1 1958 0
 5062 0040 0123     		movs	r3, #1
 5063 0042 00E0     		b	.L362
 5064              	.L364:
1959:..\..\..\..\PSoC6_101\Sensor/driver_max30102.c ****     }
1960:..\..\..\..\PSoC6_101\Sensor/driver_max30102.c ****     
1961:..\..\..\..\PSoC6_101\Sensor/driver_max30102.c ****     return 0;                                                                                     /
 5065              		.loc 1 1961 0
 5066 0044 0023     		movs	r3, #0
 5067              	.L362:
1962:..\..\..\..\PSoC6_101\Sensor/driver_max30102.c **** }
 5068              		.loc 1 1962 0
 5069 0046 1846     		mov	r0, r3
ARM GAS  C:\Users\49148\AppData\Local\Temp\ccWN5cWv.s 			page 128


 5070 0048 1437     		adds	r7, r7, #20
 5071              		.cfi_def_cfa_offset 12
 5072 004a BD46     		mov	sp, r7
 5073              		.cfi_def_cfa_register 13
 5074              		@ sp needed
 5075 004c 90BD     		pop	{r4, r7, pc}
 5076              	.L366:
 5077 004e 00BF     		.align	2
 5078              	.L365:
 5079 0050 44070000 		.word	.LC48
 5080              		.cfi_endproc
 5081              	.LFE37:
 5082              		.size	max30102_get_led_ir_pulse_amplitude, .-max30102_get_led_ir_pulse_amplitude
 5083              		.section	.rodata
 5084              		.align	2
 5085              	.LC49:
 5086 0768 6D617833 		.ascii	"max30102: read led slot failed.\012\000"
 5086      30313032 
 5086      3A207265 
 5086      6164206C 
 5086      65642073 
 5087 0789 000000   		.align	2
 5088              	.LC50:
 5089 078c 6D617833 		.ascii	"max30102: write led slot failed.\012\000"
 5089      30313032 
 5089      3A207772 
 5089      69746520 
 5089      6C656420 
 5090 07ae 0000     		.align	2
 5091              	.LC51:
 5092 07b0 6D617833 		.ascii	"max30102: slot is invalid.\012\000"
 5092      30313032 
 5092      3A20736C 
 5092      6F742069 
 5092      7320696E 
 5093              		.section	.text.max30102_set_slot,"ax",%progbits
 5094              		.align	2
 5095              		.global	max30102_set_slot
 5096              		.thumb
 5097              		.thumb_func
 5098              		.type	max30102_set_slot, %function
 5099              	max30102_set_slot:
 5100              	.LFB38:
1963:..\..\..\..\PSoC6_101\Sensor/driver_max30102.c **** 
1964:..\..\..\..\PSoC6_101\Sensor/driver_max30102.c **** /**
1965:..\..\..\..\PSoC6_101\Sensor/driver_max30102.c ****  * @brief     set the led slot
1966:..\..\..\..\PSoC6_101\Sensor/driver_max30102.c ****  * @param[in] *handle points to a max30102 handle structure
1967:..\..\..\..\PSoC6_101\Sensor/driver_max30102.c ****  * @param[in] slot is the slot number
1968:..\..\..\..\PSoC6_101\Sensor/driver_max30102.c ****  * @param[in] led is the led mode
1969:..\..\..\..\PSoC6_101\Sensor/driver_max30102.c ****  * @return    status code
1970:..\..\..\..\PSoC6_101\Sensor/driver_max30102.c ****  *            - 0 success
1971:..\..\..\..\PSoC6_101\Sensor/driver_max30102.c ****  *            - 1 set slot failed
1972:..\..\..\..\PSoC6_101\Sensor/driver_max30102.c ****  *            - 2 handle is NULL
1973:..\..\..\..\PSoC6_101\Sensor/driver_max30102.c ****  *            - 3 handle is not initialized
1974:..\..\..\..\PSoC6_101\Sensor/driver_max30102.c ****  * @note      none
1975:..\..\..\..\PSoC6_101\Sensor/driver_max30102.c ****  */
1976:..\..\..\..\PSoC6_101\Sensor/driver_max30102.c **** uint8_t max30102_set_slot(max30102_handle_t *handle, max30102_slot_t slot, max30102_led_t led)
ARM GAS  C:\Users\49148\AppData\Local\Temp\ccWN5cWv.s 			page 129


1977:..\..\..\..\PSoC6_101\Sensor/driver_max30102.c **** {
 5101              		.loc 1 1977 0
 5102              		.cfi_startproc
 5103              		@ args = 0, pretend = 0, frame = 16
 5104              		@ frame_needed = 1, uses_anonymous_args = 0
 5105 0000 90B5     		push	{r4, r7, lr}
 5106              		.cfi_def_cfa_offset 12
 5107              		.cfi_offset 4, -12
 5108              		.cfi_offset 7, -8
 5109              		.cfi_offset 14, -4
 5110 0002 85B0     		sub	sp, sp, #20
 5111              		.cfi_def_cfa_offset 32
 5112 0004 00AF     		add	r7, sp, #0
 5113              		.cfi_def_cfa_register 7
 5114 0006 7860     		str	r0, [r7, #4]
 5115 0008 0B46     		mov	r3, r1
 5116 000a FB70     		strb	r3, [r7, #3]
 5117 000c 1346     		mov	r3, r2
 5118 000e BB70     		strb	r3, [r7, #2]
1978:..\..\..\..\PSoC6_101\Sensor/driver_max30102.c ****     uint8_t res;
1979:..\..\..\..\PSoC6_101\Sensor/driver_max30102.c ****     uint8_t prev;
1980:..\..\..\..\PSoC6_101\Sensor/driver_max30102.c ****     
1981:..\..\..\..\PSoC6_101\Sensor/driver_max30102.c ****     if (handle == NULL)                                                                            
 5119              		.loc 1 1981 0
 5120 0010 7B68     		ldr	r3, [r7, #4]
 5121 0012 002B     		cmp	r3, #0
 5122 0014 01D1     		bne	.L368
1982:..\..\..\..\PSoC6_101\Sensor/driver_max30102.c ****     {
1983:..\..\..\..\PSoC6_101\Sensor/driver_max30102.c ****         return 2;                                                                                  
 5123              		.loc 1 1983 0
 5124 0016 0223     		movs	r3, #2
 5125 0018 E6E0     		b	.L383
 5126              	.L368:
1984:..\..\..\..\PSoC6_101\Sensor/driver_max30102.c ****     }
1985:..\..\..\..\PSoC6_101\Sensor/driver_max30102.c ****     if (handle->inited != 1)                                                                       
 5127              		.loc 1 1985 0
 5128 001a 7B68     		ldr	r3, [r7, #4]
 5129 001c 1B7F     		ldrb	r3, [r3, #28]	@ zero_extendqisi2
 5130 001e 012B     		cmp	r3, #1
 5131 0020 01D0     		beq	.L370
1986:..\..\..\..\PSoC6_101\Sensor/driver_max30102.c ****     {
1987:..\..\..\..\PSoC6_101\Sensor/driver_max30102.c ****         return 3;                                                                                  
 5132              		.loc 1 1987 0
 5133 0022 0323     		movs	r3, #3
 5134 0024 E0E0     		b	.L383
 5135              	.L370:
1988:..\..\..\..\PSoC6_101\Sensor/driver_max30102.c ****     }
1989:..\..\..\..\PSoC6_101\Sensor/driver_max30102.c ****     
1990:..\..\..\..\PSoC6_101\Sensor/driver_max30102.c ****     if (slot == MAX30102_SLOT_1)                                                                   
 5136              		.loc 1 1990 0
 5137 0026 FB78     		ldrb	r3, [r7, #3]	@ zero_extendqisi2
 5138 0028 002B     		cmp	r3, #0
 5139 002a 31D1     		bne	.L371
1991:..\..\..\..\PSoC6_101\Sensor/driver_max30102.c ****     {
1992:..\..\..\..\PSoC6_101\Sensor/driver_max30102.c ****         res = handle->iic_read(MAX30102_ADDRESS, MAX30102_REG_MULTI_LED_MODE_CONTROL_1, (uint8_t *)
 5140              		.loc 1 1992 0
 5141 002c 7B68     		ldr	r3, [r7, #4]
ARM GAS  C:\Users\49148\AppData\Local\Temp\ccWN5cWv.s 			page 130


 5142 002e 9C68     		ldr	r4, [r3, #8]
 5143 0030 07F10E02 		add	r2, r7, #14
 5144 0034 0123     		movs	r3, #1
 5145 0036 1121     		movs	r1, #17
 5146 0038 AE20     		movs	r0, #174
 5147 003a A047     		blx	r4
 5148 003c 0346     		mov	r3, r0
 5149 003e FB73     		strb	r3, [r7, #15]
1993:..\..\..\..\PSoC6_101\Sensor/driver_max30102.c ****         if (res != 0)                                                                              
 5150              		.loc 1 1993 0
 5151 0040 FB7B     		ldrb	r3, [r7, #15]	@ zero_extendqisi2
 5152 0042 002B     		cmp	r3, #0
 5153 0044 05D0     		beq	.L372
1994:..\..\..\..\PSoC6_101\Sensor/driver_max30102.c ****         {
1995:..\..\..\..\PSoC6_101\Sensor/driver_max30102.c ****             handle->debug_print("max30102: read led slot failed.\n");                              
 5154              		.loc 1 1995 0
 5155 0046 7B68     		ldr	r3, [r7, #4]
 5156 0048 9B69     		ldr	r3, [r3, #24]
 5157 004a 6948     		ldr	r0, .L384
 5158 004c 9847     		blx	r3
1996:..\..\..\..\PSoC6_101\Sensor/driver_max30102.c ****            
1997:..\..\..\..\PSoC6_101\Sensor/driver_max30102.c ****             return 1;                                                                              
 5159              		.loc 1 1997 0
 5160 004e 0123     		movs	r3, #1
 5161 0050 CAE0     		b	.L383
 5162              	.L372:
1998:..\..\..\..\PSoC6_101\Sensor/driver_max30102.c ****         }
1999:..\..\..\..\PSoC6_101\Sensor/driver_max30102.c ****         prev &= ~(0x7 << 0);                                                                       
 5163              		.loc 1 1999 0
 5164 0052 BB7B     		ldrb	r3, [r7, #14]	@ zero_extendqisi2
 5165 0054 23F00703 		bic	r3, r3, #7
 5166 0058 DBB2     		uxtb	r3, r3
 5167 005a BB73     		strb	r3, [r7, #14]
2000:..\..\..\..\PSoC6_101\Sensor/driver_max30102.c ****         prev |= led << 0;                                                                          
 5168              		.loc 1 2000 0
 5169 005c BA7B     		ldrb	r2, [r7, #14]	@ zero_extendqisi2
 5170 005e BB78     		ldrb	r3, [r7, #2]
 5171 0060 1343     		orrs	r3, r3, r2
 5172 0062 DBB2     		uxtb	r3, r3
 5173 0064 BB73     		strb	r3, [r7, #14]
2001:..\..\..\..\PSoC6_101\Sensor/driver_max30102.c ****         res = handle->iic_write(MAX30102_ADDRESS, MAX30102_REG_MULTI_LED_MODE_CONTROL_1, (uint8_t *
 5174              		.loc 1 2001 0
 5175 0066 7B68     		ldr	r3, [r7, #4]
 5176 0068 DC68     		ldr	r4, [r3, #12]
 5177 006a 07F10E02 		add	r2, r7, #14
 5178 006e 0123     		movs	r3, #1
 5179 0070 1121     		movs	r1, #17
 5180 0072 AE20     		movs	r0, #174
 5181 0074 A047     		blx	r4
 5182 0076 0346     		mov	r3, r0
 5183 0078 FB73     		strb	r3, [r7, #15]
2002:..\..\..\..\PSoC6_101\Sensor/driver_max30102.c ****         if (res != 0)                                                                              
 5184              		.loc 1 2002 0
 5185 007a FB7B     		ldrb	r3, [r7, #15]	@ zero_extendqisi2
 5186 007c 002B     		cmp	r3, #0
 5187 007e 05D0     		beq	.L373
2003:..\..\..\..\PSoC6_101\Sensor/driver_max30102.c ****         {
ARM GAS  C:\Users\49148\AppData\Local\Temp\ccWN5cWv.s 			page 131


2004:..\..\..\..\PSoC6_101\Sensor/driver_max30102.c ****             handle->debug_print("max30102: write led slot failed.\n");                             
 5188              		.loc 1 2004 0
 5189 0080 7B68     		ldr	r3, [r7, #4]
 5190 0082 9B69     		ldr	r3, [r3, #24]
 5191 0084 5B48     		ldr	r0, .L384+4
 5192 0086 9847     		blx	r3
2005:..\..\..\..\PSoC6_101\Sensor/driver_max30102.c ****            
2006:..\..\..\..\PSoC6_101\Sensor/driver_max30102.c ****             return 1;                                                                              
 5193              		.loc 1 2006 0
 5194 0088 0123     		movs	r3, #1
 5195 008a ADE0     		b	.L383
 5196              	.L373:
2007:..\..\..\..\PSoC6_101\Sensor/driver_max30102.c ****         }
2008:..\..\..\..\PSoC6_101\Sensor/driver_max30102.c ****         
2009:..\..\..\..\PSoC6_101\Sensor/driver_max30102.c ****         return 0;                                                                                  
 5197              		.loc 1 2009 0
 5198 008c 0023     		movs	r3, #0
 5199 008e ABE0     		b	.L383
 5200              	.L371:
2010:..\..\..\..\PSoC6_101\Sensor/driver_max30102.c ****     }
2011:..\..\..\..\PSoC6_101\Sensor/driver_max30102.c ****     else if (slot == MAX30102_SLOT_2)                                                              
 5201              		.loc 1 2011 0
 5202 0090 FB78     		ldrb	r3, [r7, #3]	@ zero_extendqisi2
 5203 0092 012B     		cmp	r3, #1
 5204 0094 35D1     		bne	.L374
2012:..\..\..\..\PSoC6_101\Sensor/driver_max30102.c ****     {
2013:..\..\..\..\PSoC6_101\Sensor/driver_max30102.c ****         res = handle->iic_read(MAX30102_ADDRESS, MAX30102_REG_MULTI_LED_MODE_CONTROL_1, (uint8_t *)
 5205              		.loc 1 2013 0
 5206 0096 7B68     		ldr	r3, [r7, #4]
 5207 0098 9C68     		ldr	r4, [r3, #8]
 5208 009a 07F10E02 		add	r2, r7, #14
 5209 009e 0123     		movs	r3, #1
 5210 00a0 1121     		movs	r1, #17
 5211 00a2 AE20     		movs	r0, #174
 5212 00a4 A047     		blx	r4
 5213 00a6 0346     		mov	r3, r0
 5214 00a8 FB73     		strb	r3, [r7, #15]
2014:..\..\..\..\PSoC6_101\Sensor/driver_max30102.c ****         if (res != 0)                                                                              
 5215              		.loc 1 2014 0
 5216 00aa FB7B     		ldrb	r3, [r7, #15]	@ zero_extendqisi2
 5217 00ac 002B     		cmp	r3, #0
 5218 00ae 05D0     		beq	.L375
2015:..\..\..\..\PSoC6_101\Sensor/driver_max30102.c ****         {
2016:..\..\..\..\PSoC6_101\Sensor/driver_max30102.c ****             handle->debug_print("max30102: read led slot failed.\n");                              
 5219              		.loc 1 2016 0
 5220 00b0 7B68     		ldr	r3, [r7, #4]
 5221 00b2 9B69     		ldr	r3, [r3, #24]
 5222 00b4 4E48     		ldr	r0, .L384
 5223 00b6 9847     		blx	r3
2017:..\..\..\..\PSoC6_101\Sensor/driver_max30102.c ****            
2018:..\..\..\..\PSoC6_101\Sensor/driver_max30102.c ****             return 1;                                                                              
 5224              		.loc 1 2018 0
 5225 00b8 0123     		movs	r3, #1
 5226 00ba 95E0     		b	.L383
 5227              	.L375:
2019:..\..\..\..\PSoC6_101\Sensor/driver_max30102.c ****         }
2020:..\..\..\..\PSoC6_101\Sensor/driver_max30102.c ****         prev &= ~(0x7 << 4);                                                                       
ARM GAS  C:\Users\49148\AppData\Local\Temp\ccWN5cWv.s 			page 132


 5228              		.loc 1 2020 0
 5229 00bc BB7B     		ldrb	r3, [r7, #14]	@ zero_extendqisi2
 5230 00be 23F07003 		bic	r3, r3, #112
 5231 00c2 DBB2     		uxtb	r3, r3
 5232 00c4 BB73     		strb	r3, [r7, #14]
2021:..\..\..\..\PSoC6_101\Sensor/driver_max30102.c ****         prev |= led << 4;                                                                          
 5233              		.loc 1 2021 0
 5234 00c6 BB78     		ldrb	r3, [r7, #2]	@ zero_extendqisi2
 5235 00c8 1B01     		lsls	r3, r3, #4
 5236 00ca 5AB2     		sxtb	r2, r3
 5237 00cc BB7B     		ldrb	r3, [r7, #14]	@ zero_extendqisi2
 5238 00ce 5BB2     		sxtb	r3, r3
 5239 00d0 1343     		orrs	r3, r3, r2
 5240 00d2 5BB2     		sxtb	r3, r3
 5241 00d4 DBB2     		uxtb	r3, r3
 5242 00d6 BB73     		strb	r3, [r7, #14]
2022:..\..\..\..\PSoC6_101\Sensor/driver_max30102.c ****         res = handle->iic_write(MAX30102_ADDRESS, MAX30102_REG_MULTI_LED_MODE_CONTROL_1, (uint8_t *
 5243              		.loc 1 2022 0
 5244 00d8 7B68     		ldr	r3, [r7, #4]
 5245 00da DC68     		ldr	r4, [r3, #12]
 5246 00dc 07F10E02 		add	r2, r7, #14
 5247 00e0 0123     		movs	r3, #1
 5248 00e2 1121     		movs	r1, #17
 5249 00e4 AE20     		movs	r0, #174
 5250 00e6 A047     		blx	r4
 5251 00e8 0346     		mov	r3, r0
 5252 00ea FB73     		strb	r3, [r7, #15]
2023:..\..\..\..\PSoC6_101\Sensor/driver_max30102.c ****         if (res != 0)                                                                              
 5253              		.loc 1 2023 0
 5254 00ec FB7B     		ldrb	r3, [r7, #15]	@ zero_extendqisi2
 5255 00ee 002B     		cmp	r3, #0
 5256 00f0 05D0     		beq	.L376
2024:..\..\..\..\PSoC6_101\Sensor/driver_max30102.c ****         {
2025:..\..\..\..\PSoC6_101\Sensor/driver_max30102.c ****             handle->debug_print("max30102: write led slot failed.\n");                             
 5257              		.loc 1 2025 0
 5258 00f2 7B68     		ldr	r3, [r7, #4]
 5259 00f4 9B69     		ldr	r3, [r3, #24]
 5260 00f6 3F48     		ldr	r0, .L384+4
 5261 00f8 9847     		blx	r3
2026:..\..\..\..\PSoC6_101\Sensor/driver_max30102.c ****            
2027:..\..\..\..\PSoC6_101\Sensor/driver_max30102.c ****             return 1;                                                                              
 5262              		.loc 1 2027 0
 5263 00fa 0123     		movs	r3, #1
 5264 00fc 74E0     		b	.L383
 5265              	.L376:
2028:..\..\..\..\PSoC6_101\Sensor/driver_max30102.c ****         }
2029:..\..\..\..\PSoC6_101\Sensor/driver_max30102.c ****         
2030:..\..\..\..\PSoC6_101\Sensor/driver_max30102.c ****         return 0;                                                                                  
 5266              		.loc 1 2030 0
 5267 00fe 0023     		movs	r3, #0
 5268 0100 72E0     		b	.L383
 5269              	.L374:
2031:..\..\..\..\PSoC6_101\Sensor/driver_max30102.c ****     }
2032:..\..\..\..\PSoC6_101\Sensor/driver_max30102.c ****     else if (slot == MAX30102_SLOT_3)                                                              
 5270              		.loc 1 2032 0
 5271 0102 FB78     		ldrb	r3, [r7, #3]	@ zero_extendqisi2
 5272 0104 022B     		cmp	r3, #2
ARM GAS  C:\Users\49148\AppData\Local\Temp\ccWN5cWv.s 			page 133


 5273 0106 31D1     		bne	.L377
2033:..\..\..\..\PSoC6_101\Sensor/driver_max30102.c ****     {
2034:..\..\..\..\PSoC6_101\Sensor/driver_max30102.c ****         res = handle->iic_read(MAX30102_ADDRESS, MAX30102_REG_MULTI_LED_MODE_CONTROL_2, (uint8_t *)
 5274              		.loc 1 2034 0
 5275 0108 7B68     		ldr	r3, [r7, #4]
 5276 010a 9C68     		ldr	r4, [r3, #8]
 5277 010c 07F10E02 		add	r2, r7, #14
 5278 0110 0123     		movs	r3, #1
 5279 0112 1221     		movs	r1, #18
 5280 0114 AE20     		movs	r0, #174
 5281 0116 A047     		blx	r4
 5282 0118 0346     		mov	r3, r0
 5283 011a FB73     		strb	r3, [r7, #15]
2035:..\..\..\..\PSoC6_101\Sensor/driver_max30102.c ****         if (res != 0)                                                                              
 5284              		.loc 1 2035 0
 5285 011c FB7B     		ldrb	r3, [r7, #15]	@ zero_extendqisi2
 5286 011e 002B     		cmp	r3, #0
 5287 0120 05D0     		beq	.L378
2036:..\..\..\..\PSoC6_101\Sensor/driver_max30102.c ****         {
2037:..\..\..\..\PSoC6_101\Sensor/driver_max30102.c ****             handle->debug_print("max30102: read led slot failed.\n");                              
 5288              		.loc 1 2037 0
 5289 0122 7B68     		ldr	r3, [r7, #4]
 5290 0124 9B69     		ldr	r3, [r3, #24]
 5291 0126 3248     		ldr	r0, .L384
 5292 0128 9847     		blx	r3
2038:..\..\..\..\PSoC6_101\Sensor/driver_max30102.c ****            
2039:..\..\..\..\PSoC6_101\Sensor/driver_max30102.c ****             return 1;                                                                              
 5293              		.loc 1 2039 0
 5294 012a 0123     		movs	r3, #1
 5295 012c 5CE0     		b	.L383
 5296              	.L378:
2040:..\..\..\..\PSoC6_101\Sensor/driver_max30102.c ****         }
2041:..\..\..\..\PSoC6_101\Sensor/driver_max30102.c ****         prev &= ~(0x7 << 0);                                                                       
 5297              		.loc 1 2041 0
 5298 012e BB7B     		ldrb	r3, [r7, #14]	@ zero_extendqisi2
 5299 0130 23F00703 		bic	r3, r3, #7
 5300 0134 DBB2     		uxtb	r3, r3
 5301 0136 BB73     		strb	r3, [r7, #14]
2042:..\..\..\..\PSoC6_101\Sensor/driver_max30102.c ****         prev |= led << 0;                                                                          
 5302              		.loc 1 2042 0
 5303 0138 BA7B     		ldrb	r2, [r7, #14]	@ zero_extendqisi2
 5304 013a BB78     		ldrb	r3, [r7, #2]
 5305 013c 1343     		orrs	r3, r3, r2
 5306 013e DBB2     		uxtb	r3, r3
 5307 0140 BB73     		strb	r3, [r7, #14]
2043:..\..\..\..\PSoC6_101\Sensor/driver_max30102.c ****         res = handle->iic_write(MAX30102_ADDRESS, MAX30102_REG_MULTI_LED_MODE_CONTROL_2, (uint8_t *
 5308              		.loc 1 2043 0
 5309 0142 7B68     		ldr	r3, [r7, #4]
 5310 0144 DC68     		ldr	r4, [r3, #12]
 5311 0146 07F10E02 		add	r2, r7, #14
 5312 014a 0123     		movs	r3, #1
 5313 014c 1221     		movs	r1, #18
 5314 014e AE20     		movs	r0, #174
 5315 0150 A047     		blx	r4
 5316 0152 0346     		mov	r3, r0
 5317 0154 FB73     		strb	r3, [r7, #15]
2044:..\..\..\..\PSoC6_101\Sensor/driver_max30102.c ****         if (res != 0)                                                                              
ARM GAS  C:\Users\49148\AppData\Local\Temp\ccWN5cWv.s 			page 134


 5318              		.loc 1 2044 0
 5319 0156 FB7B     		ldrb	r3, [r7, #15]	@ zero_extendqisi2
 5320 0158 002B     		cmp	r3, #0
 5321 015a 05D0     		beq	.L379
2045:..\..\..\..\PSoC6_101\Sensor/driver_max30102.c ****         {
2046:..\..\..\..\PSoC6_101\Sensor/driver_max30102.c ****             handle->debug_print("max30102: write led slot failed.\n");                             
 5322              		.loc 1 2046 0
 5323 015c 7B68     		ldr	r3, [r7, #4]
 5324 015e 9B69     		ldr	r3, [r3, #24]
 5325 0160 2448     		ldr	r0, .L384+4
 5326 0162 9847     		blx	r3
2047:..\..\..\..\PSoC6_101\Sensor/driver_max30102.c ****            
2048:..\..\..\..\PSoC6_101\Sensor/driver_max30102.c ****             return 1;                                                                              
 5327              		.loc 1 2048 0
 5328 0164 0123     		movs	r3, #1
 5329 0166 3FE0     		b	.L383
 5330              	.L379:
2049:..\..\..\..\PSoC6_101\Sensor/driver_max30102.c ****         }
2050:..\..\..\..\PSoC6_101\Sensor/driver_max30102.c ****         
2051:..\..\..\..\PSoC6_101\Sensor/driver_max30102.c ****         return 0;                                                                                  
 5331              		.loc 1 2051 0
 5332 0168 0023     		movs	r3, #0
 5333 016a 3DE0     		b	.L383
 5334              	.L377:
2052:..\..\..\..\PSoC6_101\Sensor/driver_max30102.c ****     }
2053:..\..\..\..\PSoC6_101\Sensor/driver_max30102.c ****     else if (slot == MAX30102_SLOT_4)                                                              
 5335              		.loc 1 2053 0
 5336 016c FB78     		ldrb	r3, [r7, #3]	@ zero_extendqisi2
 5337 016e 032B     		cmp	r3, #3
 5338 0170 35D1     		bne	.L380
2054:..\..\..\..\PSoC6_101\Sensor/driver_max30102.c ****     {
2055:..\..\..\..\PSoC6_101\Sensor/driver_max30102.c ****         res = handle->iic_read(MAX30102_ADDRESS, MAX30102_REG_MULTI_LED_MODE_CONTROL_2, (uint8_t *)
 5339              		.loc 1 2055 0
 5340 0172 7B68     		ldr	r3, [r7, #4]
 5341 0174 9C68     		ldr	r4, [r3, #8]
 5342 0176 07F10E02 		add	r2, r7, #14
 5343 017a 0123     		movs	r3, #1
 5344 017c 1221     		movs	r1, #18
 5345 017e AE20     		movs	r0, #174
 5346 0180 A047     		blx	r4
 5347 0182 0346     		mov	r3, r0
 5348 0184 FB73     		strb	r3, [r7, #15]
2056:..\..\..\..\PSoC6_101\Sensor/driver_max30102.c ****         if (res != 0)                                                                              
 5349              		.loc 1 2056 0
 5350 0186 FB7B     		ldrb	r3, [r7, #15]	@ zero_extendqisi2
 5351 0188 002B     		cmp	r3, #0
 5352 018a 05D0     		beq	.L381
2057:..\..\..\..\PSoC6_101\Sensor/driver_max30102.c ****         {
2058:..\..\..\..\PSoC6_101\Sensor/driver_max30102.c ****             handle->debug_print("max30102: read led slot failed.\n");                              
 5353              		.loc 1 2058 0
 5354 018c 7B68     		ldr	r3, [r7, #4]
 5355 018e 9B69     		ldr	r3, [r3, #24]
 5356 0190 1748     		ldr	r0, .L384
 5357 0192 9847     		blx	r3
2059:..\..\..\..\PSoC6_101\Sensor/driver_max30102.c ****            
2060:..\..\..\..\PSoC6_101\Sensor/driver_max30102.c ****             return 1;                                                                              
 5358              		.loc 1 2060 0
ARM GAS  C:\Users\49148\AppData\Local\Temp\ccWN5cWv.s 			page 135


 5359 0194 0123     		movs	r3, #1
 5360 0196 27E0     		b	.L383
 5361              	.L381:
2061:..\..\..\..\PSoC6_101\Sensor/driver_max30102.c ****         }
2062:..\..\..\..\PSoC6_101\Sensor/driver_max30102.c ****         prev &= ~(0x7 << 4);                                                                       
 5362              		.loc 1 2062 0
 5363 0198 BB7B     		ldrb	r3, [r7, #14]	@ zero_extendqisi2
 5364 019a 23F07003 		bic	r3, r3, #112
 5365 019e DBB2     		uxtb	r3, r3
 5366 01a0 BB73     		strb	r3, [r7, #14]
2063:..\..\..\..\PSoC6_101\Sensor/driver_max30102.c ****         prev |= led << 4;                                                                          
 5367              		.loc 1 2063 0
 5368 01a2 BB78     		ldrb	r3, [r7, #2]	@ zero_extendqisi2
 5369 01a4 1B01     		lsls	r3, r3, #4
 5370 01a6 5AB2     		sxtb	r2, r3
 5371 01a8 BB7B     		ldrb	r3, [r7, #14]	@ zero_extendqisi2
 5372 01aa 5BB2     		sxtb	r3, r3
 5373 01ac 1343     		orrs	r3, r3, r2
 5374 01ae 5BB2     		sxtb	r3, r3
 5375 01b0 DBB2     		uxtb	r3, r3
 5376 01b2 BB73     		strb	r3, [r7, #14]
2064:..\..\..\..\PSoC6_101\Sensor/driver_max30102.c ****         res = handle->iic_write(MAX30102_ADDRESS, MAX30102_REG_MULTI_LED_MODE_CONTROL_2, (uint8_t *
 5377              		.loc 1 2064 0
 5378 01b4 7B68     		ldr	r3, [r7, #4]
 5379 01b6 DC68     		ldr	r4, [r3, #12]
 5380 01b8 07F10E02 		add	r2, r7, #14
 5381 01bc 0123     		movs	r3, #1
 5382 01be 1221     		movs	r1, #18
 5383 01c0 AE20     		movs	r0, #174
 5384 01c2 A047     		blx	r4
 5385 01c4 0346     		mov	r3, r0
 5386 01c6 FB73     		strb	r3, [r7, #15]
2065:..\..\..\..\PSoC6_101\Sensor/driver_max30102.c ****         if (res != 0)                                                                              
 5387              		.loc 1 2065 0
 5388 01c8 FB7B     		ldrb	r3, [r7, #15]	@ zero_extendqisi2
 5389 01ca 002B     		cmp	r3, #0
 5390 01cc 05D0     		beq	.L382
2066:..\..\..\..\PSoC6_101\Sensor/driver_max30102.c ****         {
2067:..\..\..\..\PSoC6_101\Sensor/driver_max30102.c ****             handle->debug_print("max30102: write led slot failed.\n");                             
 5391              		.loc 1 2067 0
 5392 01ce 7B68     		ldr	r3, [r7, #4]
 5393 01d0 9B69     		ldr	r3, [r3, #24]
 5394 01d2 0848     		ldr	r0, .L384+4
 5395 01d4 9847     		blx	r3
2068:..\..\..\..\PSoC6_101\Sensor/driver_max30102.c ****            
2069:..\..\..\..\PSoC6_101\Sensor/driver_max30102.c ****             return 1;                                                                              
 5396              		.loc 1 2069 0
 5397 01d6 0123     		movs	r3, #1
 5398 01d8 06E0     		b	.L383
 5399              	.L382:
2070:..\..\..\..\PSoC6_101\Sensor/driver_max30102.c ****         }
2071:..\..\..\..\PSoC6_101\Sensor/driver_max30102.c ****         
2072:..\..\..\..\PSoC6_101\Sensor/driver_max30102.c ****         return 0;                                                                                  
 5400              		.loc 1 2072 0
 5401 01da 0023     		movs	r3, #0
 5402 01dc 04E0     		b	.L383
 5403              	.L380:
ARM GAS  C:\Users\49148\AppData\Local\Temp\ccWN5cWv.s 			page 136


2073:..\..\..\..\PSoC6_101\Sensor/driver_max30102.c ****     }
2074:..\..\..\..\PSoC6_101\Sensor/driver_max30102.c ****     else                                                                                           
2075:..\..\..\..\PSoC6_101\Sensor/driver_max30102.c ****     {
2076:..\..\..\..\PSoC6_101\Sensor/driver_max30102.c ****         handle->debug_print("max30102: slot is invalid.\n");                                       
 5404              		.loc 1 2076 0
 5405 01de 7B68     		ldr	r3, [r7, #4]
 5406 01e0 9B69     		ldr	r3, [r3, #24]
 5407 01e2 0548     		ldr	r0, .L384+8
 5408 01e4 9847     		blx	r3
2077:..\..\..\..\PSoC6_101\Sensor/driver_max30102.c ****        
2078:..\..\..\..\PSoC6_101\Sensor/driver_max30102.c ****         return 1;                                                                                  
 5409              		.loc 1 2078 0
 5410 01e6 0123     		movs	r3, #1
 5411              	.L383:
2079:..\..\..\..\PSoC6_101\Sensor/driver_max30102.c ****     }
2080:..\..\..\..\PSoC6_101\Sensor/driver_max30102.c **** }
 5412              		.loc 1 2080 0 discriminator 1
 5413 01e8 1846     		mov	r0, r3
 5414 01ea 1437     		adds	r7, r7, #20
 5415              		.cfi_def_cfa_offset 12
 5416 01ec BD46     		mov	sp, r7
 5417              		.cfi_def_cfa_register 13
 5418              		@ sp needed
 5419 01ee 90BD     		pop	{r4, r7, pc}
 5420              	.L385:
 5421              		.align	2
 5422              	.L384:
 5423 01f0 68070000 		.word	.LC49
 5424 01f4 8C070000 		.word	.LC50
 5425 01f8 B0070000 		.word	.LC51
 5426              		.cfi_endproc
 5427              	.LFE38:
 5428              		.size	max30102_set_slot, .-max30102_set_slot
 5429              		.section	.text.max30102_get_slot,"ax",%progbits
 5430              		.align	2
 5431              		.global	max30102_get_slot
 5432              		.thumb
 5433              		.thumb_func
 5434              		.type	max30102_get_slot, %function
 5435              	max30102_get_slot:
 5436              	.LFB39:
2081:..\..\..\..\PSoC6_101\Sensor/driver_max30102.c **** 
2082:..\..\..\..\PSoC6_101\Sensor/driver_max30102.c **** /**
2083:..\..\..\..\PSoC6_101\Sensor/driver_max30102.c ****  * @brief      get the led slot
2084:..\..\..\..\PSoC6_101\Sensor/driver_max30102.c ****  * @param[in]  *handle points to a max30102 handle structure
2085:..\..\..\..\PSoC6_101\Sensor/driver_max30102.c ****  * @param[in]  slot is the slot number
2086:..\..\..\..\PSoC6_101\Sensor/driver_max30102.c ****  * @param[out] *led points to a led mode buffer
2087:..\..\..\..\PSoC6_101\Sensor/driver_max30102.c ****  * @return     status code
2088:..\..\..\..\PSoC6_101\Sensor/driver_max30102.c ****  *             - 0 success
2089:..\..\..\..\PSoC6_101\Sensor/driver_max30102.c ****  *             - 1 get slot failed
2090:..\..\..\..\PSoC6_101\Sensor/driver_max30102.c ****  *             - 2 handle is NULL
2091:..\..\..\..\PSoC6_101\Sensor/driver_max30102.c ****  *             - 3 handle is not initialized
2092:..\..\..\..\PSoC6_101\Sensor/driver_max30102.c ****  * @note       none
2093:..\..\..\..\PSoC6_101\Sensor/driver_max30102.c ****  */
2094:..\..\..\..\PSoC6_101\Sensor/driver_max30102.c **** uint8_t max30102_get_slot(max30102_handle_t *handle, max30102_slot_t slot, max30102_led_t *led)
2095:..\..\..\..\PSoC6_101\Sensor/driver_max30102.c **** {
 5437              		.loc 1 2095 0
ARM GAS  C:\Users\49148\AppData\Local\Temp\ccWN5cWv.s 			page 137


 5438              		.cfi_startproc
 5439              		@ args = 0, pretend = 0, frame = 24
 5440              		@ frame_needed = 1, uses_anonymous_args = 0
 5441 0000 90B5     		push	{r4, r7, lr}
 5442              		.cfi_def_cfa_offset 12
 5443              		.cfi_offset 4, -12
 5444              		.cfi_offset 7, -8
 5445              		.cfi_offset 14, -4
 5446 0002 87B0     		sub	sp, sp, #28
 5447              		.cfi_def_cfa_offset 40
 5448 0004 00AF     		add	r7, sp, #0
 5449              		.cfi_def_cfa_register 7
 5450 0006 F860     		str	r0, [r7, #12]
 5451 0008 0B46     		mov	r3, r1
 5452 000a 7A60     		str	r2, [r7, #4]
 5453 000c FB72     		strb	r3, [r7, #11]
2096:..\..\..\..\PSoC6_101\Sensor/driver_max30102.c ****     uint8_t res;
2097:..\..\..\..\PSoC6_101\Sensor/driver_max30102.c ****     uint8_t prev;
2098:..\..\..\..\PSoC6_101\Sensor/driver_max30102.c ****     
2099:..\..\..\..\PSoC6_101\Sensor/driver_max30102.c ****     if (handle == NULL)                                                                            
 5454              		.loc 1 2099 0
 5455 000e FB68     		ldr	r3, [r7, #12]
 5456 0010 002B     		cmp	r3, #0
 5457 0012 01D1     		bne	.L387
2100:..\..\..\..\PSoC6_101\Sensor/driver_max30102.c ****     {
2101:..\..\..\..\PSoC6_101\Sensor/driver_max30102.c ****         return 2;                                                                                  
 5458              		.loc 1 2101 0
 5459 0014 0223     		movs	r3, #2
 5460 0016 86E0     		b	.L398
 5461              	.L387:
2102:..\..\..\..\PSoC6_101\Sensor/driver_max30102.c ****     }
2103:..\..\..\..\PSoC6_101\Sensor/driver_max30102.c ****     if (handle->inited != 1)                                                                       
 5462              		.loc 1 2103 0
 5463 0018 FB68     		ldr	r3, [r7, #12]
 5464 001a 1B7F     		ldrb	r3, [r3, #28]	@ zero_extendqisi2
 5465 001c 012B     		cmp	r3, #1
 5466 001e 01D0     		beq	.L389
2104:..\..\..\..\PSoC6_101\Sensor/driver_max30102.c ****     {
2105:..\..\..\..\PSoC6_101\Sensor/driver_max30102.c ****         return 3;                                                                                  
 5467              		.loc 1 2105 0
 5468 0020 0323     		movs	r3, #3
 5469 0022 80E0     		b	.L398
 5470              	.L389:
2106:..\..\..\..\PSoC6_101\Sensor/driver_max30102.c ****     }
2107:..\..\..\..\PSoC6_101\Sensor/driver_max30102.c ****     
2108:..\..\..\..\PSoC6_101\Sensor/driver_max30102.c ****     if (slot == MAX30102_SLOT_1)                                                                   
 5471              		.loc 1 2108 0
 5472 0024 FB7A     		ldrb	r3, [r7, #11]	@ zero_extendqisi2
 5473 0026 002B     		cmp	r3, #0
 5474 0028 1AD1     		bne	.L390
2109:..\..\..\..\PSoC6_101\Sensor/driver_max30102.c ****     {
2110:..\..\..\..\PSoC6_101\Sensor/driver_max30102.c ****         res = handle->iic_read(MAX30102_ADDRESS, MAX30102_REG_MULTI_LED_MODE_CONTROL_1, (uint8_t *)
 5475              		.loc 1 2110 0
 5476 002a FB68     		ldr	r3, [r7, #12]
 5477 002c 9C68     		ldr	r4, [r3, #8]
 5478 002e 07F11602 		add	r2, r7, #22
 5479 0032 0123     		movs	r3, #1
ARM GAS  C:\Users\49148\AppData\Local\Temp\ccWN5cWv.s 			page 138


 5480 0034 1121     		movs	r1, #17
 5481 0036 AE20     		movs	r0, #174
 5482 0038 A047     		blx	r4
 5483 003a 0346     		mov	r3, r0
 5484 003c FB75     		strb	r3, [r7, #23]
2111:..\..\..\..\PSoC6_101\Sensor/driver_max30102.c ****         if (res != 0)                                                                              
 5485              		.loc 1 2111 0
 5486 003e FB7D     		ldrb	r3, [r7, #23]	@ zero_extendqisi2
 5487 0040 002B     		cmp	r3, #0
 5488 0042 05D0     		beq	.L391
2112:..\..\..\..\PSoC6_101\Sensor/driver_max30102.c ****         {
2113:..\..\..\..\PSoC6_101\Sensor/driver_max30102.c ****             handle->debug_print("max30102: read led slot failed.\n");                              
 5489              		.loc 1 2113 0
 5490 0044 FB68     		ldr	r3, [r7, #12]
 5491 0046 9B69     		ldr	r3, [r3, #24]
 5492 0048 3948     		ldr	r0, .L399
 5493 004a 9847     		blx	r3
2114:..\..\..\..\PSoC6_101\Sensor/driver_max30102.c ****            
2115:..\..\..\..\PSoC6_101\Sensor/driver_max30102.c ****             return 1;                                                                              
 5494              		.loc 1 2115 0
 5495 004c 0123     		movs	r3, #1
 5496 004e 6AE0     		b	.L398
 5497              	.L391:
2116:..\..\..\..\PSoC6_101\Sensor/driver_max30102.c ****         }
2117:..\..\..\..\PSoC6_101\Sensor/driver_max30102.c ****         *led = (max30102_led_t)((prev >> 0) & 0x7);                                                
 5498              		.loc 1 2117 0
 5499 0050 BB7D     		ldrb	r3, [r7, #22]	@ zero_extendqisi2
 5500 0052 03F00703 		and	r3, r3, #7
 5501 0056 DAB2     		uxtb	r2, r3
 5502 0058 7B68     		ldr	r3, [r7, #4]
 5503 005a 1A70     		strb	r2, [r3]
2118:..\..\..\..\PSoC6_101\Sensor/driver_max30102.c ****         
2119:..\..\..\..\PSoC6_101\Sensor/driver_max30102.c ****         return 0;                                                                                  
 5504              		.loc 1 2119 0
 5505 005c 0023     		movs	r3, #0
 5506 005e 62E0     		b	.L398
 5507              	.L390:
2120:..\..\..\..\PSoC6_101\Sensor/driver_max30102.c ****     }
2121:..\..\..\..\PSoC6_101\Sensor/driver_max30102.c ****     else if (slot == MAX30102_SLOT_2)                                                              
 5508              		.loc 1 2121 0
 5509 0060 FB7A     		ldrb	r3, [r7, #11]	@ zero_extendqisi2
 5510 0062 012B     		cmp	r3, #1
 5511 0064 1CD1     		bne	.L392
2122:..\..\..\..\PSoC6_101\Sensor/driver_max30102.c ****     {
2123:..\..\..\..\PSoC6_101\Sensor/driver_max30102.c ****         res = handle->iic_read(MAX30102_ADDRESS, MAX30102_REG_MULTI_LED_MODE_CONTROL_1, (uint8_t *)
 5512              		.loc 1 2123 0
 5513 0066 FB68     		ldr	r3, [r7, #12]
 5514 0068 9C68     		ldr	r4, [r3, #8]
 5515 006a 07F11602 		add	r2, r7, #22
 5516 006e 0123     		movs	r3, #1
 5517 0070 1121     		movs	r1, #17
 5518 0072 AE20     		movs	r0, #174
 5519 0074 A047     		blx	r4
 5520 0076 0346     		mov	r3, r0
 5521 0078 FB75     		strb	r3, [r7, #23]
2124:..\..\..\..\PSoC6_101\Sensor/driver_max30102.c ****         if (res != 0)                                                                              
 5522              		.loc 1 2124 0
ARM GAS  C:\Users\49148\AppData\Local\Temp\ccWN5cWv.s 			page 139


 5523 007a FB7D     		ldrb	r3, [r7, #23]	@ zero_extendqisi2
 5524 007c 002B     		cmp	r3, #0
 5525 007e 05D0     		beq	.L393
2125:..\..\..\..\PSoC6_101\Sensor/driver_max30102.c ****         {
2126:..\..\..\..\PSoC6_101\Sensor/driver_max30102.c ****             handle->debug_print("max30102: read led slot failed.\n");                              
 5526              		.loc 1 2126 0
 5527 0080 FB68     		ldr	r3, [r7, #12]
 5528 0082 9B69     		ldr	r3, [r3, #24]
 5529 0084 2A48     		ldr	r0, .L399
 5530 0086 9847     		blx	r3
2127:..\..\..\..\PSoC6_101\Sensor/driver_max30102.c ****            
2128:..\..\..\..\PSoC6_101\Sensor/driver_max30102.c ****             return 1;                                                                              
 5531              		.loc 1 2128 0
 5532 0088 0123     		movs	r3, #1
 5533 008a 4CE0     		b	.L398
 5534              	.L393:
2129:..\..\..\..\PSoC6_101\Sensor/driver_max30102.c ****         }
2130:..\..\..\..\PSoC6_101\Sensor/driver_max30102.c ****         *led = (max30102_led_t)((prev >> 4) & 0x7);                                                
 5535              		.loc 1 2130 0
 5536 008c BB7D     		ldrb	r3, [r7, #22]	@ zero_extendqisi2
 5537 008e 1B09     		lsrs	r3, r3, #4
 5538 0090 DBB2     		uxtb	r3, r3
 5539 0092 03F00703 		and	r3, r3, #7
 5540 0096 DAB2     		uxtb	r2, r3
 5541 0098 7B68     		ldr	r3, [r7, #4]
 5542 009a 1A70     		strb	r2, [r3]
2131:..\..\..\..\PSoC6_101\Sensor/driver_max30102.c ****         
2132:..\..\..\..\PSoC6_101\Sensor/driver_max30102.c ****         return 0;                                                                                  
 5543              		.loc 1 2132 0
 5544 009c 0023     		movs	r3, #0
 5545 009e 42E0     		b	.L398
 5546              	.L392:
2133:..\..\..\..\PSoC6_101\Sensor/driver_max30102.c ****     }
2134:..\..\..\..\PSoC6_101\Sensor/driver_max30102.c ****     else if (slot == MAX30102_SLOT_3)                                                              
 5547              		.loc 1 2134 0
 5548 00a0 FB7A     		ldrb	r3, [r7, #11]	@ zero_extendqisi2
 5549 00a2 022B     		cmp	r3, #2
 5550 00a4 1AD1     		bne	.L394
2135:..\..\..\..\PSoC6_101\Sensor/driver_max30102.c ****     {
2136:..\..\..\..\PSoC6_101\Sensor/driver_max30102.c ****         res = handle->iic_read(MAX30102_ADDRESS, MAX30102_REG_MULTI_LED_MODE_CONTROL_2, (uint8_t *)
 5551              		.loc 1 2136 0
 5552 00a6 FB68     		ldr	r3, [r7, #12]
 5553 00a8 9C68     		ldr	r4, [r3, #8]
 5554 00aa 07F11602 		add	r2, r7, #22
 5555 00ae 0123     		movs	r3, #1
 5556 00b0 1221     		movs	r1, #18
 5557 00b2 AE20     		movs	r0, #174
 5558 00b4 A047     		blx	r4
 5559 00b6 0346     		mov	r3, r0
 5560 00b8 FB75     		strb	r3, [r7, #23]
2137:..\..\..\..\PSoC6_101\Sensor/driver_max30102.c ****         if (res != 0)                                                                              
 5561              		.loc 1 2137 0
 5562 00ba FB7D     		ldrb	r3, [r7, #23]	@ zero_extendqisi2
 5563 00bc 002B     		cmp	r3, #0
 5564 00be 05D0     		beq	.L395
2138:..\..\..\..\PSoC6_101\Sensor/driver_max30102.c ****         {
2139:..\..\..\..\PSoC6_101\Sensor/driver_max30102.c ****             handle->debug_print("max30102: read led slot failed.\n");                              
ARM GAS  C:\Users\49148\AppData\Local\Temp\ccWN5cWv.s 			page 140


 5565              		.loc 1 2139 0
 5566 00c0 FB68     		ldr	r3, [r7, #12]
 5567 00c2 9B69     		ldr	r3, [r3, #24]
 5568 00c4 1A48     		ldr	r0, .L399
 5569 00c6 9847     		blx	r3
2140:..\..\..\..\PSoC6_101\Sensor/driver_max30102.c ****            
2141:..\..\..\..\PSoC6_101\Sensor/driver_max30102.c ****             return 1;                                                                              
 5570              		.loc 1 2141 0
 5571 00c8 0123     		movs	r3, #1
 5572 00ca 2CE0     		b	.L398
 5573              	.L395:
2142:..\..\..\..\PSoC6_101\Sensor/driver_max30102.c ****         }
2143:..\..\..\..\PSoC6_101\Sensor/driver_max30102.c ****         *led = (max30102_led_t)((prev >> 0) & 0x7);                                                
 5574              		.loc 1 2143 0
 5575 00cc BB7D     		ldrb	r3, [r7, #22]	@ zero_extendqisi2
 5576 00ce 03F00703 		and	r3, r3, #7
 5577 00d2 DAB2     		uxtb	r2, r3
 5578 00d4 7B68     		ldr	r3, [r7, #4]
 5579 00d6 1A70     		strb	r2, [r3]
2144:..\..\..\..\PSoC6_101\Sensor/driver_max30102.c ****         
2145:..\..\..\..\PSoC6_101\Sensor/driver_max30102.c ****         return 0;                                                                                  
 5580              		.loc 1 2145 0
 5581 00d8 0023     		movs	r3, #0
 5582 00da 24E0     		b	.L398
 5583              	.L394:
2146:..\..\..\..\PSoC6_101\Sensor/driver_max30102.c ****     }
2147:..\..\..\..\PSoC6_101\Sensor/driver_max30102.c ****     else if (slot == MAX30102_SLOT_4)                                                              
 5584              		.loc 1 2147 0
 5585 00dc FB7A     		ldrb	r3, [r7, #11]	@ zero_extendqisi2
 5586 00de 032B     		cmp	r3, #3
 5587 00e0 1CD1     		bne	.L396
2148:..\..\..\..\PSoC6_101\Sensor/driver_max30102.c ****     {
2149:..\..\..\..\PSoC6_101\Sensor/driver_max30102.c ****         res = handle->iic_read(MAX30102_ADDRESS, MAX30102_REG_MULTI_LED_MODE_CONTROL_2, (uint8_t *)
 5588              		.loc 1 2149 0
 5589 00e2 FB68     		ldr	r3, [r7, #12]
 5590 00e4 9C68     		ldr	r4, [r3, #8]
 5591 00e6 07F11602 		add	r2, r7, #22
 5592 00ea 0123     		movs	r3, #1
 5593 00ec 1221     		movs	r1, #18
 5594 00ee AE20     		movs	r0, #174
 5595 00f0 A047     		blx	r4
 5596 00f2 0346     		mov	r3, r0
 5597 00f4 FB75     		strb	r3, [r7, #23]
2150:..\..\..\..\PSoC6_101\Sensor/driver_max30102.c ****         if (res != 0)                                                                              
 5598              		.loc 1 2150 0
 5599 00f6 FB7D     		ldrb	r3, [r7, #23]	@ zero_extendqisi2
 5600 00f8 002B     		cmp	r3, #0
 5601 00fa 05D0     		beq	.L397
2151:..\..\..\..\PSoC6_101\Sensor/driver_max30102.c ****         {
2152:..\..\..\..\PSoC6_101\Sensor/driver_max30102.c ****             handle->debug_print("max30102: read led slot failed.\n");                              
 5602              		.loc 1 2152 0
 5603 00fc FB68     		ldr	r3, [r7, #12]
 5604 00fe 9B69     		ldr	r3, [r3, #24]
 5605 0100 0B48     		ldr	r0, .L399
 5606 0102 9847     		blx	r3
2153:..\..\..\..\PSoC6_101\Sensor/driver_max30102.c ****            
2154:..\..\..\..\PSoC6_101\Sensor/driver_max30102.c ****             return 1;                                                                              
ARM GAS  C:\Users\49148\AppData\Local\Temp\ccWN5cWv.s 			page 141


 5607              		.loc 1 2154 0
 5608 0104 0123     		movs	r3, #1
 5609 0106 0EE0     		b	.L398
 5610              	.L397:
2155:..\..\..\..\PSoC6_101\Sensor/driver_max30102.c ****         }
2156:..\..\..\..\PSoC6_101\Sensor/driver_max30102.c ****         *led = (max30102_led_t)((prev >> 4) & 0x7);                                                
 5611              		.loc 1 2156 0
 5612 0108 BB7D     		ldrb	r3, [r7, #22]	@ zero_extendqisi2
 5613 010a 1B09     		lsrs	r3, r3, #4
 5614 010c DBB2     		uxtb	r3, r3
 5615 010e 03F00703 		and	r3, r3, #7
 5616 0112 DAB2     		uxtb	r2, r3
 5617 0114 7B68     		ldr	r3, [r7, #4]
 5618 0116 1A70     		strb	r2, [r3]
2157:..\..\..\..\PSoC6_101\Sensor/driver_max30102.c ****         
2158:..\..\..\..\PSoC6_101\Sensor/driver_max30102.c ****         return 0;                                                                                  
 5619              		.loc 1 2158 0
 5620 0118 0023     		movs	r3, #0
 5621 011a 04E0     		b	.L398
 5622              	.L396:
2159:..\..\..\..\PSoC6_101\Sensor/driver_max30102.c ****     }
2160:..\..\..\..\PSoC6_101\Sensor/driver_max30102.c ****     else                                                                                           
2161:..\..\..\..\PSoC6_101\Sensor/driver_max30102.c ****     {
2162:..\..\..\..\PSoC6_101\Sensor/driver_max30102.c ****         handle->debug_print("max30102: slot is invalid.\n");                                       
 5623              		.loc 1 2162 0
 5624 011c FB68     		ldr	r3, [r7, #12]
 5625 011e 9B69     		ldr	r3, [r3, #24]
 5626 0120 0448     		ldr	r0, .L399+4
 5627 0122 9847     		blx	r3
2163:..\..\..\..\PSoC6_101\Sensor/driver_max30102.c ****        
2164:..\..\..\..\PSoC6_101\Sensor/driver_max30102.c ****         return 1;                                                                                  
 5628              		.loc 1 2164 0
 5629 0124 0123     		movs	r3, #1
 5630              	.L398:
2165:..\..\..\..\PSoC6_101\Sensor/driver_max30102.c ****     }
2166:..\..\..\..\PSoC6_101\Sensor/driver_max30102.c **** }
 5631              		.loc 1 2166 0 discriminator 1
 5632 0126 1846     		mov	r0, r3
 5633 0128 1C37     		adds	r7, r7, #28
 5634              		.cfi_def_cfa_offset 12
 5635 012a BD46     		mov	sp, r7
 5636              		.cfi_def_cfa_register 13
 5637              		@ sp needed
 5638 012c 90BD     		pop	{r4, r7, pc}
 5639              	.L400:
 5640 012e 00BF     		.align	2
 5641              	.L399:
 5642 0130 68070000 		.word	.LC49
 5643 0134 B0070000 		.word	.LC51
 5644              		.cfi_endproc
 5645              	.LFE39:
 5646              		.size	max30102_get_slot, .-max30102_get_slot
 5647              		.section	.text.max30102_set_die_temperature,"ax",%progbits
 5648              		.align	2
 5649              		.global	max30102_set_die_temperature
 5650              		.thumb
 5651              		.thumb_func
ARM GAS  C:\Users\49148\AppData\Local\Temp\ccWN5cWv.s 			page 142


 5652              		.type	max30102_set_die_temperature, %function
 5653              	max30102_set_die_temperature:
 5654              	.LFB40:
2167:..\..\..\..\PSoC6_101\Sensor/driver_max30102.c **** 
2168:..\..\..\..\PSoC6_101\Sensor/driver_max30102.c **** /**
2169:..\..\..\..\PSoC6_101\Sensor/driver_max30102.c ****  * @brief     enable or disable die temperature
2170:..\..\..\..\PSoC6_101\Sensor/driver_max30102.c ****  * @param[in] *handle points to a max30102 handle structure
2171:..\..\..\..\PSoC6_101\Sensor/driver_max30102.c ****  * @param[in] enable is a bool value
2172:..\..\..\..\PSoC6_101\Sensor/driver_max30102.c ****  * @return    status code
2173:..\..\..\..\PSoC6_101\Sensor/driver_max30102.c ****  *            - 0 success
2174:..\..\..\..\PSoC6_101\Sensor/driver_max30102.c ****  *            - 1 set die temperature failed
2175:..\..\..\..\PSoC6_101\Sensor/driver_max30102.c ****  *            - 2 handle is NULL
2176:..\..\..\..\PSoC6_101\Sensor/driver_max30102.c ****  *            - 3 handle is not initialized
2177:..\..\..\..\PSoC6_101\Sensor/driver_max30102.c ****  * @note      none
2178:..\..\..\..\PSoC6_101\Sensor/driver_max30102.c ****  */
2179:..\..\..\..\PSoC6_101\Sensor/driver_max30102.c **** uint8_t max30102_set_die_temperature(max30102_handle_t *handle, max30102_bool_t enable)
2180:..\..\..\..\PSoC6_101\Sensor/driver_max30102.c **** {
 5655              		.loc 1 2180 0
 5656              		.cfi_startproc
 5657              		@ args = 0, pretend = 0, frame = 16
 5658              		@ frame_needed = 1, uses_anonymous_args = 0
 5659 0000 90B5     		push	{r4, r7, lr}
 5660              		.cfi_def_cfa_offset 12
 5661              		.cfi_offset 4, -12
 5662              		.cfi_offset 7, -8
 5663              		.cfi_offset 14, -4
 5664 0002 85B0     		sub	sp, sp, #20
 5665              		.cfi_def_cfa_offset 32
 5666 0004 00AF     		add	r7, sp, #0
 5667              		.cfi_def_cfa_register 7
 5668 0006 7860     		str	r0, [r7, #4]
 5669 0008 0B46     		mov	r3, r1
 5670 000a FB70     		strb	r3, [r7, #3]
2181:..\..\..\..\PSoC6_101\Sensor/driver_max30102.c ****     uint8_t res;
2182:..\..\..\..\PSoC6_101\Sensor/driver_max30102.c ****     uint8_t prev;
2183:..\..\..\..\PSoC6_101\Sensor/driver_max30102.c ****     
2184:..\..\..\..\PSoC6_101\Sensor/driver_max30102.c ****     if (handle == NULL)                                                                            
 5671              		.loc 1 2184 0
 5672 000c 7B68     		ldr	r3, [r7, #4]
 5673 000e 002B     		cmp	r3, #0
 5674 0010 01D1     		bne	.L402
2185:..\..\..\..\PSoC6_101\Sensor/driver_max30102.c ****     {
2186:..\..\..\..\PSoC6_101\Sensor/driver_max30102.c ****         return 2;                                                                                  
 5675              		.loc 1 2186 0
 5676 0012 0223     		movs	r3, #2
 5677 0014 36E0     		b	.L407
 5678              	.L402:
2187:..\..\..\..\PSoC6_101\Sensor/driver_max30102.c ****     }
2188:..\..\..\..\PSoC6_101\Sensor/driver_max30102.c ****     if (handle->inited != 1)                                                                       
 5679              		.loc 1 2188 0
 5680 0016 7B68     		ldr	r3, [r7, #4]
 5681 0018 1B7F     		ldrb	r3, [r3, #28]	@ zero_extendqisi2
 5682 001a 012B     		cmp	r3, #1
 5683 001c 01D0     		beq	.L404
2189:..\..\..\..\PSoC6_101\Sensor/driver_max30102.c ****     {
2190:..\..\..\..\PSoC6_101\Sensor/driver_max30102.c ****         return 3;                                                                                  
 5684              		.loc 1 2190 0
ARM GAS  C:\Users\49148\AppData\Local\Temp\ccWN5cWv.s 			page 143


 5685 001e 0323     		movs	r3, #3
 5686 0020 30E0     		b	.L407
 5687              	.L404:
2191:..\..\..\..\PSoC6_101\Sensor/driver_max30102.c ****     }
2192:..\..\..\..\PSoC6_101\Sensor/driver_max30102.c ****     
2193:..\..\..\..\PSoC6_101\Sensor/driver_max30102.c ****     res = handle->iic_read(MAX30102_ADDRESS, MAX30102_REG_DIE_TEMP_CONFIG, (uint8_t *)&prev, 1);   
 5688              		.loc 1 2193 0
 5689 0022 7B68     		ldr	r3, [r7, #4]
 5690 0024 9C68     		ldr	r4, [r3, #8]
 5691 0026 07F10E02 		add	r2, r7, #14
 5692 002a 0123     		movs	r3, #1
 5693 002c 2121     		movs	r1, #33
 5694 002e AE20     		movs	r0, #174
 5695 0030 A047     		blx	r4
 5696 0032 0346     		mov	r3, r0
 5697 0034 FB73     		strb	r3, [r7, #15]
2194:..\..\..\..\PSoC6_101\Sensor/driver_max30102.c ****     if (res != 0)                                                                                  
 5698              		.loc 1 2194 0
 5699 0036 FB7B     		ldrb	r3, [r7, #15]	@ zero_extendqisi2
 5700 0038 002B     		cmp	r3, #0
 5701 003a 05D0     		beq	.L405
2195:..\..\..\..\PSoC6_101\Sensor/driver_max30102.c ****     {
2196:..\..\..\..\PSoC6_101\Sensor/driver_max30102.c ****         handle->debug_print("max30102: read die temp config failed.\n");                           
 5702              		.loc 1 2196 0
 5703 003c 7B68     		ldr	r3, [r7, #4]
 5704 003e 9B69     		ldr	r3, [r3, #24]
 5705 0040 1248     		ldr	r0, .L408
 5706 0042 9847     		blx	r3
2197:..\..\..\..\PSoC6_101\Sensor/driver_max30102.c ****        
2198:..\..\..\..\PSoC6_101\Sensor/driver_max30102.c ****         return 1;                                                                                  
 5707              		.loc 1 2198 0
 5708 0044 0123     		movs	r3, #1
 5709 0046 1DE0     		b	.L407
 5710              	.L405:
2199:..\..\..\..\PSoC6_101\Sensor/driver_max30102.c ****     }
2200:..\..\..\..\PSoC6_101\Sensor/driver_max30102.c ****     prev &= ~(1 << 0);                                                                             
 5711              		.loc 1 2200 0
 5712 0048 BB7B     		ldrb	r3, [r7, #14]	@ zero_extendqisi2
 5713 004a 23F00103 		bic	r3, r3, #1
 5714 004e DBB2     		uxtb	r3, r3
 5715 0050 BB73     		strb	r3, [r7, #14]
2201:..\..\..\..\PSoC6_101\Sensor/driver_max30102.c ****     prev |= (enable << 0);                                                                         
 5716              		.loc 1 2201 0
 5717 0052 BA7B     		ldrb	r2, [r7, #14]	@ zero_extendqisi2
 5718 0054 FB78     		ldrb	r3, [r7, #3]
 5719 0056 1343     		orrs	r3, r3, r2
 5720 0058 DBB2     		uxtb	r3, r3
 5721 005a BB73     		strb	r3, [r7, #14]
2202:..\..\..\..\PSoC6_101\Sensor/driver_max30102.c ****     res = handle->iic_write(MAX30102_ADDRESS, MAX30102_REG_DIE_TEMP_CONFIG, (uint8_t *)&prev, 1);  
 5722              		.loc 1 2202 0
 5723 005c 7B68     		ldr	r3, [r7, #4]
 5724 005e DC68     		ldr	r4, [r3, #12]
 5725 0060 07F10E02 		add	r2, r7, #14
 5726 0064 0123     		movs	r3, #1
 5727 0066 2121     		movs	r1, #33
 5728 0068 AE20     		movs	r0, #174
 5729 006a A047     		blx	r4
ARM GAS  C:\Users\49148\AppData\Local\Temp\ccWN5cWv.s 			page 144


 5730 006c 0346     		mov	r3, r0
 5731 006e FB73     		strb	r3, [r7, #15]
2203:..\..\..\..\PSoC6_101\Sensor/driver_max30102.c ****     if (res != 0)                                                                                  
 5732              		.loc 1 2203 0
 5733 0070 FB7B     		ldrb	r3, [r7, #15]	@ zero_extendqisi2
 5734 0072 002B     		cmp	r3, #0
 5735 0074 05D0     		beq	.L406
2204:..\..\..\..\PSoC6_101\Sensor/driver_max30102.c ****     {
2205:..\..\..\..\PSoC6_101\Sensor/driver_max30102.c ****         handle->debug_print("max30102: write die temp config failed.\n");                          
 5736              		.loc 1 2205 0
 5737 0076 7B68     		ldr	r3, [r7, #4]
 5738 0078 9B69     		ldr	r3, [r3, #24]
 5739 007a 0548     		ldr	r0, .L408+4
 5740 007c 9847     		blx	r3
2206:..\..\..\..\PSoC6_101\Sensor/driver_max30102.c ****        
2207:..\..\..\..\PSoC6_101\Sensor/driver_max30102.c ****         return 1;                                                                                  
 5741              		.loc 1 2207 0
 5742 007e 0123     		movs	r3, #1
 5743 0080 00E0     		b	.L407
 5744              	.L406:
2208:..\..\..\..\PSoC6_101\Sensor/driver_max30102.c ****     }
2209:..\..\..\..\PSoC6_101\Sensor/driver_max30102.c ****     
2210:..\..\..\..\PSoC6_101\Sensor/driver_max30102.c ****     return 0;                                                                                      
 5745              		.loc 1 2210 0
 5746 0082 0023     		movs	r3, #0
 5747              	.L407:
2211:..\..\..\..\PSoC6_101\Sensor/driver_max30102.c **** }
 5748              		.loc 1 2211 0 discriminator 1
 5749 0084 1846     		mov	r0, r3
 5750 0086 1437     		adds	r7, r7, #20
 5751              		.cfi_def_cfa_offset 12
 5752 0088 BD46     		mov	sp, r7
 5753              		.cfi_def_cfa_register 13
 5754              		@ sp needed
 5755 008a 90BD     		pop	{r4, r7, pc}
 5756              	.L409:
 5757              		.align	2
 5758              	.L408:
 5759 008c 3C040000 		.word	.LC29
 5760 0090 64040000 		.word	.LC30
 5761              		.cfi_endproc
 5762              	.LFE40:
 5763              		.size	max30102_set_die_temperature, .-max30102_set_die_temperature
 5764              		.section	.text.max30102_get_die_temperature,"ax",%progbits
 5765              		.align	2
 5766              		.global	max30102_get_die_temperature
 5767              		.thumb
 5768              		.thumb_func
 5769              		.type	max30102_get_die_temperature, %function
 5770              	max30102_get_die_temperature:
 5771              	.LFB41:
2212:..\..\..\..\PSoC6_101\Sensor/driver_max30102.c **** 
2213:..\..\..\..\PSoC6_101\Sensor/driver_max30102.c **** /**
2214:..\..\..\..\PSoC6_101\Sensor/driver_max30102.c ****  * @brief      get the die temperature status
2215:..\..\..\..\PSoC6_101\Sensor/driver_max30102.c ****  * @param[in]  *handle points to a max30102 handle structure
2216:..\..\..\..\PSoC6_101\Sensor/driver_max30102.c ****  * @param[out] *enable points to a bool value buffer
2217:..\..\..\..\PSoC6_101\Sensor/driver_max30102.c ****  * @return     status code
ARM GAS  C:\Users\49148\AppData\Local\Temp\ccWN5cWv.s 			page 145


2218:..\..\..\..\PSoC6_101\Sensor/driver_max30102.c ****  *             - 0 success
2219:..\..\..\..\PSoC6_101\Sensor/driver_max30102.c ****  *             - 1 get die temperature failed
2220:..\..\..\..\PSoC6_101\Sensor/driver_max30102.c ****  *             - 2 handle is NULL
2221:..\..\..\..\PSoC6_101\Sensor/driver_max30102.c ****  *             - 3 handle is not initialized
2222:..\..\..\..\PSoC6_101\Sensor/driver_max30102.c ****  * @note       none
2223:..\..\..\..\PSoC6_101\Sensor/driver_max30102.c ****  */
2224:..\..\..\..\PSoC6_101\Sensor/driver_max30102.c **** uint8_t max30102_get_die_temperature(max30102_handle_t *handle, max30102_bool_t *enable)
2225:..\..\..\..\PSoC6_101\Sensor/driver_max30102.c **** {
 5772              		.loc 1 2225 0
 5773              		.cfi_startproc
 5774              		@ args = 0, pretend = 0, frame = 16
 5775              		@ frame_needed = 1, uses_anonymous_args = 0
 5776 0000 90B5     		push	{r4, r7, lr}
 5777              		.cfi_def_cfa_offset 12
 5778              		.cfi_offset 4, -12
 5779              		.cfi_offset 7, -8
 5780              		.cfi_offset 14, -4
 5781 0002 85B0     		sub	sp, sp, #20
 5782              		.cfi_def_cfa_offset 32
 5783 0004 00AF     		add	r7, sp, #0
 5784              		.cfi_def_cfa_register 7
 5785 0006 7860     		str	r0, [r7, #4]
 5786 0008 3960     		str	r1, [r7]
2226:..\..\..\..\PSoC6_101\Sensor/driver_max30102.c ****     uint8_t res;
2227:..\..\..\..\PSoC6_101\Sensor/driver_max30102.c ****     uint8_t prev;
2228:..\..\..\..\PSoC6_101\Sensor/driver_max30102.c ****     
2229:..\..\..\..\PSoC6_101\Sensor/driver_max30102.c ****     if (handle == NULL)                                                                            
 5787              		.loc 1 2229 0
 5788 000a 7B68     		ldr	r3, [r7, #4]
 5789 000c 002B     		cmp	r3, #0
 5790 000e 01D1     		bne	.L411
2230:..\..\..\..\PSoC6_101\Sensor/driver_max30102.c ****     {
2231:..\..\..\..\PSoC6_101\Sensor/driver_max30102.c ****         return 2;                                                                                  
 5791              		.loc 1 2231 0
 5792 0010 0223     		movs	r3, #2
 5793 0012 1FE0     		b	.L415
 5794              	.L411:
2232:..\..\..\..\PSoC6_101\Sensor/driver_max30102.c ****     }
2233:..\..\..\..\PSoC6_101\Sensor/driver_max30102.c ****     if (handle->inited != 1)                                                                       
 5795              		.loc 1 2233 0
 5796 0014 7B68     		ldr	r3, [r7, #4]
 5797 0016 1B7F     		ldrb	r3, [r3, #28]	@ zero_extendqisi2
 5798 0018 012B     		cmp	r3, #1
 5799 001a 01D0     		beq	.L413
2234:..\..\..\..\PSoC6_101\Sensor/driver_max30102.c ****     {
2235:..\..\..\..\PSoC6_101\Sensor/driver_max30102.c ****         return 3;                                                                                  
 5800              		.loc 1 2235 0
 5801 001c 0323     		movs	r3, #3
 5802 001e 19E0     		b	.L415
 5803              	.L413:
2236:..\..\..\..\PSoC6_101\Sensor/driver_max30102.c ****     }
2237:..\..\..\..\PSoC6_101\Sensor/driver_max30102.c ****     
2238:..\..\..\..\PSoC6_101\Sensor/driver_max30102.c ****     res = handle->iic_read(MAX30102_ADDRESS, MAX30102_REG_DIE_TEMP_CONFIG, (uint8_t *)&prev, 1);   
 5804              		.loc 1 2238 0
 5805 0020 7B68     		ldr	r3, [r7, #4]
 5806 0022 9C68     		ldr	r4, [r3, #8]
 5807 0024 07F10E02 		add	r2, r7, #14
ARM GAS  C:\Users\49148\AppData\Local\Temp\ccWN5cWv.s 			page 146


 5808 0028 0123     		movs	r3, #1
 5809 002a 2121     		movs	r1, #33
 5810 002c AE20     		movs	r0, #174
 5811 002e A047     		blx	r4
 5812 0030 0346     		mov	r3, r0
 5813 0032 FB73     		strb	r3, [r7, #15]
2239:..\..\..\..\PSoC6_101\Sensor/driver_max30102.c ****     if (res != 0)                                                                                  
 5814              		.loc 1 2239 0
 5815 0034 FB7B     		ldrb	r3, [r7, #15]	@ zero_extendqisi2
 5816 0036 002B     		cmp	r3, #0
 5817 0038 05D0     		beq	.L414
2240:..\..\..\..\PSoC6_101\Sensor/driver_max30102.c ****     {
2241:..\..\..\..\PSoC6_101\Sensor/driver_max30102.c ****         handle->debug_print("max30102: read die temp config failed.\n");                           
 5818              		.loc 1 2241 0
 5819 003a 7B68     		ldr	r3, [r7, #4]
 5820 003c 9B69     		ldr	r3, [r3, #24]
 5821 003e 0748     		ldr	r0, .L416
 5822 0040 9847     		blx	r3
2242:..\..\..\..\PSoC6_101\Sensor/driver_max30102.c ****        
2243:..\..\..\..\PSoC6_101\Sensor/driver_max30102.c ****         return 1;                                                                                  
 5823              		.loc 1 2243 0
 5824 0042 0123     		movs	r3, #1
 5825 0044 06E0     		b	.L415
 5826              	.L414:
2244:..\..\..\..\PSoC6_101\Sensor/driver_max30102.c ****     }
2245:..\..\..\..\PSoC6_101\Sensor/driver_max30102.c ****     *enable = (max30102_bool_t)((prev >> 0) & 0x1);                                                
 5827              		.loc 1 2245 0
 5828 0046 BB7B     		ldrb	r3, [r7, #14]	@ zero_extendqisi2
 5829 0048 03F00103 		and	r3, r3, #1
 5830 004c DAB2     		uxtb	r2, r3
 5831 004e 3B68     		ldr	r3, [r7]
 5832 0050 1A70     		strb	r2, [r3]
2246:..\..\..\..\PSoC6_101\Sensor/driver_max30102.c ****     
2247:..\..\..\..\PSoC6_101\Sensor/driver_max30102.c ****     return 0;                                                                                      
 5833              		.loc 1 2247 0
 5834 0052 0023     		movs	r3, #0
 5835              	.L415:
2248:..\..\..\..\PSoC6_101\Sensor/driver_max30102.c **** }
 5836              		.loc 1 2248 0 discriminator 1
 5837 0054 1846     		mov	r0, r3
 5838 0056 1437     		adds	r7, r7, #20
 5839              		.cfi_def_cfa_offset 12
 5840 0058 BD46     		mov	sp, r7
 5841              		.cfi_def_cfa_register 13
 5842              		@ sp needed
 5843 005a 90BD     		pop	{r4, r7, pc}
 5844              	.L417:
 5845              		.align	2
 5846              	.L416:
 5847 005c 3C040000 		.word	.LC29
 5848              		.cfi_endproc
 5849              	.LFE41:
 5850              		.size	max30102_get_die_temperature, .-max30102_get_die_temperature
 5851              		.section	.rodata
 5852              		.align	2
 5853              	.LC52:
 5854 07cc 6D617833 		.ascii	"max30102: read revision id failed.\012\000"
ARM GAS  C:\Users\49148\AppData\Local\Temp\ccWN5cWv.s 			page 147


 5854      30313032 
 5854      3A207265 
 5854      61642072 
 5854      65766973 
 5855              		.section	.text.max30102_get_id,"ax",%progbits
 5856              		.align	2
 5857              		.global	max30102_get_id
 5858              		.thumb
 5859              		.thumb_func
 5860              		.type	max30102_get_id, %function
 5861              	max30102_get_id:
 5862              	.LFB42:
2249:..\..\..\..\PSoC6_101\Sensor/driver_max30102.c **** 
2250:..\..\..\..\PSoC6_101\Sensor/driver_max30102.c **** /**
2251:..\..\..\..\PSoC6_101\Sensor/driver_max30102.c ****  * @brief      get the chip id
2252:..\..\..\..\PSoC6_101\Sensor/driver_max30102.c ****  * @param[in]  *handle points to a max30102 handle structure
2253:..\..\..\..\PSoC6_101\Sensor/driver_max30102.c ****  * @param[out] *revision_id points to a revision id buffer
2254:..\..\..\..\PSoC6_101\Sensor/driver_max30102.c ****  * @param[out] *part_id points to a part id buffer
2255:..\..\..\..\PSoC6_101\Sensor/driver_max30102.c ****  * @return     status code
2256:..\..\..\..\PSoC6_101\Sensor/driver_max30102.c ****  *             - 0 success
2257:..\..\..\..\PSoC6_101\Sensor/driver_max30102.c ****  *             - 1 get id failed
2258:..\..\..\..\PSoC6_101\Sensor/driver_max30102.c ****  *             - 2 handle is NULL
2259:..\..\..\..\PSoC6_101\Sensor/driver_max30102.c ****  *             - 3 handle is not initialized
2260:..\..\..\..\PSoC6_101\Sensor/driver_max30102.c ****  * @note       none
2261:..\..\..\..\PSoC6_101\Sensor/driver_max30102.c ****  */
2262:..\..\..\..\PSoC6_101\Sensor/driver_max30102.c **** uint8_t max30102_get_id(max30102_handle_t *handle, uint8_t *revision_id, uint8_t *part_id)
2263:..\..\..\..\PSoC6_101\Sensor/driver_max30102.c **** {
 5863              		.loc 1 2263 0
 5864              		.cfi_startproc
 5865              		@ args = 0, pretend = 0, frame = 24
 5866              		@ frame_needed = 1, uses_anonymous_args = 0
 5867 0000 90B5     		push	{r4, r7, lr}
 5868              		.cfi_def_cfa_offset 12
 5869              		.cfi_offset 4, -12
 5870              		.cfi_offset 7, -8
 5871              		.cfi_offset 14, -4
 5872 0002 87B0     		sub	sp, sp, #28
 5873              		.cfi_def_cfa_offset 40
 5874 0004 00AF     		add	r7, sp, #0
 5875              		.cfi_def_cfa_register 7
 5876 0006 F860     		str	r0, [r7, #12]
 5877 0008 B960     		str	r1, [r7, #8]
 5878 000a 7A60     		str	r2, [r7, #4]
2264:..\..\..\..\PSoC6_101\Sensor/driver_max30102.c ****     uint8_t res;
2265:..\..\..\..\PSoC6_101\Sensor/driver_max30102.c ****     
2266:..\..\..\..\PSoC6_101\Sensor/driver_max30102.c ****     if (handle == NULL)                                                                            
 5879              		.loc 1 2266 0
 5880 000c FB68     		ldr	r3, [r7, #12]
 5881 000e 002B     		cmp	r3, #0
 5882 0010 01D1     		bne	.L419
2267:..\..\..\..\PSoC6_101\Sensor/driver_max30102.c ****     {
2268:..\..\..\..\PSoC6_101\Sensor/driver_max30102.c ****         return 2;                                                                                  
 5883              		.loc 1 2268 0
 5884 0012 0223     		movs	r3, #2
 5885 0014 2AE0     		b	.L420
 5886              	.L419:
2269:..\..\..\..\PSoC6_101\Sensor/driver_max30102.c ****     }
ARM GAS  C:\Users\49148\AppData\Local\Temp\ccWN5cWv.s 			page 148


2270:..\..\..\..\PSoC6_101\Sensor/driver_max30102.c ****     if (handle->inited != 1)                                                                       
 5887              		.loc 1 2270 0
 5888 0016 FB68     		ldr	r3, [r7, #12]
 5889 0018 1B7F     		ldrb	r3, [r3, #28]	@ zero_extendqisi2
 5890 001a 012B     		cmp	r3, #1
 5891 001c 01D0     		beq	.L421
2271:..\..\..\..\PSoC6_101\Sensor/driver_max30102.c ****     {
2272:..\..\..\..\PSoC6_101\Sensor/driver_max30102.c ****         return 3;                                                                                  
 5892              		.loc 1 2272 0
 5893 001e 0323     		movs	r3, #3
 5894 0020 24E0     		b	.L420
 5895              	.L421:
2273:..\..\..\..\PSoC6_101\Sensor/driver_max30102.c ****     }
2274:..\..\..\..\PSoC6_101\Sensor/driver_max30102.c ****     
2275:..\..\..\..\PSoC6_101\Sensor/driver_max30102.c ****     res = handle->iic_read(MAX30102_ADDRESS, MAX30102_REG_REVISION_ID, (uint8_t *)revision_id, 1); 
 5896              		.loc 1 2275 0
 5897 0022 FB68     		ldr	r3, [r7, #12]
 5898 0024 9C68     		ldr	r4, [r3, #8]
 5899 0026 0123     		movs	r3, #1
 5900 0028 BA68     		ldr	r2, [r7, #8]
 5901 002a FE21     		movs	r1, #254
 5902 002c AE20     		movs	r0, #174
 5903 002e A047     		blx	r4
 5904 0030 0346     		mov	r3, r0
 5905 0032 FB75     		strb	r3, [r7, #23]
2276:..\..\..\..\PSoC6_101\Sensor/driver_max30102.c ****     if (res != 0)                                                                                  
 5906              		.loc 1 2276 0
 5907 0034 FB7D     		ldrb	r3, [r7, #23]	@ zero_extendqisi2
 5908 0036 002B     		cmp	r3, #0
 5909 0038 05D0     		beq	.L422
2277:..\..\..\..\PSoC6_101\Sensor/driver_max30102.c ****     {
2278:..\..\..\..\PSoC6_101\Sensor/driver_max30102.c ****         handle->debug_print("max30102: read revision id failed.\n");                               
 5910              		.loc 1 2278 0
 5911 003a FB68     		ldr	r3, [r7, #12]
 5912 003c 9B69     		ldr	r3, [r3, #24]
 5913 003e 0D48     		ldr	r0, .L424
 5914 0040 9847     		blx	r3
2279:..\..\..\..\PSoC6_101\Sensor/driver_max30102.c ****        
2280:..\..\..\..\PSoC6_101\Sensor/driver_max30102.c ****         return 1;                                                                                  
 5915              		.loc 1 2280 0
 5916 0042 0123     		movs	r3, #1
 5917 0044 12E0     		b	.L420
 5918              	.L422:
2281:..\..\..\..\PSoC6_101\Sensor/driver_max30102.c ****     }
2282:..\..\..\..\PSoC6_101\Sensor/driver_max30102.c ****     res = handle->iic_read(MAX30102_ADDRESS, MAX30102_REG_PART_ID, (uint8_t *)part_id, 1);         
 5919              		.loc 1 2282 0
 5920 0046 FB68     		ldr	r3, [r7, #12]
 5921 0048 9C68     		ldr	r4, [r3, #8]
 5922 004a 0123     		movs	r3, #1
 5923 004c 7A68     		ldr	r2, [r7, #4]
 5924 004e FF21     		movs	r1, #255
 5925 0050 AE20     		movs	r0, #174
 5926 0052 A047     		blx	r4
 5927 0054 0346     		mov	r3, r0
 5928 0056 FB75     		strb	r3, [r7, #23]
2283:..\..\..\..\PSoC6_101\Sensor/driver_max30102.c ****     if (res != 0)                                                                                  
 5929              		.loc 1 2283 0
ARM GAS  C:\Users\49148\AppData\Local\Temp\ccWN5cWv.s 			page 149


 5930 0058 FB7D     		ldrb	r3, [r7, #23]	@ zero_extendqisi2
 5931 005a 002B     		cmp	r3, #0
 5932 005c 05D0     		beq	.L423
2284:..\..\..\..\PSoC6_101\Sensor/driver_max30102.c ****     {
2285:..\..\..\..\PSoC6_101\Sensor/driver_max30102.c ****         handle->debug_print("max30102: read part id failed.\n");                                   
 5933              		.loc 1 2285 0
 5934 005e FB68     		ldr	r3, [r7, #12]
 5935 0060 9B69     		ldr	r3, [r3, #24]
 5936 0062 0548     		ldr	r0, .L424+4
 5937 0064 9847     		blx	r3
2286:..\..\..\..\PSoC6_101\Sensor/driver_max30102.c ****        
2287:..\..\..\..\PSoC6_101\Sensor/driver_max30102.c ****         return 1;                                                                                  
 5938              		.loc 1 2287 0
 5939 0066 0123     		movs	r3, #1
 5940 0068 00E0     		b	.L420
 5941              	.L423:
2288:..\..\..\..\PSoC6_101\Sensor/driver_max30102.c ****     }
2289:..\..\..\..\PSoC6_101\Sensor/driver_max30102.c ****     
2290:..\..\..\..\PSoC6_101\Sensor/driver_max30102.c ****     return 0;                                                                                      
 5942              		.loc 1 2290 0
 5943 006a 0023     		movs	r3, #0
 5944              	.L420:
2291:..\..\..\..\PSoC6_101\Sensor/driver_max30102.c **** }
 5945              		.loc 1 2291 0
 5946 006c 1846     		mov	r0, r3
 5947 006e 1C37     		adds	r7, r7, #28
 5948              		.cfi_def_cfa_offset 12
 5949 0070 BD46     		mov	sp, r7
 5950              		.cfi_def_cfa_register 13
 5951              		@ sp needed
 5952 0072 90BD     		pop	{r4, r7, pc}
 5953              	.L425:
 5954              		.align	2
 5955              	.L424:
 5956 0074 CC070000 		.word	.LC52
 5957 0078 E4000000 		.word	.LC7
 5958              		.cfi_endproc
 5959              	.LFE42:
 5960              		.size	max30102_get_id, .-max30102_get_id
 5961              		.section	.text.max30102_set_reg,"ax",%progbits
 5962              		.align	2
 5963              		.global	max30102_set_reg
 5964              		.thumb
 5965              		.thumb_func
 5966              		.type	max30102_set_reg, %function
 5967              	max30102_set_reg:
 5968              	.LFB43:
2292:..\..\..\..\PSoC6_101\Sensor/driver_max30102.c **** 
2293:..\..\..\..\PSoC6_101\Sensor/driver_max30102.c **** /**
2294:..\..\..\..\PSoC6_101\Sensor/driver_max30102.c ****  * @brief     set the chip register
2295:..\..\..\..\PSoC6_101\Sensor/driver_max30102.c ****  * @param[in] *handle points to a max30102 handle structure
2296:..\..\..\..\PSoC6_101\Sensor/driver_max30102.c ****  * @param[in] reg is the iic register address
2297:..\..\..\..\PSoC6_101\Sensor/driver_max30102.c ****  * @param[in] *buf points to a data buffer
2298:..\..\..\..\PSoC6_101\Sensor/driver_max30102.c ****  * @param[in] len is the data buffer length
2299:..\..\..\..\PSoC6_101\Sensor/driver_max30102.c ****  * @return    status code
2300:..\..\..\..\PSoC6_101\Sensor/driver_max30102.c ****  *            - 0 success
2301:..\..\..\..\PSoC6_101\Sensor/driver_max30102.c ****  *            - 1 write failed
ARM GAS  C:\Users\49148\AppData\Local\Temp\ccWN5cWv.s 			page 150


2302:..\..\..\..\PSoC6_101\Sensor/driver_max30102.c ****  *            - 2 handle is NULL
2303:..\..\..\..\PSoC6_101\Sensor/driver_max30102.c ****  *            - 3 handle is not initialized
2304:..\..\..\..\PSoC6_101\Sensor/driver_max30102.c ****  * @note      none
2305:..\..\..\..\PSoC6_101\Sensor/driver_max30102.c ****  */
2306:..\..\..\..\PSoC6_101\Sensor/driver_max30102.c **** uint8_t max30102_set_reg(max30102_handle_t *handle, uint8_t reg, uint8_t *buf, uint16_t len)
2307:..\..\..\..\PSoC6_101\Sensor/driver_max30102.c **** {
 5969              		.loc 1 2307 0
 5970              		.cfi_startproc
 5971              		@ args = 0, pretend = 0, frame = 16
 5972              		@ frame_needed = 1, uses_anonymous_args = 0
 5973 0000 90B5     		push	{r4, r7, lr}
 5974              		.cfi_def_cfa_offset 12
 5975              		.cfi_offset 4, -12
 5976              		.cfi_offset 7, -8
 5977              		.cfi_offset 14, -4
 5978 0002 85B0     		sub	sp, sp, #20
 5979              		.cfi_def_cfa_offset 32
 5980 0004 00AF     		add	r7, sp, #0
 5981              		.cfi_def_cfa_register 7
 5982 0006 F860     		str	r0, [r7, #12]
 5983 0008 7A60     		str	r2, [r7, #4]
 5984 000a 1A46     		mov	r2, r3
 5985 000c 0B46     		mov	r3, r1
 5986 000e FB72     		strb	r3, [r7, #11]
 5987 0010 1346     		mov	r3, r2	@ movhi
 5988 0012 3B81     		strh	r3, [r7, #8]	@ movhi
2308:..\..\..\..\PSoC6_101\Sensor/driver_max30102.c ****     if (handle == NULL)                                            /* check handle */
 5989              		.loc 1 2308 0
 5990 0014 FB68     		ldr	r3, [r7, #12]
 5991 0016 002B     		cmp	r3, #0
 5992 0018 01D1     		bne	.L427
2309:..\..\..\..\PSoC6_101\Sensor/driver_max30102.c ****     {
2310:..\..\..\..\PSoC6_101\Sensor/driver_max30102.c ****         return 2;                                                  /* return error */
 5993              		.loc 1 2310 0
 5994 001a 0223     		movs	r3, #2
 5995 001c 12E0     		b	.L428
 5996              	.L427:
2311:..\..\..\..\PSoC6_101\Sensor/driver_max30102.c ****     }
2312:..\..\..\..\PSoC6_101\Sensor/driver_max30102.c ****     if (handle->inited != 1)                                       /* check handle initialization *
 5997              		.loc 1 2312 0
 5998 001e FB68     		ldr	r3, [r7, #12]
 5999 0020 1B7F     		ldrb	r3, [r3, #28]	@ zero_extendqisi2
 6000 0022 012B     		cmp	r3, #1
 6001 0024 01D0     		beq	.L429
2313:..\..\..\..\PSoC6_101\Sensor/driver_max30102.c ****     {
2314:..\..\..\..\PSoC6_101\Sensor/driver_max30102.c ****         return 3;                                                  /* return error */
 6002              		.loc 1 2314 0
 6003 0026 0323     		movs	r3, #3
 6004 0028 0CE0     		b	.L428
 6005              	.L429:
2315:..\..\..\..\PSoC6_101\Sensor/driver_max30102.c ****     }
2316:..\..\..\..\PSoC6_101\Sensor/driver_max30102.c ****     
2317:..\..\..\..\PSoC6_101\Sensor/driver_max30102.c ****     if (handle->iic_write(MAX30102_ADDRESS, reg, buf, len) != 0)   /* write data */
 6006              		.loc 1 2317 0
 6007 002a FB68     		ldr	r3, [r7, #12]
 6008 002c DC68     		ldr	r4, [r3, #12]
 6009 002e 3B89     		ldrh	r3, [r7, #8]
ARM GAS  C:\Users\49148\AppData\Local\Temp\ccWN5cWv.s 			page 151


 6010 0030 F97A     		ldrb	r1, [r7, #11]	@ zero_extendqisi2
 6011 0032 7A68     		ldr	r2, [r7, #4]
 6012 0034 AE20     		movs	r0, #174
 6013 0036 A047     		blx	r4
 6014 0038 0346     		mov	r3, r0
 6015 003a 002B     		cmp	r3, #0
 6016 003c 01D0     		beq	.L430
2318:..\..\..\..\PSoC6_101\Sensor/driver_max30102.c ****     {
2319:..\..\..\..\PSoC6_101\Sensor/driver_max30102.c ****         return 1;                                                  /* return error */
 6017              		.loc 1 2319 0
 6018 003e 0123     		movs	r3, #1
 6019 0040 00E0     		b	.L428
 6020              	.L430:
2320:..\..\..\..\PSoC6_101\Sensor/driver_max30102.c ****     }
2321:..\..\..\..\PSoC6_101\Sensor/driver_max30102.c ****     else
2322:..\..\..\..\PSoC6_101\Sensor/driver_max30102.c ****     {
2323:..\..\..\..\PSoC6_101\Sensor/driver_max30102.c ****         return 0;                                                  /* success return 0 */
 6021              		.loc 1 2323 0
 6022 0042 0023     		movs	r3, #0
 6023              	.L428:
2324:..\..\..\..\PSoC6_101\Sensor/driver_max30102.c ****     }
2325:..\..\..\..\PSoC6_101\Sensor/driver_max30102.c **** }
 6024              		.loc 1 2325 0
 6025 0044 1846     		mov	r0, r3
 6026 0046 1437     		adds	r7, r7, #20
 6027              		.cfi_def_cfa_offset 12
 6028 0048 BD46     		mov	sp, r7
 6029              		.cfi_def_cfa_register 13
 6030              		@ sp needed
 6031 004a 90BD     		pop	{r4, r7, pc}
 6032              		.cfi_endproc
 6033              	.LFE43:
 6034              		.size	max30102_set_reg, .-max30102_set_reg
 6035              		.section	.text.max30102_get_reg,"ax",%progbits
 6036              		.align	2
 6037              		.global	max30102_get_reg
 6038              		.thumb
 6039              		.thumb_func
 6040              		.type	max30102_get_reg, %function
 6041              	max30102_get_reg:
 6042              	.LFB44:
2326:..\..\..\..\PSoC6_101\Sensor/driver_max30102.c **** 
2327:..\..\..\..\PSoC6_101\Sensor/driver_max30102.c **** /**
2328:..\..\..\..\PSoC6_101\Sensor/driver_max30102.c ****  * @brief      get the chip register
2329:..\..\..\..\PSoC6_101\Sensor/driver_max30102.c ****  * @param[in]  *handle points to a max30102 handle structure
2330:..\..\..\..\PSoC6_101\Sensor/driver_max30102.c ****  * @param[in]  reg is the iic register address
2331:..\..\..\..\PSoC6_101\Sensor/driver_max30102.c ****  * @param[out] *buf points to a data buffer
2332:..\..\..\..\PSoC6_101\Sensor/driver_max30102.c ****  * @param[in]  len is the data buffer length
2333:..\..\..\..\PSoC6_101\Sensor/driver_max30102.c ****  * @return     status code
2334:..\..\..\..\PSoC6_101\Sensor/driver_max30102.c ****  *             - 0 success
2335:..\..\..\..\PSoC6_101\Sensor/driver_max30102.c ****  *             - 1 read failed
2336:..\..\..\..\PSoC6_101\Sensor/driver_max30102.c ****  *             - 2 handle is NULL
2337:..\..\..\..\PSoC6_101\Sensor/driver_max30102.c ****  *             - 3 handle is not initialized
2338:..\..\..\..\PSoC6_101\Sensor/driver_max30102.c ****  * @note       none
2339:..\..\..\..\PSoC6_101\Sensor/driver_max30102.c ****  */
2340:..\..\..\..\PSoC6_101\Sensor/driver_max30102.c **** uint8_t max30102_get_reg(max30102_handle_t *handle, uint8_t reg, uint8_t *buf, uint16_t len)
2341:..\..\..\..\PSoC6_101\Sensor/driver_max30102.c **** {
ARM GAS  C:\Users\49148\AppData\Local\Temp\ccWN5cWv.s 			page 152


 6043              		.loc 1 2341 0
 6044              		.cfi_startproc
 6045              		@ args = 0, pretend = 0, frame = 16
 6046              		@ frame_needed = 1, uses_anonymous_args = 0
 6047 0000 90B5     		push	{r4, r7, lr}
 6048              		.cfi_def_cfa_offset 12
 6049              		.cfi_offset 4, -12
 6050              		.cfi_offset 7, -8
 6051              		.cfi_offset 14, -4
 6052 0002 85B0     		sub	sp, sp, #20
 6053              		.cfi_def_cfa_offset 32
 6054 0004 00AF     		add	r7, sp, #0
 6055              		.cfi_def_cfa_register 7
 6056 0006 F860     		str	r0, [r7, #12]
 6057 0008 7A60     		str	r2, [r7, #4]
 6058 000a 1A46     		mov	r2, r3
 6059 000c 0B46     		mov	r3, r1
 6060 000e FB72     		strb	r3, [r7, #11]
 6061 0010 1346     		mov	r3, r2	@ movhi
 6062 0012 3B81     		strh	r3, [r7, #8]	@ movhi
2342:..\..\..\..\PSoC6_101\Sensor/driver_max30102.c ****     if (handle == NULL)                                           /* check handle */
 6063              		.loc 1 2342 0
 6064 0014 FB68     		ldr	r3, [r7, #12]
 6065 0016 002B     		cmp	r3, #0
 6066 0018 01D1     		bne	.L432
2343:..\..\..\..\PSoC6_101\Sensor/driver_max30102.c ****     {
2344:..\..\..\..\PSoC6_101\Sensor/driver_max30102.c ****         return 2;                                                 /* return error */
 6067              		.loc 1 2344 0
 6068 001a 0223     		movs	r3, #2
 6069 001c 12E0     		b	.L433
 6070              	.L432:
2345:..\..\..\..\PSoC6_101\Sensor/driver_max30102.c ****     }
2346:..\..\..\..\PSoC6_101\Sensor/driver_max30102.c ****     if (handle->inited != 1)                                      /* check handle initialization */
 6071              		.loc 1 2346 0
 6072 001e FB68     		ldr	r3, [r7, #12]
 6073 0020 1B7F     		ldrb	r3, [r3, #28]	@ zero_extendqisi2
 6074 0022 012B     		cmp	r3, #1
 6075 0024 01D0     		beq	.L434
2347:..\..\..\..\PSoC6_101\Sensor/driver_max30102.c ****     {
2348:..\..\..\..\PSoC6_101\Sensor/driver_max30102.c ****         return 3;                                                 /* return error */
 6076              		.loc 1 2348 0
 6077 0026 0323     		movs	r3, #3
 6078 0028 0CE0     		b	.L433
 6079              	.L434:
2349:..\..\..\..\PSoC6_101\Sensor/driver_max30102.c ****     }
2350:..\..\..\..\PSoC6_101\Sensor/driver_max30102.c ****     
2351:..\..\..\..\PSoC6_101\Sensor/driver_max30102.c ****     if (handle->iic_read(MAX30102_ADDRESS, reg, buf, len) != 0)   /* read data */
 6080              		.loc 1 2351 0
 6081 002a FB68     		ldr	r3, [r7, #12]
 6082 002c 9C68     		ldr	r4, [r3, #8]
 6083 002e 3B89     		ldrh	r3, [r7, #8]
 6084 0030 F97A     		ldrb	r1, [r7, #11]	@ zero_extendqisi2
 6085 0032 7A68     		ldr	r2, [r7, #4]
 6086 0034 AE20     		movs	r0, #174
 6087 0036 A047     		blx	r4
 6088 0038 0346     		mov	r3, r0
 6089 003a 002B     		cmp	r3, #0
ARM GAS  C:\Users\49148\AppData\Local\Temp\ccWN5cWv.s 			page 153


 6090 003c 01D0     		beq	.L435
2352:..\..\..\..\PSoC6_101\Sensor/driver_max30102.c ****     {
2353:..\..\..\..\PSoC6_101\Sensor/driver_max30102.c ****         return 1;                                                 /* return error */
 6091              		.loc 1 2353 0
 6092 003e 0123     		movs	r3, #1
 6093 0040 00E0     		b	.L433
 6094              	.L435:
2354:..\..\..\..\PSoC6_101\Sensor/driver_max30102.c ****     }
2355:..\..\..\..\PSoC6_101\Sensor/driver_max30102.c ****     else
2356:..\..\..\..\PSoC6_101\Sensor/driver_max30102.c ****     {
2357:..\..\..\..\PSoC6_101\Sensor/driver_max30102.c ****         return 0;                                                 /* success return 0 */
 6095              		.loc 1 2357 0
 6096 0042 0023     		movs	r3, #0
 6097              	.L433:
2358:..\..\..\..\PSoC6_101\Sensor/driver_max30102.c ****     }
2359:..\..\..\..\PSoC6_101\Sensor/driver_max30102.c **** }
 6098              		.loc 1 2359 0
 6099 0044 1846     		mov	r0, r3
 6100 0046 1437     		adds	r7, r7, #20
 6101              		.cfi_def_cfa_offset 12
 6102 0048 BD46     		mov	sp, r7
 6103              		.cfi_def_cfa_register 13
 6104              		@ sp needed
 6105 004a 90BD     		pop	{r4, r7, pc}
 6106              		.cfi_endproc
 6107              	.LFE44:
 6108              		.size	max30102_get_reg, .-max30102_get_reg
 6109              		.section	.rodata
 6110              		.align	2
 6111              	.LC53:
 6112 07f0 4D617869 		.ascii	"Maxim Integrated MAX30102\000"
 6112      6D20496E 
 6112      74656772 
 6112      61746564 
 6112      204D4158 
 6113 080a 0000     		.align	2
 6114              	.LC54:
 6115 080c 4D617869 		.ascii	"Maxim Integrated\000"
 6115      6D20496E 
 6115      74656772 
 6115      61746564 
 6115      00
 6116 081d 000000   		.align	2
 6117              	.LC55:
 6118 0820 49494300 		.ascii	"IIC\000"
 6119              		.section	.text.max30102_info,"ax",%progbits
 6120              		.align	2
 6121              		.global	max30102_info
 6122              		.thumb
 6123              		.thumb_func
 6124              		.type	max30102_info, %function
 6125              	max30102_info:
 6126              	.LFB45:
2360:..\..\..\..\PSoC6_101\Sensor/driver_max30102.c **** 
2361:..\..\..\..\PSoC6_101\Sensor/driver_max30102.c **** /**
2362:..\..\..\..\PSoC6_101\Sensor/driver_max30102.c ****  * @brief      get chip's information
2363:..\..\..\..\PSoC6_101\Sensor/driver_max30102.c ****  * @param[out] *info points to a max30102 info structure
ARM GAS  C:\Users\49148\AppData\Local\Temp\ccWN5cWv.s 			page 154


2364:..\..\..\..\PSoC6_101\Sensor/driver_max30102.c ****  * @return     status code
2365:..\..\..\..\PSoC6_101\Sensor/driver_max30102.c ****  *             - 0 success
2366:..\..\..\..\PSoC6_101\Sensor/driver_max30102.c ****  *             - 2 handle is NULL
2367:..\..\..\..\PSoC6_101\Sensor/driver_max30102.c ****  * @note       none
2368:..\..\..\..\PSoC6_101\Sensor/driver_max30102.c ****  */
2369:..\..\..\..\PSoC6_101\Sensor/driver_max30102.c **** uint8_t max30102_info(max30102_info_t *info)
2370:..\..\..\..\PSoC6_101\Sensor/driver_max30102.c **** {
 6127              		.loc 1 2370 0
 6128              		.cfi_startproc
 6129              		@ args = 0, pretend = 0, frame = 8
 6130              		@ frame_needed = 1, uses_anonymous_args = 0
 6131 0000 80B5     		push	{r7, lr}
 6132              		.cfi_def_cfa_offset 8
 6133              		.cfi_offset 7, -8
 6134              		.cfi_offset 14, -4
 6135 0002 82B0     		sub	sp, sp, #8
 6136              		.cfi_def_cfa_offset 16
 6137 0004 00AF     		add	r7, sp, #0
 6138              		.cfi_def_cfa_register 7
 6139 0006 7860     		str	r0, [r7, #4]
2371:..\..\..\..\PSoC6_101\Sensor/driver_max30102.c ****     if (info == NULL)                                               /* check handle */
 6140              		.loc 1 2371 0
 6141 0008 7B68     		ldr	r3, [r7, #4]
 6142 000a 002B     		cmp	r3, #0
 6143 000c 01D1     		bne	.L437
2372:..\..\..\..\PSoC6_101\Sensor/driver_max30102.c ****     {
2373:..\..\..\..\PSoC6_101\Sensor/driver_max30102.c ****         return 2;                                                   /* return error */
 6144              		.loc 1 2373 0
 6145 000e 0223     		movs	r3, #2
 6146 0010 2DE0     		b	.L438
 6147              	.L437:
2374:..\..\..\..\PSoC6_101\Sensor/driver_max30102.c ****     }
2375:..\..\..\..\PSoC6_101\Sensor/driver_max30102.c ****     
2376:..\..\..\..\PSoC6_101\Sensor/driver_max30102.c ****     memset(info, 0, sizeof(max30102_info_t));                       /* initialize max30102 info str
 6148              		.loc 1 2376 0
 6149 0012 6022     		movs	r2, #96
 6150 0014 0021     		movs	r1, #0
 6151 0016 7868     		ldr	r0, [r7, #4]
 6152 0018 FFF7FEFF 		bl	memset
2377:..\..\..\..\PSoC6_101\Sensor/driver_max30102.c ****     strncpy(info->chip_name, CHIP_NAME, 32);                        /* copy chip name */
 6153              		.loc 1 2377 0
 6154 001c 7B68     		ldr	r3, [r7, #4]
 6155 001e 2022     		movs	r2, #32
 6156 0020 1549     		ldr	r1, .L439
 6157 0022 1846     		mov	r0, r3
 6158 0024 FFF7FEFF 		bl	strncpy
2378:..\..\..\..\PSoC6_101\Sensor/driver_max30102.c ****     strncpy(info->manufacturer_name, MANUFACTURER_NAME, 32);        /* copy manufacturer name */
 6159              		.loc 1 2378 0
 6160 0028 7B68     		ldr	r3, [r7, #4]
 6161 002a 2033     		adds	r3, r3, #32
 6162 002c 2022     		movs	r2, #32
 6163 002e 1349     		ldr	r1, .L439+4
 6164 0030 1846     		mov	r0, r3
 6165 0032 FFF7FEFF 		bl	strncpy
2379:..\..\..\..\PSoC6_101\Sensor/driver_max30102.c ****     strncpy(info->interface, "IIC", 8);                             /* copy interface name */
 6166              		.loc 1 2379 0
 6167 0036 7B68     		ldr	r3, [r7, #4]
ARM GAS  C:\Users\49148\AppData\Local\Temp\ccWN5cWv.s 			page 155


 6168 0038 4033     		adds	r3, r3, #64
 6169 003a 0822     		movs	r2, #8
 6170 003c 1049     		ldr	r1, .L439+8
 6171 003e 1846     		mov	r0, r3
 6172 0040 FFF7FEFF 		bl	strncpy
2380:..\..\..\..\PSoC6_101\Sensor/driver_max30102.c ****     info->supply_voltage_min_v = SUPPLY_VOLTAGE_MIN;                /* set minimal supply voltage *
 6173              		.loc 1 2380 0
 6174 0044 7B68     		ldr	r3, [r7, #4]
 6175 0046 0F4A     		ldr	r2, .L439+12
 6176 0048 9A64     		str	r2, [r3, #72]	@ float
2381:..\..\..\..\PSoC6_101\Sensor/driver_max30102.c ****     info->supply_voltage_max_v = SUPPLY_VOLTAGE_MAX;                /* set maximum supply voltage *
 6177              		.loc 1 2381 0
 6178 004a 7B68     		ldr	r3, [r7, #4]
 6179 004c 4FF08042 		mov	r2, #1073741824
 6180 0050 DA64     		str	r2, [r3, #76]	@ float
2382:..\..\..\..\PSoC6_101\Sensor/driver_max30102.c ****     info->max_current_ma = MAX_CURRENT;                             /* set maximum current */
 6181              		.loc 1 2382 0
 6182 0052 7B68     		ldr	r3, [r7, #4]
 6183 0054 0C4A     		ldr	r2, .L439+16
 6184 0056 1A65     		str	r2, [r3, #80]	@ float
2383:..\..\..\..\PSoC6_101\Sensor/driver_max30102.c ****     info->temperature_max = TEMPERATURE_MAX;                        /* set minimal temperature */
 6185              		.loc 1 2383 0
 6186 0058 7B68     		ldr	r3, [r7, #4]
 6187 005a 0C4A     		ldr	r2, .L439+20
 6188 005c 9A65     		str	r2, [r3, #88]	@ float
2384:..\..\..\..\PSoC6_101\Sensor/driver_max30102.c ****     info->temperature_min = TEMPERATURE_MIN;                        /* set maximum temperature */
 6189              		.loc 1 2384 0
 6190 005e 7B68     		ldr	r3, [r7, #4]
 6191 0060 0B4A     		ldr	r2, .L439+24
 6192 0062 5A65     		str	r2, [r3, #84]	@ float
2385:..\..\..\..\PSoC6_101\Sensor/driver_max30102.c ****     info->driver_version = DRIVER_VERSION;                          /* set driver version */
 6193              		.loc 1 2385 0
 6194 0064 7B68     		ldr	r3, [r7, #4]
 6195 0066 4FF47A72 		mov	r2, #1000
 6196 006a DA65     		str	r2, [r3, #92]
2386:..\..\..\..\PSoC6_101\Sensor/driver_max30102.c ****     
2387:..\..\..\..\PSoC6_101\Sensor/driver_max30102.c ****     return 0;                                                       /* success return 0 */
 6197              		.loc 1 2387 0
 6198 006c 0023     		movs	r3, #0
 6199              	.L438:
2388:..\..\..\..\PSoC6_101\Sensor/driver_max30102.c **** }
 6200              		.loc 1 2388 0
 6201 006e 1846     		mov	r0, r3
 6202 0070 0837     		adds	r7, r7, #8
 6203              		.cfi_def_cfa_offset 8
 6204 0072 BD46     		mov	sp, r7
 6205              		.cfi_def_cfa_register 13
 6206              		@ sp needed
 6207 0074 80BD     		pop	{r7, pc}
 6208              	.L440:
 6209 0076 00BF     		.align	2
 6210              	.L439:
 6211 0078 F0070000 		.word	.LC53
 6212 007c 0C080000 		.word	.LC54
 6213 0080 20080000 		.word	.LC55
 6214 0084 9A99D93F 		.word	1071225242
 6215 0088 0000A041 		.word	1101004800
ARM GAS  C:\Users\49148\AppData\Local\Temp\ccWN5cWv.s 			page 156


 6216 008c 0000AA42 		.word	1118437376
 6217 0090 000020C2 		.word	-1038090240
 6218              		.cfi_endproc
 6219              	.LFE45:
 6220              		.size	max30102_info, .-max30102_info
 6221              		.section	.text.max30102_set_fifo_configuration,"ax",%progbits
 6222              		.align	2
 6223              		.global	max30102_set_fifo_configuration
 6224              		.thumb
 6225              		.thumb_func
 6226              		.type	max30102_set_fifo_configuration, %function
 6227              	max30102_set_fifo_configuration:
 6228              	.LFB46:
2389:..\..\..\..\PSoC6_101\Sensor/driver_max30102.c **** 
2390:..\..\..\..\PSoC6_101\Sensor/driver_max30102.c **** 
2391:..\..\..\..\PSoC6_101\Sensor/driver_max30102.c **** 
2392:..\..\..\..\PSoC6_101\Sensor/driver_max30102.c **** uint8_t max30102_set_fifo_configuration(max30102_handle_t *handle, uint8_t config) {
 6229              		.loc 1 2392 0
 6230              		.cfi_startproc
 6231              		@ args = 0, pretend = 0, frame = 16
 6232              		@ frame_needed = 1, uses_anonymous_args = 0
 6233 0000 90B5     		push	{r4, r7, lr}
 6234              		.cfi_def_cfa_offset 12
 6235              		.cfi_offset 4, -12
 6236              		.cfi_offset 7, -8
 6237              		.cfi_offset 14, -4
 6238 0002 85B0     		sub	sp, sp, #20
 6239              		.cfi_def_cfa_offset 32
 6240 0004 00AF     		add	r7, sp, #0
 6241              		.cfi_def_cfa_register 7
 6242 0006 7860     		str	r0, [r7, #4]
 6243 0008 0B46     		mov	r3, r1
 6244 000a FB70     		strb	r3, [r7, #3]
2393:..\..\..\..\PSoC6_101\Sensor/driver_max30102.c ****     uint8_t buf[1];
2394:..\..\..\..\PSoC6_101\Sensor/driver_max30102.c ****     buf[0] = config;
 6245              		.loc 1 2394 0
 6246 000c FB78     		ldrb	r3, [r7, #3]
 6247 000e 3B73     		strb	r3, [r7, #12]
2395:..\..\..\..\PSoC6_101\Sensor/driver_max30102.c ****     return handle->iic_write(MAX30102_ADDRESS, 0x08, buf, 1);
 6248              		.loc 1 2395 0
 6249 0010 7B68     		ldr	r3, [r7, #4]
 6250 0012 DC68     		ldr	r4, [r3, #12]
 6251 0014 07F10C02 		add	r2, r7, #12
 6252 0018 0123     		movs	r3, #1
 6253 001a 0821     		movs	r1, #8
 6254 001c AE20     		movs	r0, #174
 6255 001e A047     		blx	r4
 6256 0020 0346     		mov	r3, r0
2396:..\..\..\..\PSoC6_101\Sensor/driver_max30102.c **** }
 6257              		.loc 1 2396 0
 6258 0022 1846     		mov	r0, r3
 6259 0024 1437     		adds	r7, r7, #20
 6260              		.cfi_def_cfa_offset 12
 6261 0026 BD46     		mov	sp, r7
 6262              		.cfi_def_cfa_register 13
 6263              		@ sp needed
 6264 0028 90BD     		pop	{r4, r7, pc}
ARM GAS  C:\Users\49148\AppData\Local\Temp\ccWN5cWv.s 			page 157


 6265              		.cfi_endproc
 6266              	.LFE46:
 6267              		.size	max30102_set_fifo_configuration, .-max30102_set_fifo_configuration
 6268              		.section	.text.max30102_set_mode_configuration,"ax",%progbits
 6269              		.align	2
 6270              		.global	max30102_set_mode_configuration
 6271              		.thumb
 6272              		.thumb_func
 6273              		.type	max30102_set_mode_configuration, %function
 6274              	max30102_set_mode_configuration:
 6275              	.LFB47:
2397:..\..\..\..\PSoC6_101\Sensor/driver_max30102.c **** 
2398:..\..\..\..\PSoC6_101\Sensor/driver_max30102.c **** uint8_t max30102_set_mode_configuration(max30102_handle_t *handle, uint8_t config) {
 6276              		.loc 1 2398 0
 6277              		.cfi_startproc
 6278              		@ args = 0, pretend = 0, frame = 16
 6279              		@ frame_needed = 1, uses_anonymous_args = 0
 6280 0000 90B5     		push	{r4, r7, lr}
 6281              		.cfi_def_cfa_offset 12
 6282              		.cfi_offset 4, -12
 6283              		.cfi_offset 7, -8
 6284              		.cfi_offset 14, -4
 6285 0002 85B0     		sub	sp, sp, #20
 6286              		.cfi_def_cfa_offset 32
 6287 0004 00AF     		add	r7, sp, #0
 6288              		.cfi_def_cfa_register 7
 6289 0006 7860     		str	r0, [r7, #4]
 6290 0008 0B46     		mov	r3, r1
 6291 000a FB70     		strb	r3, [r7, #3]
2399:..\..\..\..\PSoC6_101\Sensor/driver_max30102.c ****     uint8_t buf[1];
2400:..\..\..\..\PSoC6_101\Sensor/driver_max30102.c ****     buf[0] = config;
 6292              		.loc 1 2400 0
 6293 000c FB78     		ldrb	r3, [r7, #3]
 6294 000e 3B73     		strb	r3, [r7, #12]
2401:..\..\..\..\PSoC6_101\Sensor/driver_max30102.c ****     return handle->iic_write(MAX30102_ADDRESS, 0x09, buf, 1);
 6295              		.loc 1 2401 0
 6296 0010 7B68     		ldr	r3, [r7, #4]
 6297 0012 DC68     		ldr	r4, [r3, #12]
 6298 0014 07F10C02 		add	r2, r7, #12
 6299 0018 0123     		movs	r3, #1
 6300 001a 0921     		movs	r1, #9
 6301 001c AE20     		movs	r0, #174
 6302 001e A047     		blx	r4
 6303 0020 0346     		mov	r3, r0
2402:..\..\..\..\PSoC6_101\Sensor/driver_max30102.c **** }
 6304              		.loc 1 2402 0
 6305 0022 1846     		mov	r0, r3
 6306 0024 1437     		adds	r7, r7, #20
 6307              		.cfi_def_cfa_offset 12
 6308 0026 BD46     		mov	sp, r7
 6309              		.cfi_def_cfa_register 13
 6310              		@ sp needed
 6311 0028 90BD     		pop	{r4, r7, pc}
 6312              		.cfi_endproc
 6313              	.LFE47:
 6314              		.size	max30102_set_mode_configuration, .-max30102_set_mode_configuration
 6315              		.section	.text.max30102_set_spo2_configuration,"ax",%progbits
ARM GAS  C:\Users\49148\AppData\Local\Temp\ccWN5cWv.s 			page 158


 6316              		.align	2
 6317              		.global	max30102_set_spo2_configuration
 6318              		.thumb
 6319              		.thumb_func
 6320              		.type	max30102_set_spo2_configuration, %function
 6321              	max30102_set_spo2_configuration:
 6322              	.LFB48:
2403:..\..\..\..\PSoC6_101\Sensor/driver_max30102.c **** 
2404:..\..\..\..\PSoC6_101\Sensor/driver_max30102.c **** uint8_t max30102_set_spo2_configuration(max30102_handle_t *handle, uint8_t config) {
 6323              		.loc 1 2404 0
 6324              		.cfi_startproc
 6325              		@ args = 0, pretend = 0, frame = 16
 6326              		@ frame_needed = 1, uses_anonymous_args = 0
 6327 0000 90B5     		push	{r4, r7, lr}
 6328              		.cfi_def_cfa_offset 12
 6329              		.cfi_offset 4, -12
 6330              		.cfi_offset 7, -8
 6331              		.cfi_offset 14, -4
 6332 0002 85B0     		sub	sp, sp, #20
 6333              		.cfi_def_cfa_offset 32
 6334 0004 00AF     		add	r7, sp, #0
 6335              		.cfi_def_cfa_register 7
 6336 0006 7860     		str	r0, [r7, #4]
 6337 0008 0B46     		mov	r3, r1
 6338 000a FB70     		strb	r3, [r7, #3]
2405:..\..\..\..\PSoC6_101\Sensor/driver_max30102.c ****     uint8_t buf[1];
2406:..\..\..\..\PSoC6_101\Sensor/driver_max30102.c ****     buf[0] = config;
 6339              		.loc 1 2406 0
 6340 000c FB78     		ldrb	r3, [r7, #3]
 6341 000e 3B73     		strb	r3, [r7, #12]
2407:..\..\..\..\PSoC6_101\Sensor/driver_max30102.c ****     return handle->iic_write(MAX30102_ADDRESS, 0x0A, buf, 1);
 6342              		.loc 1 2407 0
 6343 0010 7B68     		ldr	r3, [r7, #4]
 6344 0012 DC68     		ldr	r4, [r3, #12]
 6345 0014 07F10C02 		add	r2, r7, #12
 6346 0018 0123     		movs	r3, #1
 6347 001a 0A21     		movs	r1, #10
 6348 001c AE20     		movs	r0, #174
 6349 001e A047     		blx	r4
 6350 0020 0346     		mov	r3, r0
2408:..\..\..\..\PSoC6_101\Sensor/driver_max30102.c **** }
 6351              		.loc 1 2408 0
 6352 0022 1846     		mov	r0, r3
 6353 0024 1437     		adds	r7, r7, #20
 6354              		.cfi_def_cfa_offset 12
 6355 0026 BD46     		mov	sp, r7
 6356              		.cfi_def_cfa_register 13
 6357              		@ sp needed
 6358 0028 90BD     		pop	{r4, r7, pc}
 6359              		.cfi_endproc
 6360              	.LFE48:
 6361              		.size	max30102_set_spo2_configuration, .-max30102_set_spo2_configuration
 6362              		.section	.text.max30102_set_led_pulse_amplitude,"ax",%progbits
 6363              		.align	2
 6364              		.global	max30102_set_led_pulse_amplitude
 6365              		.thumb
 6366              		.thumb_func
ARM GAS  C:\Users\49148\AppData\Local\Temp\ccWN5cWv.s 			page 159


 6367              		.type	max30102_set_led_pulse_amplitude, %function
 6368              	max30102_set_led_pulse_amplitude:
 6369              	.LFB49:
2409:..\..\..\..\PSoC6_101\Sensor/driver_max30102.c **** 
2410:..\..\..\..\PSoC6_101\Sensor/driver_max30102.c **** uint8_t max30102_set_led_pulse_amplitude(max30102_handle_t *handle, uint8_t led, uint8_t amplitude)
 6370              		.loc 1 2410 0
 6371              		.cfi_startproc
 6372              		@ args = 0, pretend = 0, frame = 16
 6373              		@ frame_needed = 1, uses_anonymous_args = 0
 6374 0000 90B5     		push	{r4, r7, lr}
 6375              		.cfi_def_cfa_offset 12
 6376              		.cfi_offset 4, -12
 6377              		.cfi_offset 7, -8
 6378              		.cfi_offset 14, -4
 6379 0002 85B0     		sub	sp, sp, #20
 6380              		.cfi_def_cfa_offset 32
 6381 0004 00AF     		add	r7, sp, #0
 6382              		.cfi_def_cfa_register 7
 6383 0006 7860     		str	r0, [r7, #4]
 6384 0008 0B46     		mov	r3, r1
 6385 000a FB70     		strb	r3, [r7, #3]
 6386 000c 1346     		mov	r3, r2
 6387 000e BB70     		strb	r3, [r7, #2]
2411:..\..\..\..\PSoC6_101\Sensor/driver_max30102.c ****     uint8_t buf[1];
2412:..\..\..\..\PSoC6_101\Sensor/driver_max30102.c ****     buf[0] = amplitude;
 6388              		.loc 1 2412 0
 6389 0010 BB78     		ldrb	r3, [r7, #2]
 6390 0012 3B73     		strb	r3, [r7, #12]
2413:..\..\..\..\PSoC6_101\Sensor/driver_max30102.c ****     return handle->iic_write(MAX30102_ADDRESS, led, buf, 1);
 6391              		.loc 1 2413 0
 6392 0014 7B68     		ldr	r3, [r7, #4]
 6393 0016 DC68     		ldr	r4, [r3, #12]
 6394 0018 07F10C02 		add	r2, r7, #12
 6395 001c F978     		ldrb	r1, [r7, #3]	@ zero_extendqisi2
 6396 001e 0123     		movs	r3, #1
 6397 0020 AE20     		movs	r0, #174
 6398 0022 A047     		blx	r4
 6399 0024 0346     		mov	r3, r0
2414:..\..\..\..\PSoC6_101\Sensor/driver_max30102.c **** }
 6400              		.loc 1 2414 0
 6401 0026 1846     		mov	r0, r3
 6402 0028 1437     		adds	r7, r7, #20
 6403              		.cfi_def_cfa_offset 12
 6404 002a BD46     		mov	sp, r7
 6405              		.cfi_def_cfa_register 13
 6406              		@ sp needed
 6407 002c 90BD     		pop	{r4, r7, pc}
 6408              		.cfi_endproc
 6409              	.LFE49:
 6410              		.size	max30102_set_led_pulse_amplitude, .-max30102_set_led_pulse_amplitude
 6411 002e 00BF     		.section	.text.max30102_read_fifo,"ax",%progbits
 6412              		.align	2
 6413              		.global	max30102_read_fifo
 6414              		.thumb
 6415              		.thumb_func
 6416              		.type	max30102_read_fifo, %function
 6417              	max30102_read_fifo:
ARM GAS  C:\Users\49148\AppData\Local\Temp\ccWN5cWv.s 			page 160


 6418              	.LFB50:
2415:..\..\..\..\PSoC6_101\Sensor/driver_max30102.c **** 
2416:..\..\..\..\PSoC6_101\Sensor/driver_max30102.c **** uint8_t max30102_read_fifo(max30102_handle_t *handle, uint32_t *red, uint32_t *ir) {
 6419              		.loc 1 2416 0
 6420              		.cfi_startproc
 6421              		@ args = 0, pretend = 0, frame = 24
 6422              		@ frame_needed = 1, uses_anonymous_args = 0
 6423 0000 90B5     		push	{r4, r7, lr}
 6424              		.cfi_def_cfa_offset 12
 6425              		.cfi_offset 4, -12
 6426              		.cfi_offset 7, -8
 6427              		.cfi_offset 14, -4
 6428 0002 87B0     		sub	sp, sp, #28
 6429              		.cfi_def_cfa_offset 40
 6430 0004 00AF     		add	r7, sp, #0
 6431              		.cfi_def_cfa_register 7
 6432 0006 F860     		str	r0, [r7, #12]
 6433 0008 B960     		str	r1, [r7, #8]
 6434 000a 7A60     		str	r2, [r7, #4]
2417:..\..\..\..\PSoC6_101\Sensor/driver_max30102.c ****     uint8_t buf[6];
2418:..\..\..\..\PSoC6_101\Sensor/driver_max30102.c ****     if (handle->iic_read(MAX30102_ADDRESS, 0x07, buf, 6) != 0) {
 6435              		.loc 1 2418 0
 6436 000c FB68     		ldr	r3, [r7, #12]
 6437 000e 9C68     		ldr	r4, [r3, #8]
 6438 0010 07F11002 		add	r2, r7, #16
 6439 0014 0623     		movs	r3, #6
 6440 0016 0721     		movs	r1, #7
 6441 0018 AE20     		movs	r0, #174
 6442 001a A047     		blx	r4
 6443 001c 0346     		mov	r3, r0
 6444 001e 002B     		cmp	r3, #0
 6445 0020 01D0     		beq	.L450
2419:..\..\..\..\PSoC6_101\Sensor/driver_max30102.c ****         return 1; // 
 6446              		.loc 1 2419 0
 6447 0022 0123     		movs	r3, #1
 6448 0024 14E0     		b	.L452
 6449              	.L450:
2420:..\..\..\..\PSoC6_101\Sensor/driver_max30102.c ****     }
2421:..\..\..\..\PSoC6_101\Sensor/driver_max30102.c ****     *red = (buf[0] << 16) | (buf[1] << 8) | buf[2];
 6450              		.loc 1 2421 0
 6451 0026 3B7C     		ldrb	r3, [r7, #16]	@ zero_extendqisi2
 6452 0028 1A04     		lsls	r2, r3, #16
 6453 002a 7B7C     		ldrb	r3, [r7, #17]	@ zero_extendqisi2
 6454 002c 1B02     		lsls	r3, r3, #8
 6455 002e 1343     		orrs	r3, r3, r2
 6456 0030 BA7C     		ldrb	r2, [r7, #18]	@ zero_extendqisi2
 6457 0032 1343     		orrs	r3, r3, r2
 6458 0034 1A46     		mov	r2, r3
 6459 0036 BB68     		ldr	r3, [r7, #8]
 6460 0038 1A60     		str	r2, [r3]
2422:..\..\..\..\PSoC6_101\Sensor/driver_max30102.c ****     *ir = (buf[3] << 16) | (buf[4] << 8) | buf[5];
 6461              		.loc 1 2422 0
 6462 003a FB7C     		ldrb	r3, [r7, #19]	@ zero_extendqisi2
 6463 003c 1A04     		lsls	r2, r3, #16
 6464 003e 3B7D     		ldrb	r3, [r7, #20]	@ zero_extendqisi2
 6465 0040 1B02     		lsls	r3, r3, #8
 6466 0042 1343     		orrs	r3, r3, r2
ARM GAS  C:\Users\49148\AppData\Local\Temp\ccWN5cWv.s 			page 161


 6467 0044 7A7D     		ldrb	r2, [r7, #21]	@ zero_extendqisi2
 6468 0046 1343     		orrs	r3, r3, r2
 6469 0048 1A46     		mov	r2, r3
 6470 004a 7B68     		ldr	r3, [r7, #4]
 6471 004c 1A60     		str	r2, [r3]
2423:..\..\..\..\PSoC6_101\Sensor/driver_max30102.c ****     return 0; // 
 6472              		.loc 1 2423 0
 6473 004e 0023     		movs	r3, #0
 6474              	.L452:
2424:..\..\..\..\PSoC6_101\Sensor/driver_max30102.c **** }
 6475              		.loc 1 2424 0 discriminator 1
 6476 0050 1846     		mov	r0, r3
 6477 0052 1C37     		adds	r7, r7, #28
 6478              		.cfi_def_cfa_offset 12
 6479 0054 BD46     		mov	sp, r7
 6480              		.cfi_def_cfa_register 13
 6481              		@ sp needed
 6482 0056 90BD     		pop	{r4, r7, pc}
 6483              		.cfi_endproc
 6484              	.LFE50:
 6485              		.size	max30102_read_fifo, .-max30102_read_fifo
 6486              		.text
 6487              	.Letext0:
 6488              		.file 2 "d:\\psoc_jingyi\\psoc creator\\4.4\\psoc creator\\import\\gnu\\arm\\5.4.1\\arm-none-eabi\
 6489              		.file 3 "d:\\psoc_jingyi\\psoc creator\\4.4\\psoc creator\\import\\gnu\\arm\\5.4.1\\arm-none-eabi\
 6490              		.file 4 "..\\..\\..\\..\\PSoC6_101\\Sensor\\driver_max30102.h"
 6491              		.section	.debug_info,"",%progbits
 6492              	.Ldebug_info0:
 6493 0000 14160000 		.4byte	0x1614
 6494 0004 0400     		.2byte	0x4
 6495 0006 00000000 		.4byte	.Ldebug_abbrev0
 6496 000a 04       		.byte	0x4
 6497 000b 01       		.uleb128 0x1
 6498 000c C60D0000 		.4byte	.LASF172
 6499 0010 0C       		.byte	0xc
 6500 0011 6B0A0000 		.4byte	.LASF173
 6501 0015 17090000 		.4byte	.LASF174
 6502 0019 00000000 		.4byte	.Ldebug_ranges0+0
 6503 001d 00000000 		.4byte	0
 6504 0021 00000000 		.4byte	.Ldebug_line0
 6505 0025 02       		.uleb128 0x2
 6506 0026 01       		.byte	0x1
 6507 0027 06       		.byte	0x6
 6508 0028 C90C0000 		.4byte	.LASF0
 6509 002c 03       		.uleb128 0x3
 6510 002d 4F0A0000 		.4byte	.LASF3
 6511 0031 02       		.byte	0x2
 6512 0032 1D       		.byte	0x1d
 6513 0033 37000000 		.4byte	0x37
 6514 0037 02       		.uleb128 0x2
 6515 0038 01       		.byte	0x1
 6516 0039 08       		.byte	0x8
 6517 003a 090B0000 		.4byte	.LASF1
 6518 003e 02       		.uleb128 0x2
 6519 003f 02       		.byte	0x2
 6520 0040 05       		.byte	0x5
 6521 0041 BF080000 		.4byte	.LASF2
ARM GAS  C:\Users\49148\AppData\Local\Temp\ccWN5cWv.s 			page 162


 6522 0045 03       		.uleb128 0x3
 6523 0046 D5030000 		.4byte	.LASF4
 6524 004a 02       		.byte	0x2
 6525 004b 2B       		.byte	0x2b
 6526 004c 50000000 		.4byte	0x50
 6527 0050 02       		.uleb128 0x2
 6528 0051 02       		.byte	0x2
 6529 0052 07       		.byte	0x7
 6530 0053 150D0000 		.4byte	.LASF5
 6531 0057 02       		.uleb128 0x2
 6532 0058 04       		.byte	0x4
 6533 0059 05       		.byte	0x5
 6534 005a EC080000 		.4byte	.LASF6
 6535 005e 03       		.uleb128 0x3
 6536 005f 3C0B0000 		.4byte	.LASF7
 6537 0063 02       		.byte	0x2
 6538 0064 41       		.byte	0x41
 6539 0065 69000000 		.4byte	0x69
 6540 0069 02       		.uleb128 0x2
 6541 006a 04       		.byte	0x4
 6542 006b 07       		.byte	0x7
 6543 006c CB0A0000 		.4byte	.LASF8
 6544 0070 02       		.uleb128 0x2
 6545 0071 08       		.byte	0x8
 6546 0072 05       		.byte	0x5
 6547 0073 B6060000 		.4byte	.LASF9
 6548 0077 02       		.uleb128 0x2
 6549 0078 08       		.byte	0x8
 6550 0079 07       		.byte	0x7
 6551 007a 84030000 		.4byte	.LASF10
 6552 007e 04       		.uleb128 0x4
 6553 007f 04       		.byte	0x4
 6554 0080 05       		.byte	0x5
 6555 0081 696E7400 		.ascii	"int\000"
 6556 0085 02       		.uleb128 0x2
 6557 0086 04       		.byte	0x4
 6558 0087 07       		.byte	0x7
 6559 0088 09010000 		.4byte	.LASF11
 6560 008c 02       		.uleb128 0x2
 6561 008d 08       		.byte	0x8
 6562 008e 04       		.byte	0x4
 6563 008f E7070000 		.4byte	.LASF12
 6564 0093 02       		.uleb128 0x2
 6565 0094 04       		.byte	0x4
 6566 0095 07       		.byte	0x7
 6567 0096 C20A0000 		.4byte	.LASF13
 6568 009a 02       		.uleb128 0x2
 6569 009b 01       		.byte	0x1
 6570 009c 08       		.byte	0x8
 6571 009d A6050000 		.4byte	.LASF14
 6572 00a1 05       		.uleb128 0x5
 6573 00a2 04       		.byte	0x4
 6574 00a3 A7000000 		.4byte	0xa7
 6575 00a7 06       		.uleb128 0x6
 6576 00a8 9A000000 		.4byte	0x9a
 6577 00ac 07       		.uleb128 0x7
 6578 00ad 9A000000 		.4byte	0x9a
ARM GAS  C:\Users\49148\AppData\Local\Temp\ccWN5cWv.s 			page 163


 6579 00b1 BC000000 		.4byte	0xbc
 6580 00b5 08       		.uleb128 0x8
 6581 00b6 93000000 		.4byte	0x93
 6582 00ba 07       		.byte	0x7
 6583 00bb 00       		.byte	0
 6584 00bc 03       		.uleb128 0x3
 6585 00bd 11060000 		.4byte	.LASF15
 6586 00c1 03       		.byte	0x3
 6587 00c2 18       		.byte	0x18
 6588 00c3 2C000000 		.4byte	0x2c
 6589 00c7 03       		.uleb128 0x3
 6590 00c8 F3070000 		.4byte	.LASF16
 6591 00cc 03       		.byte	0x3
 6592 00cd 24       		.byte	0x24
 6593 00ce 45000000 		.4byte	0x45
 6594 00d2 03       		.uleb128 0x3
 6595 00d3 BB020000 		.4byte	.LASF17
 6596 00d7 03       		.byte	0x3
 6597 00d8 30       		.byte	0x30
 6598 00d9 5E000000 		.4byte	0x5e
 6599 00dd 09       		.uleb128 0x9
 6600 00de 01       		.byte	0x1
 6601 00df 37000000 		.4byte	0x37
 6602 00e3 04       		.byte	0x4
 6603 00e4 3F       		.byte	0x3f
 6604 00e5 F6000000 		.4byte	0xf6
 6605 00e9 0A       		.uleb128 0xa
 6606 00ea 280D0000 		.4byte	.LASF18
 6607 00ee 00       		.byte	0
 6608 00ef 0A       		.uleb128 0xa
 6609 00f0 A1010000 		.4byte	.LASF19
 6610 00f4 01       		.byte	0x1
 6611 00f5 00       		.byte	0
 6612 00f6 03       		.uleb128 0x3
 6613 00f7 07030000 		.4byte	.LASF20
 6614 00fb 04       		.byte	0x4
 6615 00fc 42       		.byte	0x42
 6616 00fd DD000000 		.4byte	0xdd
 6617 0101 09       		.uleb128 0x9
 6618 0102 01       		.byte	0x1
 6619 0103 37000000 		.4byte	0x37
 6620 0107 04       		.byte	0x4
 6621 0108 48       		.byte	0x48
 6622 0109 32010000 		.4byte	0x132
 6623 010d 0A       		.uleb128 0xa
 6624 010e 3A0C0000 		.4byte	.LASF21
 6625 0112 00       		.byte	0
 6626 0113 0A       		.uleb128 0xa
 6627 0114 560C0000 		.4byte	.LASF22
 6628 0118 01       		.byte	0x1
 6629 0119 0A       		.uleb128 0xa
 6630 011a 720C0000 		.4byte	.LASF23
 6631 011e 02       		.byte	0x2
 6632 011f 0A       		.uleb128 0xa
 6633 0120 8E0C0000 		.4byte	.LASF24
 6634 0124 03       		.byte	0x3
 6635 0125 0A       		.uleb128 0xa
ARM GAS  C:\Users\49148\AppData\Local\Temp\ccWN5cWv.s 			page 164


 6636 0126 470B0000 		.4byte	.LASF25
 6637 012a 04       		.byte	0x4
 6638 012b 0A       		.uleb128 0xa
 6639 012c A90D0000 		.4byte	.LASF26
 6640 0130 05       		.byte	0x5
 6641 0131 00       		.byte	0
 6642 0132 03       		.uleb128 0x3
 6643 0133 E7030000 		.4byte	.LASF27
 6644 0137 04       		.byte	0x4
 6645 0138 4F       		.byte	0x4f
 6646 0139 01010000 		.4byte	0x101
 6647 013d 09       		.uleb128 0x9
 6648 013e 01       		.byte	0x1
 6649 013f 37000000 		.4byte	0x37
 6650 0143 04       		.byte	0x4
 6651 0144 55       		.byte	0x55
 6652 0145 5C010000 		.4byte	0x15c
 6653 0149 0A       		.uleb128 0xa
 6654 014a ED050000 		.4byte	.LASF28
 6655 014e 02       		.byte	0x2
 6656 014f 0A       		.uleb128 0xa
 6657 0150 DA010000 		.4byte	.LASF29
 6658 0154 03       		.byte	0x3
 6659 0155 0A       		.uleb128 0xa
 6660 0156 C4060000 		.4byte	.LASF30
 6661 015a 07       		.byte	0x7
 6662 015b 00       		.byte	0
 6663 015c 03       		.uleb128 0x3
 6664 015d F5080000 		.4byte	.LASF31
 6665 0161 04       		.byte	0x4
 6666 0162 59       		.byte	0x59
 6667 0163 3D010000 		.4byte	0x13d
 6668 0167 09       		.uleb128 0x9
 6669 0168 01       		.byte	0x1
 6670 0169 37000000 		.4byte	0x37
 6671 016d 04       		.byte	0x4
 6672 016e 5F       		.byte	0x5f
 6673 016f 92010000 		.4byte	0x192
 6674 0173 0A       		.uleb128 0xa
 6675 0174 4E050000 		.4byte	.LASF32
 6676 0178 07       		.byte	0x7
 6677 0179 0A       		.uleb128 0xa
 6678 017a 72050000 		.4byte	.LASF33
 6679 017e 06       		.byte	0x6
 6680 017f 0A       		.uleb128 0xa
 6681 0180 A4070000 		.4byte	.LASF34
 6682 0184 05       		.byte	0x5
 6683 0185 0A       		.uleb128 0xa
 6684 0186 4E010000 		.4byte	.LASF35
 6685 018a 00       		.byte	0
 6686 018b 0A       		.uleb128 0xa
 6687 018c 27050000 		.4byte	.LASF36
 6688 0190 01       		.byte	0x1
 6689 0191 00       		.byte	0
 6690 0192 03       		.uleb128 0x3
 6691 0193 28040000 		.4byte	.LASF37
 6692 0197 04       		.byte	0x4
ARM GAS  C:\Users\49148\AppData\Local\Temp\ccWN5cWv.s 			page 165


 6693 0198 65       		.byte	0x65
 6694 0199 67010000 		.4byte	0x167
 6695 019d 09       		.uleb128 0x9
 6696 019e 01       		.byte	0x1
 6697 019f 37000000 		.4byte	0x37
 6698 01a3 04       		.byte	0x4
 6699 01a4 6B       		.byte	0x6b
 6700 01a5 C2010000 		.4byte	0x1c2
 6701 01a9 0A       		.uleb128 0xa
 6702 01aa 72000000 		.4byte	.LASF38
 6703 01ae 07       		.byte	0x7
 6704 01af 0A       		.uleb128 0xa
 6705 01b0 7C070000 		.4byte	.LASF39
 6706 01b4 06       		.byte	0x6
 6707 01b5 0A       		.uleb128 0xa
 6708 01b6 09050000 		.4byte	.LASF40
 6709 01ba 05       		.byte	0x5
 6710 01bb 0A       		.uleb128 0xa
 6711 01bc E4020000 		.4byte	.LASF41
 6712 01c0 01       		.byte	0x1
 6713 01c1 00       		.byte	0
 6714 01c2 03       		.uleb128 0x3
 6715 01c3 580D0000 		.4byte	.LASF42
 6716 01c7 04       		.byte	0x4
 6717 01c8 70       		.byte	0x70
 6718 01c9 9D010000 		.4byte	0x19d
 6719 01cd 09       		.uleb128 0x9
 6720 01ce 01       		.byte	0x1
 6721 01cf 37000000 		.4byte	0x37
 6722 01d3 04       		.byte	0x4
 6723 01d4 76       		.byte	0x76
 6724 01d5 F2010000 		.4byte	0x1f2
 6725 01d9 0A       		.uleb128 0xa
 6726 01da 8C0D0000 		.4byte	.LASF43
 6727 01de 00       		.byte	0
 6728 01df 0A       		.uleb128 0xa
 6729 01e0 C2050000 		.4byte	.LASF44
 6730 01e4 01       		.byte	0x1
 6731 01e5 0A       		.uleb128 0xa
 6732 01e6 BD010000 		.4byte	.LASF45
 6733 01ea 02       		.byte	0x2
 6734 01eb 0A       		.uleb128 0xa
 6735 01ec DC060000 		.4byte	.LASF46
 6736 01f0 03       		.byte	0x3
 6737 01f1 00       		.byte	0
 6738 01f2 03       		.uleb128 0x3
 6739 01f3 4A030000 		.4byte	.LASF47
 6740 01f7 04       		.byte	0x4
 6741 01f8 7B       		.byte	0x7b
 6742 01f9 CD010000 		.4byte	0x1cd
 6743 01fd 09       		.uleb128 0x9
 6744 01fe 01       		.byte	0x1
 6745 01ff 37000000 		.4byte	0x37
 6746 0203 04       		.byte	0x4
 6747 0204 81       		.byte	0x81
 6748 0205 3A020000 		.4byte	0x23a
 6749 0209 0A       		.uleb128 0xa
ARM GAS  C:\Users\49148\AppData\Local\Temp\ccWN5cWv.s 			page 166


 6750 020a C4020000 		.4byte	.LASF48
 6751 020e 00       		.byte	0
 6752 020f 0A       		.uleb128 0xa
 6753 0210 D50C0000 		.4byte	.LASF49
 6754 0214 01       		.byte	0x1
 6755 0215 0A       		.uleb128 0xa
 6756 0216 1A070000 		.4byte	.LASF50
 6757 021a 02       		.byte	0x2
 6758 021b 0A       		.uleb128 0xa
 6759 021c D7090000 		.4byte	.LASF51
 6760 0220 03       		.byte	0x3
 6761 0221 0A       		.uleb128 0xa
 6762 0222 61020000 		.4byte	.LASF52
 6763 0226 04       		.byte	0x4
 6764 0227 0A       		.uleb128 0xa
 6765 0228 50000000 		.4byte	.LASF53
 6766 022c 05       		.byte	0x5
 6767 022d 0A       		.uleb128 0xa
 6768 022e 74080000 		.4byte	.LASF54
 6769 0232 06       		.byte	0x6
 6770 0233 0A       		.uleb128 0xa
 6771 0234 B8040000 		.4byte	.LASF55
 6772 0238 07       		.byte	0x7
 6773 0239 00       		.byte	0
 6774 023a 03       		.uleb128 0x3
 6775 023b C6070000 		.4byte	.LASF56
 6776 023f 04       		.byte	0x4
 6777 0240 8A       		.byte	0x8a
 6778 0241 FD010000 		.4byte	0x1fd
 6779 0245 09       		.uleb128 0x9
 6780 0246 01       		.byte	0x1
 6781 0247 37000000 		.4byte	0x37
 6782 024b 04       		.byte	0x4
 6783 024c 90       		.byte	0x90
 6784 024d 6A020000 		.4byte	0x26a
 6785 0251 0A       		.uleb128 0xa
 6786 0252 FC070000 		.4byte	.LASF57
 6787 0256 00       		.byte	0
 6788 0257 0A       		.uleb128 0xa
 6789 0258 03040000 		.4byte	.LASF58
 6790 025c 01       		.byte	0x1
 6791 025d 0A       		.uleb128 0xa
 6792 025e 6D0D0000 		.4byte	.LASF59
 6793 0262 02       		.byte	0x2
 6794 0263 0A       		.uleb128 0xa
 6795 0264 F60C0000 		.4byte	.LASF60
 6796 0268 03       		.byte	0x3
 6797 0269 00       		.byte	0
 6798 026a 03       		.uleb128 0x3
 6799 026b 96080000 		.4byte	.LASF61
 6800 026f 04       		.byte	0x4
 6801 0270 95       		.byte	0x95
 6802 0271 45020000 		.4byte	0x245
 6803 0275 09       		.uleb128 0x9
 6804 0276 01       		.byte	0x1
 6805 0277 37000000 		.4byte	0x37
 6806 027b 04       		.byte	0x4
ARM GAS  C:\Users\49148\AppData\Local\Temp\ccWN5cWv.s 			page 167


 6807 027c 9B       		.byte	0x9b
 6808 027d 94020000 		.4byte	0x294
 6809 0281 0A       		.uleb128 0xa
 6810 0282 05090000 		.4byte	.LASF62
 6811 0286 00       		.byte	0
 6812 0287 0A       		.uleb128 0xa
 6813 0288 2D010000 		.4byte	.LASF63
 6814 028c 01       		.byte	0x1
 6815 028d 0A       		.uleb128 0xa
 6816 028e 47080000 		.4byte	.LASF64
 6817 0292 02       		.byte	0x2
 6818 0293 00       		.byte	0
 6819 0294 03       		.uleb128 0x3
 6820 0295 B0080000 		.4byte	.LASF65
 6821 0299 04       		.byte	0x4
 6822 029a 9F       		.byte	0x9f
 6823 029b 75020000 		.4byte	0x275
 6824 029f 09       		.uleb128 0x9
 6825 02a0 01       		.byte	0x1
 6826 02a1 37000000 		.4byte	0x37
 6827 02a5 04       		.byte	0x4
 6828 02a6 A5       		.byte	0xa5
 6829 02a7 C4020000 		.4byte	0x2c4
 6830 02ab 0A       		.uleb128 0xa
 6831 02ac D60B0000 		.4byte	.LASF66
 6832 02b0 00       		.byte	0
 6833 02b1 0A       		.uleb128 0xa
 6834 02b2 E60B0000 		.4byte	.LASF67
 6835 02b6 01       		.byte	0x1
 6836 02b7 0A       		.uleb128 0xa
 6837 02b8 F60B0000 		.4byte	.LASF68
 6838 02bc 02       		.byte	0x2
 6839 02bd 0A       		.uleb128 0xa
 6840 02be 060C0000 		.4byte	.LASF69
 6841 02c2 03       		.byte	0x3
 6842 02c3 00       		.byte	0
 6843 02c4 03       		.uleb128 0x3
 6844 02c5 1B080000 		.4byte	.LASF70
 6845 02c9 04       		.byte	0x4
 6846 02ca AA       		.byte	0xaa
 6847 02cb 9F020000 		.4byte	0x29f
 6848 02cf 0B       		.uleb128 0xb
 6849 02d0 50040000 		.4byte	.LASF83
 6850 02d4 E4       		.byte	0xe4
 6851 02d5 04       		.byte	0x4
 6852 02d6 AF       		.byte	0xaf
 6853 02d7 6C030000 		.4byte	0x36c
 6854 02db 0C       		.uleb128 0xc
 6855 02dc B4010000 		.4byte	.LASF71
 6856 02e0 04       		.byte	0x4
 6857 02e1 B1       		.byte	0xb1
 6858 02e2 71030000 		.4byte	0x371
 6859 02e6 00       		.byte	0
 6860 02e7 0C       		.uleb128 0xc
 6861 02e8 B70A0000 		.4byte	.LASF72
 6862 02ec 04       		.byte	0x4
 6863 02ed B2       		.byte	0xb2
ARM GAS  C:\Users\49148\AppData\Local\Temp\ccWN5cWv.s 			page 168


 6864 02ee 71030000 		.4byte	0x371
 6865 02f2 04       		.byte	0x4
 6866 02f3 0C       		.uleb128 0xc
 6867 02f4 17030000 		.4byte	.LASF73
 6868 02f8 04       		.byte	0x4
 6869 02f9 B3       		.byte	0xb3
 6870 02fa 9B030000 		.4byte	0x39b
 6871 02fe 08       		.byte	0x8
 6872 02ff 0C       		.uleb128 0xc
 6873 0300 57080000 		.4byte	.LASF74
 6874 0304 04       		.byte	0x4
 6875 0305 B4       		.byte	0xb4
 6876 0306 9B030000 		.4byte	0x39b
 6877 030a 0C       		.byte	0xc
 6878 030b 0C       		.uleb128 0xc
 6879 030c E1040000 		.4byte	.LASF75
 6880 0310 04       		.byte	0x4
 6881 0311 B5       		.byte	0xb5
 6882 0312 AC030000 		.4byte	0x3ac
 6883 0316 10       		.byte	0x10
 6884 0317 0C       		.uleb128 0xc
 6885 0318 00050000 		.4byte	.LASF76
 6886 031c 04       		.byte	0x4
 6887 031d B6       		.byte	0xb6
 6888 031e BD030000 		.4byte	0x3bd
 6889 0322 14       		.byte	0x14
 6890 0323 0C       		.uleb128 0xc
 6891 0324 C9080000 		.4byte	.LASF77
 6892 0328 04       		.byte	0x4
 6893 0329 B7       		.byte	0xb7
 6894 032a D4030000 		.4byte	0x3d4
 6895 032e 18       		.byte	0x18
 6896 032f 0C       		.uleb128 0xc
 6897 0330 3A000000 		.4byte	.LASF78
 6898 0334 04       		.byte	0x4
 6899 0335 B8       		.byte	0xb8
 6900 0336 BC000000 		.4byte	0xbc
 6901 033a 1C       		.byte	0x1c
 6902 033b 0C       		.uleb128 0xc
 6903 033c 93010000 		.4byte	.LASF79
 6904 0340 04       		.byte	0x4
 6905 0341 B9       		.byte	0xb9
 6906 0342 BC000000 		.4byte	0xbc
 6907 0346 1D       		.byte	0x1d
 6908 0347 0D       		.uleb128 0xd
 6909 0348 72617700 		.ascii	"raw\000"
 6910 034c 04       		.byte	0x4
 6911 034d BA       		.byte	0xba
 6912 034e C7000000 		.4byte	0xc7
 6913 0352 1E       		.byte	0x1e
 6914 0353 0C       		.uleb128 0xc
 6915 0354 92000000 		.4byte	.LASF80
 6916 0358 04       		.byte	0x4
 6917 0359 BB       		.byte	0xbb
 6918 035a DA030000 		.4byte	0x3da
 6919 035e 20       		.byte	0x20
 6920 035f 0D       		.uleb128 0xd
ARM GAS  C:\Users\49148\AppData\Local\Temp\ccWN5cWv.s 			page 169


 6921 0360 62756600 		.ascii	"buf\000"
 6922 0364 04       		.byte	0x4
 6923 0365 BC       		.byte	0xbc
 6924 0366 E1030000 		.4byte	0x3e1
 6925 036a 24       		.byte	0x24
 6926 036b 00       		.byte	0
 6927 036c 0E       		.uleb128 0xe
 6928 036d BC000000 		.4byte	0xbc
 6929 0371 05       		.uleb128 0x5
 6930 0372 04       		.byte	0x4
 6931 0373 6C030000 		.4byte	0x36c
 6932 0377 0F       		.uleb128 0xf
 6933 0378 BC000000 		.4byte	0xbc
 6934 037c 95030000 		.4byte	0x395
 6935 0380 10       		.uleb128 0x10
 6936 0381 BC000000 		.4byte	0xbc
 6937 0385 10       		.uleb128 0x10
 6938 0386 BC000000 		.4byte	0xbc
 6939 038a 10       		.uleb128 0x10
 6940 038b 95030000 		.4byte	0x395
 6941 038f 10       		.uleb128 0x10
 6942 0390 C7000000 		.4byte	0xc7
 6943 0394 00       		.byte	0
 6944 0395 05       		.uleb128 0x5
 6945 0396 04       		.byte	0x4
 6946 0397 BC000000 		.4byte	0xbc
 6947 039b 05       		.uleb128 0x5
 6948 039c 04       		.byte	0x4
 6949 039d 77030000 		.4byte	0x377
 6950 03a1 11       		.uleb128 0x11
 6951 03a2 AC030000 		.4byte	0x3ac
 6952 03a6 10       		.uleb128 0x10
 6953 03a7 BC000000 		.4byte	0xbc
 6954 03ab 00       		.byte	0
 6955 03ac 05       		.uleb128 0x5
 6956 03ad 04       		.byte	0x4
 6957 03ae A1030000 		.4byte	0x3a1
 6958 03b2 11       		.uleb128 0x11
 6959 03b3 BD030000 		.4byte	0x3bd
 6960 03b7 10       		.uleb128 0x10
 6961 03b8 D2000000 		.4byte	0xd2
 6962 03bc 00       		.byte	0
 6963 03bd 05       		.uleb128 0x5
 6964 03be 04       		.byte	0x4
 6965 03bf B2030000 		.4byte	0x3b2
 6966 03c3 11       		.uleb128 0x11
 6967 03c4 CF030000 		.4byte	0x3cf
 6968 03c8 10       		.uleb128 0x10
 6969 03c9 CF030000 		.4byte	0x3cf
 6970 03cd 12       		.uleb128 0x12
 6971 03ce 00       		.byte	0
 6972 03cf 06       		.uleb128 0x6
 6973 03d0 A1000000 		.4byte	0xa1
 6974 03d4 05       		.uleb128 0x5
 6975 03d5 04       		.byte	0x4
 6976 03d6 C3030000 		.4byte	0x3c3
 6977 03da 02       		.uleb128 0x2
ARM GAS  C:\Users\49148\AppData\Local\Temp\ccWN5cWv.s 			page 170


 6978 03db 04       		.byte	0x4
 6979 03dc 04       		.byte	0x4
 6980 03dd 20030000 		.4byte	.LASF81
 6981 03e1 07       		.uleb128 0x7
 6982 03e2 BC000000 		.4byte	0xbc
 6983 03e6 F1030000 		.4byte	0x3f1
 6984 03ea 08       		.uleb128 0x8
 6985 03eb 93000000 		.4byte	0x93
 6986 03ef BF       		.byte	0xbf
 6987 03f0 00       		.byte	0
 6988 03f1 03       		.uleb128 0x3
 6989 03f2 62040000 		.4byte	.LASF82
 6990 03f6 04       		.byte	0x4
 6991 03f7 BD       		.byte	0xbd
 6992 03f8 CF020000 		.4byte	0x2cf
 6993 03fc 0B       		.uleb128 0xb
 6994 03fd E40A0000 		.4byte	.LASF84
 6995 0401 60       		.byte	0x60
 6996 0402 04       		.byte	0x4
 6997 0403 C2       		.byte	0xc2
 6998 0404 75040000 		.4byte	0x475
 6999 0408 0C       		.uleb128 0xc
 7000 0409 9A070000 		.4byte	.LASF85
 7001 040d 04       		.byte	0x4
 7002 040e C4       		.byte	0xc4
 7003 040f 75040000 		.4byte	0x475
 7004 0413 00       		.byte	0
 7005 0414 0C       		.uleb128 0xc
 7006 0415 590A0000 		.4byte	.LASF86
 7007 0419 04       		.byte	0x4
 7008 041a C5       		.byte	0xc5
 7009 041b 75040000 		.4byte	0x475
 7010 041f 20       		.byte	0x20
 7011 0420 0C       		.uleb128 0xc
 7012 0421 C4000000 		.4byte	.LASF87
 7013 0425 04       		.byte	0x4
 7014 0426 C6       		.byte	0xc6
 7015 0427 AC000000 		.4byte	0xac
 7016 042b 40       		.byte	0x40
 7017 042c 0C       		.uleb128 0xc
 7018 042d 430D0000 		.4byte	.LASF88
 7019 0431 04       		.byte	0x4
 7020 0432 C7       		.byte	0xc7
 7021 0433 DA030000 		.4byte	0x3da
 7022 0437 48       		.byte	0x48
 7023 0438 0C       		.uleb128 0xc
 7024 0439 00000000 		.4byte	.LASF89
 7025 043d 04       		.byte	0x4
 7026 043e C8       		.byte	0xc8
 7027 043f DA030000 		.4byte	0x3da
 7028 0443 4C       		.byte	0x4c
 7029 0444 0C       		.uleb128 0xc
 7030 0445 6F090000 		.4byte	.LASF90
 7031 0449 04       		.byte	0x4
 7032 044a C9       		.byte	0xc9
 7033 044b DA030000 		.4byte	0x3da
 7034 044f 50       		.byte	0x50
ARM GAS  C:\Users\49148\AppData\Local\Temp\ccWN5cWv.s 			page 171


 7035 0450 0C       		.uleb128 0xc
 7036 0451 3E010000 		.4byte	.LASF91
 7037 0455 04       		.byte	0x4
 7038 0456 CA       		.byte	0xca
 7039 0457 DA030000 		.4byte	0x3da
 7040 045b 54       		.byte	0x54
 7041 045c 0C       		.uleb128 0xc
 7042 045d 6C070000 		.4byte	.LASF92
 7043 0461 04       		.byte	0x4
 7044 0462 CB       		.byte	0xcb
 7045 0463 DA030000 		.4byte	0x3da
 7046 0467 58       		.byte	0x58
 7047 0468 0C       		.uleb128 0xc
 7048 0469 41000000 		.4byte	.LASF93
 7049 046d 04       		.byte	0x4
 7050 046e CC       		.byte	0xcc
 7051 046f D2000000 		.4byte	0xd2
 7052 0473 5C       		.byte	0x5c
 7053 0474 00       		.byte	0
 7054 0475 07       		.uleb128 0x7
 7055 0476 9A000000 		.4byte	0x9a
 7056 047a 85040000 		.4byte	0x485
 7057 047e 08       		.uleb128 0x8
 7058 047f 93000000 		.4byte	0x93
 7059 0483 1F       		.byte	0x1f
 7060 0484 00       		.byte	0
 7061 0485 03       		.uleb128 0x3
 7062 0486 F40A0000 		.4byte	.LASF94
 7063 048a 04       		.byte	0x4
 7064 048b CD       		.byte	0xcd
 7065 048c FC030000 		.4byte	0x3fc
 7066 0490 13       		.uleb128 0x13
 7067 0491 F2040000 		.4byte	.LASF97
 7068 0495 01       		.byte	0x1
 7069 0496 5D       		.byte	0x5d
 7070 0497 BC000000 		.4byte	0xbc
 7071 049b 00000000 		.4byte	.LFB1
 7072 049f 84020000 		.4byte	.LFE1-.LFB1
 7073 04a3 01       		.uleb128 0x1
 7074 04a4 9C       		.byte	0x9c
 7075 04a5 E2040000 		.4byte	0x4e2
 7076 04a9 14       		.uleb128 0x14
 7077 04aa 3C0D0000 		.4byte	.LASF99
 7078 04ae 01       		.byte	0x1
 7079 04af 5D       		.byte	0x5d
 7080 04b0 E2040000 		.4byte	0x4e2
 7081 04b4 02       		.uleb128 0x2
 7082 04b5 91       		.byte	0x91
 7083 04b6 64       		.sleb128 -28
 7084 04b7 15       		.uleb128 0x15
 7085 04b8 72657300 		.ascii	"res\000"
 7086 04bc 01       		.byte	0x1
 7087 04bd 5F       		.byte	0x5f
 7088 04be BC000000 		.4byte	0xbc
 7089 04c2 02       		.uleb128 0x2
 7090 04c3 91       		.byte	0x91
 7091 04c4 6F       		.sleb128 -17
ARM GAS  C:\Users\49148\AppData\Local\Temp\ccWN5cWv.s 			page 172


 7092 04c5 16       		.uleb128 0x16
 7093 04c6 09020000 		.4byte	.LASF95
 7094 04ca 01       		.byte	0x1
 7095 04cb 60       		.byte	0x60
 7096 04cc BC000000 		.4byte	0xbc
 7097 04d0 02       		.uleb128 0x2
 7098 04d1 91       		.byte	0x91
 7099 04d2 6E       		.sleb128 -18
 7100 04d3 16       		.uleb128 0x16
 7101 04d4 3B070000 		.4byte	.LASF96
 7102 04d8 01       		.byte	0x1
 7103 04d9 61       		.byte	0x61
 7104 04da BC000000 		.4byte	0xbc
 7105 04de 02       		.uleb128 0x2
 7106 04df 91       		.byte	0x91
 7107 04e0 6D       		.sleb128 -19
 7108 04e1 00       		.byte	0
 7109 04e2 05       		.uleb128 0x5
 7110 04e3 04       		.byte	0x4
 7111 04e4 F1030000 		.4byte	0x3f1
 7112 04e8 13       		.uleb128 0x13
 7113 04e9 8A0B0000 		.4byte	.LASF98
 7114 04ed 01       		.byte	0x1
 7115 04ee F0       		.byte	0xf0
 7116 04ef BC000000 		.4byte	0xbc
 7117 04f3 00000000 		.4byte	.LFB2
 7118 04f7 B4000000 		.4byte	.LFE2-.LFB2
 7119 04fb 01       		.uleb128 0x1
 7120 04fc 9C       		.byte	0x9c
 7121 04fd 2C050000 		.4byte	0x52c
 7122 0501 14       		.uleb128 0x14
 7123 0502 3C0D0000 		.4byte	.LASF99
 7124 0506 01       		.byte	0x1
 7125 0507 F0       		.byte	0xf0
 7126 0508 E2040000 		.4byte	0x4e2
 7127 050c 02       		.uleb128 0x2
 7128 050d 91       		.byte	0x91
 7129 050e 64       		.sleb128 -28
 7130 050f 15       		.uleb128 0x15
 7131 0510 72657300 		.ascii	"res\000"
 7132 0514 01       		.byte	0x1
 7133 0515 F2       		.byte	0xf2
 7134 0516 BC000000 		.4byte	0xbc
 7135 051a 02       		.uleb128 0x2
 7136 051b 91       		.byte	0x91
 7137 051c 6F       		.sleb128 -17
 7138 051d 16       		.uleb128 0x16
 7139 051e 09020000 		.4byte	.LASF95
 7140 0522 01       		.byte	0x1
 7141 0523 F3       		.byte	0xf3
 7142 0524 BC000000 		.4byte	0xbc
 7143 0528 02       		.uleb128 0x2
 7144 0529 91       		.byte	0x91
 7145 052a 6E       		.sleb128 -18
 7146 052b 00       		.byte	0
 7147 052c 17       		.uleb128 0x17
 7148 052d C2090000 		.4byte	.LASF100
ARM GAS  C:\Users\49148\AppData\Local\Temp\ccWN5cWv.s 			page 173


 7149 0531 01       		.byte	0x1
 7150 0532 2401     		.2byte	0x124
 7151 0534 BC000000 		.4byte	0xbc
 7152 0538 00000000 		.4byte	.LFB3
 7153 053c 9C010000 		.4byte	.LFE3-.LFB3
 7154 0540 01       		.uleb128 0x1
 7155 0541 9C       		.byte	0x9c
 7156 0542 8D050000 		.4byte	0x58d
 7157 0546 18       		.uleb128 0x18
 7158 0547 3C0D0000 		.4byte	.LASF99
 7159 054b 01       		.byte	0x1
 7160 054c 2401     		.2byte	0x124
 7161 054e E2040000 		.4byte	0x4e2
 7162 0552 02       		.uleb128 0x2
 7163 0553 91       		.byte	0x91
 7164 0554 64       		.sleb128 -28
 7165 0555 19       		.uleb128 0x19
 7166 0556 72657300 		.ascii	"res\000"
 7167 055a 01       		.byte	0x1
 7168 055b 2601     		.2byte	0x126
 7169 055d BC000000 		.4byte	0xbc
 7170 0561 02       		.uleb128 0x2
 7171 0562 91       		.byte	0x91
 7172 0563 6F       		.sleb128 -17
 7173 0564 1A       		.uleb128 0x1a
 7174 0565 09020000 		.4byte	.LASF95
 7175 0569 01       		.byte	0x1
 7176 056a 2701     		.2byte	0x127
 7177 056c BC000000 		.4byte	0xbc
 7178 0570 02       		.uleb128 0x2
 7179 0571 91       		.byte	0x91
 7180 0572 6E       		.sleb128 -18
 7181 0573 1B       		.uleb128 0x1b
 7182 0574 DA000000 		.4byte	.LBB2
 7183 0578 A4000000 		.4byte	.LBE2-.LBB2
 7184 057c 1A       		.uleb128 0x1a
 7185 057d 14070000 		.4byte	.LASF101
 7186 0581 01       		.byte	0x1
 7187 0582 5E01     		.2byte	0x15e
 7188 0584 BC000000 		.4byte	0xbc
 7189 0588 02       		.uleb128 0x2
 7190 0589 91       		.byte	0x91
 7191 058a 6D       		.sleb128 -19
 7192 058b 00       		.byte	0
 7193 058c 00       		.byte	0
 7194 058d 17       		.uleb128 0x17
 7195 058e DF050000 		.4byte	.LASF102
 7196 0592 01       		.byte	0x1
 7197 0593 8B01     		.2byte	0x18b
 7198 0595 BC000000 		.4byte	0xbc
 7199 0599 00000000 		.4byte	.LFB4
 7200 059d 44030000 		.4byte	.LFE4-.LFB4
 7201 05a1 01       		.uleb128 0x1
 7202 05a2 9C       		.byte	0x9c
 7203 05a3 72060000 		.4byte	0x672
 7204 05a7 18       		.uleb128 0x18
 7205 05a8 3C0D0000 		.4byte	.LASF99
ARM GAS  C:\Users\49148\AppData\Local\Temp\ccWN5cWv.s 			page 174


 7206 05ac 01       		.byte	0x1
 7207 05ad 8B01     		.2byte	0x18b
 7208 05af E2040000 		.4byte	0x4e2
 7209 05b3 02       		.uleb128 0x2
 7210 05b4 91       		.byte	0x91
 7211 05b5 5C       		.sleb128 -36
 7212 05b6 18       		.uleb128 0x18
 7213 05b7 9A0E0000 		.4byte	.LASF103
 7214 05bb 01       		.byte	0x1
 7215 05bc 8B01     		.2byte	0x18b
 7216 05be 72060000 		.4byte	0x672
 7217 05c2 02       		.uleb128 0x2
 7218 05c3 91       		.byte	0x91
 7219 05c4 58       		.sleb128 -40
 7220 05c5 18       		.uleb128 0x18
 7221 05c6 15000000 		.4byte	.LASF104
 7222 05ca 01       		.byte	0x1
 7223 05cb 8B01     		.2byte	0x18b
 7224 05cd 72060000 		.4byte	0x672
 7225 05d1 02       		.uleb128 0x2
 7226 05d2 91       		.byte	0x91
 7227 05d3 54       		.sleb128 -44
 7228 05d4 1C       		.uleb128 0x1c
 7229 05d5 6C656E00 		.ascii	"len\000"
 7230 05d9 01       		.byte	0x1
 7231 05da 8B01     		.2byte	0x18b
 7232 05dc 95030000 		.4byte	0x395
 7233 05e0 02       		.uleb128 0x2
 7234 05e1 91       		.byte	0x91
 7235 05e2 50       		.sleb128 -48
 7236 05e3 19       		.uleb128 0x19
 7237 05e4 72657300 		.ascii	"res\000"
 7238 05e8 01       		.byte	0x1
 7239 05e9 8D01     		.2byte	0x18d
 7240 05eb BC000000 		.4byte	0xbc
 7241 05ef 02       		.uleb128 0x2
 7242 05f0 91       		.byte	0x91
 7243 05f1 6A       		.sleb128 -22
 7244 05f2 1A       		.uleb128 0x1a
 7245 05f3 09020000 		.4byte	.LASF95
 7246 05f7 01       		.byte	0x1
 7247 05f8 8E01     		.2byte	0x18e
 7248 05fa BC000000 		.4byte	0xbc
 7249 05fe 02       		.uleb128 0x2
 7250 05ff 91       		.byte	0x91
 7251 0600 68       		.sleb128 -24
 7252 0601 1A       		.uleb128 0x1a
 7253 0602 ED010000 		.4byte	.LASF105
 7254 0606 01       		.byte	0x1
 7255 0607 8F01     		.2byte	0x18f
 7256 0609 BC000000 		.4byte	0xbc
 7257 060d 02       		.uleb128 0x2
 7258 060e 91       		.byte	0x91
 7259 060f 69       		.sleb128 -23
 7260 0610 19       		.uleb128 0x19
 7261 0611 6B00     		.ascii	"k\000"
 7262 0613 01       		.byte	0x1
ARM GAS  C:\Users\49148\AppData\Local\Temp\ccWN5cWv.s 			page 175


 7263 0614 9001     		.2byte	0x190
 7264 0616 BC000000 		.4byte	0xbc
 7265 061a 02       		.uleb128 0x2
 7266 061b 91       		.byte	0x91
 7267 061c 6F       		.sleb128 -17
 7268 061d 1A       		.uleb128 0x1a
 7269 061e 110A0000 		.4byte	.LASF106
 7270 0622 01       		.byte	0x1
 7271 0623 9101     		.2byte	0x191
 7272 0625 BC000000 		.4byte	0xbc
 7273 0629 02       		.uleb128 0x2
 7274 062a 91       		.byte	0x91
 7275 062b 67       		.sleb128 -25
 7276 062c 1A       		.uleb128 0x1a
 7277 062d 44040000 		.4byte	.LASF107
 7278 0631 01       		.byte	0x1
 7279 0632 9201     		.2byte	0x192
 7280 0634 BC000000 		.4byte	0xbc
 7281 0638 02       		.uleb128 0x2
 7282 0639 91       		.byte	0x91
 7283 063a 66       		.sleb128 -26
 7284 063b 19       		.uleb128 0x19
 7285 063c 6C00     		.ascii	"l\000"
 7286 063e 01       		.byte	0x1
 7287 063f 9301     		.2byte	0x193
 7288 0641 BC000000 		.4byte	0xbc
 7289 0645 02       		.uleb128 0x2
 7290 0646 91       		.byte	0x91
 7291 0647 6E       		.sleb128 -18
 7292 0648 19       		.uleb128 0x19
 7293 0649 62697400 		.ascii	"bit\000"
 7294 064d 01       		.byte	0x1
 7295 064e 9401     		.2byte	0x194
 7296 0650 BC000000 		.4byte	0xbc
 7297 0654 02       		.uleb128 0x2
 7298 0655 91       		.byte	0x91
 7299 0656 6D       		.sleb128 -19
 7300 0657 19       		.uleb128 0x19
 7301 0658 6900     		.ascii	"i\000"
 7302 065a 01       		.byte	0x1
 7303 065b 9501     		.2byte	0x195
 7304 065d BC000000 		.4byte	0xbc
 7305 0661 02       		.uleb128 0x2
 7306 0662 91       		.byte	0x91
 7307 0663 6C       		.sleb128 -20
 7308 0664 19       		.uleb128 0x19
 7309 0665 7200     		.ascii	"r\000"
 7310 0667 01       		.byte	0x1
 7311 0668 9601     		.2byte	0x196
 7312 066a BC000000 		.4byte	0xbc
 7313 066e 02       		.uleb128 0x2
 7314 066f 91       		.byte	0x91
 7315 0670 6B       		.sleb128 -21
 7316 0671 00       		.byte	0
 7317 0672 05       		.uleb128 0x5
 7318 0673 04       		.byte	0x4
 7319 0674 D2000000 		.4byte	0xd2
ARM GAS  C:\Users\49148\AppData\Local\Temp\ccWN5cWv.s 			page 176


 7320 0678 17       		.uleb128 0x17
 7321 0679 FA060000 		.4byte	.LASF108
 7322 067d 01       		.byte	0x1
 7323 067e 2702     		.2byte	0x227
 7324 0680 BC000000 		.4byte	0xbc
 7325 0684 00000000 		.4byte	.LFB5
 7326 0688 5C010000 		.4byte	.LFE5-.LFB5
 7327 068c 01       		.uleb128 0x1
 7328 068d 9C       		.byte	0x9c
 7329 068e ED060000 		.4byte	0x6ed
 7330 0692 18       		.uleb128 0x18
 7331 0693 3C0D0000 		.4byte	.LASF99
 7332 0697 01       		.byte	0x1
 7333 0698 2702     		.2byte	0x227
 7334 069a E2040000 		.4byte	0x4e2
 7335 069e 02       		.uleb128 0x2
 7336 069f 91       		.byte	0x91
 7337 06a0 64       		.sleb128 -28
 7338 06a1 1C       		.uleb128 0x1c
 7339 06a2 72617700 		.ascii	"raw\000"
 7340 06a6 01       		.byte	0x1
 7341 06a7 2702     		.2byte	0x227
 7342 06a9 ED060000 		.4byte	0x6ed
 7343 06ad 02       		.uleb128 0x2
 7344 06ae 91       		.byte	0x91
 7345 06af 60       		.sleb128 -32
 7346 06b0 18       		.uleb128 0x18
 7347 06b1 90090000 		.4byte	.LASF109
 7348 06b5 01       		.byte	0x1
 7349 06b6 2702     		.2byte	0x227
 7350 06b8 F3060000 		.4byte	0x6f3
 7351 06bc 02       		.uleb128 0x2
 7352 06bd 91       		.byte	0x91
 7353 06be 5C       		.sleb128 -36
 7354 06bf 19       		.uleb128 0x19
 7355 06c0 72657300 		.ascii	"res\000"
 7356 06c4 01       		.byte	0x1
 7357 06c5 2902     		.2byte	0x229
 7358 06c7 BC000000 		.4byte	0xbc
 7359 06cb 02       		.uleb128 0x2
 7360 06cc 91       		.byte	0x91
 7361 06cd 6D       		.sleb128 -19
 7362 06ce 1A       		.uleb128 0x1a
 7363 06cf 09020000 		.4byte	.LASF95
 7364 06d3 01       		.byte	0x1
 7365 06d4 2A02     		.2byte	0x22a
 7366 06d6 BC000000 		.4byte	0xbc
 7367 06da 02       		.uleb128 0x2
 7368 06db 91       		.byte	0x91
 7369 06dc 6C       		.sleb128 -20
 7370 06dd 1A       		.uleb128 0x1a
 7371 06de 820B0000 		.4byte	.LASF110
 7372 06e2 01       		.byte	0x1
 7373 06e3 2B02     		.2byte	0x22b
 7374 06e5 C7000000 		.4byte	0xc7
 7375 06e9 02       		.uleb128 0x2
 7376 06ea 91       		.byte	0x91
ARM GAS  C:\Users\49148\AppData\Local\Temp\ccWN5cWv.s 			page 177


 7377 06eb 6E       		.sleb128 -18
 7378 06ec 00       		.byte	0
 7379 06ed 05       		.uleb128 0x5
 7380 06ee 04       		.byte	0x4
 7381 06ef C7000000 		.4byte	0xc7
 7382 06f3 05       		.uleb128 0x5
 7383 06f4 04       		.byte	0x4
 7384 06f5 DA030000 		.4byte	0x3da
 7385 06f9 17       		.uleb128 0x17
 7386 06fa 9A0B0000 		.4byte	.LASF111
 7387 06fe 01       		.byte	0x1
 7388 06ff 7E02     		.2byte	0x27e
 7389 0701 BC000000 		.4byte	0xbc
 7390 0705 00000000 		.4byte	.LFB6
 7391 0709 B8000000 		.4byte	.LFE6-.LFB6
 7392 070d 01       		.uleb128 0x1
 7393 070e 9C       		.byte	0x9c
 7394 070f 5F070000 		.4byte	0x75f
 7395 0713 18       		.uleb128 0x18
 7396 0714 3C0D0000 		.4byte	.LASF99
 7397 0718 01       		.byte	0x1
 7398 0719 7E02     		.2byte	0x27e
 7399 071b E2040000 		.4byte	0x4e2
 7400 071f 02       		.uleb128 0x2
 7401 0720 91       		.byte	0x91
 7402 0721 64       		.sleb128 -28
 7403 0722 18       		.uleb128 0x18
 7404 0723 19060000 		.4byte	.LASF112
 7405 0727 01       		.byte	0x1
 7406 0728 7E02     		.2byte	0x27e
 7407 072a 92010000 		.4byte	0x192
 7408 072e 02       		.uleb128 0x2
 7409 072f 91       		.byte	0x91
 7410 0730 63       		.sleb128 -29
 7411 0731 18       		.uleb128 0x18
 7412 0732 E0030000 		.4byte	.LASF113
 7413 0736 01       		.byte	0x1
 7414 0737 7E02     		.2byte	0x27e
 7415 0739 5F070000 		.4byte	0x75f
 7416 073d 02       		.uleb128 0x2
 7417 073e 91       		.byte	0x91
 7418 073f 5C       		.sleb128 -36
 7419 0740 19       		.uleb128 0x19
 7420 0741 72657300 		.ascii	"res\000"
 7421 0745 01       		.byte	0x1
 7422 0746 8002     		.2byte	0x280
 7423 0748 BC000000 		.4byte	0xbc
 7424 074c 02       		.uleb128 0x2
 7425 074d 91       		.byte	0x91
 7426 074e 6F       		.sleb128 -17
 7427 074f 1A       		.uleb128 0x1a
 7428 0750 09020000 		.4byte	.LASF95
 7429 0754 01       		.byte	0x1
 7430 0755 8102     		.2byte	0x281
 7431 0757 BC000000 		.4byte	0xbc
 7432 075b 02       		.uleb128 0x2
 7433 075c 91       		.byte	0x91
ARM GAS  C:\Users\49148\AppData\Local\Temp\ccWN5cWv.s 			page 178


 7434 075d 6E       		.sleb128 -18
 7435 075e 00       		.byte	0
 7436 075f 05       		.uleb128 0x5
 7437 0760 04       		.byte	0x4
 7438 0761 F6000000 		.4byte	0xf6
 7439 0765 17       		.uleb128 0x17
 7440 0766 D5080000 		.4byte	.LASF114
 7441 076a 01       		.byte	0x1
 7442 076b B402     		.2byte	0x2b4
 7443 076d BC000000 		.4byte	0xbc
 7444 0771 00000000 		.4byte	.LFB7
 7445 0775 44010000 		.4byte	.LFE7-.LFB7
 7446 0779 01       		.uleb128 0x1
 7447 077a 9C       		.byte	0x9c
 7448 077b CB070000 		.4byte	0x7cb
 7449 077f 18       		.uleb128 0x18
 7450 0780 3C0D0000 		.4byte	.LASF99
 7451 0784 01       		.byte	0x1
 7452 0785 B402     		.2byte	0x2b4
 7453 0787 E2040000 		.4byte	0x4e2
 7454 078b 02       		.uleb128 0x2
 7455 078c 91       		.byte	0x91
 7456 078d 64       		.sleb128 -28
 7457 078e 18       		.uleb128 0x18
 7458 078f 040B0000 		.4byte	.LASF115
 7459 0793 01       		.byte	0x1
 7460 0794 B402     		.2byte	0x2b4
 7461 0796 C2010000 		.4byte	0x1c2
 7462 079a 02       		.uleb128 0x2
 7463 079b 91       		.byte	0x91
 7464 079c 63       		.sleb128 -29
 7465 079d 18       		.uleb128 0x18
 7466 079e E0030000 		.4byte	.LASF113
 7467 07a2 01       		.byte	0x1
 7468 07a3 B402     		.2byte	0x2b4
 7469 07a5 F6000000 		.4byte	0xf6
 7470 07a9 02       		.uleb128 0x2
 7471 07aa 91       		.byte	0x91
 7472 07ab 62       		.sleb128 -30
 7473 07ac 19       		.uleb128 0x19
 7474 07ad 72657300 		.ascii	"res\000"
 7475 07b1 01       		.byte	0x1
 7476 07b2 B602     		.2byte	0x2b6
 7477 07b4 BC000000 		.4byte	0xbc
 7478 07b8 02       		.uleb128 0x2
 7479 07b9 91       		.byte	0x91
 7480 07ba 6F       		.sleb128 -17
 7481 07bb 1A       		.uleb128 0x1a
 7482 07bc 09020000 		.4byte	.LASF95
 7483 07c0 01       		.byte	0x1
 7484 07c1 B702     		.2byte	0x2b7
 7485 07c3 BC000000 		.4byte	0xbc
 7486 07c7 02       		.uleb128 0x2
 7487 07c8 91       		.byte	0x91
 7488 07c9 6E       		.sleb128 -18
 7489 07ca 00       		.byte	0
 7490 07cb 17       		.uleb128 0x17
ARM GAS  C:\Users\49148\AppData\Local\Temp\ccWN5cWv.s 			page 179


 7491 07cc 1C0A0000 		.4byte	.LASF116
 7492 07d0 01       		.byte	0x1
 7493 07d1 FA02     		.2byte	0x2fa
 7494 07d3 BC000000 		.4byte	0xbc
 7495 07d7 00000000 		.4byte	.LFB8
 7496 07db B8000000 		.4byte	.LFE8-.LFB8
 7497 07df 01       		.uleb128 0x1
 7498 07e0 9C       		.byte	0x9c
 7499 07e1 31080000 		.4byte	0x831
 7500 07e5 18       		.uleb128 0x18
 7501 07e6 3C0D0000 		.4byte	.LASF99
 7502 07ea 01       		.byte	0x1
 7503 07eb FA02     		.2byte	0x2fa
 7504 07ed E2040000 		.4byte	0x4e2
 7505 07f1 02       		.uleb128 0x2
 7506 07f2 91       		.byte	0x91
 7507 07f3 64       		.sleb128 -28
 7508 07f4 18       		.uleb128 0x18
 7509 07f5 040B0000 		.4byte	.LASF115
 7510 07f9 01       		.byte	0x1
 7511 07fa FA02     		.2byte	0x2fa
 7512 07fc C2010000 		.4byte	0x1c2
 7513 0800 02       		.uleb128 0x2
 7514 0801 91       		.byte	0x91
 7515 0802 63       		.sleb128 -29
 7516 0803 18       		.uleb128 0x18
 7517 0804 E0030000 		.4byte	.LASF113
 7518 0808 01       		.byte	0x1
 7519 0809 FA02     		.2byte	0x2fa
 7520 080b 5F070000 		.4byte	0x75f
 7521 080f 02       		.uleb128 0x2
 7522 0810 91       		.byte	0x91
 7523 0811 5C       		.sleb128 -36
 7524 0812 19       		.uleb128 0x19
 7525 0813 72657300 		.ascii	"res\000"
 7526 0817 01       		.byte	0x1
 7527 0818 FC02     		.2byte	0x2fc
 7528 081a BC000000 		.4byte	0xbc
 7529 081e 02       		.uleb128 0x2
 7530 081f 91       		.byte	0x91
 7531 0820 6F       		.sleb128 -17
 7532 0821 1A       		.uleb128 0x1a
 7533 0822 09020000 		.4byte	.LASF95
 7534 0826 01       		.byte	0x1
 7535 0827 FD02     		.2byte	0x2fd
 7536 0829 BC000000 		.4byte	0xbc
 7537 082d 02       		.uleb128 0x2
 7538 082e 91       		.byte	0x91
 7539 082f 6E       		.sleb128 -18
 7540 0830 00       		.byte	0
 7541 0831 17       		.uleb128 0x17
 7542 0832 0E020000 		.4byte	.LASF117
 7543 0836 01       		.byte	0x1
 7544 0837 3003     		.2byte	0x330
 7545 0839 BC000000 		.4byte	0xbc
 7546 083d 00000000 		.4byte	.LFB9
 7547 0841 78000000 		.4byte	.LFE9-.LFB9
ARM GAS  C:\Users\49148\AppData\Local\Temp\ccWN5cWv.s 			page 180


 7548 0845 01       		.uleb128 0x1
 7549 0846 9C       		.byte	0x9c
 7550 0847 88080000 		.4byte	0x888
 7551 084b 18       		.uleb128 0x18
 7552 084c 3C0D0000 		.4byte	.LASF99
 7553 0850 01       		.byte	0x1
 7554 0851 3003     		.2byte	0x330
 7555 0853 E2040000 		.4byte	0x4e2
 7556 0857 02       		.uleb128 0x2
 7557 0858 91       		.byte	0x91
 7558 0859 64       		.sleb128 -28
 7559 085a 18       		.uleb128 0x18
 7560 085b 090A0000 		.4byte	.LASF118
 7561 085f 01       		.byte	0x1
 7562 0860 3003     		.2byte	0x330
 7563 0862 BC000000 		.4byte	0xbc
 7564 0866 02       		.uleb128 0x2
 7565 0867 91       		.byte	0x91
 7566 0868 63       		.sleb128 -29
 7567 0869 19       		.uleb128 0x19
 7568 086a 72657300 		.ascii	"res\000"
 7569 086e 01       		.byte	0x1
 7570 086f 3203     		.2byte	0x332
 7571 0871 BC000000 		.4byte	0xbc
 7572 0875 02       		.uleb128 0x2
 7573 0876 91       		.byte	0x91
 7574 0877 6F       		.sleb128 -17
 7575 0878 1A       		.uleb128 0x1a
 7576 0879 09020000 		.4byte	.LASF95
 7577 087d 01       		.byte	0x1
 7578 087e 3303     		.2byte	0x333
 7579 0880 BC000000 		.4byte	0xbc
 7580 0884 02       		.uleb128 0x2
 7581 0885 91       		.byte	0x91
 7582 0886 6E       		.sleb128 -18
 7583 0887 00       		.byte	0
 7584 0888 17       		.uleb128 0x17
 7585 0889 64030000 		.4byte	.LASF119
 7586 088d 01       		.byte	0x1
 7587 088e 5B03     		.2byte	0x35b
 7588 0890 BC000000 		.4byte	0xbc
 7589 0894 00000000 		.4byte	.LFB10
 7590 0898 60000000 		.4byte	.LFE10-.LFB10
 7591 089c 01       		.uleb128 0x1
 7592 089d 9C       		.byte	0x9c
 7593 089e DF080000 		.4byte	0x8df
 7594 08a2 18       		.uleb128 0x18
 7595 08a3 3C0D0000 		.4byte	.LASF99
 7596 08a7 01       		.byte	0x1
 7597 08a8 5B03     		.2byte	0x35b
 7598 08aa E2040000 		.4byte	0x4e2
 7599 08ae 02       		.uleb128 0x2
 7600 08af 91       		.byte	0x91
 7601 08b0 64       		.sleb128 -28
 7602 08b1 18       		.uleb128 0x18
 7603 08b2 090A0000 		.4byte	.LASF118
 7604 08b6 01       		.byte	0x1
ARM GAS  C:\Users\49148\AppData\Local\Temp\ccWN5cWv.s 			page 181


 7605 08b7 5B03     		.2byte	0x35b
 7606 08b9 95030000 		.4byte	0x395
 7607 08bd 02       		.uleb128 0x2
 7608 08be 91       		.byte	0x91
 7609 08bf 60       		.sleb128 -32
 7610 08c0 19       		.uleb128 0x19
 7611 08c1 72657300 		.ascii	"res\000"
 7612 08c5 01       		.byte	0x1
 7613 08c6 5D03     		.2byte	0x35d
 7614 08c8 BC000000 		.4byte	0xbc
 7615 08cc 02       		.uleb128 0x2
 7616 08cd 91       		.byte	0x91
 7617 08ce 6F       		.sleb128 -17
 7618 08cf 1A       		.uleb128 0x1a
 7619 08d0 09020000 		.4byte	.LASF95
 7620 08d4 01       		.byte	0x1
 7621 08d5 5E03     		.2byte	0x35e
 7622 08d7 BC000000 		.4byte	0xbc
 7623 08db 02       		.uleb128 0x2
 7624 08dc 91       		.byte	0x91
 7625 08dd 6E       		.sleb128 -18
 7626 08de 00       		.byte	0
 7627 08df 17       		.uleb128 0x17
 7628 08e0 9F090000 		.4byte	.LASF120
 7629 08e4 01       		.byte	0x1
 7630 08e5 8103     		.2byte	0x381
 7631 08e7 BC000000 		.4byte	0xbc
 7632 08eb 00000000 		.4byte	.LFB11
 7633 08ef 78000000 		.4byte	.LFE11-.LFB11
 7634 08f3 01       		.uleb128 0x1
 7635 08f4 9C       		.byte	0x9c
 7636 08f5 36090000 		.4byte	0x936
 7637 08f9 18       		.uleb128 0x18
 7638 08fa 3C0D0000 		.4byte	.LASF99
 7639 08fe 01       		.byte	0x1
 7640 08ff 8103     		.2byte	0x381
 7641 0901 E2040000 		.4byte	0x4e2
 7642 0905 02       		.uleb128 0x2
 7643 0906 91       		.byte	0x91
 7644 0907 64       		.sleb128 -28
 7645 0908 18       		.uleb128 0x18
 7646 0909 74040000 		.4byte	.LASF121
 7647 090d 01       		.byte	0x1
 7648 090e 8103     		.2byte	0x381
 7649 0910 BC000000 		.4byte	0xbc
 7650 0914 02       		.uleb128 0x2
 7651 0915 91       		.byte	0x91
 7652 0916 63       		.sleb128 -29
 7653 0917 19       		.uleb128 0x19
 7654 0918 72657300 		.ascii	"res\000"
 7655 091c 01       		.byte	0x1
 7656 091d 8303     		.2byte	0x383
 7657 091f BC000000 		.4byte	0xbc
 7658 0923 02       		.uleb128 0x2
 7659 0924 91       		.byte	0x91
 7660 0925 6F       		.sleb128 -17
 7661 0926 1A       		.uleb128 0x1a
ARM GAS  C:\Users\49148\AppData\Local\Temp\ccWN5cWv.s 			page 182


 7662 0927 09020000 		.4byte	.LASF95
 7663 092b 01       		.byte	0x1
 7664 092c 8403     		.2byte	0x384
 7665 092e BC000000 		.4byte	0xbc
 7666 0932 02       		.uleb128 0x2
 7667 0933 91       		.byte	0x91
 7668 0934 6E       		.sleb128 -18
 7669 0935 00       		.byte	0
 7670 0936 17       		.uleb128 0x17
 7671 0937 56060000 		.4byte	.LASF122
 7672 093b 01       		.byte	0x1
 7673 093c AC03     		.2byte	0x3ac
 7674 093e BC000000 		.4byte	0xbc
 7675 0942 00000000 		.4byte	.LFB12
 7676 0946 60000000 		.4byte	.LFE12-.LFB12
 7677 094a 01       		.uleb128 0x1
 7678 094b 9C       		.byte	0x9c
 7679 094c 8D090000 		.4byte	0x98d
 7680 0950 18       		.uleb128 0x18
 7681 0951 3C0D0000 		.4byte	.LASF99
 7682 0955 01       		.byte	0x1
 7683 0956 AC03     		.2byte	0x3ac
 7684 0958 E2040000 		.4byte	0x4e2
 7685 095c 02       		.uleb128 0x2
 7686 095d 91       		.byte	0x91
 7687 095e 64       		.sleb128 -28
 7688 095f 18       		.uleb128 0x18
 7689 0960 74040000 		.4byte	.LASF121
 7690 0964 01       		.byte	0x1
 7691 0965 AC03     		.2byte	0x3ac
 7692 0967 95030000 		.4byte	0x395
 7693 096b 02       		.uleb128 0x2
 7694 096c 91       		.byte	0x91
 7695 096d 60       		.sleb128 -32
 7696 096e 19       		.uleb128 0x19
 7697 096f 72657300 		.ascii	"res\000"
 7698 0973 01       		.byte	0x1
 7699 0974 AE03     		.2byte	0x3ae
 7700 0976 BC000000 		.4byte	0xbc
 7701 097a 02       		.uleb128 0x2
 7702 097b 91       		.byte	0x91
 7703 097c 6F       		.sleb128 -17
 7704 097d 1A       		.uleb128 0x1a
 7705 097e 09020000 		.4byte	.LASF95
 7706 0982 01       		.byte	0x1
 7707 0983 AF03     		.2byte	0x3af
 7708 0985 BC000000 		.4byte	0xbc
 7709 0989 02       		.uleb128 0x2
 7710 098a 91       		.byte	0x91
 7711 098b 6E       		.sleb128 -18
 7712 098c 00       		.byte	0
 7713 098d 17       		.uleb128 0x17
 7714 098e AA0C0000 		.4byte	.LASF123
 7715 0992 01       		.byte	0x1
 7716 0993 D203     		.2byte	0x3d2
 7717 0995 BC000000 		.4byte	0xbc
 7718 0999 00000000 		.4byte	.LFB13
ARM GAS  C:\Users\49148\AppData\Local\Temp\ccWN5cWv.s 			page 183


 7719 099d 78000000 		.4byte	.LFE13-.LFB13
 7720 09a1 01       		.uleb128 0x1
 7721 09a2 9C       		.byte	0x9c
 7722 09a3 E4090000 		.4byte	0x9e4
 7723 09a7 18       		.uleb128 0x18
 7724 09a8 3C0D0000 		.4byte	.LASF99
 7725 09ac 01       		.byte	0x1
 7726 09ad D203     		.2byte	0x3d2
 7727 09af E2040000 		.4byte	0x4e2
 7728 09b3 02       		.uleb128 0x2
 7729 09b4 91       		.byte	0x91
 7730 09b5 64       		.sleb128 -28
 7731 09b6 18       		.uleb128 0x18
 7732 09b7 090A0000 		.4byte	.LASF118
 7733 09bb 01       		.byte	0x1
 7734 09bc D203     		.2byte	0x3d2
 7735 09be BC000000 		.4byte	0xbc
 7736 09c2 02       		.uleb128 0x2
 7737 09c3 91       		.byte	0x91
 7738 09c4 63       		.sleb128 -29
 7739 09c5 19       		.uleb128 0x19
 7740 09c6 72657300 		.ascii	"res\000"
 7741 09ca 01       		.byte	0x1
 7742 09cb D403     		.2byte	0x3d4
 7743 09cd BC000000 		.4byte	0xbc
 7744 09d1 02       		.uleb128 0x2
 7745 09d2 91       		.byte	0x91
 7746 09d3 6F       		.sleb128 -17
 7747 09d4 1A       		.uleb128 0x1a
 7748 09d5 09020000 		.4byte	.LASF95
 7749 09d9 01       		.byte	0x1
 7750 09da D503     		.2byte	0x3d5
 7751 09dc BC000000 		.4byte	0xbc
 7752 09e0 02       		.uleb128 0x2
 7753 09e1 91       		.byte	0x91
 7754 09e2 6E       		.sleb128 -18
 7755 09e3 00       		.byte	0
 7756 09e4 17       		.uleb128 0x17
 7757 09e5 CE000000 		.4byte	.LASF124
 7758 09e9 01       		.byte	0x1
 7759 09ea FD03     		.2byte	0x3fd
 7760 09ec BC000000 		.4byte	0xbc
 7761 09f0 00000000 		.4byte	.LFB14
 7762 09f4 60000000 		.4byte	.LFE14-.LFB14
 7763 09f8 01       		.uleb128 0x1
 7764 09f9 9C       		.byte	0x9c
 7765 09fa 3B0A0000 		.4byte	0xa3b
 7766 09fe 18       		.uleb128 0x18
 7767 09ff 3C0D0000 		.4byte	.LASF99
 7768 0a03 01       		.byte	0x1
 7769 0a04 FD03     		.2byte	0x3fd
 7770 0a06 E2040000 		.4byte	0x4e2
 7771 0a0a 02       		.uleb128 0x2
 7772 0a0b 91       		.byte	0x91
 7773 0a0c 64       		.sleb128 -28
 7774 0a0d 18       		.uleb128 0x18
 7775 0a0e 090A0000 		.4byte	.LASF118
ARM GAS  C:\Users\49148\AppData\Local\Temp\ccWN5cWv.s 			page 184


 7776 0a12 01       		.byte	0x1
 7777 0a13 FD03     		.2byte	0x3fd
 7778 0a15 95030000 		.4byte	0x395
 7779 0a19 02       		.uleb128 0x2
 7780 0a1a 91       		.byte	0x91
 7781 0a1b 60       		.sleb128 -32
 7782 0a1c 19       		.uleb128 0x19
 7783 0a1d 72657300 		.ascii	"res\000"
 7784 0a21 01       		.byte	0x1
 7785 0a22 FF03     		.2byte	0x3ff
 7786 0a24 BC000000 		.4byte	0xbc
 7787 0a28 02       		.uleb128 0x2
 7788 0a29 91       		.byte	0x91
 7789 0a2a 6F       		.sleb128 -17
 7790 0a2b 1A       		.uleb128 0x1a
 7791 0a2c 09020000 		.4byte	.LASF95
 7792 0a30 01       		.byte	0x1
 7793 0a31 0004     		.2byte	0x400
 7794 0a33 BC000000 		.4byte	0xbc
 7795 0a37 02       		.uleb128 0x2
 7796 0a38 91       		.byte	0x91
 7797 0a39 6E       		.sleb128 -18
 7798 0a3a 00       		.byte	0
 7799 0a3b 17       		.uleb128 0x17
 7800 0a3c 16010000 		.4byte	.LASF125
 7801 0a40 01       		.byte	0x1
 7802 0a41 2204     		.2byte	0x422
 7803 0a43 BC000000 		.4byte	0xbc
 7804 0a47 00000000 		.4byte	.LFB15
 7805 0a4b 54000000 		.4byte	.LFE15-.LFB15
 7806 0a4f 01       		.uleb128 0x1
 7807 0a50 9C       		.byte	0x9c
 7808 0a51 830A0000 		.4byte	0xa83
 7809 0a55 18       		.uleb128 0x18
 7810 0a56 3C0D0000 		.4byte	.LASF99
 7811 0a5a 01       		.byte	0x1
 7812 0a5b 2204     		.2byte	0x422
 7813 0a5d E2040000 		.4byte	0x4e2
 7814 0a61 02       		.uleb128 0x2
 7815 0a62 91       		.byte	0x91
 7816 0a63 64       		.sleb128 -28
 7817 0a64 18       		.uleb128 0x18
 7818 0a65 E2070000 		.4byte	.LASF126
 7819 0a69 01       		.byte	0x1
 7820 0a6a 2204     		.2byte	0x422
 7821 0a6c BC000000 		.4byte	0xbc
 7822 0a70 02       		.uleb128 0x2
 7823 0a71 91       		.byte	0x91
 7824 0a72 63       		.sleb128 -29
 7825 0a73 19       		.uleb128 0x19
 7826 0a74 72657300 		.ascii	"res\000"
 7827 0a78 01       		.byte	0x1
 7828 0a79 2404     		.2byte	0x424
 7829 0a7b BC000000 		.4byte	0xbc
 7830 0a7f 02       		.uleb128 0x2
 7831 0a80 91       		.byte	0x91
 7832 0a81 6F       		.sleb128 -17
ARM GAS  C:\Users\49148\AppData\Local\Temp\ccWN5cWv.s 			page 185


 7833 0a82 00       		.byte	0
 7834 0a83 17       		.uleb128 0x17
 7835 0a84 F2010000 		.4byte	.LASF127
 7836 0a88 01       		.byte	0x1
 7837 0a89 4504     		.2byte	0x445
 7838 0a8b BC000000 		.4byte	0xbc
 7839 0a8f 00000000 		.4byte	.LFB16
 7840 0a93 54000000 		.4byte	.LFE16-.LFB16
 7841 0a97 01       		.uleb128 0x1
 7842 0a98 9C       		.byte	0x9c
 7843 0a99 CB0A0000 		.4byte	0xacb
 7844 0a9d 18       		.uleb128 0x18
 7845 0a9e 3C0D0000 		.4byte	.LASF99
 7846 0aa2 01       		.byte	0x1
 7847 0aa3 4504     		.2byte	0x445
 7848 0aa5 E2040000 		.4byte	0x4e2
 7849 0aa9 02       		.uleb128 0x2
 7850 0aaa 91       		.byte	0x91
 7851 0aab 64       		.sleb128 -28
 7852 0aac 18       		.uleb128 0x18
 7853 0aad E2070000 		.4byte	.LASF126
 7854 0ab1 01       		.byte	0x1
 7855 0ab2 4504     		.2byte	0x445
 7856 0ab4 95030000 		.4byte	0x395
 7857 0ab8 02       		.uleb128 0x2
 7858 0ab9 91       		.byte	0x91
 7859 0aba 60       		.sleb128 -32
 7860 0abb 19       		.uleb128 0x19
 7861 0abc 72657300 		.ascii	"res\000"
 7862 0ac0 01       		.byte	0x1
 7863 0ac1 4704     		.2byte	0x447
 7864 0ac3 BC000000 		.4byte	0xbc
 7865 0ac7 02       		.uleb128 0x2
 7866 0ac8 91       		.byte	0x91
 7867 0ac9 6F       		.sleb128 -17
 7868 0aca 00       		.byte	0
 7869 0acb 17       		.uleb128 0x17
 7870 0acc 9B030000 		.4byte	.LASF128
 7871 0ad0 01       		.byte	0x1
 7872 0ad1 6804     		.2byte	0x468
 7873 0ad3 BC000000 		.4byte	0xbc
 7874 0ad7 00000000 		.4byte	.LFB17
 7875 0adb 9C000000 		.4byte	.LFE17-.LFB17
 7876 0adf 01       		.uleb128 0x1
 7877 0ae0 9C       		.byte	0x9c
 7878 0ae1 220B0000 		.4byte	0xb22
 7879 0ae5 18       		.uleb128 0x18
 7880 0ae6 3C0D0000 		.4byte	.LASF99
 7881 0aea 01       		.byte	0x1
 7882 0aeb 6804     		.2byte	0x468
 7883 0aed E2040000 		.4byte	0x4e2
 7884 0af1 02       		.uleb128 0x2
 7885 0af2 91       		.byte	0x91
 7886 0af3 64       		.sleb128 -28
 7887 0af4 18       		.uleb128 0x18
 7888 0af5 DD0A0000 		.4byte	.LASF129
 7889 0af9 01       		.byte	0x1
ARM GAS  C:\Users\49148\AppData\Local\Temp\ccWN5cWv.s 			page 186


 7890 0afa 6804     		.2byte	0x468
 7891 0afc 32010000 		.4byte	0x132
 7892 0b00 02       		.uleb128 0x2
 7893 0b01 91       		.byte	0x91
 7894 0b02 63       		.sleb128 -29
 7895 0b03 19       		.uleb128 0x19
 7896 0b04 72657300 		.ascii	"res\000"
 7897 0b08 01       		.byte	0x1
 7898 0b09 6A04     		.2byte	0x46a
 7899 0b0b BC000000 		.4byte	0xbc
 7900 0b0f 02       		.uleb128 0x2
 7901 0b10 91       		.byte	0x91
 7902 0b11 6F       		.sleb128 -17
 7903 0b12 1A       		.uleb128 0x1a
 7904 0b13 09020000 		.4byte	.LASF95
 7905 0b17 01       		.byte	0x1
 7906 0b18 6B04     		.2byte	0x46b
 7907 0b1a BC000000 		.4byte	0xbc
 7908 0b1e 02       		.uleb128 0x2
 7909 0b1f 91       		.byte	0x91
 7910 0b20 6E       		.sleb128 -18
 7911 0b21 00       		.byte	0
 7912 0b22 17       		.uleb128 0x17
 7913 0b23 70010000 		.4byte	.LASF130
 7914 0b27 01       		.byte	0x1
 7915 0b28 9504     		.2byte	0x495
 7916 0b2a BC000000 		.4byte	0xbc
 7917 0b2e 00000000 		.4byte	.LFB18
 7918 0b32 60000000 		.4byte	.LFE18-.LFB18
 7919 0b36 01       		.uleb128 0x1
 7920 0b37 9C       		.byte	0x9c
 7921 0b38 790B0000 		.4byte	0xb79
 7922 0b3c 18       		.uleb128 0x18
 7923 0b3d 3C0D0000 		.4byte	.LASF99
 7924 0b41 01       		.byte	0x1
 7925 0b42 9504     		.2byte	0x495
 7926 0b44 E2040000 		.4byte	0x4e2
 7927 0b48 02       		.uleb128 0x2
 7928 0b49 91       		.byte	0x91
 7929 0b4a 64       		.sleb128 -28
 7930 0b4b 18       		.uleb128 0x18
 7931 0b4c DD0A0000 		.4byte	.LASF129
 7932 0b50 01       		.byte	0x1
 7933 0b51 9504     		.2byte	0x495
 7934 0b53 790B0000 		.4byte	0xb79
 7935 0b57 02       		.uleb128 0x2
 7936 0b58 91       		.byte	0x91
 7937 0b59 60       		.sleb128 -32
 7938 0b5a 19       		.uleb128 0x19
 7939 0b5b 72657300 		.ascii	"res\000"
 7940 0b5f 01       		.byte	0x1
 7941 0b60 9704     		.2byte	0x497
 7942 0b62 BC000000 		.4byte	0xbc
 7943 0b66 02       		.uleb128 0x2
 7944 0b67 91       		.byte	0x91
 7945 0b68 6F       		.sleb128 -17
 7946 0b69 1A       		.uleb128 0x1a
ARM GAS  C:\Users\49148\AppData\Local\Temp\ccWN5cWv.s 			page 187


 7947 0b6a 09020000 		.4byte	.LASF95
 7948 0b6e 01       		.byte	0x1
 7949 0b6f 9804     		.2byte	0x498
 7950 0b71 BC000000 		.4byte	0xbc
 7951 0b75 02       		.uleb128 0x2
 7952 0b76 91       		.byte	0x91
 7953 0b77 6E       		.sleb128 -18
 7954 0b78 00       		.byte	0
 7955 0b79 05       		.uleb128 0x5
 7956 0b7a 04       		.byte	0x4
 7957 0b7b 32010000 		.4byte	0x132
 7958 0b7f 17       		.uleb128 0x17
 7959 0b80 A4020000 		.4byte	.LASF131
 7960 0b84 01       		.byte	0x1
 7961 0b85 BA04     		.2byte	0x4ba
 7962 0b87 BC000000 		.4byte	0xbc
 7963 0b8b 00000000 		.4byte	.LFB19
 7964 0b8f 9C000000 		.4byte	.LFE19-.LFB19
 7965 0b93 01       		.uleb128 0x1
 7966 0b94 9C       		.byte	0x9c
 7967 0b95 D60B0000 		.4byte	0xbd6
 7968 0b99 18       		.uleb128 0x18
 7969 0b9a 3C0D0000 		.4byte	.LASF99
 7970 0b9e 01       		.byte	0x1
 7971 0b9f BA04     		.2byte	0x4ba
 7972 0ba1 E2040000 		.4byte	0x4e2
 7973 0ba5 02       		.uleb128 0x2
 7974 0ba6 91       		.byte	0x91
 7975 0ba7 64       		.sleb128 -28
 7976 0ba8 18       		.uleb128 0x18
 7977 0ba9 E0030000 		.4byte	.LASF113
 7978 0bad 01       		.byte	0x1
 7979 0bae BA04     		.2byte	0x4ba
 7980 0bb0 F6000000 		.4byte	0xf6
 7981 0bb4 02       		.uleb128 0x2
 7982 0bb5 91       		.byte	0x91
 7983 0bb6 63       		.sleb128 -29
 7984 0bb7 19       		.uleb128 0x19
 7985 0bb8 72657300 		.ascii	"res\000"
 7986 0bbc 01       		.byte	0x1
 7987 0bbd BC04     		.2byte	0x4bc
 7988 0bbf BC000000 		.4byte	0xbc
 7989 0bc3 02       		.uleb128 0x2
 7990 0bc4 91       		.byte	0x91
 7991 0bc5 6F       		.sleb128 -17
 7992 0bc6 1A       		.uleb128 0x1a
 7993 0bc7 09020000 		.4byte	.LASF95
 7994 0bcb 01       		.byte	0x1
 7995 0bcc BD04     		.2byte	0x4bd
 7996 0bce BC000000 		.4byte	0xbc
 7997 0bd2 02       		.uleb128 0x2
 7998 0bd3 91       		.byte	0x91
 7999 0bd4 6E       		.sleb128 -18
 8000 0bd5 00       		.byte	0
 8001 0bd6 17       		.uleb128 0x17
 8002 0bd7 BE030000 		.4byte	.LASF132
 8003 0bdb 01       		.byte	0x1
ARM GAS  C:\Users\49148\AppData\Local\Temp\ccWN5cWv.s 			page 188


 8004 0bdc E704     		.2byte	0x4e7
 8005 0bde BC000000 		.4byte	0xbc
 8006 0be2 00000000 		.4byte	.LFB20
 8007 0be6 64000000 		.4byte	.LFE20-.LFB20
 8008 0bea 01       		.uleb128 0x1
 8009 0beb 9C       		.byte	0x9c
 8010 0bec 2D0C0000 		.4byte	0xc2d
 8011 0bf0 18       		.uleb128 0x18
 8012 0bf1 3C0D0000 		.4byte	.LASF99
 8013 0bf5 01       		.byte	0x1
 8014 0bf6 E704     		.2byte	0x4e7
 8015 0bf8 E2040000 		.4byte	0x4e2
 8016 0bfc 02       		.uleb128 0x2
 8017 0bfd 91       		.byte	0x91
 8018 0bfe 64       		.sleb128 -28
 8019 0bff 18       		.uleb128 0x18
 8020 0c00 E0030000 		.4byte	.LASF113
 8021 0c04 01       		.byte	0x1
 8022 0c05 E704     		.2byte	0x4e7
 8023 0c07 5F070000 		.4byte	0x75f
 8024 0c0b 02       		.uleb128 0x2
 8025 0c0c 91       		.byte	0x91
 8026 0c0d 60       		.sleb128 -32
 8027 0c0e 19       		.uleb128 0x19
 8028 0c0f 72657300 		.ascii	"res\000"
 8029 0c13 01       		.byte	0x1
 8030 0c14 E904     		.2byte	0x4e9
 8031 0c16 BC000000 		.4byte	0xbc
 8032 0c1a 02       		.uleb128 0x2
 8033 0c1b 91       		.byte	0x91
 8034 0c1c 6F       		.sleb128 -17
 8035 0c1d 1A       		.uleb128 0x1a
 8036 0c1e 09020000 		.4byte	.LASF95
 8037 0c22 01       		.byte	0x1
 8038 0c23 EA04     		.2byte	0x4ea
 8039 0c25 BC000000 		.4byte	0xbc
 8040 0c29 02       		.uleb128 0x2
 8041 0c2a 91       		.byte	0x91
 8042 0c2b 6E       		.sleb128 -18
 8043 0c2c 00       		.byte	0
 8044 0c2d 17       		.uleb128 0x17
 8045 0c2e 1C000000 		.4byte	.LASF133
 8046 0c32 01       		.byte	0x1
 8047 0c33 0D05     		.2byte	0x50d
 8048 0c35 BC000000 		.4byte	0xbc
 8049 0c39 00000000 		.4byte	.LFB21
 8050 0c3d AC000000 		.4byte	.LFE21-.LFB21
 8051 0c41 01       		.uleb128 0x1
 8052 0c42 9C       		.byte	0x9c
 8053 0c43 840C0000 		.4byte	0xc84
 8054 0c47 18       		.uleb128 0x18
 8055 0c48 3C0D0000 		.4byte	.LASF99
 8056 0c4c 01       		.byte	0x1
 8057 0c4d 0D05     		.2byte	0x50d
 8058 0c4f E2040000 		.4byte	0x4e2
 8059 0c53 02       		.uleb128 0x2
 8060 0c54 91       		.byte	0x91
ARM GAS  C:\Users\49148\AppData\Local\Temp\ccWN5cWv.s 			page 189


 8061 0c55 64       		.sleb128 -28
 8062 0c56 18       		.uleb128 0x18
 8063 0c57 22040000 		.4byte	.LASF134
 8064 0c5b 01       		.byte	0x1
 8065 0c5c 0D05     		.2byte	0x50d
 8066 0c5e BC000000 		.4byte	0xbc
 8067 0c62 02       		.uleb128 0x2
 8068 0c63 91       		.byte	0x91
 8069 0c64 63       		.sleb128 -29
 8070 0c65 19       		.uleb128 0x19
 8071 0c66 72657300 		.ascii	"res\000"
 8072 0c6a 01       		.byte	0x1
 8073 0c6b 0F05     		.2byte	0x50f
 8074 0c6d BC000000 		.4byte	0xbc
 8075 0c71 02       		.uleb128 0x2
 8076 0c72 91       		.byte	0x91
 8077 0c73 6F       		.sleb128 -17
 8078 0c74 1A       		.uleb128 0x1a
 8079 0c75 09020000 		.4byte	.LASF95
 8080 0c79 01       		.byte	0x1
 8081 0c7a 1005     		.2byte	0x510
 8082 0c7c BC000000 		.4byte	0xbc
 8083 0c80 02       		.uleb128 0x2
 8084 0c81 91       		.byte	0x91
 8085 0c82 6E       		.sleb128 -18
 8086 0c83 00       		.byte	0
 8087 0c84 17       		.uleb128 0x17
 8088 0c85 640B0000 		.4byte	.LASF135
 8089 0c89 01       		.byte	0x1
 8090 0c8a 4005     		.2byte	0x540
 8091 0c8c BC000000 		.4byte	0xbc
 8092 0c90 00000000 		.4byte	.LFB22
 8093 0c94 60000000 		.4byte	.LFE22-.LFB22
 8094 0c98 01       		.uleb128 0x1
 8095 0c99 9C       		.byte	0x9c
 8096 0c9a DB0C0000 		.4byte	0xcdb
 8097 0c9e 18       		.uleb128 0x18
 8098 0c9f 3C0D0000 		.4byte	.LASF99
 8099 0ca3 01       		.byte	0x1
 8100 0ca4 4005     		.2byte	0x540
 8101 0ca6 E2040000 		.4byte	0x4e2
 8102 0caa 02       		.uleb128 0x2
 8103 0cab 91       		.byte	0x91
 8104 0cac 64       		.sleb128 -28
 8105 0cad 18       		.uleb128 0x18
 8106 0cae 22040000 		.4byte	.LASF134
 8107 0cb2 01       		.byte	0x1
 8108 0cb3 4005     		.2byte	0x540
 8109 0cb5 95030000 		.4byte	0x395
 8110 0cb9 02       		.uleb128 0x2
 8111 0cba 91       		.byte	0x91
 8112 0cbb 60       		.sleb128 -32
 8113 0cbc 19       		.uleb128 0x19
 8114 0cbd 72657300 		.ascii	"res\000"
 8115 0cc1 01       		.byte	0x1
 8116 0cc2 4205     		.2byte	0x542
 8117 0cc4 BC000000 		.4byte	0xbc
ARM GAS  C:\Users\49148\AppData\Local\Temp\ccWN5cWv.s 			page 190


 8118 0cc8 02       		.uleb128 0x2
 8119 0cc9 91       		.byte	0x91
 8120 0cca 6F       		.sleb128 -17
 8121 0ccb 1A       		.uleb128 0x1a
 8122 0ccc 09020000 		.4byte	.LASF95
 8123 0cd0 01       		.byte	0x1
 8124 0cd1 4305     		.2byte	0x543
 8125 0cd3 BC000000 		.4byte	0xbc
 8126 0cd7 02       		.uleb128 0x2
 8127 0cd8 91       		.byte	0x91
 8128 0cd9 6E       		.sleb128 -18
 8129 0cda 00       		.byte	0
 8130 0cdb 17       		.uleb128 0x17
 8131 0cdc 40060000 		.4byte	.LASF136
 8132 0ce0 01       		.byte	0x1
 8133 0ce1 6505     		.2byte	0x565
 8134 0ce3 BC000000 		.4byte	0xbc
 8135 0ce7 00000000 		.4byte	.LFB23
 8136 0ceb 9C000000 		.4byte	.LFE23-.LFB23
 8137 0cef 01       		.uleb128 0x1
 8138 0cf0 9C       		.byte	0x9c
 8139 0cf1 320D0000 		.4byte	0xd32
 8140 0cf5 18       		.uleb128 0x18
 8141 0cf6 3C0D0000 		.4byte	.LASF99
 8142 0cfa 01       		.byte	0x1
 8143 0cfb 6505     		.2byte	0x565
 8144 0cfd E2040000 		.4byte	0x4e2
 8145 0d01 02       		.uleb128 0x2
 8146 0d02 91       		.byte	0x91
 8147 0d03 64       		.sleb128 -28
 8148 0d04 18       		.uleb128 0x18
 8149 0d05 E0030000 		.4byte	.LASF113
 8150 0d09 01       		.byte	0x1
 8151 0d0a 6505     		.2byte	0x565
 8152 0d0c F6000000 		.4byte	0xf6
 8153 0d10 02       		.uleb128 0x2
 8154 0d11 91       		.byte	0x91
 8155 0d12 63       		.sleb128 -29
 8156 0d13 19       		.uleb128 0x19
 8157 0d14 72657300 		.ascii	"res\000"
 8158 0d18 01       		.byte	0x1
 8159 0d19 6705     		.2byte	0x567
 8160 0d1b BC000000 		.4byte	0xbc
 8161 0d1f 02       		.uleb128 0x2
 8162 0d20 91       		.byte	0x91
 8163 0d21 6F       		.sleb128 -17
 8164 0d22 1A       		.uleb128 0x1a
 8165 0d23 09020000 		.4byte	.LASF95
 8166 0d27 01       		.byte	0x1
 8167 0d28 6805     		.2byte	0x568
 8168 0d2a BC000000 		.4byte	0xbc
 8169 0d2e 02       		.uleb128 0x2
 8170 0d2f 91       		.byte	0x91
 8171 0d30 6E       		.sleb128 -18
 8172 0d31 00       		.byte	0
 8173 0d32 17       		.uleb128 0x17
 8174 0d33 82020000 		.4byte	.LASF137
ARM GAS  C:\Users\49148\AppData\Local\Temp\ccWN5cWv.s 			page 191


 8175 0d37 01       		.byte	0x1
 8176 0d38 9205     		.2byte	0x592
 8177 0d3a BC000000 		.4byte	0xbc
 8178 0d3e 00000000 		.4byte	.LFB24
 8179 0d42 60000000 		.4byte	.LFE24-.LFB24
 8180 0d46 01       		.uleb128 0x1
 8181 0d47 9C       		.byte	0x9c
 8182 0d48 890D0000 		.4byte	0xd89
 8183 0d4c 18       		.uleb128 0x18
 8184 0d4d 3C0D0000 		.4byte	.LASF99
 8185 0d51 01       		.byte	0x1
 8186 0d52 9205     		.2byte	0x592
 8187 0d54 E2040000 		.4byte	0x4e2
 8188 0d58 02       		.uleb128 0x2
 8189 0d59 91       		.byte	0x91
 8190 0d5a 64       		.sleb128 -28
 8191 0d5b 18       		.uleb128 0x18
 8192 0d5c E0030000 		.4byte	.LASF113
 8193 0d60 01       		.byte	0x1
 8194 0d61 9205     		.2byte	0x592
 8195 0d63 5F070000 		.4byte	0x75f
 8196 0d67 02       		.uleb128 0x2
 8197 0d68 91       		.byte	0x91
 8198 0d69 60       		.sleb128 -32
 8199 0d6a 19       		.uleb128 0x19
 8200 0d6b 72657300 		.ascii	"res\000"
 8201 0d6f 01       		.byte	0x1
 8202 0d70 9405     		.2byte	0x594
 8203 0d72 BC000000 		.4byte	0xbc
 8204 0d76 02       		.uleb128 0x2
 8205 0d77 91       		.byte	0x91
 8206 0d78 6F       		.sleb128 -17
 8207 0d79 1A       		.uleb128 0x1a
 8208 0d7a 09020000 		.4byte	.LASF95
 8209 0d7e 01       		.byte	0x1
 8210 0d7f 9505     		.2byte	0x595
 8211 0d81 BC000000 		.4byte	0xbc
 8212 0d85 02       		.uleb128 0x2
 8213 0d86 91       		.byte	0x91
 8214 0d87 6E       		.sleb128 -18
 8215 0d88 00       		.byte	0
 8216 0d89 17       		.uleb128 0x17
 8217 0d8a 60090000 		.4byte	.LASF138
 8218 0d8e 01       		.byte	0x1
 8219 0d8f B605     		.2byte	0x5b6
 8220 0d91 BC000000 		.4byte	0xbc
 8221 0d95 00000000 		.4byte	.LFB25
 8222 0d99 90000000 		.4byte	.LFE25-.LFB25
 8223 0d9d 01       		.uleb128 0x1
 8224 0d9e 9C       		.byte	0x9c
 8225 0d9f D10D0000 		.4byte	0xdd1
 8226 0da3 18       		.uleb128 0x18
 8227 0da4 3C0D0000 		.4byte	.LASF99
 8228 0da8 01       		.byte	0x1
 8229 0da9 B605     		.2byte	0x5b6
 8230 0dab E2040000 		.4byte	0x4e2
 8231 0daf 02       		.uleb128 0x2
ARM GAS  C:\Users\49148\AppData\Local\Temp\ccWN5cWv.s 			page 192


 8232 0db0 91       		.byte	0x91
 8233 0db1 64       		.sleb128 -28
 8234 0db2 19       		.uleb128 0x19
 8235 0db3 72657300 		.ascii	"res\000"
 8236 0db7 01       		.byte	0x1
 8237 0db8 B805     		.2byte	0x5b8
 8238 0dba BC000000 		.4byte	0xbc
 8239 0dbe 02       		.uleb128 0x2
 8240 0dbf 91       		.byte	0x91
 8241 0dc0 6F       		.sleb128 -17
 8242 0dc1 1A       		.uleb128 0x1a
 8243 0dc2 09020000 		.4byte	.LASF95
 8244 0dc6 01       		.byte	0x1
 8245 0dc7 B905     		.2byte	0x5b9
 8246 0dc9 BC000000 		.4byte	0xbc
 8247 0dcd 02       		.uleb128 0x2
 8248 0dce 91       		.byte	0x91
 8249 0dcf 6E       		.sleb128 -18
 8250 0dd0 00       		.byte	0
 8251 0dd1 17       		.uleb128 0x17
 8252 0dd2 4E090000 		.4byte	.LASF139
 8253 0dd6 01       		.byte	0x1
 8254 0dd7 E305     		.2byte	0x5e3
 8255 0dd9 BC000000 		.4byte	0xbc
 8256 0ddd 00000000 		.4byte	.LFB26
 8257 0de1 94000000 		.4byte	.LFE26-.LFB26
 8258 0de5 01       		.uleb128 0x1
 8259 0de6 9C       		.byte	0x9c
 8260 0de7 280E0000 		.4byte	0xe28
 8261 0deb 18       		.uleb128 0x18
 8262 0dec 3C0D0000 		.4byte	.LASF99
 8263 0df0 01       		.byte	0x1
 8264 0df1 E305     		.2byte	0x5e3
 8265 0df3 E2040000 		.4byte	0x4e2
 8266 0df7 02       		.uleb128 0x2
 8267 0df8 91       		.byte	0x91
 8268 0df9 64       		.sleb128 -28
 8269 0dfa 18       		.uleb128 0x18
 8270 0dfb ED010000 		.4byte	.LASF105
 8271 0dff 01       		.byte	0x1
 8272 0e00 E305     		.2byte	0x5e3
 8273 0e02 5C010000 		.4byte	0x15c
 8274 0e06 02       		.uleb128 0x2
 8275 0e07 91       		.byte	0x91
 8276 0e08 63       		.sleb128 -29
 8277 0e09 19       		.uleb128 0x19
 8278 0e0a 72657300 		.ascii	"res\000"
 8279 0e0e 01       		.byte	0x1
 8280 0e0f E505     		.2byte	0x5e5
 8281 0e11 BC000000 		.4byte	0xbc
 8282 0e15 02       		.uleb128 0x2
 8283 0e16 91       		.byte	0x91
 8284 0e17 6F       		.sleb128 -17
 8285 0e18 1A       		.uleb128 0x1a
 8286 0e19 09020000 		.4byte	.LASF95
 8287 0e1d 01       		.byte	0x1
 8288 0e1e E605     		.2byte	0x5e6
ARM GAS  C:\Users\49148\AppData\Local\Temp\ccWN5cWv.s 			page 193


 8289 0e20 BC000000 		.4byte	0xbc
 8290 0e24 02       		.uleb128 0x2
 8291 0e25 91       		.byte	0x91
 8292 0e26 6E       		.sleb128 -18
 8293 0e27 00       		.byte	0
 8294 0e28 17       		.uleb128 0x17
 8295 0e29 94050000 		.4byte	.LASF140
 8296 0e2d 01       		.byte	0x1
 8297 0e2e 1006     		.2byte	0x610
 8298 0e30 BC000000 		.4byte	0xbc
 8299 0e34 00000000 		.4byte	.LFB27
 8300 0e38 60000000 		.4byte	.LFE27-.LFB27
 8301 0e3c 01       		.uleb128 0x1
 8302 0e3d 9C       		.byte	0x9c
 8303 0e3e 7F0E0000 		.4byte	0xe7f
 8304 0e42 18       		.uleb128 0x18
 8305 0e43 3C0D0000 		.4byte	.LASF99
 8306 0e47 01       		.byte	0x1
 8307 0e48 1006     		.2byte	0x610
 8308 0e4a E2040000 		.4byte	0x4e2
 8309 0e4e 02       		.uleb128 0x2
 8310 0e4f 91       		.byte	0x91
 8311 0e50 64       		.sleb128 -28
 8312 0e51 18       		.uleb128 0x18
 8313 0e52 ED010000 		.4byte	.LASF105
 8314 0e56 01       		.byte	0x1
 8315 0e57 1006     		.2byte	0x610
 8316 0e59 7F0E0000 		.4byte	0xe7f
 8317 0e5d 02       		.uleb128 0x2
 8318 0e5e 91       		.byte	0x91
 8319 0e5f 60       		.sleb128 -32
 8320 0e60 19       		.uleb128 0x19
 8321 0e61 72657300 		.ascii	"res\000"
 8322 0e65 01       		.byte	0x1
 8323 0e66 1206     		.2byte	0x612
 8324 0e68 BC000000 		.4byte	0xbc
 8325 0e6c 02       		.uleb128 0x2
 8326 0e6d 91       		.byte	0x91
 8327 0e6e 6F       		.sleb128 -17
 8328 0e6f 1A       		.uleb128 0x1a
 8329 0e70 09020000 		.4byte	.LASF95
 8330 0e74 01       		.byte	0x1
 8331 0e75 1306     		.2byte	0x613
 8332 0e77 BC000000 		.4byte	0xbc
 8333 0e7b 02       		.uleb128 0x2
 8334 0e7c 91       		.byte	0x91
 8335 0e7d 6E       		.sleb128 -18
 8336 0e7e 00       		.byte	0
 8337 0e7f 05       		.uleb128 0x5
 8338 0e80 04       		.byte	0x4
 8339 0e81 5C010000 		.4byte	0x15c
 8340 0e85 17       		.uleb128 0x17
 8341 0e86 9C040000 		.4byte	.LASF141
 8342 0e8a 01       		.byte	0x1
 8343 0e8b 3506     		.2byte	0x635
 8344 0e8d BC000000 		.4byte	0xbc
 8345 0e91 00000000 		.4byte	.LFB28
ARM GAS  C:\Users\49148\AppData\Local\Temp\ccWN5cWv.s 			page 194


 8346 0e95 9C000000 		.4byte	.LFE28-.LFB28
 8347 0e99 01       		.uleb128 0x1
 8348 0e9a 9C       		.byte	0x9c
 8349 0e9b DC0E0000 		.4byte	0xedc
 8350 0e9f 18       		.uleb128 0x18
 8351 0ea0 3C0D0000 		.4byte	.LASF99
 8352 0ea4 01       		.byte	0x1
 8353 0ea5 3506     		.2byte	0x635
 8354 0ea7 E2040000 		.4byte	0x4e2
 8355 0eab 02       		.uleb128 0x2
 8356 0eac 91       		.byte	0x91
 8357 0ead 64       		.sleb128 -28
 8358 0eae 18       		.uleb128 0x18
 8359 0eaf 43070000 		.4byte	.LASF142
 8360 0eb3 01       		.byte	0x1
 8361 0eb4 3506     		.2byte	0x635
 8362 0eb6 F2010000 		.4byte	0x1f2
 8363 0eba 02       		.uleb128 0x2
 8364 0ebb 91       		.byte	0x91
 8365 0ebc 63       		.sleb128 -29
 8366 0ebd 19       		.uleb128 0x19
 8367 0ebe 72657300 		.ascii	"res\000"
 8368 0ec2 01       		.byte	0x1
 8369 0ec3 3706     		.2byte	0x637
 8370 0ec5 BC000000 		.4byte	0xbc
 8371 0ec9 02       		.uleb128 0x2
 8372 0eca 91       		.byte	0x91
 8373 0ecb 6F       		.sleb128 -17
 8374 0ecc 1A       		.uleb128 0x1a
 8375 0ecd 09020000 		.4byte	.LASF95
 8376 0ed1 01       		.byte	0x1
 8377 0ed2 3806     		.2byte	0x638
 8378 0ed4 BC000000 		.4byte	0xbc
 8379 0ed8 02       		.uleb128 0x2
 8380 0ed9 91       		.byte	0x91
 8381 0eda 6E       		.sleb128 -18
 8382 0edb 00       		.byte	0
 8383 0edc 17       		.uleb128 0x17
 8384 0edd 2B080000 		.4byte	.LASF143
 8385 0ee1 01       		.byte	0x1
 8386 0ee2 6206     		.2byte	0x662
 8387 0ee4 BC000000 		.4byte	0xbc
 8388 0ee8 00000000 		.4byte	.LFB29
 8389 0eec 64000000 		.4byte	.LFE29-.LFB29
 8390 0ef0 01       		.uleb128 0x1
 8391 0ef1 9C       		.byte	0x9c
 8392 0ef2 330F0000 		.4byte	0xf33
 8393 0ef6 18       		.uleb128 0x18
 8394 0ef7 3C0D0000 		.4byte	.LASF99
 8395 0efb 01       		.byte	0x1
 8396 0efc 6206     		.2byte	0x662
 8397 0efe E2040000 		.4byte	0x4e2
 8398 0f02 02       		.uleb128 0x2
 8399 0f03 91       		.byte	0x91
 8400 0f04 64       		.sleb128 -28
 8401 0f05 18       		.uleb128 0x18
 8402 0f06 43070000 		.4byte	.LASF142
ARM GAS  C:\Users\49148\AppData\Local\Temp\ccWN5cWv.s 			page 195


 8403 0f0a 01       		.byte	0x1
 8404 0f0b 6206     		.2byte	0x662
 8405 0f0d 330F0000 		.4byte	0xf33
 8406 0f11 02       		.uleb128 0x2
 8407 0f12 91       		.byte	0x91
 8408 0f13 60       		.sleb128 -32
 8409 0f14 19       		.uleb128 0x19
 8410 0f15 72657300 		.ascii	"res\000"
 8411 0f19 01       		.byte	0x1
 8412 0f1a 6406     		.2byte	0x664
 8413 0f1c BC000000 		.4byte	0xbc
 8414 0f20 02       		.uleb128 0x2
 8415 0f21 91       		.byte	0x91
 8416 0f22 6F       		.sleb128 -17
 8417 0f23 1A       		.uleb128 0x1a
 8418 0f24 09020000 		.4byte	.LASF95
 8419 0f28 01       		.byte	0x1
 8420 0f29 6506     		.2byte	0x665
 8421 0f2b BC000000 		.4byte	0xbc
 8422 0f2f 02       		.uleb128 0x2
 8423 0f30 91       		.byte	0x91
 8424 0f31 6E       		.sleb128 -18
 8425 0f32 00       		.byte	0
 8426 0f33 05       		.uleb128 0x5
 8427 0f34 04       		.byte	0x4
 8428 0f35 F2010000 		.4byte	0x1f2
 8429 0f39 17       		.uleb128 0x17
 8430 0f3a B80B0000 		.4byte	.LASF144
 8431 0f3e 01       		.byte	0x1
 8432 0f3f 8706     		.2byte	0x687
 8433 0f41 BC000000 		.4byte	0xbc
 8434 0f45 00000000 		.4byte	.LFB30
 8435 0f49 9C000000 		.4byte	.LFE30-.LFB30
 8436 0f4d 01       		.uleb128 0x1
 8437 0f4e 9C       		.byte	0x9c
 8438 0f4f 900F0000 		.4byte	0xf90
 8439 0f53 18       		.uleb128 0x18
 8440 0f54 3C0D0000 		.4byte	.LASF99
 8441 0f58 01       		.byte	0x1
 8442 0f59 8706     		.2byte	0x687
 8443 0f5b E2040000 		.4byte	0x4e2
 8444 0f5f 02       		.uleb128 0x2
 8445 0f60 91       		.byte	0x91
 8446 0f61 64       		.sleb128 -28
 8447 0f62 18       		.uleb128 0x18
 8448 0f63 AB050000 		.4byte	.LASF145
 8449 0f67 01       		.byte	0x1
 8450 0f68 8706     		.2byte	0x687
 8451 0f6a 3A020000 		.4byte	0x23a
 8452 0f6e 02       		.uleb128 0x2
 8453 0f6f 91       		.byte	0x91
 8454 0f70 63       		.sleb128 -29
 8455 0f71 19       		.uleb128 0x19
 8456 0f72 72657300 		.ascii	"res\000"
 8457 0f76 01       		.byte	0x1
 8458 0f77 8906     		.2byte	0x689
 8459 0f79 BC000000 		.4byte	0xbc
ARM GAS  C:\Users\49148\AppData\Local\Temp\ccWN5cWv.s 			page 196


 8460 0f7d 02       		.uleb128 0x2
 8461 0f7e 91       		.byte	0x91
 8462 0f7f 6F       		.sleb128 -17
 8463 0f80 1A       		.uleb128 0x1a
 8464 0f81 09020000 		.4byte	.LASF95
 8465 0f85 01       		.byte	0x1
 8466 0f86 8A06     		.2byte	0x68a
 8467 0f88 BC000000 		.4byte	0xbc
 8468 0f8c 02       		.uleb128 0x2
 8469 0f8d 91       		.byte	0x91
 8470 0f8e 6E       		.sleb128 -18
 8471 0f8f 00       		.byte	0
 8472 0f90 17       		.uleb128 0x17
 8473 0f91 49070000 		.4byte	.LASF146
 8474 0f95 01       		.byte	0x1
 8475 0f96 B406     		.2byte	0x6b4
 8476 0f98 BC000000 		.4byte	0xbc
 8477 0f9c 00000000 		.4byte	.LFB31
 8478 0fa0 64000000 		.4byte	.LFE31-.LFB31
 8479 0fa4 01       		.uleb128 0x1
 8480 0fa5 9C       		.byte	0x9c
 8481 0fa6 E70F0000 		.4byte	0xfe7
 8482 0faa 18       		.uleb128 0x18
 8483 0fab 3C0D0000 		.4byte	.LASF99
 8484 0faf 01       		.byte	0x1
 8485 0fb0 B406     		.2byte	0x6b4
 8486 0fb2 E2040000 		.4byte	0x4e2
 8487 0fb6 02       		.uleb128 0x2
 8488 0fb7 91       		.byte	0x91
 8489 0fb8 64       		.sleb128 -28
 8490 0fb9 18       		.uleb128 0x18
 8491 0fba AB050000 		.4byte	.LASF145
 8492 0fbe 01       		.byte	0x1
 8493 0fbf B406     		.2byte	0x6b4
 8494 0fc1 E70F0000 		.4byte	0xfe7
 8495 0fc5 02       		.uleb128 0x2
 8496 0fc6 91       		.byte	0x91
 8497 0fc7 60       		.sleb128 -32
 8498 0fc8 19       		.uleb128 0x19
 8499 0fc9 72657300 		.ascii	"res\000"
 8500 0fcd 01       		.byte	0x1
 8501 0fce B606     		.2byte	0x6b6
 8502 0fd0 BC000000 		.4byte	0xbc
 8503 0fd4 02       		.uleb128 0x2
 8504 0fd5 91       		.byte	0x91
 8505 0fd6 6F       		.sleb128 -17
 8506 0fd7 1A       		.uleb128 0x1a
 8507 0fd8 09020000 		.4byte	.LASF95
 8508 0fdc 01       		.byte	0x1
 8509 0fdd B706     		.2byte	0x6b7
 8510 0fdf BC000000 		.4byte	0xbc
 8511 0fe3 02       		.uleb128 0x2
 8512 0fe4 91       		.byte	0x91
 8513 0fe5 6E       		.sleb128 -18
 8514 0fe6 00       		.byte	0
 8515 0fe7 05       		.uleb128 0x5
 8516 0fe8 04       		.byte	0x4
ARM GAS  C:\Users\49148\AppData\Local\Temp\ccWN5cWv.s 			page 197


 8517 0fe9 3A020000 		.4byte	0x23a
 8518 0fed 17       		.uleb128 0x17
 8519 0fee 330A0000 		.4byte	.LASF147
 8520 0ff2 01       		.byte	0x1
 8521 0ff3 D906     		.2byte	0x6d9
 8522 0ff5 BC000000 		.4byte	0xbc
 8523 0ff9 00000000 		.4byte	.LFB32
 8524 0ffd 94000000 		.4byte	.LFE32-.LFB32
 8525 1001 01       		.uleb128 0x1
 8526 1002 9C       		.byte	0x9c
 8527 1003 44100000 		.4byte	0x1044
 8528 1007 18       		.uleb128 0x18
 8529 1008 3C0D0000 		.4byte	.LASF99
 8530 100c 01       		.byte	0x1
 8531 100d D906     		.2byte	0x6d9
 8532 100f E2040000 		.4byte	0x4e2
 8533 1013 02       		.uleb128 0x2
 8534 1014 91       		.byte	0x91
 8535 1015 64       		.sleb128 -28
 8536 1016 18       		.uleb128 0x18
 8537 1017 06060000 		.4byte	.LASF148
 8538 101b 01       		.byte	0x1
 8539 101c D906     		.2byte	0x6d9
 8540 101e 6A020000 		.4byte	0x26a
 8541 1022 02       		.uleb128 0x2
 8542 1023 91       		.byte	0x91
 8543 1024 63       		.sleb128 -29
 8544 1025 19       		.uleb128 0x19
 8545 1026 72657300 		.ascii	"res\000"
 8546 102a 01       		.byte	0x1
 8547 102b DB06     		.2byte	0x6db
 8548 102d BC000000 		.4byte	0xbc
 8549 1031 02       		.uleb128 0x2
 8550 1032 91       		.byte	0x91
 8551 1033 6F       		.sleb128 -17
 8552 1034 1A       		.uleb128 0x1a
 8553 1035 09020000 		.4byte	.LASF95
 8554 1039 01       		.byte	0x1
 8555 103a DC06     		.2byte	0x6dc
 8556 103c BC000000 		.4byte	0xbc
 8557 1040 02       		.uleb128 0x2
 8558 1041 91       		.byte	0x91
 8559 1042 6E       		.sleb128 -18
 8560 1043 00       		.byte	0
 8561 1044 17       		.uleb128 0x17
 8562 1045 ED000000 		.4byte	.LASF149
 8563 1049 01       		.byte	0x1
 8564 104a 0607     		.2byte	0x706
 8565 104c BC000000 		.4byte	0xbc
 8566 1050 00000000 		.4byte	.LFB33
 8567 1054 60000000 		.4byte	.LFE33-.LFB33
 8568 1058 01       		.uleb128 0x1
 8569 1059 9C       		.byte	0x9c
 8570 105a 9B100000 		.4byte	0x109b
 8571 105e 18       		.uleb128 0x18
 8572 105f 3C0D0000 		.4byte	.LASF99
 8573 1063 01       		.byte	0x1
ARM GAS  C:\Users\49148\AppData\Local\Temp\ccWN5cWv.s 			page 198


 8574 1064 0607     		.2byte	0x706
 8575 1066 E2040000 		.4byte	0x4e2
 8576 106a 02       		.uleb128 0x2
 8577 106b 91       		.byte	0x91
 8578 106c 64       		.sleb128 -28
 8579 106d 18       		.uleb128 0x18
 8580 106e 06060000 		.4byte	.LASF148
 8581 1072 01       		.byte	0x1
 8582 1073 0607     		.2byte	0x706
 8583 1075 9B100000 		.4byte	0x109b
 8584 1079 02       		.uleb128 0x2
 8585 107a 91       		.byte	0x91
 8586 107b 60       		.sleb128 -32
 8587 107c 19       		.uleb128 0x19
 8588 107d 72657300 		.ascii	"res\000"
 8589 1081 01       		.byte	0x1
 8590 1082 0807     		.2byte	0x708
 8591 1084 BC000000 		.4byte	0xbc
 8592 1088 02       		.uleb128 0x2
 8593 1089 91       		.byte	0x91
 8594 108a 6F       		.sleb128 -17
 8595 108b 1A       		.uleb128 0x1a
 8596 108c 09020000 		.4byte	.LASF95
 8597 1090 01       		.byte	0x1
 8598 1091 0907     		.2byte	0x709
 8599 1093 BC000000 		.4byte	0xbc
 8600 1097 02       		.uleb128 0x2
 8601 1098 91       		.byte	0x91
 8602 1099 6E       		.sleb128 -18
 8603 109a 00       		.byte	0
 8604 109b 05       		.uleb128 0x5
 8605 109c 04       		.byte	0x4
 8606 109d 6A020000 		.4byte	0x26a
 8607 10a1 17       		.uleb128 0x17
 8608 10a2 170B0000 		.4byte	.LASF150
 8609 10a6 01       		.byte	0x1
 8610 10a7 2B07     		.2byte	0x72b
 8611 10a9 BC000000 		.4byte	0xbc
 8612 10ad 00000000 		.4byte	.LFB34
 8613 10b1 54000000 		.4byte	.LFE34-.LFB34
 8614 10b5 01       		.uleb128 0x1
 8615 10b6 9C       		.byte	0x9c
 8616 10b7 E9100000 		.4byte	0x10e9
 8617 10bb 18       		.uleb128 0x18
 8618 10bc 3C0D0000 		.4byte	.LASF99
 8619 10c0 01       		.byte	0x1
 8620 10c1 2B07     		.2byte	0x72b
 8621 10c3 E2040000 		.4byte	0x4e2
 8622 10c7 02       		.uleb128 0x2
 8623 10c8 91       		.byte	0x91
 8624 10c9 64       		.sleb128 -28
 8625 10ca 1C       		.uleb128 0x1c
 8626 10cb 616D7000 		.ascii	"amp\000"
 8627 10cf 01       		.byte	0x1
 8628 10d0 2B07     		.2byte	0x72b
 8629 10d2 BC000000 		.4byte	0xbc
 8630 10d6 02       		.uleb128 0x2
ARM GAS  C:\Users\49148\AppData\Local\Temp\ccWN5cWv.s 			page 199


 8631 10d7 91       		.byte	0x91
 8632 10d8 63       		.sleb128 -29
 8633 10d9 19       		.uleb128 0x19
 8634 10da 72657300 		.ascii	"res\000"
 8635 10de 01       		.byte	0x1
 8636 10df 2D07     		.2byte	0x72d
 8637 10e1 BC000000 		.4byte	0xbc
 8638 10e5 02       		.uleb128 0x2
 8639 10e6 91       		.byte	0x91
 8640 10e7 6F       		.sleb128 -17
 8641 10e8 00       		.byte	0
 8642 10e9 17       		.uleb128 0x17
 8643 10ea 3C020000 		.4byte	.LASF151
 8644 10ee 01       		.byte	0x1
 8645 10ef 4E07     		.2byte	0x74e
 8646 10f1 BC000000 		.4byte	0xbc
 8647 10f5 00000000 		.4byte	.LFB35
 8648 10f9 54000000 		.4byte	.LFE35-.LFB35
 8649 10fd 01       		.uleb128 0x1
 8650 10fe 9C       		.byte	0x9c
 8651 10ff 31110000 		.4byte	0x1131
 8652 1103 18       		.uleb128 0x18
 8653 1104 3C0D0000 		.4byte	.LASF99
 8654 1108 01       		.byte	0x1
 8655 1109 4E07     		.2byte	0x74e
 8656 110b E2040000 		.4byte	0x4e2
 8657 110f 02       		.uleb128 0x2
 8658 1110 91       		.byte	0x91
 8659 1111 64       		.sleb128 -28
 8660 1112 1C       		.uleb128 0x1c
 8661 1113 616D7000 		.ascii	"amp\000"
 8662 1117 01       		.byte	0x1
 8663 1118 4E07     		.2byte	0x74e
 8664 111a 95030000 		.4byte	0x395
 8665 111e 02       		.uleb128 0x2
 8666 111f 91       		.byte	0x91
 8667 1120 60       		.sleb128 -32
 8668 1121 19       		.uleb128 0x19
 8669 1122 72657300 		.ascii	"res\000"
 8670 1126 01       		.byte	0x1
 8671 1127 5007     		.2byte	0x750
 8672 1129 BC000000 		.4byte	0xbc
 8673 112d 02       		.uleb128 0x2
 8674 112e 91       		.byte	0x91
 8675 112f 6F       		.sleb128 -17
 8676 1130 00       		.byte	0
 8677 1131 17       		.uleb128 0x17
 8678 1132 160C0000 		.4byte	.LASF152
 8679 1136 01       		.byte	0x1
 8680 1137 7107     		.2byte	0x771
 8681 1139 BC000000 		.4byte	0xbc
 8682 113d 00000000 		.4byte	.LFB36
 8683 1141 54000000 		.4byte	.LFE36-.LFB36
 8684 1145 01       		.uleb128 0x1
 8685 1146 9C       		.byte	0x9c
 8686 1147 79110000 		.4byte	0x1179
 8687 114b 18       		.uleb128 0x18
ARM GAS  C:\Users\49148\AppData\Local\Temp\ccWN5cWv.s 			page 200


 8688 114c 3C0D0000 		.4byte	.LASF99
 8689 1150 01       		.byte	0x1
 8690 1151 7107     		.2byte	0x771
 8691 1153 E2040000 		.4byte	0x4e2
 8692 1157 02       		.uleb128 0x2
 8693 1158 91       		.byte	0x91
 8694 1159 64       		.sleb128 -28
 8695 115a 1C       		.uleb128 0x1c
 8696 115b 616D7000 		.ascii	"amp\000"
 8697 115f 01       		.byte	0x1
 8698 1160 7107     		.2byte	0x771
 8699 1162 BC000000 		.4byte	0xbc
 8700 1166 02       		.uleb128 0x2
 8701 1167 91       		.byte	0x91
 8702 1168 63       		.sleb128 -29
 8703 1169 19       		.uleb128 0x19
 8704 116a 72657300 		.ascii	"res\000"
 8705 116e 01       		.byte	0x1
 8706 116f 7307     		.2byte	0x773
 8707 1171 BC000000 		.4byte	0xbc
 8708 1175 02       		.uleb128 0x2
 8709 1176 91       		.byte	0x91
 8710 1177 6F       		.sleb128 -17
 8711 1178 00       		.byte	0
 8712 1179 17       		.uleb128 0x17
 8713 117a 26030000 		.4byte	.LASF153
 8714 117e 01       		.byte	0x1
 8715 117f 9407     		.2byte	0x794
 8716 1181 BC000000 		.4byte	0xbc
 8717 1185 00000000 		.4byte	.LFB37
 8718 1189 54000000 		.4byte	.LFE37-.LFB37
 8719 118d 01       		.uleb128 0x1
 8720 118e 9C       		.byte	0x9c
 8721 118f C1110000 		.4byte	0x11c1
 8722 1193 18       		.uleb128 0x18
 8723 1194 3C0D0000 		.4byte	.LASF99
 8724 1198 01       		.byte	0x1
 8725 1199 9407     		.2byte	0x794
 8726 119b E2040000 		.4byte	0x4e2
 8727 119f 02       		.uleb128 0x2
 8728 11a0 91       		.byte	0x91
 8729 11a1 64       		.sleb128 -28
 8730 11a2 1C       		.uleb128 0x1c
 8731 11a3 616D7000 		.ascii	"amp\000"
 8732 11a7 01       		.byte	0x1
 8733 11a8 9407     		.2byte	0x794
 8734 11aa 95030000 		.4byte	0x395
 8735 11ae 02       		.uleb128 0x2
 8736 11af 91       		.byte	0x91
 8737 11b0 60       		.sleb128 -32
 8738 11b1 19       		.uleb128 0x19
 8739 11b2 72657300 		.ascii	"res\000"
 8740 11b6 01       		.byte	0x1
 8741 11b7 9607     		.2byte	0x796
 8742 11b9 BC000000 		.4byte	0xbc
 8743 11bd 02       		.uleb128 0x2
 8744 11be 91       		.byte	0x91
ARM GAS  C:\Users\49148\AppData\Local\Temp\ccWN5cWv.s 			page 201


 8745 11bf 6F       		.sleb128 -17
 8746 11c0 00       		.byte	0
 8747 11c1 17       		.uleb128 0x17
 8748 11c2 7E090000 		.4byte	.LASF154
 8749 11c6 01       		.byte	0x1
 8750 11c7 B807     		.2byte	0x7b8
 8751 11c9 BC000000 		.4byte	0xbc
 8752 11cd 00000000 		.4byte	.LFB38
 8753 11d1 FC010000 		.4byte	.LFE38-.LFB38
 8754 11d5 01       		.uleb128 0x1
 8755 11d6 9C       		.byte	0x9c
 8756 11d7 27120000 		.4byte	0x1227
 8757 11db 18       		.uleb128 0x18
 8758 11dc 3C0D0000 		.4byte	.LASF99
 8759 11e0 01       		.byte	0x1
 8760 11e1 B807     		.2byte	0x7b8
 8761 11e3 E2040000 		.4byte	0x4e2
 8762 11e7 02       		.uleb128 0x2
 8763 11e8 91       		.byte	0x91
 8764 11e9 64       		.sleb128 -28
 8765 11ea 18       		.uleb128 0x18
 8766 11eb 9E000000 		.4byte	.LASF155
 8767 11ef 01       		.byte	0x1
 8768 11f0 B807     		.2byte	0x7b8
 8769 11f2 C4020000 		.4byte	0x2c4
 8770 11f6 02       		.uleb128 0x2
 8771 11f7 91       		.byte	0x91
 8772 11f8 63       		.sleb128 -29
 8773 11f9 1C       		.uleb128 0x1c
 8774 11fa 6C656400 		.ascii	"led\000"
 8775 11fe 01       		.byte	0x1
 8776 11ff B807     		.2byte	0x7b8
 8777 1201 94020000 		.4byte	0x294
 8778 1205 02       		.uleb128 0x2
 8779 1206 91       		.byte	0x91
 8780 1207 62       		.sleb128 -30
 8781 1208 19       		.uleb128 0x19
 8782 1209 72657300 		.ascii	"res\000"
 8783 120d 01       		.byte	0x1
 8784 120e BA07     		.2byte	0x7ba
 8785 1210 BC000000 		.4byte	0xbc
 8786 1214 02       		.uleb128 0x2
 8787 1215 91       		.byte	0x91
 8788 1216 6F       		.sleb128 -17
 8789 1217 1A       		.uleb128 0x1a
 8790 1218 09020000 		.4byte	.LASF95
 8791 121c 01       		.byte	0x1
 8792 121d BB07     		.2byte	0x7bb
 8793 121f BC000000 		.4byte	0xbc
 8794 1223 02       		.uleb128 0x2
 8795 1224 91       		.byte	0x91
 8796 1225 6E       		.sleb128 -18
 8797 1226 00       		.byte	0
 8798 1227 17       		.uleb128 0x17
 8799 1228 B0050000 		.4byte	.LASF156
 8800 122c 01       		.byte	0x1
 8801 122d 2E08     		.2byte	0x82e
ARM GAS  C:\Users\49148\AppData\Local\Temp\ccWN5cWv.s 			page 202


 8802 122f BC000000 		.4byte	0xbc
 8803 1233 00000000 		.4byte	.LFB39
 8804 1237 38010000 		.4byte	.LFE39-.LFB39
 8805 123b 01       		.uleb128 0x1
 8806 123c 9C       		.byte	0x9c
 8807 123d 8D120000 		.4byte	0x128d
 8808 1241 18       		.uleb128 0x18
 8809 1242 3C0D0000 		.4byte	.LASF99
 8810 1246 01       		.byte	0x1
 8811 1247 2E08     		.2byte	0x82e
 8812 1249 E2040000 		.4byte	0x4e2
 8813 124d 02       		.uleb128 0x2
 8814 124e 91       		.byte	0x91
 8815 124f 64       		.sleb128 -28
 8816 1250 18       		.uleb128 0x18
 8817 1251 9E000000 		.4byte	.LASF155
 8818 1255 01       		.byte	0x1
 8819 1256 2E08     		.2byte	0x82e
 8820 1258 C4020000 		.4byte	0x2c4
 8821 125c 02       		.uleb128 0x2
 8822 125d 91       		.byte	0x91
 8823 125e 63       		.sleb128 -29
 8824 125f 1C       		.uleb128 0x1c
 8825 1260 6C656400 		.ascii	"led\000"
 8826 1264 01       		.byte	0x1
 8827 1265 2E08     		.2byte	0x82e
 8828 1267 8D120000 		.4byte	0x128d
 8829 126b 02       		.uleb128 0x2
 8830 126c 91       		.byte	0x91
 8831 126d 5C       		.sleb128 -36
 8832 126e 19       		.uleb128 0x19
 8833 126f 72657300 		.ascii	"res\000"
 8834 1273 01       		.byte	0x1
 8835 1274 3008     		.2byte	0x830
 8836 1276 BC000000 		.4byte	0xbc
 8837 127a 02       		.uleb128 0x2
 8838 127b 91       		.byte	0x91
 8839 127c 6F       		.sleb128 -17
 8840 127d 1A       		.uleb128 0x1a
 8841 127e 09020000 		.4byte	.LASF95
 8842 1282 01       		.byte	0x1
 8843 1283 3108     		.2byte	0x831
 8844 1285 BC000000 		.4byte	0xbc
 8845 1289 02       		.uleb128 0x2
 8846 128a 91       		.byte	0x91
 8847 128b 6E       		.sleb128 -18
 8848 128c 00       		.byte	0
 8849 128d 05       		.uleb128 0x5
 8850 128e 04       		.byte	0x4
 8851 128f 94020000 		.4byte	0x294
 8852 1293 17       		.uleb128 0x17
 8853 1294 9A0A0000 		.4byte	.LASF157
 8854 1298 01       		.byte	0x1
 8855 1299 8308     		.2byte	0x883
 8856 129b BC000000 		.4byte	0xbc
 8857 129f 00000000 		.4byte	.LFB40
 8858 12a3 94000000 		.4byte	.LFE40-.LFB40
ARM GAS  C:\Users\49148\AppData\Local\Temp\ccWN5cWv.s 			page 203


 8859 12a7 01       		.uleb128 0x1
 8860 12a8 9C       		.byte	0x9c
 8861 12a9 EA120000 		.4byte	0x12ea
 8862 12ad 18       		.uleb128 0x18
 8863 12ae 3C0D0000 		.4byte	.LASF99
 8864 12b2 01       		.byte	0x1
 8865 12b3 8308     		.2byte	0x883
 8866 12b5 E2040000 		.4byte	0x4e2
 8867 12b9 02       		.uleb128 0x2
 8868 12ba 91       		.byte	0x91
 8869 12bb 64       		.sleb128 -28
 8870 12bc 18       		.uleb128 0x18
 8871 12bd E0030000 		.4byte	.LASF113
 8872 12c1 01       		.byte	0x1
 8873 12c2 8308     		.2byte	0x883
 8874 12c4 F6000000 		.4byte	0xf6
 8875 12c8 02       		.uleb128 0x2
 8876 12c9 91       		.byte	0x91
 8877 12ca 63       		.sleb128 -29
 8878 12cb 19       		.uleb128 0x19
 8879 12cc 72657300 		.ascii	"res\000"
 8880 12d0 01       		.byte	0x1
 8881 12d1 8508     		.2byte	0x885
 8882 12d3 BC000000 		.4byte	0xbc
 8883 12d7 02       		.uleb128 0x2
 8884 12d8 91       		.byte	0x91
 8885 12d9 6F       		.sleb128 -17
 8886 12da 1A       		.uleb128 0x1a
 8887 12db 09020000 		.4byte	.LASF95
 8888 12df 01       		.byte	0x1
 8889 12e0 8608     		.2byte	0x886
 8890 12e2 BC000000 		.4byte	0xbc
 8891 12e6 02       		.uleb128 0x2
 8892 12e7 91       		.byte	0x91
 8893 12e8 6E       		.sleb128 -18
 8894 12e9 00       		.byte	0
 8895 12ea 17       		.uleb128 0x17
 8896 12eb 79060000 		.4byte	.LASF158
 8897 12ef 01       		.byte	0x1
 8898 12f0 B008     		.2byte	0x8b0
 8899 12f2 BC000000 		.4byte	0xbc
 8900 12f6 00000000 		.4byte	.LFB41
 8901 12fa 60000000 		.4byte	.LFE41-.LFB41
 8902 12fe 01       		.uleb128 0x1
 8903 12ff 9C       		.byte	0x9c
 8904 1300 41130000 		.4byte	0x1341
 8905 1304 18       		.uleb128 0x18
 8906 1305 3C0D0000 		.4byte	.LASF99
 8907 1309 01       		.byte	0x1
 8908 130a B008     		.2byte	0x8b0
 8909 130c E2040000 		.4byte	0x4e2
 8910 1310 02       		.uleb128 0x2
 8911 1311 91       		.byte	0x91
 8912 1312 64       		.sleb128 -28
 8913 1313 18       		.uleb128 0x18
 8914 1314 E0030000 		.4byte	.LASF113
 8915 1318 01       		.byte	0x1
ARM GAS  C:\Users\49148\AppData\Local\Temp\ccWN5cWv.s 			page 204


 8916 1319 B008     		.2byte	0x8b0
 8917 131b 5F070000 		.4byte	0x75f
 8918 131f 02       		.uleb128 0x2
 8919 1320 91       		.byte	0x91
 8920 1321 60       		.sleb128 -32
 8921 1322 19       		.uleb128 0x19
 8922 1323 72657300 		.ascii	"res\000"
 8923 1327 01       		.byte	0x1
 8924 1328 B208     		.2byte	0x8b2
 8925 132a BC000000 		.4byte	0xbc
 8926 132e 02       		.uleb128 0x2
 8927 132f 91       		.byte	0x91
 8928 1330 6F       		.sleb128 -17
 8929 1331 1A       		.uleb128 0x1a
 8930 1332 09020000 		.4byte	.LASF95
 8931 1336 01       		.byte	0x1
 8932 1337 B308     		.2byte	0x8b3
 8933 1339 BC000000 		.4byte	0xbc
 8934 133d 02       		.uleb128 0x2
 8935 133e 91       		.byte	0x91
 8936 133f 6E       		.sleb128 -18
 8937 1340 00       		.byte	0
 8938 1341 17       		.uleb128 0x17
 8939 1342 A3000000 		.4byte	.LASF159
 8940 1346 01       		.byte	0x1
 8941 1347 D608     		.2byte	0x8d6
 8942 1349 BC000000 		.4byte	0xbc
 8943 134d 00000000 		.4byte	.LFB42
 8944 1351 7C000000 		.4byte	.LFE42-.LFB42
 8945 1355 01       		.uleb128 0x1
 8946 1356 9C       		.byte	0x9c
 8947 1357 98130000 		.4byte	0x1398
 8948 135b 18       		.uleb128 0x18
 8949 135c 3C0D0000 		.4byte	.LASF99
 8950 1360 01       		.byte	0x1
 8951 1361 D608     		.2byte	0x8d6
 8952 1363 E2040000 		.4byte	0x4e2
 8953 1367 02       		.uleb128 0x2
 8954 1368 91       		.byte	0x91
 8955 1369 64       		.sleb128 -28
 8956 136a 18       		.uleb128 0x18
 8957 136b 98020000 		.4byte	.LASF160
 8958 136f 01       		.byte	0x1
 8959 1370 D608     		.2byte	0x8d6
 8960 1372 95030000 		.4byte	0x395
 8961 1376 02       		.uleb128 0x2
 8962 1377 91       		.byte	0x91
 8963 1378 60       		.sleb128 -32
 8964 1379 18       		.uleb128 0x18
 8965 137a 3B070000 		.4byte	.LASF96
 8966 137e 01       		.byte	0x1
 8967 137f D608     		.2byte	0x8d6
 8968 1381 95030000 		.4byte	0x395
 8969 1385 02       		.uleb128 0x2
 8970 1386 91       		.byte	0x91
 8971 1387 5C       		.sleb128 -36
 8972 1388 19       		.uleb128 0x19
ARM GAS  C:\Users\49148\AppData\Local\Temp\ccWN5cWv.s 			page 205


 8973 1389 72657300 		.ascii	"res\000"
 8974 138d 01       		.byte	0x1
 8975 138e D808     		.2byte	0x8d8
 8976 1390 BC000000 		.4byte	0xbc
 8977 1394 02       		.uleb128 0x2
 8978 1395 91       		.byte	0x91
 8979 1396 6F       		.sleb128 -17
 8980 1397 00       		.byte	0
 8981 1398 17       		.uleb128 0x17
 8982 1399 F8090000 		.4byte	.LASF161
 8983 139d 01       		.byte	0x1
 8984 139e 0209     		.2byte	0x902
 8985 13a0 BC000000 		.4byte	0xbc
 8986 13a4 00000000 		.4byte	.LFB43
 8987 13a8 4C000000 		.4byte	.LFE43-.LFB43
 8988 13ac 01       		.uleb128 0x1
 8989 13ad 9C       		.byte	0x9c
 8990 13ae EF130000 		.4byte	0x13ef
 8991 13b2 18       		.uleb128 0x18
 8992 13b3 3C0D0000 		.4byte	.LASF99
 8993 13b7 01       		.byte	0x1
 8994 13b8 0209     		.2byte	0x902
 8995 13ba E2040000 		.4byte	0x4e2
 8996 13be 02       		.uleb128 0x2
 8997 13bf 91       		.byte	0x91
 8998 13c0 6C       		.sleb128 -20
 8999 13c1 1C       		.uleb128 0x1c
 9000 13c2 72656700 		.ascii	"reg\000"
 9001 13c6 01       		.byte	0x1
 9002 13c7 0209     		.2byte	0x902
 9003 13c9 BC000000 		.4byte	0xbc
 9004 13cd 02       		.uleb128 0x2
 9005 13ce 91       		.byte	0x91
 9006 13cf 6B       		.sleb128 -21
 9007 13d0 1C       		.uleb128 0x1c
 9008 13d1 62756600 		.ascii	"buf\000"
 9009 13d5 01       		.byte	0x1
 9010 13d6 0209     		.2byte	0x902
 9011 13d8 95030000 		.4byte	0x395
 9012 13dc 02       		.uleb128 0x2
 9013 13dd 91       		.byte	0x91
 9014 13de 64       		.sleb128 -28
 9015 13df 1C       		.uleb128 0x1c
 9016 13e0 6C656E00 		.ascii	"len\000"
 9017 13e4 01       		.byte	0x1
 9018 13e5 0209     		.2byte	0x902
 9019 13e7 C7000000 		.4byte	0xc7
 9020 13eb 02       		.uleb128 0x2
 9021 13ec 91       		.byte	0x91
 9022 13ed 68       		.sleb128 -24
 9023 13ee 00       		.byte	0
 9024 13ef 17       		.uleb128 0x17
 9025 13f0 B3000000 		.4byte	.LASF162
 9026 13f4 01       		.byte	0x1
 9027 13f5 2409     		.2byte	0x924
 9028 13f7 BC000000 		.4byte	0xbc
 9029 13fb 00000000 		.4byte	.LFB44
ARM GAS  C:\Users\49148\AppData\Local\Temp\ccWN5cWv.s 			page 206


 9030 13ff 4C000000 		.4byte	.LFE44-.LFB44
 9031 1403 01       		.uleb128 0x1
 9032 1404 9C       		.byte	0x9c
 9033 1405 46140000 		.4byte	0x1446
 9034 1409 18       		.uleb128 0x18
 9035 140a 3C0D0000 		.4byte	.LASF99
 9036 140e 01       		.byte	0x1
 9037 140f 2409     		.2byte	0x924
 9038 1411 E2040000 		.4byte	0x4e2
 9039 1415 02       		.uleb128 0x2
 9040 1416 91       		.byte	0x91
 9041 1417 6C       		.sleb128 -20
 9042 1418 1C       		.uleb128 0x1c
 9043 1419 72656700 		.ascii	"reg\000"
 9044 141d 01       		.byte	0x1
 9045 141e 2409     		.2byte	0x924
 9046 1420 BC000000 		.4byte	0xbc
 9047 1424 02       		.uleb128 0x2
 9048 1425 91       		.byte	0x91
 9049 1426 6B       		.sleb128 -21
 9050 1427 1C       		.uleb128 0x1c
 9051 1428 62756600 		.ascii	"buf\000"
 9052 142c 01       		.byte	0x1
 9053 142d 2409     		.2byte	0x924
 9054 142f 95030000 		.4byte	0x395
 9055 1433 02       		.uleb128 0x2
 9056 1434 91       		.byte	0x91
 9057 1435 64       		.sleb128 -28
 9058 1436 1C       		.uleb128 0x1c
 9059 1437 6C656E00 		.ascii	"len\000"
 9060 143b 01       		.byte	0x1
 9061 143c 2409     		.2byte	0x924
 9062 143e C7000000 		.4byte	0xc7
 9063 1442 02       		.uleb128 0x2
 9064 1443 91       		.byte	0x91
 9065 1444 68       		.sleb128 -24
 9066 1445 00       		.byte	0
 9067 1446 17       		.uleb128 0x17
 9068 1447 2E020000 		.4byte	.LASF163
 9069 144b 01       		.byte	0x1
 9070 144c 4109     		.2byte	0x941
 9071 144e BC000000 		.4byte	0xbc
 9072 1452 00000000 		.4byte	.LFB45
 9073 1456 94000000 		.4byte	.LFE45-.LFB45
 9074 145a 01       		.uleb128 0x1
 9075 145b 9C       		.byte	0x9c
 9076 145c 70140000 		.4byte	0x1470
 9077 1460 18       		.uleb128 0x18
 9078 1461 67070000 		.4byte	.LASF164
 9079 1465 01       		.byte	0x1
 9080 1466 4109     		.2byte	0x941
 9081 1468 70140000 		.4byte	0x1470
 9082 146c 02       		.uleb128 0x2
 9083 146d 91       		.byte	0x91
 9084 146e 74       		.sleb128 -12
 9085 146f 00       		.byte	0
 9086 1470 05       		.uleb128 0x5
ARM GAS  C:\Users\49148\AppData\Local\Temp\ccWN5cWv.s 			page 207


 9087 1471 04       		.byte	0x4
 9088 1472 85040000 		.4byte	0x485
 9089 1476 17       		.uleb128 0x17
 9090 1477 7C040000 		.4byte	.LASF165
 9091 147b 01       		.byte	0x1
 9092 147c 5809     		.2byte	0x958
 9093 147e BC000000 		.4byte	0xbc
 9094 1482 00000000 		.4byte	.LFB46
 9095 1486 2A000000 		.4byte	.LFE46-.LFB46
 9096 148a 01       		.uleb128 0x1
 9097 148b 9C       		.byte	0x9c
 9098 148c BE140000 		.4byte	0x14be
 9099 1490 18       		.uleb128 0x18
 9100 1491 3C0D0000 		.4byte	.LASF99
 9101 1495 01       		.byte	0x1
 9102 1496 5809     		.2byte	0x958
 9103 1498 E2040000 		.4byte	0x4e2
 9104 149c 02       		.uleb128 0x2
 9105 149d 91       		.byte	0x91
 9106 149e 64       		.sleb128 -28
 9107 149f 18       		.uleb128 0x18
 9108 14a0 DA040000 		.4byte	.LASF166
 9109 14a4 01       		.byte	0x1
 9110 14a5 5809     		.2byte	0x958
 9111 14a7 BC000000 		.4byte	0xbc
 9112 14ab 02       		.uleb128 0x2
 9113 14ac 91       		.byte	0x91
 9114 14ad 63       		.sleb128 -29
 9115 14ae 19       		.uleb128 0x19
 9116 14af 62756600 		.ascii	"buf\000"
 9117 14b3 01       		.byte	0x1
 9118 14b4 5909     		.2byte	0x959
 9119 14b6 BE140000 		.4byte	0x14be
 9120 14ba 02       		.uleb128 0x2
 9121 14bb 91       		.byte	0x91
 9122 14bc 6C       		.sleb128 -20
 9123 14bd 00       		.byte	0
 9124 14be 07       		.uleb128 0x7
 9125 14bf BC000000 		.4byte	0xbc
 9126 14c3 CE140000 		.4byte	0x14ce
 9127 14c7 08       		.uleb128 0x8
 9128 14c8 93000000 		.4byte	0x93
 9129 14cc 00       		.byte	0
 9130 14cd 00       		.byte	0
 9131 14ce 17       		.uleb128 0x17
 9132 14cf 20060000 		.4byte	.LASF167
 9133 14d3 01       		.byte	0x1
 9134 14d4 5E09     		.2byte	0x95e
 9135 14d6 BC000000 		.4byte	0xbc
 9136 14da 00000000 		.4byte	.LFB47
 9137 14de 2A000000 		.4byte	.LFE47-.LFB47
 9138 14e2 01       		.uleb128 0x1
 9139 14e3 9C       		.byte	0x9c
 9140 14e4 16150000 		.4byte	0x1516
 9141 14e8 18       		.uleb128 0x18
 9142 14e9 3C0D0000 		.4byte	.LASF99
 9143 14ed 01       		.byte	0x1
ARM GAS  C:\Users\49148\AppData\Local\Temp\ccWN5cWv.s 			page 208


 9144 14ee 5E09     		.2byte	0x95e
 9145 14f0 E2040000 		.4byte	0x4e2
 9146 14f4 02       		.uleb128 0x2
 9147 14f5 91       		.byte	0x91
 9148 14f6 64       		.sleb128 -28
 9149 14f7 18       		.uleb128 0x18
 9150 14f8 DA040000 		.4byte	.LASF166
 9151 14fc 01       		.byte	0x1
 9152 14fd 5E09     		.2byte	0x95e
 9153 14ff BC000000 		.4byte	0xbc
 9154 1503 02       		.uleb128 0x2
 9155 1504 91       		.byte	0x91
 9156 1505 63       		.sleb128 -29
 9157 1506 19       		.uleb128 0x19
 9158 1507 62756600 		.ascii	"buf\000"
 9159 150b 01       		.byte	0x1
 9160 150c 5F09     		.2byte	0x95f
 9161 150e BE140000 		.4byte	0x14be
 9162 1512 02       		.uleb128 0x2
 9163 1513 91       		.byte	0x91
 9164 1514 6C       		.sleb128 -20
 9165 1515 00       		.byte	0
 9166 1516 17       		.uleb128 0x17
 9167 1517 96060000 		.4byte	.LASF168
 9168 151b 01       		.byte	0x1
 9169 151c 6409     		.2byte	0x964
 9170 151e BC000000 		.4byte	0xbc
 9171 1522 00000000 		.4byte	.LFB48
 9172 1526 2A000000 		.4byte	.LFE48-.LFB48
 9173 152a 01       		.uleb128 0x1
 9174 152b 9C       		.byte	0x9c
 9175 152c 5E150000 		.4byte	0x155e
 9176 1530 18       		.uleb128 0x18
 9177 1531 3C0D0000 		.4byte	.LASF99
 9178 1535 01       		.byte	0x1
 9179 1536 6409     		.2byte	0x964
 9180 1538 E2040000 		.4byte	0x4e2
 9181 153c 02       		.uleb128 0x2
 9182 153d 91       		.byte	0x91
 9183 153e 64       		.sleb128 -28
 9184 153f 18       		.uleb128 0x18
 9185 1540 DA040000 		.4byte	.LASF166
 9186 1544 01       		.byte	0x1
 9187 1545 6409     		.2byte	0x964
 9188 1547 BC000000 		.4byte	0xbc
 9189 154b 02       		.uleb128 0x2
 9190 154c 91       		.byte	0x91
 9191 154d 63       		.sleb128 -29
 9192 154e 19       		.uleb128 0x19
 9193 154f 62756600 		.ascii	"buf\000"
 9194 1553 01       		.byte	0x1
 9195 1554 6509     		.2byte	0x965
 9196 1556 BE140000 		.4byte	0x14be
 9197 155a 02       		.uleb128 0x2
 9198 155b 91       		.byte	0x91
 9199 155c 6C       		.sleb128 -20
 9200 155d 00       		.byte	0
ARM GAS  C:\Users\49148\AppData\Local\Temp\ccWN5cWv.s 			page 209


 9201 155e 17       		.uleb128 0x17
 9202 155f 790E0000 		.4byte	.LASF169
 9203 1563 01       		.byte	0x1
 9204 1564 6A09     		.2byte	0x96a
 9205 1566 BC000000 		.4byte	0xbc
 9206 156a 00000000 		.4byte	.LFB49
 9207 156e 2E000000 		.4byte	.LFE49-.LFB49
 9208 1572 01       		.uleb128 0x1
 9209 1573 9C       		.byte	0x9c
 9210 1574 B5150000 		.4byte	0x15b5
 9211 1578 18       		.uleb128 0x18
 9212 1579 3C0D0000 		.4byte	.LASF99
 9213 157d 01       		.byte	0x1
 9214 157e 6A09     		.2byte	0x96a
 9215 1580 E2040000 		.4byte	0x4e2
 9216 1584 02       		.uleb128 0x2
 9217 1585 91       		.byte	0x91
 9218 1586 64       		.sleb128 -28
 9219 1587 1C       		.uleb128 0x1c
 9220 1588 6C656400 		.ascii	"led\000"
 9221 158c 01       		.byte	0x1
 9222 158d 6A09     		.2byte	0x96a
 9223 158f BC000000 		.4byte	0xbc
 9224 1593 02       		.uleb128 0x2
 9225 1594 91       		.byte	0x91
 9226 1595 63       		.sleb128 -29
 9227 1596 18       		.uleb128 0x18
 9228 1597 95090000 		.4byte	.LASF170
 9229 159b 01       		.byte	0x1
 9230 159c 6A09     		.2byte	0x96a
 9231 159e BC000000 		.4byte	0xbc
 9232 15a2 02       		.uleb128 0x2
 9233 15a3 91       		.byte	0x91
 9234 15a4 62       		.sleb128 -30
 9235 15a5 19       		.uleb128 0x19
 9236 15a6 62756600 		.ascii	"buf\000"
 9237 15aa 01       		.byte	0x1
 9238 15ab 6B09     		.2byte	0x96b
 9239 15ad BE140000 		.4byte	0x14be
 9240 15b1 02       		.uleb128 0x2
 9241 15b2 91       		.byte	0x91
 9242 15b3 6C       		.sleb128 -20
 9243 15b4 00       		.byte	0
 9244 15b5 17       		.uleb128 0x17
 9245 15b6 61080000 		.4byte	.LASF171
 9246 15ba 01       		.byte	0x1
 9247 15bb 7009     		.2byte	0x970
 9248 15bd BC000000 		.4byte	0xbc
 9249 15c1 00000000 		.4byte	.LFB50
 9250 15c5 58000000 		.4byte	.LFE50-.LFB50
 9251 15c9 01       		.uleb128 0x1
 9252 15ca 9C       		.byte	0x9c
 9253 15cb 0B160000 		.4byte	0x160b
 9254 15cf 18       		.uleb128 0x18
 9255 15d0 3C0D0000 		.4byte	.LASF99
 9256 15d4 01       		.byte	0x1
 9257 15d5 7009     		.2byte	0x970
ARM GAS  C:\Users\49148\AppData\Local\Temp\ccWN5cWv.s 			page 210


 9258 15d7 E2040000 		.4byte	0x4e2
 9259 15db 02       		.uleb128 0x2
 9260 15dc 91       		.byte	0x91
 9261 15dd 64       		.sleb128 -28
 9262 15de 1C       		.uleb128 0x1c
 9263 15df 72656400 		.ascii	"red\000"
 9264 15e3 01       		.byte	0x1
 9265 15e4 7009     		.2byte	0x970
 9266 15e6 72060000 		.4byte	0x672
 9267 15ea 02       		.uleb128 0x2
 9268 15eb 91       		.byte	0x91
 9269 15ec 60       		.sleb128 -32
 9270 15ed 1C       		.uleb128 0x1c
 9271 15ee 697200   		.ascii	"ir\000"
 9272 15f1 01       		.byte	0x1
 9273 15f2 7009     		.2byte	0x970
 9274 15f4 72060000 		.4byte	0x672
 9275 15f8 02       		.uleb128 0x2
 9276 15f9 91       		.byte	0x91
 9277 15fa 5C       		.sleb128 -36
 9278 15fb 19       		.uleb128 0x19
 9279 15fc 62756600 		.ascii	"buf\000"
 9280 1600 01       		.byte	0x1
 9281 1601 7109     		.2byte	0x971
 9282 1603 0B160000 		.4byte	0x160b
 9283 1607 02       		.uleb128 0x2
 9284 1608 91       		.byte	0x91
 9285 1609 68       		.sleb128 -24
 9286 160a 00       		.byte	0
 9287 160b 1D       		.uleb128 0x1d
 9288 160c BC000000 		.4byte	0xbc
 9289 1610 08       		.uleb128 0x8
 9290 1611 93000000 		.4byte	0x93
 9291 1615 05       		.byte	0x5
 9292 1616 00       		.byte	0
 9293 1617 00       		.byte	0
 9294              		.section	.debug_abbrev,"",%progbits
 9295              	.Ldebug_abbrev0:
 9296 0000 01       		.uleb128 0x1
 9297 0001 11       		.uleb128 0x11
 9298 0002 01       		.byte	0x1
 9299 0003 25       		.uleb128 0x25
 9300 0004 0E       		.uleb128 0xe
 9301 0005 13       		.uleb128 0x13
 9302 0006 0B       		.uleb128 0xb
 9303 0007 03       		.uleb128 0x3
 9304 0008 0E       		.uleb128 0xe
 9305 0009 1B       		.uleb128 0x1b
 9306 000a 0E       		.uleb128 0xe
 9307 000b 55       		.uleb128 0x55
 9308 000c 17       		.uleb128 0x17
 9309 000d 11       		.uleb128 0x11
 9310 000e 01       		.uleb128 0x1
 9311 000f 10       		.uleb128 0x10
 9312 0010 17       		.uleb128 0x17
 9313 0011 00       		.byte	0
 9314 0012 00       		.byte	0
ARM GAS  C:\Users\49148\AppData\Local\Temp\ccWN5cWv.s 			page 211


 9315 0013 02       		.uleb128 0x2
 9316 0014 24       		.uleb128 0x24
 9317 0015 00       		.byte	0
 9318 0016 0B       		.uleb128 0xb
 9319 0017 0B       		.uleb128 0xb
 9320 0018 3E       		.uleb128 0x3e
 9321 0019 0B       		.uleb128 0xb
 9322 001a 03       		.uleb128 0x3
 9323 001b 0E       		.uleb128 0xe
 9324 001c 00       		.byte	0
 9325 001d 00       		.byte	0
 9326 001e 03       		.uleb128 0x3
 9327 001f 16       		.uleb128 0x16
 9328 0020 00       		.byte	0
 9329 0021 03       		.uleb128 0x3
 9330 0022 0E       		.uleb128 0xe
 9331 0023 3A       		.uleb128 0x3a
 9332 0024 0B       		.uleb128 0xb
 9333 0025 3B       		.uleb128 0x3b
 9334 0026 0B       		.uleb128 0xb
 9335 0027 49       		.uleb128 0x49
 9336 0028 13       		.uleb128 0x13
 9337 0029 00       		.byte	0
 9338 002a 00       		.byte	0
 9339 002b 04       		.uleb128 0x4
 9340 002c 24       		.uleb128 0x24
 9341 002d 00       		.byte	0
 9342 002e 0B       		.uleb128 0xb
 9343 002f 0B       		.uleb128 0xb
 9344 0030 3E       		.uleb128 0x3e
 9345 0031 0B       		.uleb128 0xb
 9346 0032 03       		.uleb128 0x3
 9347 0033 08       		.uleb128 0x8
 9348 0034 00       		.byte	0
 9349 0035 00       		.byte	0
 9350 0036 05       		.uleb128 0x5
 9351 0037 0F       		.uleb128 0xf
 9352 0038 00       		.byte	0
 9353 0039 0B       		.uleb128 0xb
 9354 003a 0B       		.uleb128 0xb
 9355 003b 49       		.uleb128 0x49
 9356 003c 13       		.uleb128 0x13
 9357 003d 00       		.byte	0
 9358 003e 00       		.byte	0
 9359 003f 06       		.uleb128 0x6
 9360 0040 26       		.uleb128 0x26
 9361 0041 00       		.byte	0
 9362 0042 49       		.uleb128 0x49
 9363 0043 13       		.uleb128 0x13
 9364 0044 00       		.byte	0
 9365 0045 00       		.byte	0
 9366 0046 07       		.uleb128 0x7
 9367 0047 01       		.uleb128 0x1
 9368 0048 01       		.byte	0x1
 9369 0049 49       		.uleb128 0x49
 9370 004a 13       		.uleb128 0x13
 9371 004b 01       		.uleb128 0x1
ARM GAS  C:\Users\49148\AppData\Local\Temp\ccWN5cWv.s 			page 212


 9372 004c 13       		.uleb128 0x13
 9373 004d 00       		.byte	0
 9374 004e 00       		.byte	0
 9375 004f 08       		.uleb128 0x8
 9376 0050 21       		.uleb128 0x21
 9377 0051 00       		.byte	0
 9378 0052 49       		.uleb128 0x49
 9379 0053 13       		.uleb128 0x13
 9380 0054 2F       		.uleb128 0x2f
 9381 0055 0B       		.uleb128 0xb
 9382 0056 00       		.byte	0
 9383 0057 00       		.byte	0
 9384 0058 09       		.uleb128 0x9
 9385 0059 04       		.uleb128 0x4
 9386 005a 01       		.byte	0x1
 9387 005b 0B       		.uleb128 0xb
 9388 005c 0B       		.uleb128 0xb
 9389 005d 49       		.uleb128 0x49
 9390 005e 13       		.uleb128 0x13
 9391 005f 3A       		.uleb128 0x3a
 9392 0060 0B       		.uleb128 0xb
 9393 0061 3B       		.uleb128 0x3b
 9394 0062 0B       		.uleb128 0xb
 9395 0063 01       		.uleb128 0x1
 9396 0064 13       		.uleb128 0x13
 9397 0065 00       		.byte	0
 9398 0066 00       		.byte	0
 9399 0067 0A       		.uleb128 0xa
 9400 0068 28       		.uleb128 0x28
 9401 0069 00       		.byte	0
 9402 006a 03       		.uleb128 0x3
 9403 006b 0E       		.uleb128 0xe
 9404 006c 1C       		.uleb128 0x1c
 9405 006d 0B       		.uleb128 0xb
 9406 006e 00       		.byte	0
 9407 006f 00       		.byte	0
 9408 0070 0B       		.uleb128 0xb
 9409 0071 13       		.uleb128 0x13
 9410 0072 01       		.byte	0x1
 9411 0073 03       		.uleb128 0x3
 9412 0074 0E       		.uleb128 0xe
 9413 0075 0B       		.uleb128 0xb
 9414 0076 0B       		.uleb128 0xb
 9415 0077 3A       		.uleb128 0x3a
 9416 0078 0B       		.uleb128 0xb
 9417 0079 3B       		.uleb128 0x3b
 9418 007a 0B       		.uleb128 0xb
 9419 007b 01       		.uleb128 0x1
 9420 007c 13       		.uleb128 0x13
 9421 007d 00       		.byte	0
 9422 007e 00       		.byte	0
 9423 007f 0C       		.uleb128 0xc
 9424 0080 0D       		.uleb128 0xd
 9425 0081 00       		.byte	0
 9426 0082 03       		.uleb128 0x3
 9427 0083 0E       		.uleb128 0xe
 9428 0084 3A       		.uleb128 0x3a
ARM GAS  C:\Users\49148\AppData\Local\Temp\ccWN5cWv.s 			page 213


 9429 0085 0B       		.uleb128 0xb
 9430 0086 3B       		.uleb128 0x3b
 9431 0087 0B       		.uleb128 0xb
 9432 0088 49       		.uleb128 0x49
 9433 0089 13       		.uleb128 0x13
 9434 008a 38       		.uleb128 0x38
 9435 008b 0B       		.uleb128 0xb
 9436 008c 00       		.byte	0
 9437 008d 00       		.byte	0
 9438 008e 0D       		.uleb128 0xd
 9439 008f 0D       		.uleb128 0xd
 9440 0090 00       		.byte	0
 9441 0091 03       		.uleb128 0x3
 9442 0092 08       		.uleb128 0x8
 9443 0093 3A       		.uleb128 0x3a
 9444 0094 0B       		.uleb128 0xb
 9445 0095 3B       		.uleb128 0x3b
 9446 0096 0B       		.uleb128 0xb
 9447 0097 49       		.uleb128 0x49
 9448 0098 13       		.uleb128 0x13
 9449 0099 38       		.uleb128 0x38
 9450 009a 0B       		.uleb128 0xb
 9451 009b 00       		.byte	0
 9452 009c 00       		.byte	0
 9453 009d 0E       		.uleb128 0xe
 9454 009e 15       		.uleb128 0x15
 9455 009f 00       		.byte	0
 9456 00a0 27       		.uleb128 0x27
 9457 00a1 19       		.uleb128 0x19
 9458 00a2 49       		.uleb128 0x49
 9459 00a3 13       		.uleb128 0x13
 9460 00a4 00       		.byte	0
 9461 00a5 00       		.byte	0
 9462 00a6 0F       		.uleb128 0xf
 9463 00a7 15       		.uleb128 0x15
 9464 00a8 01       		.byte	0x1
 9465 00a9 27       		.uleb128 0x27
 9466 00aa 19       		.uleb128 0x19
 9467 00ab 49       		.uleb128 0x49
 9468 00ac 13       		.uleb128 0x13
 9469 00ad 01       		.uleb128 0x1
 9470 00ae 13       		.uleb128 0x13
 9471 00af 00       		.byte	0
 9472 00b0 00       		.byte	0
 9473 00b1 10       		.uleb128 0x10
 9474 00b2 05       		.uleb128 0x5
 9475 00b3 00       		.byte	0
 9476 00b4 49       		.uleb128 0x49
 9477 00b5 13       		.uleb128 0x13
 9478 00b6 00       		.byte	0
 9479 00b7 00       		.byte	0
 9480 00b8 11       		.uleb128 0x11
 9481 00b9 15       		.uleb128 0x15
 9482 00ba 01       		.byte	0x1
 9483 00bb 27       		.uleb128 0x27
 9484 00bc 19       		.uleb128 0x19
 9485 00bd 01       		.uleb128 0x1
ARM GAS  C:\Users\49148\AppData\Local\Temp\ccWN5cWv.s 			page 214


 9486 00be 13       		.uleb128 0x13
 9487 00bf 00       		.byte	0
 9488 00c0 00       		.byte	0
 9489 00c1 12       		.uleb128 0x12
 9490 00c2 18       		.uleb128 0x18
 9491 00c3 00       		.byte	0
 9492 00c4 00       		.byte	0
 9493 00c5 00       		.byte	0
 9494 00c6 13       		.uleb128 0x13
 9495 00c7 2E       		.uleb128 0x2e
 9496 00c8 01       		.byte	0x1
 9497 00c9 3F       		.uleb128 0x3f
 9498 00ca 19       		.uleb128 0x19
 9499 00cb 03       		.uleb128 0x3
 9500 00cc 0E       		.uleb128 0xe
 9501 00cd 3A       		.uleb128 0x3a
 9502 00ce 0B       		.uleb128 0xb
 9503 00cf 3B       		.uleb128 0x3b
 9504 00d0 0B       		.uleb128 0xb
 9505 00d1 27       		.uleb128 0x27
 9506 00d2 19       		.uleb128 0x19
 9507 00d3 49       		.uleb128 0x49
 9508 00d4 13       		.uleb128 0x13
 9509 00d5 11       		.uleb128 0x11
 9510 00d6 01       		.uleb128 0x1
 9511 00d7 12       		.uleb128 0x12
 9512 00d8 06       		.uleb128 0x6
 9513 00d9 40       		.uleb128 0x40
 9514 00da 18       		.uleb128 0x18
 9515 00db 9642     		.uleb128 0x2116
 9516 00dd 19       		.uleb128 0x19
 9517 00de 01       		.uleb128 0x1
 9518 00df 13       		.uleb128 0x13
 9519 00e0 00       		.byte	0
 9520 00e1 00       		.byte	0
 9521 00e2 14       		.uleb128 0x14
 9522 00e3 05       		.uleb128 0x5
 9523 00e4 00       		.byte	0
 9524 00e5 03       		.uleb128 0x3
 9525 00e6 0E       		.uleb128 0xe
 9526 00e7 3A       		.uleb128 0x3a
 9527 00e8 0B       		.uleb128 0xb
 9528 00e9 3B       		.uleb128 0x3b
 9529 00ea 0B       		.uleb128 0xb
 9530 00eb 49       		.uleb128 0x49
 9531 00ec 13       		.uleb128 0x13
 9532 00ed 02       		.uleb128 0x2
 9533 00ee 18       		.uleb128 0x18
 9534 00ef 00       		.byte	0
 9535 00f0 00       		.byte	0
 9536 00f1 15       		.uleb128 0x15
 9537 00f2 34       		.uleb128 0x34
 9538 00f3 00       		.byte	0
 9539 00f4 03       		.uleb128 0x3
 9540 00f5 08       		.uleb128 0x8
 9541 00f6 3A       		.uleb128 0x3a
 9542 00f7 0B       		.uleb128 0xb
ARM GAS  C:\Users\49148\AppData\Local\Temp\ccWN5cWv.s 			page 215


 9543 00f8 3B       		.uleb128 0x3b
 9544 00f9 0B       		.uleb128 0xb
 9545 00fa 49       		.uleb128 0x49
 9546 00fb 13       		.uleb128 0x13
 9547 00fc 02       		.uleb128 0x2
 9548 00fd 18       		.uleb128 0x18
 9549 00fe 00       		.byte	0
 9550 00ff 00       		.byte	0
 9551 0100 16       		.uleb128 0x16
 9552 0101 34       		.uleb128 0x34
 9553 0102 00       		.byte	0
 9554 0103 03       		.uleb128 0x3
 9555 0104 0E       		.uleb128 0xe
 9556 0105 3A       		.uleb128 0x3a
 9557 0106 0B       		.uleb128 0xb
 9558 0107 3B       		.uleb128 0x3b
 9559 0108 0B       		.uleb128 0xb
 9560 0109 49       		.uleb128 0x49
 9561 010a 13       		.uleb128 0x13
 9562 010b 02       		.uleb128 0x2
 9563 010c 18       		.uleb128 0x18
 9564 010d 00       		.byte	0
 9565 010e 00       		.byte	0
 9566 010f 17       		.uleb128 0x17
 9567 0110 2E       		.uleb128 0x2e
 9568 0111 01       		.byte	0x1
 9569 0112 3F       		.uleb128 0x3f
 9570 0113 19       		.uleb128 0x19
 9571 0114 03       		.uleb128 0x3
 9572 0115 0E       		.uleb128 0xe
 9573 0116 3A       		.uleb128 0x3a
 9574 0117 0B       		.uleb128 0xb
 9575 0118 3B       		.uleb128 0x3b
 9576 0119 05       		.uleb128 0x5
 9577 011a 27       		.uleb128 0x27
 9578 011b 19       		.uleb128 0x19
 9579 011c 49       		.uleb128 0x49
 9580 011d 13       		.uleb128 0x13
 9581 011e 11       		.uleb128 0x11
 9582 011f 01       		.uleb128 0x1
 9583 0120 12       		.uleb128 0x12
 9584 0121 06       		.uleb128 0x6
 9585 0122 40       		.uleb128 0x40
 9586 0123 18       		.uleb128 0x18
 9587 0124 9642     		.uleb128 0x2116
 9588 0126 19       		.uleb128 0x19
 9589 0127 01       		.uleb128 0x1
 9590 0128 13       		.uleb128 0x13
 9591 0129 00       		.byte	0
 9592 012a 00       		.byte	0
 9593 012b 18       		.uleb128 0x18
 9594 012c 05       		.uleb128 0x5
 9595 012d 00       		.byte	0
 9596 012e 03       		.uleb128 0x3
 9597 012f 0E       		.uleb128 0xe
 9598 0130 3A       		.uleb128 0x3a
 9599 0131 0B       		.uleb128 0xb
ARM GAS  C:\Users\49148\AppData\Local\Temp\ccWN5cWv.s 			page 216


 9600 0132 3B       		.uleb128 0x3b
 9601 0133 05       		.uleb128 0x5
 9602 0134 49       		.uleb128 0x49
 9603 0135 13       		.uleb128 0x13
 9604 0136 02       		.uleb128 0x2
 9605 0137 18       		.uleb128 0x18
 9606 0138 00       		.byte	0
 9607 0139 00       		.byte	0
 9608 013a 19       		.uleb128 0x19
 9609 013b 34       		.uleb128 0x34
 9610 013c 00       		.byte	0
 9611 013d 03       		.uleb128 0x3
 9612 013e 08       		.uleb128 0x8
 9613 013f 3A       		.uleb128 0x3a
 9614 0140 0B       		.uleb128 0xb
 9615 0141 3B       		.uleb128 0x3b
 9616 0142 05       		.uleb128 0x5
 9617 0143 49       		.uleb128 0x49
 9618 0144 13       		.uleb128 0x13
 9619 0145 02       		.uleb128 0x2
 9620 0146 18       		.uleb128 0x18
 9621 0147 00       		.byte	0
 9622 0148 00       		.byte	0
 9623 0149 1A       		.uleb128 0x1a
 9624 014a 34       		.uleb128 0x34
 9625 014b 00       		.byte	0
 9626 014c 03       		.uleb128 0x3
 9627 014d 0E       		.uleb128 0xe
 9628 014e 3A       		.uleb128 0x3a
 9629 014f 0B       		.uleb128 0xb
 9630 0150 3B       		.uleb128 0x3b
 9631 0151 05       		.uleb128 0x5
 9632 0152 49       		.uleb128 0x49
 9633 0153 13       		.uleb128 0x13
 9634 0154 02       		.uleb128 0x2
 9635 0155 18       		.uleb128 0x18
 9636 0156 00       		.byte	0
 9637 0157 00       		.byte	0
 9638 0158 1B       		.uleb128 0x1b
 9639 0159 0B       		.uleb128 0xb
 9640 015a 01       		.byte	0x1
 9641 015b 11       		.uleb128 0x11
 9642 015c 01       		.uleb128 0x1
 9643 015d 12       		.uleb128 0x12
 9644 015e 06       		.uleb128 0x6
 9645 015f 00       		.byte	0
 9646 0160 00       		.byte	0
 9647 0161 1C       		.uleb128 0x1c
 9648 0162 05       		.uleb128 0x5
 9649 0163 00       		.byte	0
 9650 0164 03       		.uleb128 0x3
 9651 0165 08       		.uleb128 0x8
 9652 0166 3A       		.uleb128 0x3a
 9653 0167 0B       		.uleb128 0xb
 9654 0168 3B       		.uleb128 0x3b
 9655 0169 05       		.uleb128 0x5
 9656 016a 49       		.uleb128 0x49
ARM GAS  C:\Users\49148\AppData\Local\Temp\ccWN5cWv.s 			page 217


 9657 016b 13       		.uleb128 0x13
 9658 016c 02       		.uleb128 0x2
 9659 016d 18       		.uleb128 0x18
 9660 016e 00       		.byte	0
 9661 016f 00       		.byte	0
 9662 0170 1D       		.uleb128 0x1d
 9663 0171 01       		.uleb128 0x1
 9664 0172 01       		.byte	0x1
 9665 0173 49       		.uleb128 0x49
 9666 0174 13       		.uleb128 0x13
 9667 0175 00       		.byte	0
 9668 0176 00       		.byte	0
 9669 0177 00       		.byte	0
 9670              		.section	.debug_aranges,"",%progbits
 9671 0000 A4010000 		.4byte	0x1a4
 9672 0004 0200     		.2byte	0x2
 9673 0006 00000000 		.4byte	.Ldebug_info0
 9674 000a 04       		.byte	0x4
 9675 000b 00       		.byte	0
 9676 000c 0000     		.2byte	0
 9677 000e 0000     		.2byte	0
 9678 0010 00000000 		.4byte	.LFB1
 9679 0014 84020000 		.4byte	.LFE1-.LFB1
 9680 0018 00000000 		.4byte	.LFB2
 9681 001c B4000000 		.4byte	.LFE2-.LFB2
 9682 0020 00000000 		.4byte	.LFB3
 9683 0024 9C010000 		.4byte	.LFE3-.LFB3
 9684 0028 00000000 		.4byte	.LFB4
 9685 002c 44030000 		.4byte	.LFE4-.LFB4
 9686 0030 00000000 		.4byte	.LFB5
 9687 0034 5C010000 		.4byte	.LFE5-.LFB5
 9688 0038 00000000 		.4byte	.LFB6
 9689 003c B8000000 		.4byte	.LFE6-.LFB6
 9690 0040 00000000 		.4byte	.LFB7
 9691 0044 44010000 		.4byte	.LFE7-.LFB7
 9692 0048 00000000 		.4byte	.LFB8
 9693 004c B8000000 		.4byte	.LFE8-.LFB8
 9694 0050 00000000 		.4byte	.LFB9
 9695 0054 78000000 		.4byte	.LFE9-.LFB9
 9696 0058 00000000 		.4byte	.LFB10
 9697 005c 60000000 		.4byte	.LFE10-.LFB10
 9698 0060 00000000 		.4byte	.LFB11
 9699 0064 78000000 		.4byte	.LFE11-.LFB11
 9700 0068 00000000 		.4byte	.LFB12
 9701 006c 60000000 		.4byte	.LFE12-.LFB12
 9702 0070 00000000 		.4byte	.LFB13
 9703 0074 78000000 		.4byte	.LFE13-.LFB13
 9704 0078 00000000 		.4byte	.LFB14
 9705 007c 60000000 		.4byte	.LFE14-.LFB14
 9706 0080 00000000 		.4byte	.LFB15
 9707 0084 54000000 		.4byte	.LFE15-.LFB15
 9708 0088 00000000 		.4byte	.LFB16
 9709 008c 54000000 		.4byte	.LFE16-.LFB16
 9710 0090 00000000 		.4byte	.LFB17
 9711 0094 9C000000 		.4byte	.LFE17-.LFB17
 9712 0098 00000000 		.4byte	.LFB18
 9713 009c 60000000 		.4byte	.LFE18-.LFB18
ARM GAS  C:\Users\49148\AppData\Local\Temp\ccWN5cWv.s 			page 218


 9714 00a0 00000000 		.4byte	.LFB19
 9715 00a4 9C000000 		.4byte	.LFE19-.LFB19
 9716 00a8 00000000 		.4byte	.LFB20
 9717 00ac 64000000 		.4byte	.LFE20-.LFB20
 9718 00b0 00000000 		.4byte	.LFB21
 9719 00b4 AC000000 		.4byte	.LFE21-.LFB21
 9720 00b8 00000000 		.4byte	.LFB22
 9721 00bc 60000000 		.4byte	.LFE22-.LFB22
 9722 00c0 00000000 		.4byte	.LFB23
 9723 00c4 9C000000 		.4byte	.LFE23-.LFB23
 9724 00c8 00000000 		.4byte	.LFB24
 9725 00cc 60000000 		.4byte	.LFE24-.LFB24
 9726 00d0 00000000 		.4byte	.LFB25
 9727 00d4 90000000 		.4byte	.LFE25-.LFB25
 9728 00d8 00000000 		.4byte	.LFB26
 9729 00dc 94000000 		.4byte	.LFE26-.LFB26
 9730 00e0 00000000 		.4byte	.LFB27
 9731 00e4 60000000 		.4byte	.LFE27-.LFB27
 9732 00e8 00000000 		.4byte	.LFB28
 9733 00ec 9C000000 		.4byte	.LFE28-.LFB28
 9734 00f0 00000000 		.4byte	.LFB29
 9735 00f4 64000000 		.4byte	.LFE29-.LFB29
 9736 00f8 00000000 		.4byte	.LFB30
 9737 00fc 9C000000 		.4byte	.LFE30-.LFB30
 9738 0100 00000000 		.4byte	.LFB31
 9739 0104 64000000 		.4byte	.LFE31-.LFB31
 9740 0108 00000000 		.4byte	.LFB32
 9741 010c 94000000 		.4byte	.LFE32-.LFB32
 9742 0110 00000000 		.4byte	.LFB33
 9743 0114 60000000 		.4byte	.LFE33-.LFB33
 9744 0118 00000000 		.4byte	.LFB34
 9745 011c 54000000 		.4byte	.LFE34-.LFB34
 9746 0120 00000000 		.4byte	.LFB35
 9747 0124 54000000 		.4byte	.LFE35-.LFB35
 9748 0128 00000000 		.4byte	.LFB36
 9749 012c 54000000 		.4byte	.LFE36-.LFB36
 9750 0130 00000000 		.4byte	.LFB37
 9751 0134 54000000 		.4byte	.LFE37-.LFB37
 9752 0138 00000000 		.4byte	.LFB38
 9753 013c FC010000 		.4byte	.LFE38-.LFB38
 9754 0140 00000000 		.4byte	.LFB39
 9755 0144 38010000 		.4byte	.LFE39-.LFB39
 9756 0148 00000000 		.4byte	.LFB40
 9757 014c 94000000 		.4byte	.LFE40-.LFB40
 9758 0150 00000000 		.4byte	.LFB41
 9759 0154 60000000 		.4byte	.LFE41-.LFB41
 9760 0158 00000000 		.4byte	.LFB42
 9761 015c 7C000000 		.4byte	.LFE42-.LFB42
 9762 0160 00000000 		.4byte	.LFB43
 9763 0164 4C000000 		.4byte	.LFE43-.LFB43
 9764 0168 00000000 		.4byte	.LFB44
 9765 016c 4C000000 		.4byte	.LFE44-.LFB44
 9766 0170 00000000 		.4byte	.LFB45
 9767 0174 94000000 		.4byte	.LFE45-.LFB45
 9768 0178 00000000 		.4byte	.LFB46
 9769 017c 2A000000 		.4byte	.LFE46-.LFB46
 9770 0180 00000000 		.4byte	.LFB47
ARM GAS  C:\Users\49148\AppData\Local\Temp\ccWN5cWv.s 			page 219


 9771 0184 2A000000 		.4byte	.LFE47-.LFB47
 9772 0188 00000000 		.4byte	.LFB48
 9773 018c 2A000000 		.4byte	.LFE48-.LFB48
 9774 0190 00000000 		.4byte	.LFB49
 9775 0194 2E000000 		.4byte	.LFE49-.LFB49
 9776 0198 00000000 		.4byte	.LFB50
 9777 019c 58000000 		.4byte	.LFE50-.LFB50
 9778 01a0 00000000 		.4byte	0
 9779 01a4 00000000 		.4byte	0
 9780              		.section	.debug_ranges,"",%progbits
 9781              	.Ldebug_ranges0:
 9782 0000 00000000 		.4byte	.LFB1
 9783 0004 84020000 		.4byte	.LFE1
 9784 0008 00000000 		.4byte	.LFB2
 9785 000c B4000000 		.4byte	.LFE2
 9786 0010 00000000 		.4byte	.LFB3
 9787 0014 9C010000 		.4byte	.LFE3
 9788 0018 00000000 		.4byte	.LFB4
 9789 001c 44030000 		.4byte	.LFE4
 9790 0020 00000000 		.4byte	.LFB5
 9791 0024 5C010000 		.4byte	.LFE5
 9792 0028 00000000 		.4byte	.LFB6
 9793 002c B8000000 		.4byte	.LFE6
 9794 0030 00000000 		.4byte	.LFB7
 9795 0034 44010000 		.4byte	.LFE7
 9796 0038 00000000 		.4byte	.LFB8
 9797 003c B8000000 		.4byte	.LFE8
 9798 0040 00000000 		.4byte	.LFB9
 9799 0044 78000000 		.4byte	.LFE9
 9800 0048 00000000 		.4byte	.LFB10
 9801 004c 60000000 		.4byte	.LFE10
 9802 0050 00000000 		.4byte	.LFB11
 9803 0054 78000000 		.4byte	.LFE11
 9804 0058 00000000 		.4byte	.LFB12
 9805 005c 60000000 		.4byte	.LFE12
 9806 0060 00000000 		.4byte	.LFB13
 9807 0064 78000000 		.4byte	.LFE13
 9808 0068 00000000 		.4byte	.LFB14
 9809 006c 60000000 		.4byte	.LFE14
 9810 0070 00000000 		.4byte	.LFB15
 9811 0074 54000000 		.4byte	.LFE15
 9812 0078 00000000 		.4byte	.LFB16
 9813 007c 54000000 		.4byte	.LFE16
 9814 0080 00000000 		.4byte	.LFB17
 9815 0084 9C000000 		.4byte	.LFE17
 9816 0088 00000000 		.4byte	.LFB18
 9817 008c 60000000 		.4byte	.LFE18
 9818 0090 00000000 		.4byte	.LFB19
 9819 0094 9C000000 		.4byte	.LFE19
 9820 0098 00000000 		.4byte	.LFB20
 9821 009c 64000000 		.4byte	.LFE20
 9822 00a0 00000000 		.4byte	.LFB21
 9823 00a4 AC000000 		.4byte	.LFE21
 9824 00a8 00000000 		.4byte	.LFB22
 9825 00ac 60000000 		.4byte	.LFE22
 9826 00b0 00000000 		.4byte	.LFB23
 9827 00b4 9C000000 		.4byte	.LFE23
ARM GAS  C:\Users\49148\AppData\Local\Temp\ccWN5cWv.s 			page 220


 9828 00b8 00000000 		.4byte	.LFB24
 9829 00bc 60000000 		.4byte	.LFE24
 9830 00c0 00000000 		.4byte	.LFB25
 9831 00c4 90000000 		.4byte	.LFE25
 9832 00c8 00000000 		.4byte	.LFB26
 9833 00cc 94000000 		.4byte	.LFE26
 9834 00d0 00000000 		.4byte	.LFB27
 9835 00d4 60000000 		.4byte	.LFE27
 9836 00d8 00000000 		.4byte	.LFB28
 9837 00dc 9C000000 		.4byte	.LFE28
 9838 00e0 00000000 		.4byte	.LFB29
 9839 00e4 64000000 		.4byte	.LFE29
 9840 00e8 00000000 		.4byte	.LFB30
 9841 00ec 9C000000 		.4byte	.LFE30
 9842 00f0 00000000 		.4byte	.LFB31
 9843 00f4 64000000 		.4byte	.LFE31
 9844 00f8 00000000 		.4byte	.LFB32
 9845 00fc 94000000 		.4byte	.LFE32
 9846 0100 00000000 		.4byte	.LFB33
 9847 0104 60000000 		.4byte	.LFE33
 9848 0108 00000000 		.4byte	.LFB34
 9849 010c 54000000 		.4byte	.LFE34
 9850 0110 00000000 		.4byte	.LFB35
 9851 0114 54000000 		.4byte	.LFE35
 9852 0118 00000000 		.4byte	.LFB36
 9853 011c 54000000 		.4byte	.LFE36
 9854 0120 00000000 		.4byte	.LFB37
 9855 0124 54000000 		.4byte	.LFE37
 9856 0128 00000000 		.4byte	.LFB38
 9857 012c FC010000 		.4byte	.LFE38
 9858 0130 00000000 		.4byte	.LFB39
 9859 0134 38010000 		.4byte	.LFE39
 9860 0138 00000000 		.4byte	.LFB40
 9861 013c 94000000 		.4byte	.LFE40
 9862 0140 00000000 		.4byte	.LFB41
 9863 0144 60000000 		.4byte	.LFE41
 9864 0148 00000000 		.4byte	.LFB42
 9865 014c 7C000000 		.4byte	.LFE42
 9866 0150 00000000 		.4byte	.LFB43
 9867 0154 4C000000 		.4byte	.LFE43
 9868 0158 00000000 		.4byte	.LFB44
 9869 015c 4C000000 		.4byte	.LFE44
 9870 0160 00000000 		.4byte	.LFB45
 9871 0164 94000000 		.4byte	.LFE45
 9872 0168 00000000 		.4byte	.LFB46
 9873 016c 2A000000 		.4byte	.LFE46
 9874 0170 00000000 		.4byte	.LFB47
 9875 0174 2A000000 		.4byte	.LFE47
 9876 0178 00000000 		.4byte	.LFB48
 9877 017c 2A000000 		.4byte	.LFE48
 9878 0180 00000000 		.4byte	.LFB49
 9879 0184 2E000000 		.4byte	.LFE49
 9880 0188 00000000 		.4byte	.LFB50
 9881 018c 58000000 		.4byte	.LFE50
 9882 0190 00000000 		.4byte	0
 9883 0194 00000000 		.4byte	0
 9884              		.section	.debug_line,"",%progbits
ARM GAS  C:\Users\49148\AppData\Local\Temp\ccWN5cWv.s 			page 221


 9885              	.Ldebug_line0:
 9886 0000 65080000 		.section	.debug_str,"MS",%progbits,1
 9886      02003701 
 9886      00000201 
 9886      FB0E0D00 
 9886      01010101 
 9887              	.LASF89:
 9888 0000 73757070 		.ascii	"supply_voltage_max_v\000"
 9888      6C795F76 
 9888      6F6C7461 
 9888      67655F6D 
 9888      61785F76 
 9889              	.LASF104:
 9890 0015 7261775F 		.ascii	"raw_ir\000"
 9890      697200
 9891              	.LASF133:
 9892 001c 6D617833 		.ascii	"max30102_set_fifo_almost_full\000"
 9892      30313032 
 9892      5F736574 
 9892      5F666966 
 9892      6F5F616C 
 9893              	.LASF78:
 9894 003a 696E6974 		.ascii	"inited\000"
 9894      656400
 9895              	.LASF93:
 9896 0041 64726976 		.ascii	"driver_version\000"
 9896      65725F76 
 9896      65727369 
 9896      6F6E00
 9897              	.LASF53:
 9898 0050 4D415833 		.ascii	"MAX30102_SPO2_SAMPLE_RATE_1000_HZ\000"
 9898      30313032 
 9898      5F53504F 
 9898      325F5341 
 9898      4D504C45 
 9899              	.LASF38:
 9900 0072 4D415833 		.ascii	"MAX30102_INTERRUPT_FIFO_FULL_EN\000"
 9900      30313032 
 9900      5F494E54 
 9900      45525255 
 9900      50545F46 
 9901              	.LASF80:
 9902 0092 74656D70 		.ascii	"temperature\000"
 9902      65726174 
 9902      75726500 
 9903              	.LASF155:
 9904 009e 736C6F74 		.ascii	"slot\000"
 9904      00
 9905              	.LASF159:
 9906 00a3 6D617833 		.ascii	"max30102_get_id\000"
 9906      30313032 
 9906      5F676574 
 9906      5F696400 
 9907              	.LASF162:
 9908 00b3 6D617833 		.ascii	"max30102_get_reg\000"
 9908      30313032 
 9908      5F676574 
ARM GAS  C:\Users\49148\AppData\Local\Temp\ccWN5cWv.s 			page 222


 9908      5F726567 
 9908      00
 9909              	.LASF87:
 9910 00c4 696E7465 		.ascii	"interface\000"
 9910      72666163 
 9910      6500
 9911              	.LASF124:
 9912 00ce 6D617833 		.ascii	"max30102_get_fifo_read_pointer\000"
 9912      30313032 
 9912      5F676574 
 9912      5F666966 
 9912      6F5F7265 
 9913              	.LASF149:
 9914 00ed 6D617833 		.ascii	"max30102_get_adc_resolution\000"
 9914      30313032 
 9914      5F676574 
 9914      5F616463 
 9914      5F726573 
 9915              	.LASF11:
 9916 0109 756E7369 		.ascii	"unsigned int\000"
 9916      676E6564 
 9916      20696E74 
 9916      00
 9917              	.LASF125:
 9918 0116 6D617833 		.ascii	"max30102_set_fifo_data\000"
 9918      30313032 
 9918      5F736574 
 9918      5F666966 
 9918      6F5F6461 
 9919              	.LASF63:
 9920 012d 4D415833 		.ascii	"MAX30102_LED_RED\000"
 9920      30313032 
 9920      5F4C4544 
 9920      5F524544 
 9920      00
 9921              	.LASF91:
 9922 013e 74656D70 		.ascii	"temperature_min\000"
 9922      65726174 
 9922      7572655F 
 9922      6D696E00 
 9923              	.LASF35:
 9924 014e 4D415833 		.ascii	"MAX30102_INTERRUPT_STATUS_PWR_RDY\000"
 9924      30313032 
 9924      5F494E54 
 9924      45525255 
 9924      50545F53 
 9925              	.LASF130:
 9926 0170 6D617833 		.ascii	"max30102_get_fifo_sample_averaging\000"
 9926      30313032 
 9926      5F676574 
 9926      5F666966 
 9926      6F5F7361 
 9927              	.LASF79:
 9928 0193 66696E69 		.ascii	"finished_flag\000"
 9928      73686564 
 9928      5F666C61 
 9928      6700
ARM GAS  C:\Users\49148\AppData\Local\Temp\ccWN5cWv.s 			page 223


 9929              	.LASF19:
 9930 01a1 4D415833 		.ascii	"MAX30102_BOOL_TRUE\000"
 9930      30313032 
 9930      5F424F4F 
 9930      4C5F5452 
 9930      554500
 9931              	.LASF71:
 9932 01b4 6969635F 		.ascii	"iic_init\000"
 9932      696E6974 
 9932      00
 9933              	.LASF45:
 9934 01bd 4D415833 		.ascii	"MAX30102_SPO2_ADC_RANGE_8192\000"
 9934      30313032 
 9934      5F53504F 
 9934      325F4144 
 9934      435F5241 
 9935              	.LASF29:
 9936 01da 4D415833 		.ascii	"MAX30102_MODE_SPO2\000"
 9936      30313032 
 9936      5F4D4F44 
 9936      455F5350 
 9936      4F3200
 9937              	.LASF105:
 9938 01ed 6D6F6465 		.ascii	"mode\000"
 9938      00
 9939              	.LASF127:
 9940 01f2 6D617833 		.ascii	"max30102_get_fifo_data\000"
 9940      30313032 
 9940      5F676574 
 9940      5F666966 
 9940      6F5F6461 
 9941              	.LASF95:
 9942 0209 70726576 		.ascii	"prev\000"
 9942      00
 9943              	.LASF117:
 9944 020e 6D617833 		.ascii	"max30102_set_fifo_write_pointer\000"
 9944      30313032 
 9944      5F736574 
 9944      5F666966 
 9944      6F5F7772 
 9945              	.LASF163:
 9946 022e 6D617833 		.ascii	"max30102_info\000"
 9946      30313032 
 9946      5F696E66 
 9946      6F00
 9947              	.LASF151:
 9948 023c 6D617833 		.ascii	"max30102_get_led_red_pulse_amplitude\000"
 9948      30313032 
 9948      5F676574 
 9948      5F6C6564 
 9948      5F726564 
 9949              	.LASF52:
 9950 0261 4D415833 		.ascii	"MAX30102_SPO2_SAMPLE_RATE_800_HZ\000"
 9950      30313032 
 9950      5F53504F 
 9950      325F5341 
 9950      4D504C45 
ARM GAS  C:\Users\49148\AppData\Local\Temp\ccWN5cWv.s 			page 224


 9951              	.LASF137:
 9952 0282 6D617833 		.ascii	"max30102_get_shutdown\000"
 9952      30313032 
 9952      5F676574 
 9952      5F736875 
 9952      74646F77 
 9953              	.LASF160:
 9954 0298 72657669 		.ascii	"revision_id\000"
 9954      73696F6E 
 9954      5F696400 
 9955              	.LASF131:
 9956 02a4 6D617833 		.ascii	"max30102_set_fifo_roll\000"
 9956      30313032 
 9956      5F736574 
 9956      5F666966 
 9956      6F5F726F 
 9957              	.LASF17:
 9958 02bb 75696E74 		.ascii	"uint32_t\000"
 9958      33325F74 
 9958      00
 9959              	.LASF48:
 9960 02c4 4D415833 		.ascii	"MAX30102_SPO2_SAMPLE_RATE_50_HZ\000"
 9960      30313032 
 9960      5F53504F 
 9960      325F5341 
 9960      4D504C45 
 9961              	.LASF41:
 9962 02e4 4D415833 		.ascii	"MAX30102_INTERRUPT_DIE_TEMP_RDY_EN\000"
 9962      30313032 
 9962      5F494E54 
 9962      45525255 
 9962      50545F44 
 9963              	.LASF20:
 9964 0307 6D617833 		.ascii	"max30102_bool_t\000"
 9964      30313032 
 9964      5F626F6F 
 9964      6C5F7400 
 9965              	.LASF73:
 9966 0317 6969635F 		.ascii	"iic_read\000"
 9966      72656164 
 9966      00
 9967              	.LASF81:
 9968 0320 666C6F61 		.ascii	"float\000"
 9968      7400
 9969              	.LASF153:
 9970 0326 6D617833 		.ascii	"max30102_get_led_ir_pulse_amplitude\000"
 9970      30313032 
 9970      5F676574 
 9970      5F6C6564 
 9970      5F69725F 
 9971              	.LASF47:
 9972 034a 6D617833 		.ascii	"max30102_spo2_adc_range_t\000"
 9972      30313032 
 9972      5F73706F 
 9972      325F6164 
 9972      635F7261 
 9973              	.LASF119:
ARM GAS  C:\Users\49148\AppData\Local\Temp\ccWN5cWv.s 			page 225


 9974 0364 6D617833 		.ascii	"max30102_get_fifo_write_pointer\000"
 9974      30313032 
 9974      5F676574 
 9974      5F666966 
 9974      6F5F7772 
 9975              	.LASF10:
 9976 0384 6C6F6E67 		.ascii	"long long unsigned int\000"
 9976      206C6F6E 
 9976      6720756E 
 9976      7369676E 
 9976      65642069 
 9977              	.LASF128:
 9978 039b 6D617833 		.ascii	"max30102_set_fifo_sample_averaging\000"
 9978      30313032 
 9978      5F736574 
 9978      5F666966 
 9978      6F5F7361 
 9979              	.LASF132:
 9980 03be 6D617833 		.ascii	"max30102_get_fifo_roll\000"
 9980      30313032 
 9980      5F676574 
 9980      5F666966 
 9980      6F5F726F 
 9981              	.LASF4:
 9982 03d5 5F5F7569 		.ascii	"__uint16_t\000"
 9982      6E743136 
 9982      5F7400
 9983              	.LASF113:
 9984 03e0 656E6162 		.ascii	"enable\000"
 9984      6C6500
 9985              	.LASF27:
 9986 03e7 6D617833 		.ascii	"max30102_sample_averaging_t\000"
 9986      30313032 
 9986      5F73616D 
 9986      706C655F 
 9986      61766572 
 9987              	.LASF58:
 9988 0403 4D415833 		.ascii	"MAX30102_ADC_RESOLUTION_16_BIT\000"
 9988      30313032 
 9988      5F414443 
 9988      5F524553 
 9988      4F4C5554 
 9989              	.LASF134:
 9990 0422 76616C75 		.ascii	"value\000"
 9990      6500
 9991              	.LASF37:
 9992 0428 6D617833 		.ascii	"max30102_interrupt_status_t\000"
 9992      30313032 
 9992      5F696E74 
 9992      65727275 
 9992      70745F73 
 9993              	.LASF107:
 9994 0444 77726974 		.ascii	"write_point\000"
 9994      655F706F 
 9994      696E7400 
 9995              	.LASF83:
 9996 0450 6D617833 		.ascii	"max30102_handle_s\000"
ARM GAS  C:\Users\49148\AppData\Local\Temp\ccWN5cWv.s 			page 226


 9996      30313032 
 9996      5F68616E 
 9996      646C655F 
 9996      7300
 9997              	.LASF82:
 9998 0462 6D617833 		.ascii	"max30102_handle_t\000"
 9998      30313032 
 9998      5F68616E 
 9998      646C655F 
 9998      7400
 9999              	.LASF121:
 10000 0474 636F756E 		.ascii	"counter\000"
 10000      74657200 
 10001              	.LASF165:
 10002 047c 6D617833 		.ascii	"max30102_set_fifo_configuration\000"
 10002      30313032 
 10002      5F736574 
 10002      5F666966 
 10002      6F5F636F 
 10003              	.LASF141:
 10004 049c 6D617833 		.ascii	"max30102_set_spo2_adc_range\000"
 10004      30313032 
 10004      5F736574 
 10004      5F73706F 
 10004      325F6164 
 10005              	.LASF55:
 10006 04b8 4D415833 		.ascii	"MAX30102_SPO2_SAMPLE_RATE_3200_HZ\000"
 10006      30313032 
 10006      5F53504F 
 10006      325F5341 
 10006      4D504C45 
 10007              	.LASF166:
 10008 04da 636F6E66 		.ascii	"config\000"
 10008      696700
 10009              	.LASF75:
 10010 04e1 72656365 		.ascii	"receive_callback\000"
 10010      6976655F 
 10010      63616C6C 
 10010      6261636B 
 10010      00
 10011              	.LASF97:
 10012 04f2 6D617833 		.ascii	"max30102_init\000"
 10012      30313032 
 10012      5F696E69 
 10012      7400
 10013              	.LASF76:
 10014 0500 64656C61 		.ascii	"delay_ms\000"
 10014      795F6D73 
 10014      00
 10015              	.LASF40:
 10016 0509 4D415833 		.ascii	"MAX30102_INTERRUPT_ALC_OVF_EN\000"
 10016      30313032 
 10016      5F494E54 
 10016      45525255 
 10016      50545F41 
 10017              	.LASF36:
 10018 0527 4D415833 		.ascii	"MAX30102_INTERRUPT_STATUS_DIE_TEMP_RDY\000"
ARM GAS  C:\Users\49148\AppData\Local\Temp\ccWN5cWv.s 			page 227


 10018      30313032 
 10018      5F494E54 
 10018      45525255 
 10018      50545F53 
 10019              	.LASF32:
 10020 054e 4D415833 		.ascii	"MAX30102_INTERRUPT_STATUS_FIFO_FULL\000"
 10020      30313032 
 10020      5F494E54 
 10020      45525255 
 10020      50545F53 
 10021              	.LASF33:
 10022 0572 4D415833 		.ascii	"MAX30102_INTERRUPT_STATUS_PPG_RDY\000"
 10022      30313032 
 10022      5F494E54 
 10022      45525255 
 10022      50545F53 
 10023              	.LASF140:
 10024 0594 6D617833 		.ascii	"max30102_get_mode\000"
 10024      30313032 
 10024      5F676574 
 10024      5F6D6F64 
 10024      6500
 10025              	.LASF14:
 10026 05a6 63686172 		.ascii	"char\000"
 10026      00
 10027              	.LASF145:
 10028 05ab 72617465 		.ascii	"rate\000"
 10028      00
 10029              	.LASF156:
 10030 05b0 6D617833 		.ascii	"max30102_get_slot\000"
 10030      30313032 
 10030      5F676574 
 10030      5F736C6F 
 10030      7400
 10031              	.LASF44:
 10032 05c2 4D415833 		.ascii	"MAX30102_SPO2_ADC_RANGE_4096\000"
 10032      30313032 
 10032      5F53504F 
 10032      325F4144 
 10032      435F5241 
 10033              	.LASF102:
 10034 05df 6D617833 		.ascii	"max30102_read\000"
 10034      30313032 
 10034      5F726561 
 10034      6400
 10035              	.LASF28:
 10036 05ed 4D415833 		.ascii	"MAX30102_MODE_HEART_RATE\000"
 10036      30313032 
 10036      5F4D4F44 
 10036      455F4845 
 10036      4152545F 
 10037              	.LASF148:
 10038 0606 7265736F 		.ascii	"resolution\000"
 10038      6C757469 
 10038      6F6E00
 10039              	.LASF15:
 10040 0611 75696E74 		.ascii	"uint8_t\000"
ARM GAS  C:\Users\49148\AppData\Local\Temp\ccWN5cWv.s 			page 228


 10040      385F7400 
 10041              	.LASF112:
 10042 0619 73746174 		.ascii	"status\000"
 10042      757300
 10043              	.LASF167:
 10044 0620 6D617833 		.ascii	"max30102_set_mode_configuration\000"
 10044      30313032 
 10044      5F736574 
 10044      5F6D6F64 
 10044      655F636F 
 10045              	.LASF136:
 10046 0640 6D617833 		.ascii	"max30102_set_shutdown\000"
 10046      30313032 
 10046      5F736574 
 10046      5F736875 
 10046      74646F77 
 10047              	.LASF122:
 10048 0656 6D617833 		.ascii	"max30102_get_fifo_overflow_counter\000"
 10048      30313032 
 10048      5F676574 
 10048      5F666966 
 10048      6F5F6F76 
 10049              	.LASF158:
 10050 0679 6D617833 		.ascii	"max30102_get_die_temperature\000"
 10050      30313032 
 10050      5F676574 
 10050      5F646965 
 10050      5F74656D 
 10051              	.LASF168:
 10052 0696 6D617833 		.ascii	"max30102_set_spo2_configuration\000"
 10052      30313032 
 10052      5F736574 
 10052      5F73706F 
 10052      325F636F 
 10053              	.LASF9:
 10054 06b6 6C6F6E67 		.ascii	"long long int\000"
 10054      206C6F6E 
 10054      6720696E 
 10054      7400
 10055              	.LASF30:
 10056 06c4 4D415833 		.ascii	"MAX30102_MODE_MULTI_LED\000"
 10056      30313032 
 10056      5F4D4F44 
 10056      455F4D55 
 10056      4C54495F 
 10057              	.LASF46:
 10058 06dc 4D415833 		.ascii	"MAX30102_SPO2_ADC_RANGE_16384\000"
 10058      30313032 
 10058      5F53504F 
 10058      325F4144 
 10058      435F5241 
 10059              	.LASF108:
 10060 06fa 6D617833 		.ascii	"max30102_read_temperature\000"
 10060      30313032 
 10060      5F726561 
 10060      645F7465 
 10060      6D706572 
ARM GAS  C:\Users\49148\AppData\Local\Temp\ccWN5cWv.s 			page 229


 10061              	.LASF101:
 10062 0714 70726576 		.ascii	"prev1\000"
 10062      3100
 10063              	.LASF50:
 10064 071a 4D415833 		.ascii	"MAX30102_SPO2_SAMPLE_RATE_200_HZ\000"
 10064      30313032 
 10064      5F53504F 
 10064      325F5341 
 10064      4D504C45 
 10065              	.LASF96:
 10066 073b 70617274 		.ascii	"part_id\000"
 10066      5F696400 
 10067              	.LASF142:
 10068 0743 72616E67 		.ascii	"range\000"
 10068      6500
 10069              	.LASF146:
 10070 0749 6D617833 		.ascii	"max30102_get_spo2_sample_rate\000"
 10070      30313032 
 10070      5F676574 
 10070      5F73706F 
 10070      325F7361 
 10071              	.LASF164:
 10072 0767 696E666F 		.ascii	"info\000"
 10072      00
 10073              	.LASF92:
 10074 076c 74656D70 		.ascii	"temperature_max\000"
 10074      65726174 
 10074      7572655F 
 10074      6D617800 
 10075              	.LASF39:
 10076 077c 4D415833 		.ascii	"MAX30102_INTERRUPT_PPG_RDY_EN\000"
 10076      30313032 
 10076      5F494E54 
 10076      45525255 
 10076      50545F50 
 10077              	.LASF85:
 10078 079a 63686970 		.ascii	"chip_name\000"
 10078      5F6E616D 
 10078      6500
 10079              	.LASF34:
 10080 07a4 4D415833 		.ascii	"MAX30102_INTERRUPT_STATUS_ALC_OVF\000"
 10080      30313032 
 10080      5F494E54 
 10080      45525255 
 10080      50545F53 
 10081              	.LASF56:
 10082 07c6 6D617833 		.ascii	"max30102_spo2_sample_rate_t\000"
 10082      30313032 
 10082      5F73706F 
 10082      325F7361 
 10082      6D706C65 
 10083              	.LASF126:
 10084 07e2 64617461 		.ascii	"data\000"
 10084      00
 10085              	.LASF12:
 10086 07e7 6C6F6E67 		.ascii	"long double\000"
 10086      20646F75 
ARM GAS  C:\Users\49148\AppData\Local\Temp\ccWN5cWv.s 			page 230


 10086      626C6500 
 10087              	.LASF16:
 10088 07f3 75696E74 		.ascii	"uint16_t\000"
 10088      31365F74 
 10088      00
 10089              	.LASF57:
 10090 07fc 4D415833 		.ascii	"MAX30102_ADC_RESOLUTION_15_BIT\000"
 10090      30313032 
 10090      5F414443 
 10090      5F524553 
 10090      4F4C5554 
 10091              	.LASF70:
 10092 081b 6D617833 		.ascii	"max30102_slot_t\000"
 10092      30313032 
 10092      5F736C6F 
 10092      745F7400 
 10093              	.LASF143:
 10094 082b 6D617833 		.ascii	"max30102_get_spo2_adc_range\000"
 10094      30313032 
 10094      5F676574 
 10094      5F73706F 
 10094      325F6164 
 10095              	.LASF64:
 10096 0847 4D415833 		.ascii	"MAX30102_LED_IR\000"
 10096      30313032 
 10096      5F4C4544 
 10096      5F495200 
 10097              	.LASF74:
 10098 0857 6969635F 		.ascii	"iic_write\000"
 10098      77726974 
 10098      6500
 10099              	.LASF171:
 10100 0861 6D617833 		.ascii	"max30102_read_fifo\000"
 10100      30313032 
 10100      5F726561 
 10100      645F6669 
 10100      666F00
 10101              	.LASF54:
 10102 0874 4D415833 		.ascii	"MAX30102_SPO2_SAMPLE_RATE_1600_HZ\000"
 10102      30313032 
 10102      5F53504F 
 10102      325F5341 
 10102      4D504C45 
 10103              	.LASF61:
 10104 0896 6D617833 		.ascii	"max30102_adc_resolution_t\000"
 10104      30313032 
 10104      5F616463 
 10104      5F726573 
 10104      6F6C7574 
 10105              	.LASF65:
 10106 08b0 6D617833 		.ascii	"max30102_led_t\000"
 10106      30313032 
 10106      5F6C6564 
 10106      5F7400
 10107              	.LASF2:
 10108 08bf 73686F72 		.ascii	"short int\000"
 10108      7420696E 
ARM GAS  C:\Users\49148\AppData\Local\Temp\ccWN5cWv.s 			page 231


 10108      7400
 10109              	.LASF77:
 10110 08c9 64656275 		.ascii	"debug_print\000"
 10110      675F7072 
 10110      696E7400 
 10111              	.LASF114:
 10112 08d5 6D617833 		.ascii	"max30102_set_interrupt\000"
 10112      30313032 
 10112      5F736574 
 10112      5F696E74 
 10112      65727275 
 10113              	.LASF6:
 10114 08ec 6C6F6E67 		.ascii	"long int\000"
 10114      20696E74 
 10114      00
 10115              	.LASF31:
 10116 08f5 6D617833 		.ascii	"max30102_mode_t\000"
 10116      30313032 
 10116      5F6D6F64 
 10116      655F7400 
 10117              	.LASF62:
 10118 0905 4D415833 		.ascii	"MAX30102_LED_NONE\000"
 10118      30313032 
 10118      5F4C4544 
 10118      5F4E4F4E 
 10118      4500
 10119              	.LASF174:
 10120 0917 443A5C50 		.ascii	"D:\\PSOC_Jingyi\\LAB6_2\\Lab6\\PSOC_Project\\PSOC_P"
 10120      534F435F 
 10120      4A696E67 
 10120      79695C4C 
 10120      4142365F 
 10121 0945 50472E63 		.ascii	"PG.cydsn\000"
 10121      7964736E 
 10121      00
 10122              	.LASF139:
 10123 094e 6D617833 		.ascii	"max30102_set_mode\000"
 10123      30313032 
 10123      5F736574 
 10123      5F6D6F64 
 10123      6500
 10124              	.LASF138:
 10125 0960 6D617833 		.ascii	"max30102_reset\000"
 10125      30313032 
 10125      5F726573 
 10125      657400
 10126              	.LASF90:
 10127 096f 6D61785F 		.ascii	"max_current_ma\000"
 10127      63757272 
 10127      656E745F 
 10127      6D6100
 10128              	.LASF154:
 10129 097e 6D617833 		.ascii	"max30102_set_slot\000"
 10129      30313032 
 10129      5F736574 
 10129      5F736C6F 
 10129      7400
ARM GAS  C:\Users\49148\AppData\Local\Temp\ccWN5cWv.s 			page 232


 10130              	.LASF109:
 10131 0990 74656D70 		.ascii	"temp\000"
 10131      00
 10132              	.LASF170:
 10133 0995 616D706C 		.ascii	"amplitude\000"
 10133      69747564 
 10133      6500
 10134              	.LASF120:
 10135 099f 6D617833 		.ascii	"max30102_set_fifo_overflow_counter\000"
 10135      30313032 
 10135      5F736574 
 10135      5F666966 
 10135      6F5F6F76 
 10136              	.LASF100:
 10137 09c2 6D617833 		.ascii	"max30102_irq_handler\000"
 10137      30313032 
 10137      5F697271 
 10137      5F68616E 
 10137      646C6572 
 10138              	.LASF51:
 10139 09d7 4D415833 		.ascii	"MAX30102_SPO2_SAMPLE_RATE_400_HZ\000"
 10139      30313032 
 10139      5F53504F 
 10139      325F5341 
 10139      4D504C45 
 10140              	.LASF161:
 10141 09f8 6D617833 		.ascii	"max30102_set_reg\000"
 10141      30313032 
 10141      5F736574 
 10141      5F726567 
 10141      00
 10142              	.LASF118:
 10143 0a09 706F696E 		.ascii	"pointer\000"
 10143      74657200 
 10144              	.LASF106:
 10145 0a11 72656164 		.ascii	"read_point\000"
 10145      5F706F69 
 10145      6E7400
 10146              	.LASF116:
 10147 0a1c 6D617833 		.ascii	"max30102_get_interrupt\000"
 10147      30313032 
 10147      5F676574 
 10147      5F696E74 
 10147      65727275 
 10148              	.LASF147:
 10149 0a33 6D617833 		.ascii	"max30102_set_adc_resolution\000"
 10149      30313032 
 10149      5F736574 
 10149      5F616463 
 10149      5F726573 
 10150              	.LASF3:
 10151 0a4f 5F5F7569 		.ascii	"__uint8_t\000"
 10151      6E74385F 
 10151      7400
 10152              	.LASF86:
 10153 0a59 6D616E75 		.ascii	"manufacturer_name\000"
 10153      66616374 
ARM GAS  C:\Users\49148\AppData\Local\Temp\ccWN5cWv.s 			page 233


 10153      75726572 
 10153      5F6E616D 
 10153      6500
 10154              	.LASF173:
 10155 0a6b 2E2E5C2E 		.ascii	"..\\..\\..\\..\\PSoC6_101\\Sensor\\driver_max30102."
 10155      2E5C2E2E 
 10155      5C2E2E5C 
 10155      50536F43 
 10155      365F3130 
 10156 0a98 6300     		.ascii	"c\000"
 10157              	.LASF157:
 10158 0a9a 6D617833 		.ascii	"max30102_set_die_temperature\000"
 10158      30313032 
 10158      5F736574 
 10158      5F646965 
 10158      5F74656D 
 10159              	.LASF72:
 10160 0ab7 6969635F 		.ascii	"iic_deinit\000"
 10160      6465696E 
 10160      697400
 10161              	.LASF13:
 10162 0ac2 73697A65 		.ascii	"sizetype\000"
 10162      74797065 
 10162      00
 10163              	.LASF8:
 10164 0acb 6C6F6E67 		.ascii	"long unsigned int\000"
 10164      20756E73 
 10164      69676E65 
 10164      6420696E 
 10164      7400
 10165              	.LASF129:
 10166 0add 73616D70 		.ascii	"sample\000"
 10166      6C6500
 10167              	.LASF84:
 10168 0ae4 6D617833 		.ascii	"max30102_info_s\000"
 10168      30313032 
 10168      5F696E66 
 10168      6F5F7300 
 10169              	.LASF94:
 10170 0af4 6D617833 		.ascii	"max30102_info_t\000"
 10170      30313032 
 10170      5F696E66 
 10170      6F5F7400 
 10171              	.LASF115:
 10172 0b04 74797065 		.ascii	"type\000"
 10172      00
 10173              	.LASF1:
 10174 0b09 756E7369 		.ascii	"unsigned char\000"
 10174      676E6564 
 10174      20636861 
 10174      7200
 10175              	.LASF150:
 10176 0b17 6D617833 		.ascii	"max30102_set_led_red_pulse_amplitude\000"
 10176      30313032 
 10176      5F736574 
 10176      5F6C6564 
 10176      5F726564 
ARM GAS  C:\Users\49148\AppData\Local\Temp\ccWN5cWv.s 			page 234


 10177              	.LASF7:
 10178 0b3c 5F5F7569 		.ascii	"__uint32_t\000"
 10178      6E743332 
 10178      5F7400
 10179              	.LASF25:
 10180 0b47 4D415833 		.ascii	"MAX30102_SAMPLE_AVERAGING_16\000"
 10180      30313032 
 10180      5F53414D 
 10180      504C455F 
 10180      41564552 
 10181              	.LASF135:
 10182 0b64 6D617833 		.ascii	"max30102_get_fifo_almost_full\000"
 10182      30313032 
 10182      5F676574 
 10182      5F666966 
 10182      6F5F616C 
 10183              	.LASF110:
 10184 0b82 74696D65 		.ascii	"timeout\000"
 10184      6F757400 
 10185              	.LASF98:
 10186 0b8a 6D617833 		.ascii	"max30102_deinit\000"
 10186      30313032 
 10186      5F646569 
 10186      6E697400 
 10187              	.LASF111:
 10188 0b9a 6D617833 		.ascii	"max30102_get_interrupt_status\000"
 10188      30313032 
 10188      5F676574 
 10188      5F696E74 
 10188      65727275 
 10189              	.LASF144:
 10190 0bb8 6D617833 		.ascii	"max30102_set_spo2_sample_rate\000"
 10190      30313032 
 10190      5F736574 
 10190      5F73706F 
 10190      325F7361 
 10191              	.LASF66:
 10192 0bd6 4D415833 		.ascii	"MAX30102_SLOT_1\000"
 10192      30313032 
 10192      5F534C4F 
 10192      545F3100 
 10193              	.LASF67:
 10194 0be6 4D415833 		.ascii	"MAX30102_SLOT_2\000"
 10194      30313032 
 10194      5F534C4F 
 10194      545F3200 
 10195              	.LASF68:
 10196 0bf6 4D415833 		.ascii	"MAX30102_SLOT_3\000"
 10196      30313032 
 10196      5F534C4F 
 10196      545F3300 
 10197              	.LASF69:
 10198 0c06 4D415833 		.ascii	"MAX30102_SLOT_4\000"
 10198      30313032 
 10198      5F534C4F 
 10198      545F3400 
 10199              	.LASF152:
ARM GAS  C:\Users\49148\AppData\Local\Temp\ccWN5cWv.s 			page 235


 10200 0c16 6D617833 		.ascii	"max30102_set_led_ir_pulse_amplitude\000"
 10200      30313032 
 10200      5F736574 
 10200      5F6C6564 
 10200      5F69725F 
 10201              	.LASF21:
 10202 0c3a 4D415833 		.ascii	"MAX30102_SAMPLE_AVERAGING_1\000"
 10202      30313032 
 10202      5F53414D 
 10202      504C455F 
 10202      41564552 
 10203              	.LASF22:
 10204 0c56 4D415833 		.ascii	"MAX30102_SAMPLE_AVERAGING_2\000"
 10204      30313032 
 10204      5F53414D 
 10204      504C455F 
 10204      41564552 
 10205              	.LASF23:
 10206 0c72 4D415833 		.ascii	"MAX30102_SAMPLE_AVERAGING_4\000"
 10206      30313032 
 10206      5F53414D 
 10206      504C455F 
 10206      41564552 
 10207              	.LASF24:
 10208 0c8e 4D415833 		.ascii	"MAX30102_SAMPLE_AVERAGING_8\000"
 10208      30313032 
 10208      5F53414D 
 10208      504C455F 
 10208      41564552 
 10209              	.LASF123:
 10210 0caa 6D617833 		.ascii	"max30102_set_fifo_read_pointer\000"
 10210      30313032 
 10210      5F736574 
 10210      5F666966 
 10210      6F5F7265 
 10211              	.LASF0:
 10212 0cc9 7369676E 		.ascii	"signed char\000"
 10212      65642063 
 10212      68617200 
 10213              	.LASF49:
 10214 0cd5 4D415833 		.ascii	"MAX30102_SPO2_SAMPLE_RATE_100_HZ\000"
 10214      30313032 
 10214      5F53504F 
 10214      325F5341 
 10214      4D504C45 
 10215              	.LASF60:
 10216 0cf6 4D415833 		.ascii	"MAX30102_ADC_RESOLUTION_18_BIT\000"
 10216      30313032 
 10216      5F414443 
 10216      5F524553 
 10216      4F4C5554 
 10217              	.LASF5:
 10218 0d15 73686F72 		.ascii	"short unsigned int\000"
 10218      7420756E 
 10218      7369676E 
 10218      65642069 
 10218      6E7400
ARM GAS  C:\Users\49148\AppData\Local\Temp\ccWN5cWv.s 			page 236


 10219              	.LASF18:
 10220 0d28 4D415833 		.ascii	"MAX30102_BOOL_FALSE\000"
 10220      30313032 
 10220      5F424F4F 
 10220      4C5F4641 
 10220      4C534500 
 10221              	.LASF99:
 10222 0d3c 68616E64 		.ascii	"handle\000"
 10222      6C6500
 10223              	.LASF88:
 10224 0d43 73757070 		.ascii	"supply_voltage_min_v\000"
 10224      6C795F76 
 10224      6F6C7461 
 10224      67655F6D 
 10224      696E5F76 
 10225              	.LASF42:
 10226 0d58 6D617833 		.ascii	"max30102_interrupt_t\000"
 10226      30313032 
 10226      5F696E74 
 10226      65727275 
 10226      70745F74 
 10227              	.LASF59:
 10228 0d6d 4D415833 		.ascii	"MAX30102_ADC_RESOLUTION_17_BIT\000"
 10228      30313032 
 10228      5F414443 
 10228      5F524553 
 10228      4F4C5554 
 10229              	.LASF43:
 10230 0d8c 4D415833 		.ascii	"MAX30102_SPO2_ADC_RANGE_2048\000"
 10230      30313032 
 10230      5F53504F 
 10230      325F4144 
 10230      435F5241 
 10231              	.LASF26:
 10232 0da9 4D415833 		.ascii	"MAX30102_SAMPLE_AVERAGING_32\000"
 10232      30313032 
 10232      5F53414D 
 10232      504C455F 
 10232      41564552 
 10233              	.LASF172:
 10234 0dc6 474E5520 		.ascii	"GNU C11 5.4.1 20160609 (release) [ARM/embedded-5-br"
 10234      43313120 
 10234      352E342E 
 10234      31203230 
 10234      31363036 
 10235 0df9 616E6368 		.ascii	"anch revision 237715] -mcpu=cortex-m4 -mfloat-abi=s"
 10235      20726576 
 10235      6973696F 
 10235      6E203233 
 10235      37373135 
 10236 0e2c 6F667466 		.ascii	"oftfp -mfpu=fpv4-sp-d16 -mthumb -g -O0 -ffunction-s"
 10236      70202D6D 
 10236      6670753D 
 10236      66707634 
 10236      2D73702D 
 10237 0e5f 65637469 		.ascii	"ections -ffat-lto-objects\000"
 10237      6F6E7320 
ARM GAS  C:\Users\49148\AppData\Local\Temp\ccWN5cWv.s 			page 237


 10237      2D666661 
 10237      742D6C74 
 10237      6F2D6F62 
 10238              	.LASF169:
 10239 0e79 6D617833 		.ascii	"max30102_set_led_pulse_amplitude\000"
 10239      30313032 
 10239      5F736574 
 10239      5F6C6564 
 10239      5F70756C 
 10240              	.LASF103:
 10241 0e9a 7261775F 		.ascii	"raw_red\000"
 10241      72656400 
 10242              		.ident	"GCC: (GNU Tools for ARM Embedded Processors) 5.4.1 20160609 (release) [ARM/embedded-5-bran
