ARM GAS  C:\Users\jingyiwu\AppData\Local\Temp\ccuFUITf.s 			page 1


   1              		.syntax unified
   2              		.cpu cortex-m4
   3              		.eabi_attribute 27, 1
   4              		.fpu fpv4-sp-d16
   5              		.eabi_attribute 20, 1
   6              		.eabi_attribute 21, 1
   7              		.eabi_attribute 23, 3
   8              		.eabi_attribute 24, 1
   9              		.eabi_attribute 25, 1
  10              		.eabi_attribute 26, 1
  11              		.eabi_attribute 30, 6
  12              		.eabi_attribute 34, 1
  13              		.eabi_attribute 18, 4
  14              		.thumb
  15              		.syntax unified
  16              		.file	"heap_4.c"
  17              		.text
  18              	.Ltext0:
  19              		.cfi_sections	.debug_frame
  20              		.bss
  21              		.align	2
  22              	ucHeap:
  23 0000 00000000 		.space	10240
  23      00000000 
  23      00000000 
  23      00000000 
  23      00000000 
  24              		.section	.rodata
  25              		.align	2
  26              		.type	xHeapStructSize, %object
  27              		.size	xHeapStructSize, 4
  28              	xHeapStructSize:
  29 0000 08000000 		.word	8
  30              		.bss
  31              		.align	2
  32              	xStart:
  33 2800 00000000 		.space	8
  33      00000000 
  34              		.align	2
  35              	pxEnd:
  36 2808 00000000 		.space	4
  37              		.align	2
  38              	xFreeBytesRemaining:
  39 280c 00000000 		.space	4
  40              		.align	2
  41              	xMinimumEverFreeBytesRemaining:
  42 2810 00000000 		.space	4
  43              		.align	2
  44              	xBlockAllocatedBit:
  45 2814 00000000 		.space	4
  46              		.section	.text.pvPortMalloc,"ax",%progbits
  47              		.align	2
  48              		.global	pvPortMalloc
  49              		.thumb
  50              		.thumb_func
  51              		.type	pvPortMalloc, %function
  52              	pvPortMalloc:
ARM GAS  C:\Users\jingyiwu\AppData\Local\Temp\ccuFUITf.s 			page 2


  53              	.LFB136:
  54              		.file 1 "Generated_Source\\PSoC6\\pdl\\rtos\\FreeRTOS\\10.0.1\\Source\\portable\\MemMang\\heap_4.c
   1:Generated_Source\PSoC6\pdl\rtos\FreeRTOS\10.0.1\Source\portable\MemMang/heap_4.c **** /*
   2:Generated_Source\PSoC6\pdl\rtos\FreeRTOS\10.0.1\Source\portable\MemMang/heap_4.c ****  * FreeRTOS Kernel V10.0.1
   3:Generated_Source\PSoC6\pdl\rtos\FreeRTOS\10.0.1\Source\portable\MemMang/heap_4.c ****  * Copyright (C) 2017 Amazon.com, Inc. or its affiliates.  All Rights Reserved.
   4:Generated_Source\PSoC6\pdl\rtos\FreeRTOS\10.0.1\Source\portable\MemMang/heap_4.c ****  *
   5:Generated_Source\PSoC6\pdl\rtos\FreeRTOS\10.0.1\Source\portable\MemMang/heap_4.c ****  * Permission is hereby granted, free of charge, to any person obtaining a copy of
   6:Generated_Source\PSoC6\pdl\rtos\FreeRTOS\10.0.1\Source\portable\MemMang/heap_4.c ****  * this software and associated documentation files (the "Software"), to deal in
   7:Generated_Source\PSoC6\pdl\rtos\FreeRTOS\10.0.1\Source\portable\MemMang/heap_4.c ****  * the Software without restriction, including without limitation the rights to
   8:Generated_Source\PSoC6\pdl\rtos\FreeRTOS\10.0.1\Source\portable\MemMang/heap_4.c ****  * use, copy, modify, merge, publish, distribute, sublicense, and/or sell copies of
   9:Generated_Source\PSoC6\pdl\rtos\FreeRTOS\10.0.1\Source\portable\MemMang/heap_4.c ****  * the Software, and to permit persons to whom the Software is furnished to do so,
  10:Generated_Source\PSoC6\pdl\rtos\FreeRTOS\10.0.1\Source\portable\MemMang/heap_4.c ****  * subject to the following conditions:
  11:Generated_Source\PSoC6\pdl\rtos\FreeRTOS\10.0.1\Source\portable\MemMang/heap_4.c ****  *
  12:Generated_Source\PSoC6\pdl\rtos\FreeRTOS\10.0.1\Source\portable\MemMang/heap_4.c ****  * The above copyright notice and this permission notice shall be included in all
  13:Generated_Source\PSoC6\pdl\rtos\FreeRTOS\10.0.1\Source\portable\MemMang/heap_4.c ****  * copies or substantial portions of the Software.
  14:Generated_Source\PSoC6\pdl\rtos\FreeRTOS\10.0.1\Source\portable\MemMang/heap_4.c ****  *
  15:Generated_Source\PSoC6\pdl\rtos\FreeRTOS\10.0.1\Source\portable\MemMang/heap_4.c ****  * THE SOFTWARE IS PROVIDED "AS IS", WITHOUT WARRANTY OF ANY KIND, EXPRESS OR
  16:Generated_Source\PSoC6\pdl\rtos\FreeRTOS\10.0.1\Source\portable\MemMang/heap_4.c ****  * IMPLIED, INCLUDING BUT NOT LIMITED TO THE WARRANTIES OF MERCHANTABILITY, FITNESS
  17:Generated_Source\PSoC6\pdl\rtos\FreeRTOS\10.0.1\Source\portable\MemMang/heap_4.c ****  * FOR A PARTICULAR PURPOSE AND NONINFRINGEMENT. IN NO EVENT SHALL THE AUTHORS OR
  18:Generated_Source\PSoC6\pdl\rtos\FreeRTOS\10.0.1\Source\portable\MemMang/heap_4.c ****  * COPYRIGHT HOLDERS BE LIABLE FOR ANY CLAIM, DAMAGES OR OTHER LIABILITY, WHETHER
  19:Generated_Source\PSoC6\pdl\rtos\FreeRTOS\10.0.1\Source\portable\MemMang/heap_4.c ****  * IN AN ACTION OF CONTRACT, TORT OR OTHERWISE, ARISING FROM, OUT OF OR IN
  20:Generated_Source\PSoC6\pdl\rtos\FreeRTOS\10.0.1\Source\portable\MemMang/heap_4.c ****  * CONNECTION WITH THE SOFTWARE OR THE USE OR OTHER DEALINGS IN THE SOFTWARE.
  21:Generated_Source\PSoC6\pdl\rtos\FreeRTOS\10.0.1\Source\portable\MemMang/heap_4.c ****  *
  22:Generated_Source\PSoC6\pdl\rtos\FreeRTOS\10.0.1\Source\portable\MemMang/heap_4.c ****  * http://www.FreeRTOS.org
  23:Generated_Source\PSoC6\pdl\rtos\FreeRTOS\10.0.1\Source\portable\MemMang/heap_4.c ****  * http://aws.amazon.com/freertos
  24:Generated_Source\PSoC6\pdl\rtos\FreeRTOS\10.0.1\Source\portable\MemMang/heap_4.c ****  *
  25:Generated_Source\PSoC6\pdl\rtos\FreeRTOS\10.0.1\Source\portable\MemMang/heap_4.c ****  * 1 tab == 4 spaces!
  26:Generated_Source\PSoC6\pdl\rtos\FreeRTOS\10.0.1\Source\portable\MemMang/heap_4.c ****  */
  27:Generated_Source\PSoC6\pdl\rtos\FreeRTOS\10.0.1\Source\portable\MemMang/heap_4.c **** 
  28:Generated_Source\PSoC6\pdl\rtos\FreeRTOS\10.0.1\Source\portable\MemMang/heap_4.c **** /*
  29:Generated_Source\PSoC6\pdl\rtos\FreeRTOS\10.0.1\Source\portable\MemMang/heap_4.c ****  * A sample implementation of pvPortMalloc() and vPortFree() that combines
  30:Generated_Source\PSoC6\pdl\rtos\FreeRTOS\10.0.1\Source\portable\MemMang/heap_4.c ****  * (coalescences) adjacent memory blocks as they are freed, and in so doing
  31:Generated_Source\PSoC6\pdl\rtos\FreeRTOS\10.0.1\Source\portable\MemMang/heap_4.c ****  * limits memory fragmentation.
  32:Generated_Source\PSoC6\pdl\rtos\FreeRTOS\10.0.1\Source\portable\MemMang/heap_4.c ****  *
  33:Generated_Source\PSoC6\pdl\rtos\FreeRTOS\10.0.1\Source\portable\MemMang/heap_4.c ****  * See heap_1.c, heap_2.c and heap_3.c for alternative implementations, and the
  34:Generated_Source\PSoC6\pdl\rtos\FreeRTOS\10.0.1\Source\portable\MemMang/heap_4.c ****  * memory management pages of http://www.FreeRTOS.org for more information.
  35:Generated_Source\PSoC6\pdl\rtos\FreeRTOS\10.0.1\Source\portable\MemMang/heap_4.c ****  */
  36:Generated_Source\PSoC6\pdl\rtos\FreeRTOS\10.0.1\Source\portable\MemMang/heap_4.c **** #include <stdlib.h>
  37:Generated_Source\PSoC6\pdl\rtos\FreeRTOS\10.0.1\Source\portable\MemMang/heap_4.c **** 
  38:Generated_Source\PSoC6\pdl\rtos\FreeRTOS\10.0.1\Source\portable\MemMang/heap_4.c **** /* Defining MPU_WRAPPERS_INCLUDED_FROM_API_FILE prevents task.h from redefining
  39:Generated_Source\PSoC6\pdl\rtos\FreeRTOS\10.0.1\Source\portable\MemMang/heap_4.c **** all the API functions to use the MPU wrappers.  That should only be done when
  40:Generated_Source\PSoC6\pdl\rtos\FreeRTOS\10.0.1\Source\portable\MemMang/heap_4.c **** task.h is included from an application file. */
  41:Generated_Source\PSoC6\pdl\rtos\FreeRTOS\10.0.1\Source\portable\MemMang/heap_4.c **** #define MPU_WRAPPERS_INCLUDED_FROM_API_FILE
  42:Generated_Source\PSoC6\pdl\rtos\FreeRTOS\10.0.1\Source\portable\MemMang/heap_4.c **** 
  43:Generated_Source\PSoC6\pdl\rtos\FreeRTOS\10.0.1\Source\portable\MemMang/heap_4.c **** #include "FreeRTOS.h"
  44:Generated_Source\PSoC6\pdl\rtos\FreeRTOS\10.0.1\Source\portable\MemMang/heap_4.c **** #include "task.h"
  45:Generated_Source\PSoC6\pdl\rtos\FreeRTOS\10.0.1\Source\portable\MemMang/heap_4.c **** 
  46:Generated_Source\PSoC6\pdl\rtos\FreeRTOS\10.0.1\Source\portable\MemMang/heap_4.c **** #undef MPU_WRAPPERS_INCLUDED_FROM_API_FILE
  47:Generated_Source\PSoC6\pdl\rtos\FreeRTOS\10.0.1\Source\portable\MemMang/heap_4.c **** 
  48:Generated_Source\PSoC6\pdl\rtos\FreeRTOS\10.0.1\Source\portable\MemMang/heap_4.c **** #if( configSUPPORT_DYNAMIC_ALLOCATION == 0 )
  49:Generated_Source\PSoC6\pdl\rtos\FreeRTOS\10.0.1\Source\portable\MemMang/heap_4.c **** 	#error This file must not be used if configSUPPORT_DYNAMIC_ALLOCATION is 0
  50:Generated_Source\PSoC6\pdl\rtos\FreeRTOS\10.0.1\Source\portable\MemMang/heap_4.c **** #endif
  51:Generated_Source\PSoC6\pdl\rtos\FreeRTOS\10.0.1\Source\portable\MemMang/heap_4.c **** 
  52:Generated_Source\PSoC6\pdl\rtos\FreeRTOS\10.0.1\Source\portable\MemMang/heap_4.c **** /* Block sizes must not get too small. */
  53:Generated_Source\PSoC6\pdl\rtos\FreeRTOS\10.0.1\Source\portable\MemMang/heap_4.c **** #define heapMINIMUM_BLOCK_SIZE	( ( size_t ) ( xHeapStructSize << 1 ) )
  54:Generated_Source\PSoC6\pdl\rtos\FreeRTOS\10.0.1\Source\portable\MemMang/heap_4.c **** 
  55:Generated_Source\PSoC6\pdl\rtos\FreeRTOS\10.0.1\Source\portable\MemMang/heap_4.c **** /* Assumes 8bit bytes! */
ARM GAS  C:\Users\jingyiwu\AppData\Local\Temp\ccuFUITf.s 			page 3


  56:Generated_Source\PSoC6\pdl\rtos\FreeRTOS\10.0.1\Source\portable\MemMang/heap_4.c **** #define heapBITS_PER_BYTE		( ( size_t ) 8 )
  57:Generated_Source\PSoC6\pdl\rtos\FreeRTOS\10.0.1\Source\portable\MemMang/heap_4.c **** 
  58:Generated_Source\PSoC6\pdl\rtos\FreeRTOS\10.0.1\Source\portable\MemMang/heap_4.c **** /* Allocate the memory for the heap. */
  59:Generated_Source\PSoC6\pdl\rtos\FreeRTOS\10.0.1\Source\portable\MemMang/heap_4.c **** #if( configAPPLICATION_ALLOCATED_HEAP == 1 )
  60:Generated_Source\PSoC6\pdl\rtos\FreeRTOS\10.0.1\Source\portable\MemMang/heap_4.c **** 	/* The application writer has already defined the array used for the RTOS
  61:Generated_Source\PSoC6\pdl\rtos\FreeRTOS\10.0.1\Source\portable\MemMang/heap_4.c **** 	heap - probably so it can be placed in a special segment or address. */
  62:Generated_Source\PSoC6\pdl\rtos\FreeRTOS\10.0.1\Source\portable\MemMang/heap_4.c **** 	extern uint8_t ucHeap[ configTOTAL_HEAP_SIZE ];
  63:Generated_Source\PSoC6\pdl\rtos\FreeRTOS\10.0.1\Source\portable\MemMang/heap_4.c **** #else
  64:Generated_Source\PSoC6\pdl\rtos\FreeRTOS\10.0.1\Source\portable\MemMang/heap_4.c **** 	static uint8_t ucHeap[ configTOTAL_HEAP_SIZE ];
  65:Generated_Source\PSoC6\pdl\rtos\FreeRTOS\10.0.1\Source\portable\MemMang/heap_4.c **** #endif /* configAPPLICATION_ALLOCATED_HEAP */
  66:Generated_Source\PSoC6\pdl\rtos\FreeRTOS\10.0.1\Source\portable\MemMang/heap_4.c **** 
  67:Generated_Source\PSoC6\pdl\rtos\FreeRTOS\10.0.1\Source\portable\MemMang/heap_4.c **** /* Define the linked list structure.  This is used to link free blocks in order
  68:Generated_Source\PSoC6\pdl\rtos\FreeRTOS\10.0.1\Source\portable\MemMang/heap_4.c **** of their memory address. */
  69:Generated_Source\PSoC6\pdl\rtos\FreeRTOS\10.0.1\Source\portable\MemMang/heap_4.c **** typedef struct A_BLOCK_LINK
  70:Generated_Source\PSoC6\pdl\rtos\FreeRTOS\10.0.1\Source\portable\MemMang/heap_4.c **** {
  71:Generated_Source\PSoC6\pdl\rtos\FreeRTOS\10.0.1\Source\portable\MemMang/heap_4.c **** 	struct A_BLOCK_LINK *pxNextFreeBlock;	/*<< The next free block in the list. */
  72:Generated_Source\PSoC6\pdl\rtos\FreeRTOS\10.0.1\Source\portable\MemMang/heap_4.c **** 	size_t xBlockSize;						/*<< The size of the free block. */
  73:Generated_Source\PSoC6\pdl\rtos\FreeRTOS\10.0.1\Source\portable\MemMang/heap_4.c **** } BlockLink_t;
  74:Generated_Source\PSoC6\pdl\rtos\FreeRTOS\10.0.1\Source\portable\MemMang/heap_4.c **** 
  75:Generated_Source\PSoC6\pdl\rtos\FreeRTOS\10.0.1\Source\portable\MemMang/heap_4.c **** /*-----------------------------------------------------------*/
  76:Generated_Source\PSoC6\pdl\rtos\FreeRTOS\10.0.1\Source\portable\MemMang/heap_4.c **** 
  77:Generated_Source\PSoC6\pdl\rtos\FreeRTOS\10.0.1\Source\portable\MemMang/heap_4.c **** /*
  78:Generated_Source\PSoC6\pdl\rtos\FreeRTOS\10.0.1\Source\portable\MemMang/heap_4.c ****  * Inserts a block of memory that is being freed into the correct position in
  79:Generated_Source\PSoC6\pdl\rtos\FreeRTOS\10.0.1\Source\portable\MemMang/heap_4.c ****  * the list of free memory blocks.  The block being freed will be merged with
  80:Generated_Source\PSoC6\pdl\rtos\FreeRTOS\10.0.1\Source\portable\MemMang/heap_4.c ****  * the block in front it and/or the block behind it if the memory blocks are
  81:Generated_Source\PSoC6\pdl\rtos\FreeRTOS\10.0.1\Source\portable\MemMang/heap_4.c ****  * adjacent to each other.
  82:Generated_Source\PSoC6\pdl\rtos\FreeRTOS\10.0.1\Source\portable\MemMang/heap_4.c ****  */
  83:Generated_Source\PSoC6\pdl\rtos\FreeRTOS\10.0.1\Source\portable\MemMang/heap_4.c **** static void prvInsertBlockIntoFreeList( BlockLink_t *pxBlockToInsert );
  84:Generated_Source\PSoC6\pdl\rtos\FreeRTOS\10.0.1\Source\portable\MemMang/heap_4.c **** 
  85:Generated_Source\PSoC6\pdl\rtos\FreeRTOS\10.0.1\Source\portable\MemMang/heap_4.c **** /*
  86:Generated_Source\PSoC6\pdl\rtos\FreeRTOS\10.0.1\Source\portable\MemMang/heap_4.c ****  * Called automatically to setup the required heap structures the first time
  87:Generated_Source\PSoC6\pdl\rtos\FreeRTOS\10.0.1\Source\portable\MemMang/heap_4.c ****  * pvPortMalloc() is called.
  88:Generated_Source\PSoC6\pdl\rtos\FreeRTOS\10.0.1\Source\portable\MemMang/heap_4.c ****  */
  89:Generated_Source\PSoC6\pdl\rtos\FreeRTOS\10.0.1\Source\portable\MemMang/heap_4.c **** static void prvHeapInit( void );
  90:Generated_Source\PSoC6\pdl\rtos\FreeRTOS\10.0.1\Source\portable\MemMang/heap_4.c **** 
  91:Generated_Source\PSoC6\pdl\rtos\FreeRTOS\10.0.1\Source\portable\MemMang/heap_4.c **** /*-----------------------------------------------------------*/
  92:Generated_Source\PSoC6\pdl\rtos\FreeRTOS\10.0.1\Source\portable\MemMang/heap_4.c **** 
  93:Generated_Source\PSoC6\pdl\rtos\FreeRTOS\10.0.1\Source\portable\MemMang/heap_4.c **** /* The size of the structure placed at the beginning of each allocated memory
  94:Generated_Source\PSoC6\pdl\rtos\FreeRTOS\10.0.1\Source\portable\MemMang/heap_4.c **** block must by correctly byte aligned. */
  95:Generated_Source\PSoC6\pdl\rtos\FreeRTOS\10.0.1\Source\portable\MemMang/heap_4.c **** static const size_t xHeapStructSize	= ( sizeof( BlockLink_t ) + ( ( size_t ) ( portBYTE_ALIGNMENT -
  96:Generated_Source\PSoC6\pdl\rtos\FreeRTOS\10.0.1\Source\portable\MemMang/heap_4.c **** 
  97:Generated_Source\PSoC6\pdl\rtos\FreeRTOS\10.0.1\Source\portable\MemMang/heap_4.c **** /* Create a couple of list links to mark the start and end of the list. */
  98:Generated_Source\PSoC6\pdl\rtos\FreeRTOS\10.0.1\Source\portable\MemMang/heap_4.c **** static BlockLink_t xStart, *pxEnd = NULL;
  99:Generated_Source\PSoC6\pdl\rtos\FreeRTOS\10.0.1\Source\portable\MemMang/heap_4.c **** 
 100:Generated_Source\PSoC6\pdl\rtos\FreeRTOS\10.0.1\Source\portable\MemMang/heap_4.c **** /* Keeps track of the number of free bytes remaining, but says nothing about
 101:Generated_Source\PSoC6\pdl\rtos\FreeRTOS\10.0.1\Source\portable\MemMang/heap_4.c **** fragmentation. */
 102:Generated_Source\PSoC6\pdl\rtos\FreeRTOS\10.0.1\Source\portable\MemMang/heap_4.c **** static size_t xFreeBytesRemaining = 0U;
 103:Generated_Source\PSoC6\pdl\rtos\FreeRTOS\10.0.1\Source\portable\MemMang/heap_4.c **** static size_t xMinimumEverFreeBytesRemaining = 0U;
 104:Generated_Source\PSoC6\pdl\rtos\FreeRTOS\10.0.1\Source\portable\MemMang/heap_4.c **** 
 105:Generated_Source\PSoC6\pdl\rtos\FreeRTOS\10.0.1\Source\portable\MemMang/heap_4.c **** /* Gets set to the top bit of an size_t type.  When this bit in the xBlockSize
 106:Generated_Source\PSoC6\pdl\rtos\FreeRTOS\10.0.1\Source\portable\MemMang/heap_4.c **** member of an BlockLink_t structure is set then the block belongs to the
 107:Generated_Source\PSoC6\pdl\rtos\FreeRTOS\10.0.1\Source\portable\MemMang/heap_4.c **** application.  When the bit is free the block is still part of the free heap
 108:Generated_Source\PSoC6\pdl\rtos\FreeRTOS\10.0.1\Source\portable\MemMang/heap_4.c **** space. */
 109:Generated_Source\PSoC6\pdl\rtos\FreeRTOS\10.0.1\Source\portable\MemMang/heap_4.c **** static size_t xBlockAllocatedBit = 0;
 110:Generated_Source\PSoC6\pdl\rtos\FreeRTOS\10.0.1\Source\portable\MemMang/heap_4.c **** 
 111:Generated_Source\PSoC6\pdl\rtos\FreeRTOS\10.0.1\Source\portable\MemMang/heap_4.c **** /*-----------------------------------------------------------*/
 112:Generated_Source\PSoC6\pdl\rtos\FreeRTOS\10.0.1\Source\portable\MemMang/heap_4.c **** 
ARM GAS  C:\Users\jingyiwu\AppData\Local\Temp\ccuFUITf.s 			page 4


 113:Generated_Source\PSoC6\pdl\rtos\FreeRTOS\10.0.1\Source\portable\MemMang/heap_4.c **** void *pvPortMalloc( size_t xWantedSize )
 114:Generated_Source\PSoC6\pdl\rtos\FreeRTOS\10.0.1\Source\portable\MemMang/heap_4.c **** {
  55              		.loc 1 114 0
  56              		.cfi_startproc
  57              		@ args = 0, pretend = 0, frame = 40
  58              		@ frame_needed = 1, uses_anonymous_args = 0
  59 0000 80B5     		push	{r7, lr}
  60              		.cfi_def_cfa_offset 8
  61              		.cfi_offset 7, -8
  62              		.cfi_offset 14, -4
  63 0002 8AB0     		sub	sp, sp, #40
  64              		.cfi_def_cfa_offset 48
  65 0004 00AF     		add	r7, sp, #0
  66              		.cfi_def_cfa_register 7
  67 0006 7860     		str	r0, [r7, #4]
 115:Generated_Source\PSoC6\pdl\rtos\FreeRTOS\10.0.1\Source\portable\MemMang/heap_4.c **** BlockLink_t *pxBlock, *pxPreviousBlock, *pxNewBlockLink;
 116:Generated_Source\PSoC6\pdl\rtos\FreeRTOS\10.0.1\Source\portable\MemMang/heap_4.c **** void *pvReturn = NULL;
  68              		.loc 1 116 0
  69 0008 0023     		movs	r3, #0
  70 000a FB61     		str	r3, [r7, #28]
 117:Generated_Source\PSoC6\pdl\rtos\FreeRTOS\10.0.1\Source\portable\MemMang/heap_4.c **** 
 118:Generated_Source\PSoC6\pdl\rtos\FreeRTOS\10.0.1\Source\portable\MemMang/heap_4.c **** 	vTaskSuspendAll();
  71              		.loc 1 118 0
  72 000c FFF7FEFF 		bl	vTaskSuspendAll
 119:Generated_Source\PSoC6\pdl\rtos\FreeRTOS\10.0.1\Source\portable\MemMang/heap_4.c **** 	{
 120:Generated_Source\PSoC6\pdl\rtos\FreeRTOS\10.0.1\Source\portable\MemMang/heap_4.c **** 		/* If this is the first call to malloc then the heap will require
 121:Generated_Source\PSoC6\pdl\rtos\FreeRTOS\10.0.1\Source\portable\MemMang/heap_4.c **** 		initialisation to setup the list of free blocks. */
 122:Generated_Source\PSoC6\pdl\rtos\FreeRTOS\10.0.1\Source\portable\MemMang/heap_4.c **** 		if( pxEnd == NULL )
  73              		.loc 1 122 0
  74 0010 574B     		ldr	r3, .L16
  75 0012 1B68     		ldr	r3, [r3]
  76 0014 002B     		cmp	r3, #0
  77 0016 01D1     		bne	.L2
 123:Generated_Source\PSoC6\pdl\rtos\FreeRTOS\10.0.1\Source\portable\MemMang/heap_4.c **** 		{
 124:Generated_Source\PSoC6\pdl\rtos\FreeRTOS\10.0.1\Source\portable\MemMang/heap_4.c **** 			prvHeapInit();
  78              		.loc 1 124 0
  79 0018 FFF7FEFF 		bl	prvHeapInit
  80              	.L2:
 125:Generated_Source\PSoC6\pdl\rtos\FreeRTOS\10.0.1\Source\portable\MemMang/heap_4.c **** 		}
 126:Generated_Source\PSoC6\pdl\rtos\FreeRTOS\10.0.1\Source\portable\MemMang/heap_4.c **** 		else
 127:Generated_Source\PSoC6\pdl\rtos\FreeRTOS\10.0.1\Source\portable\MemMang/heap_4.c **** 		{
 128:Generated_Source\PSoC6\pdl\rtos\FreeRTOS\10.0.1\Source\portable\MemMang/heap_4.c **** 			mtCOVERAGE_TEST_MARKER();
 129:Generated_Source\PSoC6\pdl\rtos\FreeRTOS\10.0.1\Source\portable\MemMang/heap_4.c **** 		}
 130:Generated_Source\PSoC6\pdl\rtos\FreeRTOS\10.0.1\Source\portable\MemMang/heap_4.c **** 
 131:Generated_Source\PSoC6\pdl\rtos\FreeRTOS\10.0.1\Source\portable\MemMang/heap_4.c **** 		/* Check the requested block size is not so large that the top bit is
 132:Generated_Source\PSoC6\pdl\rtos\FreeRTOS\10.0.1\Source\portable\MemMang/heap_4.c **** 		set.  The top bit of the block size member of the BlockLink_t structure
 133:Generated_Source\PSoC6\pdl\rtos\FreeRTOS\10.0.1\Source\portable\MemMang/heap_4.c **** 		is used to determine who owns the block - the application or the
 134:Generated_Source\PSoC6\pdl\rtos\FreeRTOS\10.0.1\Source\portable\MemMang/heap_4.c **** 		kernel, so it must be free. */
 135:Generated_Source\PSoC6\pdl\rtos\FreeRTOS\10.0.1\Source\portable\MemMang/heap_4.c **** 		if( ( xWantedSize & xBlockAllocatedBit ) == 0 )
  81              		.loc 1 135 0
  82 001c 554B     		ldr	r3, .L16+4
  83 001e 1A68     		ldr	r2, [r3]
  84 0020 7B68     		ldr	r3, [r7, #4]
  85 0022 1340     		ands	r3, r3, r2
  86 0024 002B     		cmp	r3, #0
  87 0026 40F08C80 		bne	.L3
 136:Generated_Source\PSoC6\pdl\rtos\FreeRTOS\10.0.1\Source\portable\MemMang/heap_4.c **** 		{
ARM GAS  C:\Users\jingyiwu\AppData\Local\Temp\ccuFUITf.s 			page 5


 137:Generated_Source\PSoC6\pdl\rtos\FreeRTOS\10.0.1\Source\portable\MemMang/heap_4.c **** 			/* The wanted size is increased so it can contain a BlockLink_t
 138:Generated_Source\PSoC6\pdl\rtos\FreeRTOS\10.0.1\Source\portable\MemMang/heap_4.c **** 			structure in addition to the requested amount of bytes. */
 139:Generated_Source\PSoC6\pdl\rtos\FreeRTOS\10.0.1\Source\portable\MemMang/heap_4.c **** 			if( xWantedSize > 0 )
  88              		.loc 1 139 0
  89 002a 7B68     		ldr	r3, [r7, #4]
  90 002c 002B     		cmp	r3, #0
  91 002e 1CD0     		beq	.L4
 140:Generated_Source\PSoC6\pdl\rtos\FreeRTOS\10.0.1\Source\portable\MemMang/heap_4.c **** 			{
 141:Generated_Source\PSoC6\pdl\rtos\FreeRTOS\10.0.1\Source\portable\MemMang/heap_4.c **** 				xWantedSize += xHeapStructSize;
  92              		.loc 1 141 0
  93 0030 0822     		movs	r2, #8
  94 0032 7B68     		ldr	r3, [r7, #4]
  95 0034 1344     		add	r3, r3, r2
  96 0036 7B60     		str	r3, [r7, #4]
 142:Generated_Source\PSoC6\pdl\rtos\FreeRTOS\10.0.1\Source\portable\MemMang/heap_4.c **** 
 143:Generated_Source\PSoC6\pdl\rtos\FreeRTOS\10.0.1\Source\portable\MemMang/heap_4.c **** 				/* Ensure that blocks are always aligned to the required number
 144:Generated_Source\PSoC6\pdl\rtos\FreeRTOS\10.0.1\Source\portable\MemMang/heap_4.c **** 				of bytes. */
 145:Generated_Source\PSoC6\pdl\rtos\FreeRTOS\10.0.1\Source\portable\MemMang/heap_4.c **** 				if( ( xWantedSize & portBYTE_ALIGNMENT_MASK ) != 0x00 )
  97              		.loc 1 145 0
  98 0038 7B68     		ldr	r3, [r7, #4]
  99 003a 03F00703 		and	r3, r3, #7
 100 003e 002B     		cmp	r3, #0
 101 0040 13D0     		beq	.L4
 146:Generated_Source\PSoC6\pdl\rtos\FreeRTOS\10.0.1\Source\portable\MemMang/heap_4.c **** 				{
 147:Generated_Source\PSoC6\pdl\rtos\FreeRTOS\10.0.1\Source\portable\MemMang/heap_4.c **** 					/* Byte alignment required. */
 148:Generated_Source\PSoC6\pdl\rtos\FreeRTOS\10.0.1\Source\portable\MemMang/heap_4.c **** 					xWantedSize += ( portBYTE_ALIGNMENT - ( xWantedSize & portBYTE_ALIGNMENT_MASK ) );
 102              		.loc 1 148 0
 103 0042 7B68     		ldr	r3, [r7, #4]
 104 0044 23F00703 		bic	r3, r3, #7
 105 0048 0833     		adds	r3, r3, #8
 106 004a 7B60     		str	r3, [r7, #4]
 149:Generated_Source\PSoC6\pdl\rtos\FreeRTOS\10.0.1\Source\portable\MemMang/heap_4.c **** 					configASSERT( ( xWantedSize & portBYTE_ALIGNMENT_MASK ) == 0 );
 107              		.loc 1 149 0
 108 004c 7B68     		ldr	r3, [r7, #4]
 109 004e 03F00703 		and	r3, r3, #7
 110 0052 002B     		cmp	r3, #0
 111 0054 09D0     		beq	.L4
 112              	.LBB12:
 113              	.LBB13:
 114              		.file 2 "Generated_Source\\PSoC6\\pdl\\rtos/FreeRTOS/10.0.1/Source/portable/GCC/CM4F/portmacro.h"
   1:Generated_Source\PSoC6\pdl\rtos/FreeRTOS/10.0.1/Source/portable/GCC/CM4F/portmacro.h **** /*
   2:Generated_Source\PSoC6\pdl\rtos/FreeRTOS/10.0.1/Source/portable/GCC/CM4F/portmacro.h ****  * FreeRTOS Kernel V10.0.1
   3:Generated_Source\PSoC6\pdl\rtos/FreeRTOS/10.0.1/Source/portable/GCC/CM4F/portmacro.h ****  * Copyright (C) 2017 Amazon.com, Inc. or its affiliates.  All Rights Reserved.
   4:Generated_Source\PSoC6\pdl\rtos/FreeRTOS/10.0.1/Source/portable/GCC/CM4F/portmacro.h ****  *
   5:Generated_Source\PSoC6\pdl\rtos/FreeRTOS/10.0.1/Source/portable/GCC/CM4F/portmacro.h ****  * Permission is hereby granted, free of charge, to any person obtaining a copy of
   6:Generated_Source\PSoC6\pdl\rtos/FreeRTOS/10.0.1/Source/portable/GCC/CM4F/portmacro.h ****  * this software and associated documentation files (the "Software"), to deal in
   7:Generated_Source\PSoC6\pdl\rtos/FreeRTOS/10.0.1/Source/portable/GCC/CM4F/portmacro.h ****  * the Software without restriction, including without limitation the rights to
   8:Generated_Source\PSoC6\pdl\rtos/FreeRTOS/10.0.1/Source/portable/GCC/CM4F/portmacro.h ****  * use, copy, modify, merge, publish, distribute, sublicense, and/or sell copies of
   9:Generated_Source\PSoC6\pdl\rtos/FreeRTOS/10.0.1/Source/portable/GCC/CM4F/portmacro.h ****  * the Software, and to permit persons to whom the Software is furnished to do so,
  10:Generated_Source\PSoC6\pdl\rtos/FreeRTOS/10.0.1/Source/portable/GCC/CM4F/portmacro.h ****  * subject to the following conditions:
  11:Generated_Source\PSoC6\pdl\rtos/FreeRTOS/10.0.1/Source/portable/GCC/CM4F/portmacro.h ****  *
  12:Generated_Source\PSoC6\pdl\rtos/FreeRTOS/10.0.1/Source/portable/GCC/CM4F/portmacro.h ****  * The above copyright notice and this permission notice shall be included in all
  13:Generated_Source\PSoC6\pdl\rtos/FreeRTOS/10.0.1/Source/portable/GCC/CM4F/portmacro.h ****  * copies or substantial portions of the Software.
  14:Generated_Source\PSoC6\pdl\rtos/FreeRTOS/10.0.1/Source/portable/GCC/CM4F/portmacro.h ****  *
  15:Generated_Source\PSoC6\pdl\rtos/FreeRTOS/10.0.1/Source/portable/GCC/CM4F/portmacro.h ****  * THE SOFTWARE IS PROVIDED "AS IS", WITHOUT WARRANTY OF ANY KIND, EXPRESS OR
  16:Generated_Source\PSoC6\pdl\rtos/FreeRTOS/10.0.1/Source/portable/GCC/CM4F/portmacro.h ****  * IMPLIED, INCLUDING BUT NOT LIMITED TO THE WARRANTIES OF MERCHANTABILITY, FITNESS
  17:Generated_Source\PSoC6\pdl\rtos/FreeRTOS/10.0.1/Source/portable/GCC/CM4F/portmacro.h ****  * FOR A PARTICULAR PURPOSE AND NONINFRINGEMENT. IN NO EVENT SHALL THE AUTHORS OR
ARM GAS  C:\Users\jingyiwu\AppData\Local\Temp\ccuFUITf.s 			page 6


  18:Generated_Source\PSoC6\pdl\rtos/FreeRTOS/10.0.1/Source/portable/GCC/CM4F/portmacro.h ****  * COPYRIGHT HOLDERS BE LIABLE FOR ANY CLAIM, DAMAGES OR OTHER LIABILITY, WHETHER
  19:Generated_Source\PSoC6\pdl\rtos/FreeRTOS/10.0.1/Source/portable/GCC/CM4F/portmacro.h ****  * IN AN ACTION OF CONTRACT, TORT OR OTHERWISE, ARISING FROM, OUT OF OR IN
  20:Generated_Source\PSoC6\pdl\rtos/FreeRTOS/10.0.1/Source/portable/GCC/CM4F/portmacro.h ****  * CONNECTION WITH THE SOFTWARE OR THE USE OR OTHER DEALINGS IN THE SOFTWARE.
  21:Generated_Source\PSoC6\pdl\rtos/FreeRTOS/10.0.1/Source/portable/GCC/CM4F/portmacro.h ****  *
  22:Generated_Source\PSoC6\pdl\rtos/FreeRTOS/10.0.1/Source/portable/GCC/CM4F/portmacro.h ****  * http://www.FreeRTOS.org
  23:Generated_Source\PSoC6\pdl\rtos/FreeRTOS/10.0.1/Source/portable/GCC/CM4F/portmacro.h ****  * http://aws.amazon.com/freertos
  24:Generated_Source\PSoC6\pdl\rtos/FreeRTOS/10.0.1/Source/portable/GCC/CM4F/portmacro.h ****  *
  25:Generated_Source\PSoC6\pdl\rtos/FreeRTOS/10.0.1/Source/portable/GCC/CM4F/portmacro.h ****  * 1 tab == 4 spaces!
  26:Generated_Source\PSoC6\pdl\rtos/FreeRTOS/10.0.1/Source/portable/GCC/CM4F/portmacro.h ****  */
  27:Generated_Source\PSoC6\pdl\rtos/FreeRTOS/10.0.1/Source/portable/GCC/CM4F/portmacro.h **** 
  28:Generated_Source\PSoC6\pdl\rtos/FreeRTOS/10.0.1/Source/portable/GCC/CM4F/portmacro.h **** 
  29:Generated_Source\PSoC6\pdl\rtos/FreeRTOS/10.0.1/Source/portable/GCC/CM4F/portmacro.h **** #ifndef PORTMACRO_H
  30:Generated_Source\PSoC6\pdl\rtos/FreeRTOS/10.0.1/Source/portable/GCC/CM4F/portmacro.h **** #define PORTMACRO_H
  31:Generated_Source\PSoC6\pdl\rtos/FreeRTOS/10.0.1/Source/portable/GCC/CM4F/portmacro.h **** 
  32:Generated_Source\PSoC6\pdl\rtos/FreeRTOS/10.0.1/Source/portable/GCC/CM4F/portmacro.h **** #ifdef __cplusplus
  33:Generated_Source\PSoC6\pdl\rtos/FreeRTOS/10.0.1/Source/portable/GCC/CM4F/portmacro.h **** extern "C" {
  34:Generated_Source\PSoC6\pdl\rtos/FreeRTOS/10.0.1/Source/portable/GCC/CM4F/portmacro.h **** #endif
  35:Generated_Source\PSoC6\pdl\rtos/FreeRTOS/10.0.1/Source/portable/GCC/CM4F/portmacro.h **** 
  36:Generated_Source\PSoC6\pdl\rtos/FreeRTOS/10.0.1/Source/portable/GCC/CM4F/portmacro.h **** /*-----------------------------------------------------------
  37:Generated_Source\PSoC6\pdl\rtos/FreeRTOS/10.0.1/Source/portable/GCC/CM4F/portmacro.h ****  * Port specific definitions.
  38:Generated_Source\PSoC6\pdl\rtos/FreeRTOS/10.0.1/Source/portable/GCC/CM4F/portmacro.h ****  *
  39:Generated_Source\PSoC6\pdl\rtos/FreeRTOS/10.0.1/Source/portable/GCC/CM4F/portmacro.h ****  * The settings in this file configure FreeRTOS correctly for the
  40:Generated_Source\PSoC6\pdl\rtos/FreeRTOS/10.0.1/Source/portable/GCC/CM4F/portmacro.h ****  * given hardware and compiler.
  41:Generated_Source\PSoC6\pdl\rtos/FreeRTOS/10.0.1/Source/portable/GCC/CM4F/portmacro.h ****  *
  42:Generated_Source\PSoC6\pdl\rtos/FreeRTOS/10.0.1/Source/portable/GCC/CM4F/portmacro.h ****  * These settings should not be altered.
  43:Generated_Source\PSoC6\pdl\rtos/FreeRTOS/10.0.1/Source/portable/GCC/CM4F/portmacro.h ****  *-----------------------------------------------------------
  44:Generated_Source\PSoC6\pdl\rtos/FreeRTOS/10.0.1/Source/portable/GCC/CM4F/portmacro.h ****  */
  45:Generated_Source\PSoC6\pdl\rtos/FreeRTOS/10.0.1/Source/portable/GCC/CM4F/portmacro.h **** 
  46:Generated_Source\PSoC6\pdl\rtos/FreeRTOS/10.0.1/Source/portable/GCC/CM4F/portmacro.h **** /* Type definitions. */
  47:Generated_Source\PSoC6\pdl\rtos/FreeRTOS/10.0.1/Source/portable/GCC/CM4F/portmacro.h **** #define portCHAR		char
  48:Generated_Source\PSoC6\pdl\rtos/FreeRTOS/10.0.1/Source/portable/GCC/CM4F/portmacro.h **** #define portFLOAT		float
  49:Generated_Source\PSoC6\pdl\rtos/FreeRTOS/10.0.1/Source/portable/GCC/CM4F/portmacro.h **** #define portDOUBLE		double
  50:Generated_Source\PSoC6\pdl\rtos/FreeRTOS/10.0.1/Source/portable/GCC/CM4F/portmacro.h **** #define portLONG		long
  51:Generated_Source\PSoC6\pdl\rtos/FreeRTOS/10.0.1/Source/portable/GCC/CM4F/portmacro.h **** #define portSHORT		short
  52:Generated_Source\PSoC6\pdl\rtos/FreeRTOS/10.0.1/Source/portable/GCC/CM4F/portmacro.h **** #define portSTACK_TYPE	uint32_t
  53:Generated_Source\PSoC6\pdl\rtos/FreeRTOS/10.0.1/Source/portable/GCC/CM4F/portmacro.h **** #define portBASE_TYPE	long
  54:Generated_Source\PSoC6\pdl\rtos/FreeRTOS/10.0.1/Source/portable/GCC/CM4F/portmacro.h **** 
  55:Generated_Source\PSoC6\pdl\rtos/FreeRTOS/10.0.1/Source/portable/GCC/CM4F/portmacro.h **** typedef portSTACK_TYPE StackType_t;
  56:Generated_Source\PSoC6\pdl\rtos/FreeRTOS/10.0.1/Source/portable/GCC/CM4F/portmacro.h **** typedef long BaseType_t;
  57:Generated_Source\PSoC6\pdl\rtos/FreeRTOS/10.0.1/Source/portable/GCC/CM4F/portmacro.h **** typedef unsigned long UBaseType_t;
  58:Generated_Source\PSoC6\pdl\rtos/FreeRTOS/10.0.1/Source/portable/GCC/CM4F/portmacro.h **** 
  59:Generated_Source\PSoC6\pdl\rtos/FreeRTOS/10.0.1/Source/portable/GCC/CM4F/portmacro.h **** #if( configUSE_16_BIT_TICKS == 1 )
  60:Generated_Source\PSoC6\pdl\rtos/FreeRTOS/10.0.1/Source/portable/GCC/CM4F/portmacro.h **** 	typedef uint16_t TickType_t;
  61:Generated_Source\PSoC6\pdl\rtos/FreeRTOS/10.0.1/Source/portable/GCC/CM4F/portmacro.h **** 	#define portMAX_DELAY ( TickType_t ) 0xffff
  62:Generated_Source\PSoC6\pdl\rtos/FreeRTOS/10.0.1/Source/portable/GCC/CM4F/portmacro.h **** #else
  63:Generated_Source\PSoC6\pdl\rtos/FreeRTOS/10.0.1/Source/portable/GCC/CM4F/portmacro.h **** 	typedef uint32_t TickType_t;
  64:Generated_Source\PSoC6\pdl\rtos/FreeRTOS/10.0.1/Source/portable/GCC/CM4F/portmacro.h **** 	#define portMAX_DELAY ( TickType_t ) 0xffffffffUL
  65:Generated_Source\PSoC6\pdl\rtos/FreeRTOS/10.0.1/Source/portable/GCC/CM4F/portmacro.h **** 
  66:Generated_Source\PSoC6\pdl\rtos/FreeRTOS/10.0.1/Source/portable/GCC/CM4F/portmacro.h **** 	/* 32-bit tick type on a 32-bit architecture, so reads of the tick count do
  67:Generated_Source\PSoC6\pdl\rtos/FreeRTOS/10.0.1/Source/portable/GCC/CM4F/portmacro.h **** 	not need to be guarded with a critical section. */
  68:Generated_Source\PSoC6\pdl\rtos/FreeRTOS/10.0.1/Source/portable/GCC/CM4F/portmacro.h **** 	#define portTICK_TYPE_IS_ATOMIC 1
  69:Generated_Source\PSoC6\pdl\rtos/FreeRTOS/10.0.1/Source/portable/GCC/CM4F/portmacro.h **** #endif
  70:Generated_Source\PSoC6\pdl\rtos/FreeRTOS/10.0.1/Source/portable/GCC/CM4F/portmacro.h **** /*-----------------------------------------------------------*/
  71:Generated_Source\PSoC6\pdl\rtos/FreeRTOS/10.0.1/Source/portable/GCC/CM4F/portmacro.h **** 
  72:Generated_Source\PSoC6\pdl\rtos/FreeRTOS/10.0.1/Source/portable/GCC/CM4F/portmacro.h **** /* Architecture specifics. */
  73:Generated_Source\PSoC6\pdl\rtos/FreeRTOS/10.0.1/Source/portable/GCC/CM4F/portmacro.h **** #define portSTACK_GROWTH			( -1 )
  74:Generated_Source\PSoC6\pdl\rtos/FreeRTOS/10.0.1/Source/portable/GCC/CM4F/portmacro.h **** #define portTICK_PERIOD_MS			( ( TickType_t ) 1000 / configTICK_RATE_HZ )
ARM GAS  C:\Users\jingyiwu\AppData\Local\Temp\ccuFUITf.s 			page 7


  75:Generated_Source\PSoC6\pdl\rtos/FreeRTOS/10.0.1/Source/portable/GCC/CM4F/portmacro.h **** #define portBYTE_ALIGNMENT			8
  76:Generated_Source\PSoC6\pdl\rtos/FreeRTOS/10.0.1/Source/portable/GCC/CM4F/portmacro.h **** /*-----------------------------------------------------------*/
  77:Generated_Source\PSoC6\pdl\rtos/FreeRTOS/10.0.1/Source/portable/GCC/CM4F/portmacro.h **** 
  78:Generated_Source\PSoC6\pdl\rtos/FreeRTOS/10.0.1/Source/portable/GCC/CM4F/portmacro.h **** /* Scheduler utilities. */
  79:Generated_Source\PSoC6\pdl\rtos/FreeRTOS/10.0.1/Source/portable/GCC/CM4F/portmacro.h **** #define portYIELD() 															\
  80:Generated_Source\PSoC6\pdl\rtos/FreeRTOS/10.0.1/Source/portable/GCC/CM4F/portmacro.h **** {																				\
  81:Generated_Source\PSoC6\pdl\rtos/FreeRTOS/10.0.1/Source/portable/GCC/CM4F/portmacro.h **** 	/* Set a PendSV to request a context switch. */								\
  82:Generated_Source\PSoC6\pdl\rtos/FreeRTOS/10.0.1/Source/portable/GCC/CM4F/portmacro.h **** 	portNVIC_INT_CTRL_REG = portNVIC_PENDSVSET_BIT;								\
  83:Generated_Source\PSoC6\pdl\rtos/FreeRTOS/10.0.1/Source/portable/GCC/CM4F/portmacro.h **** 																				\
  84:Generated_Source\PSoC6\pdl\rtos/FreeRTOS/10.0.1/Source/portable/GCC/CM4F/portmacro.h **** 	/* Barriers are normally not required but do ensure the code is completely	\
  85:Generated_Source\PSoC6\pdl\rtos/FreeRTOS/10.0.1/Source/portable/GCC/CM4F/portmacro.h **** 	within the specified behaviour for the architecture. */						\
  86:Generated_Source\PSoC6\pdl\rtos/FreeRTOS/10.0.1/Source/portable/GCC/CM4F/portmacro.h **** 	__asm volatile( "dsb" ::: "memory" );										\
  87:Generated_Source\PSoC6\pdl\rtos/FreeRTOS/10.0.1/Source/portable/GCC/CM4F/portmacro.h **** 	__asm volatile( "isb" );													\
  88:Generated_Source\PSoC6\pdl\rtos/FreeRTOS/10.0.1/Source/portable/GCC/CM4F/portmacro.h **** }
  89:Generated_Source\PSoC6\pdl\rtos/FreeRTOS/10.0.1/Source/portable/GCC/CM4F/portmacro.h **** 
  90:Generated_Source\PSoC6\pdl\rtos/FreeRTOS/10.0.1/Source/portable/GCC/CM4F/portmacro.h **** #define portNVIC_INT_CTRL_REG		( * ( ( volatile uint32_t * ) 0xe000ed04 ) )
  91:Generated_Source\PSoC6\pdl\rtos/FreeRTOS/10.0.1/Source/portable/GCC/CM4F/portmacro.h **** #define portNVIC_PENDSVSET_BIT		( 1UL << 28UL )
  92:Generated_Source\PSoC6\pdl\rtos/FreeRTOS/10.0.1/Source/portable/GCC/CM4F/portmacro.h **** #define portEND_SWITCHING_ISR( xSwitchRequired ) if( xSwitchRequired != pdFALSE ) portYIELD()
  93:Generated_Source\PSoC6\pdl\rtos/FreeRTOS/10.0.1/Source/portable/GCC/CM4F/portmacro.h **** #define portYIELD_FROM_ISR( x ) portEND_SWITCHING_ISR( x )
  94:Generated_Source\PSoC6\pdl\rtos/FreeRTOS/10.0.1/Source/portable/GCC/CM4F/portmacro.h **** /*-----------------------------------------------------------*/
  95:Generated_Source\PSoC6\pdl\rtos/FreeRTOS/10.0.1/Source/portable/GCC/CM4F/portmacro.h **** 
  96:Generated_Source\PSoC6\pdl\rtos/FreeRTOS/10.0.1/Source/portable/GCC/CM4F/portmacro.h **** /* Critical section management. */
  97:Generated_Source\PSoC6\pdl\rtos/FreeRTOS/10.0.1/Source/portable/GCC/CM4F/portmacro.h **** extern void vPortEnterCritical( void );
  98:Generated_Source\PSoC6\pdl\rtos/FreeRTOS/10.0.1/Source/portable/GCC/CM4F/portmacro.h **** extern void vPortExitCritical( void );
  99:Generated_Source\PSoC6\pdl\rtos/FreeRTOS/10.0.1/Source/portable/GCC/CM4F/portmacro.h **** #define portSET_INTERRUPT_MASK_FROM_ISR()		ulPortRaiseBASEPRI()
 100:Generated_Source\PSoC6\pdl\rtos/FreeRTOS/10.0.1/Source/portable/GCC/CM4F/portmacro.h **** #define portCLEAR_INTERRUPT_MASK_FROM_ISR(x)	vPortSetBASEPRI(x)
 101:Generated_Source\PSoC6\pdl\rtos/FreeRTOS/10.0.1/Source/portable/GCC/CM4F/portmacro.h **** #define portDISABLE_INTERRUPTS()				vPortRaiseBASEPRI()
 102:Generated_Source\PSoC6\pdl\rtos/FreeRTOS/10.0.1/Source/portable/GCC/CM4F/portmacro.h **** #define portENABLE_INTERRUPTS()					vPortSetBASEPRI(0)
 103:Generated_Source\PSoC6\pdl\rtos/FreeRTOS/10.0.1/Source/portable/GCC/CM4F/portmacro.h **** #define portENTER_CRITICAL()					vPortEnterCritical()
 104:Generated_Source\PSoC6\pdl\rtos/FreeRTOS/10.0.1/Source/portable/GCC/CM4F/portmacro.h **** #define portEXIT_CRITICAL()						vPortExitCritical()
 105:Generated_Source\PSoC6\pdl\rtos/FreeRTOS/10.0.1/Source/portable/GCC/CM4F/portmacro.h **** 
 106:Generated_Source\PSoC6\pdl\rtos/FreeRTOS/10.0.1/Source/portable/GCC/CM4F/portmacro.h **** /*-----------------------------------------------------------*/
 107:Generated_Source\PSoC6\pdl\rtos/FreeRTOS/10.0.1/Source/portable/GCC/CM4F/portmacro.h **** 
 108:Generated_Source\PSoC6\pdl\rtos/FreeRTOS/10.0.1/Source/portable/GCC/CM4F/portmacro.h **** /* Task function macros as described on the FreeRTOS.org WEB site.  These are
 109:Generated_Source\PSoC6\pdl\rtos/FreeRTOS/10.0.1/Source/portable/GCC/CM4F/portmacro.h **** not necessary for to use this port.  They are defined so the common demo files
 110:Generated_Source\PSoC6\pdl\rtos/FreeRTOS/10.0.1/Source/portable/GCC/CM4F/portmacro.h **** (which build with all the ports) will build. */
 111:Generated_Source\PSoC6\pdl\rtos/FreeRTOS/10.0.1/Source/portable/GCC/CM4F/portmacro.h **** #define portTASK_FUNCTION_PROTO( vFunction, pvParameters ) void vFunction( void *pvParameters )
 112:Generated_Source\PSoC6\pdl\rtos/FreeRTOS/10.0.1/Source/portable/GCC/CM4F/portmacro.h **** #define portTASK_FUNCTION( vFunction, pvParameters ) void vFunction( void *pvParameters )
 113:Generated_Source\PSoC6\pdl\rtos/FreeRTOS/10.0.1/Source/portable/GCC/CM4F/portmacro.h **** 
 114:Generated_Source\PSoC6\pdl\rtos/FreeRTOS/10.0.1/Source/portable/GCC/CM4F/portmacro.h **** /*-----------------------------------------------------------*/
 115:Generated_Source\PSoC6\pdl\rtos/FreeRTOS/10.0.1/Source/portable/GCC/CM4F/portmacro.h **** 
 116:Generated_Source\PSoC6\pdl\rtos/FreeRTOS/10.0.1/Source/portable/GCC/CM4F/portmacro.h **** #ifdef configASSERT
 117:Generated_Source\PSoC6\pdl\rtos/FreeRTOS/10.0.1/Source/portable/GCC/CM4F/portmacro.h **** 	void vPortValidateInterruptPriority( void );
 118:Generated_Source\PSoC6\pdl\rtos/FreeRTOS/10.0.1/Source/portable/GCC/CM4F/portmacro.h **** 	#define portASSERT_IF_INTERRUPT_PRIORITY_INVALID() 	vPortValidateInterruptPriority()
 119:Generated_Source\PSoC6\pdl\rtos/FreeRTOS/10.0.1/Source/portable/GCC/CM4F/portmacro.h **** #endif
 120:Generated_Source\PSoC6\pdl\rtos/FreeRTOS/10.0.1/Source/portable/GCC/CM4F/portmacro.h **** 
 121:Generated_Source\PSoC6\pdl\rtos/FreeRTOS/10.0.1/Source/portable/GCC/CM4F/portmacro.h **** /* portNOP() is not required by this port. */
 122:Generated_Source\PSoC6\pdl\rtos/FreeRTOS/10.0.1/Source/portable/GCC/CM4F/portmacro.h **** #define portNOP()
 123:Generated_Source\PSoC6\pdl\rtos/FreeRTOS/10.0.1/Source/portable/GCC/CM4F/portmacro.h **** 
 124:Generated_Source\PSoC6\pdl\rtos/FreeRTOS/10.0.1/Source/portable/GCC/CM4F/portmacro.h **** #define portINLINE	__inline
 125:Generated_Source\PSoC6\pdl\rtos/FreeRTOS/10.0.1/Source/portable/GCC/CM4F/portmacro.h **** 
 126:Generated_Source\PSoC6\pdl\rtos/FreeRTOS/10.0.1/Source/portable/GCC/CM4F/portmacro.h **** #ifndef portFORCE_INLINE
 127:Generated_Source\PSoC6\pdl\rtos/FreeRTOS/10.0.1/Source/portable/GCC/CM4F/portmacro.h **** 	#define portFORCE_INLINE inline __attribute__(( always_inline))
 128:Generated_Source\PSoC6\pdl\rtos/FreeRTOS/10.0.1/Source/portable/GCC/CM4F/portmacro.h **** #endif
 129:Generated_Source\PSoC6\pdl\rtos/FreeRTOS/10.0.1/Source/portable/GCC/CM4F/portmacro.h **** 
 130:Generated_Source\PSoC6\pdl\rtos/FreeRTOS/10.0.1/Source/portable/GCC/CM4F/portmacro.h **** portFORCE_INLINE static BaseType_t xPortIsInsideInterrupt( void )
 131:Generated_Source\PSoC6\pdl\rtos/FreeRTOS/10.0.1/Source/portable/GCC/CM4F/portmacro.h **** {
ARM GAS  C:\Users\jingyiwu\AppData\Local\Temp\ccuFUITf.s 			page 8


 132:Generated_Source\PSoC6\pdl\rtos/FreeRTOS/10.0.1/Source/portable/GCC/CM4F/portmacro.h **** uint32_t ulCurrentInterrupt;
 133:Generated_Source\PSoC6\pdl\rtos/FreeRTOS/10.0.1/Source/portable/GCC/CM4F/portmacro.h **** BaseType_t xReturn;
 134:Generated_Source\PSoC6\pdl\rtos/FreeRTOS/10.0.1/Source/portable/GCC/CM4F/portmacro.h **** 
 135:Generated_Source\PSoC6\pdl\rtos/FreeRTOS/10.0.1/Source/portable/GCC/CM4F/portmacro.h **** 	/* Obtain the number of the currently executing interrupt. */
 136:Generated_Source\PSoC6\pdl\rtos/FreeRTOS/10.0.1/Source/portable/GCC/CM4F/portmacro.h **** 	__asm volatile( "mrs %0, ipsr" : "=r"( ulCurrentInterrupt ) :: "memory" );
 137:Generated_Source\PSoC6\pdl\rtos/FreeRTOS/10.0.1/Source/portable/GCC/CM4F/portmacro.h **** 
 138:Generated_Source\PSoC6\pdl\rtos/FreeRTOS/10.0.1/Source/portable/GCC/CM4F/portmacro.h **** 	if( ulCurrentInterrupt == 0 )
 139:Generated_Source\PSoC6\pdl\rtos/FreeRTOS/10.0.1/Source/portable/GCC/CM4F/portmacro.h **** 	{
 140:Generated_Source\PSoC6\pdl\rtos/FreeRTOS/10.0.1/Source/portable/GCC/CM4F/portmacro.h **** 		xReturn = pdFALSE;
 141:Generated_Source\PSoC6\pdl\rtos/FreeRTOS/10.0.1/Source/portable/GCC/CM4F/portmacro.h **** 	}
 142:Generated_Source\PSoC6\pdl\rtos/FreeRTOS/10.0.1/Source/portable/GCC/CM4F/portmacro.h **** 	else
 143:Generated_Source\PSoC6\pdl\rtos/FreeRTOS/10.0.1/Source/portable/GCC/CM4F/portmacro.h **** 	{
 144:Generated_Source\PSoC6\pdl\rtos/FreeRTOS/10.0.1/Source/portable/GCC/CM4F/portmacro.h **** 		xReturn = pdTRUE;
 145:Generated_Source\PSoC6\pdl\rtos/FreeRTOS/10.0.1/Source/portable/GCC/CM4F/portmacro.h **** 	}
 146:Generated_Source\PSoC6\pdl\rtos/FreeRTOS/10.0.1/Source/portable/GCC/CM4F/portmacro.h **** 
 147:Generated_Source\PSoC6\pdl\rtos/FreeRTOS/10.0.1/Source/portable/GCC/CM4F/portmacro.h **** 	return xReturn;
 148:Generated_Source\PSoC6\pdl\rtos/FreeRTOS/10.0.1/Source/portable/GCC/CM4F/portmacro.h **** }
 149:Generated_Source\PSoC6\pdl\rtos/FreeRTOS/10.0.1/Source/portable/GCC/CM4F/portmacro.h **** 
 150:Generated_Source\PSoC6\pdl\rtos/FreeRTOS/10.0.1/Source/portable/GCC/CM4F/portmacro.h **** /*-----------------------------------------------------------*/
 151:Generated_Source\PSoC6\pdl\rtos/FreeRTOS/10.0.1/Source/portable/GCC/CM4F/portmacro.h **** 
 152:Generated_Source\PSoC6\pdl\rtos/FreeRTOS/10.0.1/Source/portable/GCC/CM4F/portmacro.h **** portFORCE_INLINE static void vPortRaiseBASEPRI( void )
 153:Generated_Source\PSoC6\pdl\rtos/FreeRTOS/10.0.1/Source/portable/GCC/CM4F/portmacro.h **** {
 154:Generated_Source\PSoC6\pdl\rtos/FreeRTOS/10.0.1/Source/portable/GCC/CM4F/portmacro.h **** uint32_t ulNewBASEPRI;
 155:Generated_Source\PSoC6\pdl\rtos/FreeRTOS/10.0.1/Source/portable/GCC/CM4F/portmacro.h **** 
 156:Generated_Source\PSoC6\pdl\rtos/FreeRTOS/10.0.1/Source/portable/GCC/CM4F/portmacro.h **** 	__asm volatile
 115              		.loc 2 156 0 discriminator 1
 116              		.syntax unified
 117              	@ 156 "Generated_Source\PSoC6\pdl\rtos/FreeRTOS/10.0.1/Source/portable/GCC/CM4F/portmacro.h" 1
 118 0056 4FF03F03 			mov r3, #63												
 119 005a 83F31188 		msr basepri, r3											
 120 005e BFF36F8F 		isb														
 121 0062 BFF34F8F 		dsb														
 122              	
 123              	@ 0 "" 2
 124              		.thumb
 125              		.syntax unified
 126 0066 FB60     		str	r3, [r7, #12]
 127              	.L5:
 128              	.LBE13:
 129              	.LBE12:
 130              		.loc 1 149 0 discriminator 1
 131 0068 FEE7     		b	.L5
 132              	.L4:
 150:Generated_Source\PSoC6\pdl\rtos\FreeRTOS\10.0.1\Source\portable\MemMang/heap_4.c **** 				}
 151:Generated_Source\PSoC6\pdl\rtos\FreeRTOS\10.0.1\Source\portable\MemMang/heap_4.c **** 				else
 152:Generated_Source\PSoC6\pdl\rtos\FreeRTOS\10.0.1\Source\portable\MemMang/heap_4.c **** 				{
 153:Generated_Source\PSoC6\pdl\rtos\FreeRTOS\10.0.1\Source\portable\MemMang/heap_4.c **** 					mtCOVERAGE_TEST_MARKER();
 154:Generated_Source\PSoC6\pdl\rtos\FreeRTOS\10.0.1\Source\portable\MemMang/heap_4.c **** 				}
 155:Generated_Source\PSoC6\pdl\rtos\FreeRTOS\10.0.1\Source\portable\MemMang/heap_4.c **** 			}
 156:Generated_Source\PSoC6\pdl\rtos\FreeRTOS\10.0.1\Source\portable\MemMang/heap_4.c **** 			else
 157:Generated_Source\PSoC6\pdl\rtos\FreeRTOS\10.0.1\Source\portable\MemMang/heap_4.c **** 			{
 158:Generated_Source\PSoC6\pdl\rtos\FreeRTOS\10.0.1\Source\portable\MemMang/heap_4.c **** 				mtCOVERAGE_TEST_MARKER();
 159:Generated_Source\PSoC6\pdl\rtos\FreeRTOS\10.0.1\Source\portable\MemMang/heap_4.c **** 			}
 160:Generated_Source\PSoC6\pdl\rtos\FreeRTOS\10.0.1\Source\portable\MemMang/heap_4.c **** 
 161:Generated_Source\PSoC6\pdl\rtos\FreeRTOS\10.0.1\Source\portable\MemMang/heap_4.c **** 			if( ( xWantedSize > 0 ) && ( xWantedSize <= xFreeBytesRemaining ) )
 133              		.loc 1 161 0
 134 006a 7B68     		ldr	r3, [r7, #4]
ARM GAS  C:\Users\jingyiwu\AppData\Local\Temp\ccuFUITf.s 			page 9


 135 006c 002B     		cmp	r3, #0
 136 006e 68D0     		beq	.L3
 137              		.loc 1 161 0 is_stmt 0 discriminator 1
 138 0070 414B     		ldr	r3, .L16+8
 139 0072 1B68     		ldr	r3, [r3]
 140 0074 7A68     		ldr	r2, [r7, #4]
 141 0076 9A42     		cmp	r2, r3
 142 0078 63D8     		bhi	.L3
 162:Generated_Source\PSoC6\pdl\rtos\FreeRTOS\10.0.1\Source\portable\MemMang/heap_4.c **** 			{
 163:Generated_Source\PSoC6\pdl\rtos\FreeRTOS\10.0.1\Source\portable\MemMang/heap_4.c **** 				/* Traverse the list from the start	(lowest address) block until
 164:Generated_Source\PSoC6\pdl\rtos\FreeRTOS\10.0.1\Source\portable\MemMang/heap_4.c **** 				one	of adequate size is found. */
 165:Generated_Source\PSoC6\pdl\rtos\FreeRTOS\10.0.1\Source\portable\MemMang/heap_4.c **** 				pxPreviousBlock = &xStart;
 143              		.loc 1 165 0 is_stmt 1
 144 007a 404B     		ldr	r3, .L16+12
 145 007c 3B62     		str	r3, [r7, #32]
 166:Generated_Source\PSoC6\pdl\rtos\FreeRTOS\10.0.1\Source\portable\MemMang/heap_4.c **** 				pxBlock = xStart.pxNextFreeBlock;
 146              		.loc 1 166 0
 147 007e 3F4B     		ldr	r3, .L16+12
 148 0080 1B68     		ldr	r3, [r3]
 149 0082 7B62     		str	r3, [r7, #36]
 167:Generated_Source\PSoC6\pdl\rtos\FreeRTOS\10.0.1\Source\portable\MemMang/heap_4.c **** 				while( ( pxBlock->xBlockSize < xWantedSize ) && ( pxBlock->pxNextFreeBlock != NULL ) )
 150              		.loc 1 167 0
 151 0084 04E0     		b	.L6
 152              	.L8:
 168:Generated_Source\PSoC6\pdl\rtos\FreeRTOS\10.0.1\Source\portable\MemMang/heap_4.c **** 				{
 169:Generated_Source\PSoC6\pdl\rtos\FreeRTOS\10.0.1\Source\portable\MemMang/heap_4.c **** 					pxPreviousBlock = pxBlock;
 153              		.loc 1 169 0
 154 0086 7B6A     		ldr	r3, [r7, #36]
 155 0088 3B62     		str	r3, [r7, #32]
 170:Generated_Source\PSoC6\pdl\rtos\FreeRTOS\10.0.1\Source\portable\MemMang/heap_4.c **** 					pxBlock = pxBlock->pxNextFreeBlock;
 156              		.loc 1 170 0
 157 008a 7B6A     		ldr	r3, [r7, #36]
 158 008c 1B68     		ldr	r3, [r3]
 159 008e 7B62     		str	r3, [r7, #36]
 160              	.L6:
 167:Generated_Source\PSoC6\pdl\rtos\FreeRTOS\10.0.1\Source\portable\MemMang/heap_4.c **** 				while( ( pxBlock->xBlockSize < xWantedSize ) && ( pxBlock->pxNextFreeBlock != NULL ) )
 161              		.loc 1 167 0
 162 0090 7B6A     		ldr	r3, [r7, #36]
 163 0092 5A68     		ldr	r2, [r3, #4]
 164 0094 7B68     		ldr	r3, [r7, #4]
 165 0096 9A42     		cmp	r2, r3
 166 0098 03D2     		bcs	.L7
 167:Generated_Source\PSoC6\pdl\rtos\FreeRTOS\10.0.1\Source\portable\MemMang/heap_4.c **** 				while( ( pxBlock->xBlockSize < xWantedSize ) && ( pxBlock->pxNextFreeBlock != NULL ) )
 167              		.loc 1 167 0 is_stmt 0 discriminator 1
 168 009a 7B6A     		ldr	r3, [r7, #36]
 169 009c 1B68     		ldr	r3, [r3]
 170 009e 002B     		cmp	r3, #0
 171 00a0 F1D1     		bne	.L8
 172              	.L7:
 171:Generated_Source\PSoC6\pdl\rtos\FreeRTOS\10.0.1\Source\portable\MemMang/heap_4.c **** 				}
 172:Generated_Source\PSoC6\pdl\rtos\FreeRTOS\10.0.1\Source\portable\MemMang/heap_4.c **** 
 173:Generated_Source\PSoC6\pdl\rtos\FreeRTOS\10.0.1\Source\portable\MemMang/heap_4.c **** 				/* If the end marker was reached then a block of adequate size
 174:Generated_Source\PSoC6\pdl\rtos\FreeRTOS\10.0.1\Source\portable\MemMang/heap_4.c **** 				was	not found. */
 175:Generated_Source\PSoC6\pdl\rtos\FreeRTOS\10.0.1\Source\portable\MemMang/heap_4.c **** 				if( pxBlock != pxEnd )
 173              		.loc 1 175 0 is_stmt 1
 174 00a2 334B     		ldr	r3, .L16
 175 00a4 1B68     		ldr	r3, [r3]
ARM GAS  C:\Users\jingyiwu\AppData\Local\Temp\ccuFUITf.s 			page 10


 176 00a6 7A6A     		ldr	r2, [r7, #36]
 177 00a8 9A42     		cmp	r2, r3
 178 00aa 4AD0     		beq	.L3
 176:Generated_Source\PSoC6\pdl\rtos\FreeRTOS\10.0.1\Source\portable\MemMang/heap_4.c **** 				{
 177:Generated_Source\PSoC6\pdl\rtos\FreeRTOS\10.0.1\Source\portable\MemMang/heap_4.c **** 					/* Return the memory space pointed to - jumping over the
 178:Generated_Source\PSoC6\pdl\rtos\FreeRTOS\10.0.1\Source\portable\MemMang/heap_4.c **** 					BlockLink_t structure at its start. */
 179:Generated_Source\PSoC6\pdl\rtos\FreeRTOS\10.0.1\Source\portable\MemMang/heap_4.c **** 					pvReturn = ( void * ) ( ( ( uint8_t * ) pxPreviousBlock->pxNextFreeBlock ) + xHeapStructSize )
 179              		.loc 1 179 0
 180 00ac 3B6A     		ldr	r3, [r7, #32]
 181 00ae 1B68     		ldr	r3, [r3]
 182 00b0 0822     		movs	r2, #8
 183 00b2 1344     		add	r3, r3, r2
 184 00b4 FB61     		str	r3, [r7, #28]
 180:Generated_Source\PSoC6\pdl\rtos\FreeRTOS\10.0.1\Source\portable\MemMang/heap_4.c **** 
 181:Generated_Source\PSoC6\pdl\rtos\FreeRTOS\10.0.1\Source\portable\MemMang/heap_4.c **** 					/* This block is being returned for use so must be taken out
 182:Generated_Source\PSoC6\pdl\rtos\FreeRTOS\10.0.1\Source\portable\MemMang/heap_4.c **** 					of the list of free blocks. */
 183:Generated_Source\PSoC6\pdl\rtos\FreeRTOS\10.0.1\Source\portable\MemMang/heap_4.c **** 					pxPreviousBlock->pxNextFreeBlock = pxBlock->pxNextFreeBlock;
 185              		.loc 1 183 0
 186 00b6 7B6A     		ldr	r3, [r7, #36]
 187 00b8 1A68     		ldr	r2, [r3]
 188 00ba 3B6A     		ldr	r3, [r7, #32]
 189 00bc 1A60     		str	r2, [r3]
 184:Generated_Source\PSoC6\pdl\rtos\FreeRTOS\10.0.1\Source\portable\MemMang/heap_4.c **** 
 185:Generated_Source\PSoC6\pdl\rtos\FreeRTOS\10.0.1\Source\portable\MemMang/heap_4.c **** 					/* If the block is larger than required it can be split into
 186:Generated_Source\PSoC6\pdl\rtos\FreeRTOS\10.0.1\Source\portable\MemMang/heap_4.c **** 					two. */
 187:Generated_Source\PSoC6\pdl\rtos\FreeRTOS\10.0.1\Source\portable\MemMang/heap_4.c **** 					if( ( pxBlock->xBlockSize - xWantedSize ) > heapMINIMUM_BLOCK_SIZE )
 190              		.loc 1 187 0
 191 00be 7B6A     		ldr	r3, [r7, #36]
 192 00c0 5A68     		ldr	r2, [r3, #4]
 193 00c2 7B68     		ldr	r3, [r7, #4]
 194 00c4 D21A     		subs	r2, r2, r3
 195 00c6 0823     		movs	r3, #8
 196 00c8 5B00     		lsls	r3, r3, #1
 197 00ca 9A42     		cmp	r2, r3
 198 00cc 1ED9     		bls	.L9
 188:Generated_Source\PSoC6\pdl\rtos\FreeRTOS\10.0.1\Source\portable\MemMang/heap_4.c **** 					{
 189:Generated_Source\PSoC6\pdl\rtos\FreeRTOS\10.0.1\Source\portable\MemMang/heap_4.c **** 						/* This block is to be split into two.  Create a new
 190:Generated_Source\PSoC6\pdl\rtos\FreeRTOS\10.0.1\Source\portable\MemMang/heap_4.c **** 						block following the number of bytes requested. The void
 191:Generated_Source\PSoC6\pdl\rtos\FreeRTOS\10.0.1\Source\portable\MemMang/heap_4.c **** 						cast is used to prevent byte alignment warnings from the
 192:Generated_Source\PSoC6\pdl\rtos\FreeRTOS\10.0.1\Source\portable\MemMang/heap_4.c **** 						compiler. */
 193:Generated_Source\PSoC6\pdl\rtos\FreeRTOS\10.0.1\Source\portable\MemMang/heap_4.c **** 						pxNewBlockLink = ( void * ) ( ( ( uint8_t * ) pxBlock ) + xWantedSize );
 199              		.loc 1 193 0
 200 00ce 7A6A     		ldr	r2, [r7, #36]
 201 00d0 7B68     		ldr	r3, [r7, #4]
 202 00d2 1344     		add	r3, r3, r2
 203 00d4 7B61     		str	r3, [r7, #20]
 194:Generated_Source\PSoC6\pdl\rtos\FreeRTOS\10.0.1\Source\portable\MemMang/heap_4.c **** 						configASSERT( ( ( ( size_t ) pxNewBlockLink ) & portBYTE_ALIGNMENT_MASK ) == 0 );
 204              		.loc 1 194 0
 205 00d6 7B69     		ldr	r3, [r7, #20]
 206 00d8 03F00703 		and	r3, r3, #7
 207 00dc 002B     		cmp	r3, #0
 208 00de 09D0     		beq	.L10
 209              	.LBB14:
 210              	.LBB15:
 211              		.loc 2 156 0 discriminator 1
 212              		.syntax unified
 213              	@ 156 "Generated_Source\PSoC6\pdl\rtos/FreeRTOS/10.0.1/Source/portable/GCC/CM4F/portmacro.h" 1
ARM GAS  C:\Users\jingyiwu\AppData\Local\Temp\ccuFUITf.s 			page 11


 214 00e0 4FF03F03 			mov r3, #63												
 215 00e4 83F31188 		msr basepri, r3											
 216 00e8 BFF36F8F 		isb														
 217 00ec BFF34F8F 		dsb														
 218              	
 219              	@ 0 "" 2
 220              		.thumb
 221              		.syntax unified
 222 00f0 BB61     		str	r3, [r7, #24]
 223              	.L11:
 224              	.LBE15:
 225              	.LBE14:
 226              		.loc 1 194 0 discriminator 3
 227 00f2 FEE7     		b	.L11
 228              	.L10:
 195:Generated_Source\PSoC6\pdl\rtos\FreeRTOS\10.0.1\Source\portable\MemMang/heap_4.c **** 
 196:Generated_Source\PSoC6\pdl\rtos\FreeRTOS\10.0.1\Source\portable\MemMang/heap_4.c **** 						/* Calculate the sizes of two blocks split from the
 197:Generated_Source\PSoC6\pdl\rtos\FreeRTOS\10.0.1\Source\portable\MemMang/heap_4.c **** 						single block. */
 198:Generated_Source\PSoC6\pdl\rtos\FreeRTOS\10.0.1\Source\portable\MemMang/heap_4.c **** 						pxNewBlockLink->xBlockSize = pxBlock->xBlockSize - xWantedSize;
 229              		.loc 1 198 0
 230 00f4 7B6A     		ldr	r3, [r7, #36]
 231 00f6 5A68     		ldr	r2, [r3, #4]
 232 00f8 7B68     		ldr	r3, [r7, #4]
 233 00fa D21A     		subs	r2, r2, r3
 234 00fc 7B69     		ldr	r3, [r7, #20]
 235 00fe 5A60     		str	r2, [r3, #4]
 199:Generated_Source\PSoC6\pdl\rtos\FreeRTOS\10.0.1\Source\portable\MemMang/heap_4.c **** 						pxBlock->xBlockSize = xWantedSize;
 236              		.loc 1 199 0
 237 0100 7B6A     		ldr	r3, [r7, #36]
 238 0102 7A68     		ldr	r2, [r7, #4]
 239 0104 5A60     		str	r2, [r3, #4]
 200:Generated_Source\PSoC6\pdl\rtos\FreeRTOS\10.0.1\Source\portable\MemMang/heap_4.c **** 
 201:Generated_Source\PSoC6\pdl\rtos\FreeRTOS\10.0.1\Source\portable\MemMang/heap_4.c **** 						/* Insert the new block into the list of free blocks. */
 202:Generated_Source\PSoC6\pdl\rtos\FreeRTOS\10.0.1\Source\portable\MemMang/heap_4.c **** 						prvInsertBlockIntoFreeList( pxNewBlockLink );
 240              		.loc 1 202 0
 241 0106 7869     		ldr	r0, [r7, #20]
 242 0108 FFF7FEFF 		bl	prvInsertBlockIntoFreeList
 243              	.L9:
 203:Generated_Source\PSoC6\pdl\rtos\FreeRTOS\10.0.1\Source\portable\MemMang/heap_4.c **** 					}
 204:Generated_Source\PSoC6\pdl\rtos\FreeRTOS\10.0.1\Source\portable\MemMang/heap_4.c **** 					else
 205:Generated_Source\PSoC6\pdl\rtos\FreeRTOS\10.0.1\Source\portable\MemMang/heap_4.c **** 					{
 206:Generated_Source\PSoC6\pdl\rtos\FreeRTOS\10.0.1\Source\portable\MemMang/heap_4.c **** 						mtCOVERAGE_TEST_MARKER();
 207:Generated_Source\PSoC6\pdl\rtos\FreeRTOS\10.0.1\Source\portable\MemMang/heap_4.c **** 					}
 208:Generated_Source\PSoC6\pdl\rtos\FreeRTOS\10.0.1\Source\portable\MemMang/heap_4.c **** 
 209:Generated_Source\PSoC6\pdl\rtos\FreeRTOS\10.0.1\Source\portable\MemMang/heap_4.c **** 					xFreeBytesRemaining -= pxBlock->xBlockSize;
 244              		.loc 1 209 0
 245 010c 1A4B     		ldr	r3, .L16+8
 246 010e 1A68     		ldr	r2, [r3]
 247 0110 7B6A     		ldr	r3, [r7, #36]
 248 0112 5B68     		ldr	r3, [r3, #4]
 249 0114 D31A     		subs	r3, r2, r3
 250 0116 184A     		ldr	r2, .L16+8
 251 0118 1360     		str	r3, [r2]
 210:Generated_Source\PSoC6\pdl\rtos\FreeRTOS\10.0.1\Source\portable\MemMang/heap_4.c **** 
 211:Generated_Source\PSoC6\pdl\rtos\FreeRTOS\10.0.1\Source\portable\MemMang/heap_4.c **** 					if( xFreeBytesRemaining < xMinimumEverFreeBytesRemaining )
 252              		.loc 1 211 0
 253 011a 174B     		ldr	r3, .L16+8
ARM GAS  C:\Users\jingyiwu\AppData\Local\Temp\ccuFUITf.s 			page 12


 254 011c 1A68     		ldr	r2, [r3]
 255 011e 184B     		ldr	r3, .L16+16
 256 0120 1B68     		ldr	r3, [r3]
 257 0122 9A42     		cmp	r2, r3
 258 0124 03D2     		bcs	.L12
 212:Generated_Source\PSoC6\pdl\rtos\FreeRTOS\10.0.1\Source\portable\MemMang/heap_4.c **** 					{
 213:Generated_Source\PSoC6\pdl\rtos\FreeRTOS\10.0.1\Source\portable\MemMang/heap_4.c **** 						xMinimumEverFreeBytesRemaining = xFreeBytesRemaining;
 259              		.loc 1 213 0
 260 0126 144B     		ldr	r3, .L16+8
 261 0128 1B68     		ldr	r3, [r3]
 262 012a 154A     		ldr	r2, .L16+16
 263 012c 1360     		str	r3, [r2]
 264              	.L12:
 214:Generated_Source\PSoC6\pdl\rtos\FreeRTOS\10.0.1\Source\portable\MemMang/heap_4.c **** 					}
 215:Generated_Source\PSoC6\pdl\rtos\FreeRTOS\10.0.1\Source\portable\MemMang/heap_4.c **** 					else
 216:Generated_Source\PSoC6\pdl\rtos\FreeRTOS\10.0.1\Source\portable\MemMang/heap_4.c **** 					{
 217:Generated_Source\PSoC6\pdl\rtos\FreeRTOS\10.0.1\Source\portable\MemMang/heap_4.c **** 						mtCOVERAGE_TEST_MARKER();
 218:Generated_Source\PSoC6\pdl\rtos\FreeRTOS\10.0.1\Source\portable\MemMang/heap_4.c **** 					}
 219:Generated_Source\PSoC6\pdl\rtos\FreeRTOS\10.0.1\Source\portable\MemMang/heap_4.c **** 
 220:Generated_Source\PSoC6\pdl\rtos\FreeRTOS\10.0.1\Source\portable\MemMang/heap_4.c **** 					/* The block is being returned - it is allocated and owned
 221:Generated_Source\PSoC6\pdl\rtos\FreeRTOS\10.0.1\Source\portable\MemMang/heap_4.c **** 					by the application and has no "next" block. */
 222:Generated_Source\PSoC6\pdl\rtos\FreeRTOS\10.0.1\Source\portable\MemMang/heap_4.c **** 					pxBlock->xBlockSize |= xBlockAllocatedBit;
 265              		.loc 1 222 0
 266 012e 7B6A     		ldr	r3, [r7, #36]
 267 0130 5A68     		ldr	r2, [r3, #4]
 268 0132 104B     		ldr	r3, .L16+4
 269 0134 1B68     		ldr	r3, [r3]
 270 0136 1A43     		orrs	r2, r2, r3
 271 0138 7B6A     		ldr	r3, [r7, #36]
 272 013a 5A60     		str	r2, [r3, #4]
 223:Generated_Source\PSoC6\pdl\rtos\FreeRTOS\10.0.1\Source\portable\MemMang/heap_4.c **** 					pxBlock->pxNextFreeBlock = NULL;
 273              		.loc 1 223 0
 274 013c 7B6A     		ldr	r3, [r7, #36]
 275 013e 0022     		movs	r2, #0
 276 0140 1A60     		str	r2, [r3]
 277              	.L3:
 224:Generated_Source\PSoC6\pdl\rtos\FreeRTOS\10.0.1\Source\portable\MemMang/heap_4.c **** 				}
 225:Generated_Source\PSoC6\pdl\rtos\FreeRTOS\10.0.1\Source\portable\MemMang/heap_4.c **** 				else
 226:Generated_Source\PSoC6\pdl\rtos\FreeRTOS\10.0.1\Source\portable\MemMang/heap_4.c **** 				{
 227:Generated_Source\PSoC6\pdl\rtos\FreeRTOS\10.0.1\Source\portable\MemMang/heap_4.c **** 					mtCOVERAGE_TEST_MARKER();
 228:Generated_Source\PSoC6\pdl\rtos\FreeRTOS\10.0.1\Source\portable\MemMang/heap_4.c **** 				}
 229:Generated_Source\PSoC6\pdl\rtos\FreeRTOS\10.0.1\Source\portable\MemMang/heap_4.c **** 			}
 230:Generated_Source\PSoC6\pdl\rtos\FreeRTOS\10.0.1\Source\portable\MemMang/heap_4.c **** 			else
 231:Generated_Source\PSoC6\pdl\rtos\FreeRTOS\10.0.1\Source\portable\MemMang/heap_4.c **** 			{
 232:Generated_Source\PSoC6\pdl\rtos\FreeRTOS\10.0.1\Source\portable\MemMang/heap_4.c **** 				mtCOVERAGE_TEST_MARKER();
 233:Generated_Source\PSoC6\pdl\rtos\FreeRTOS\10.0.1\Source\portable\MemMang/heap_4.c **** 			}
 234:Generated_Source\PSoC6\pdl\rtos\FreeRTOS\10.0.1\Source\portable\MemMang/heap_4.c **** 		}
 235:Generated_Source\PSoC6\pdl\rtos\FreeRTOS\10.0.1\Source\portable\MemMang/heap_4.c **** 		else
 236:Generated_Source\PSoC6\pdl\rtos\FreeRTOS\10.0.1\Source\portable\MemMang/heap_4.c **** 		{
 237:Generated_Source\PSoC6\pdl\rtos\FreeRTOS\10.0.1\Source\portable\MemMang/heap_4.c **** 			mtCOVERAGE_TEST_MARKER();
 238:Generated_Source\PSoC6\pdl\rtos\FreeRTOS\10.0.1\Source\portable\MemMang/heap_4.c **** 		}
 239:Generated_Source\PSoC6\pdl\rtos\FreeRTOS\10.0.1\Source\portable\MemMang/heap_4.c **** 
 240:Generated_Source\PSoC6\pdl\rtos\FreeRTOS\10.0.1\Source\portable\MemMang/heap_4.c **** 		traceMALLOC( pvReturn, xWantedSize );
 241:Generated_Source\PSoC6\pdl\rtos\FreeRTOS\10.0.1\Source\portable\MemMang/heap_4.c **** 	}
 242:Generated_Source\PSoC6\pdl\rtos\FreeRTOS\10.0.1\Source\portable\MemMang/heap_4.c **** 	( void ) xTaskResumeAll();
 278              		.loc 1 242 0
 279 0142 FFF7FEFF 		bl	xTaskResumeAll
ARM GAS  C:\Users\jingyiwu\AppData\Local\Temp\ccuFUITf.s 			page 13


 243:Generated_Source\PSoC6\pdl\rtos\FreeRTOS\10.0.1\Source\portable\MemMang/heap_4.c **** 
 244:Generated_Source\PSoC6\pdl\rtos\FreeRTOS\10.0.1\Source\portable\MemMang/heap_4.c **** 	#if( configUSE_MALLOC_FAILED_HOOK == 1 )
 245:Generated_Source\PSoC6\pdl\rtos\FreeRTOS\10.0.1\Source\portable\MemMang/heap_4.c **** 	{
 246:Generated_Source\PSoC6\pdl\rtos\FreeRTOS\10.0.1\Source\portable\MemMang/heap_4.c **** 		if( pvReturn == NULL )
 247:Generated_Source\PSoC6\pdl\rtos\FreeRTOS\10.0.1\Source\portable\MemMang/heap_4.c **** 		{
 248:Generated_Source\PSoC6\pdl\rtos\FreeRTOS\10.0.1\Source\portable\MemMang/heap_4.c **** 			extern void vApplicationMallocFailedHook( void );
 249:Generated_Source\PSoC6\pdl\rtos\FreeRTOS\10.0.1\Source\portable\MemMang/heap_4.c **** 			vApplicationMallocFailedHook();
 250:Generated_Source\PSoC6\pdl\rtos\FreeRTOS\10.0.1\Source\portable\MemMang/heap_4.c **** 		}
 251:Generated_Source\PSoC6\pdl\rtos\FreeRTOS\10.0.1\Source\portable\MemMang/heap_4.c **** 		else
 252:Generated_Source\PSoC6\pdl\rtos\FreeRTOS\10.0.1\Source\portable\MemMang/heap_4.c **** 		{
 253:Generated_Source\PSoC6\pdl\rtos\FreeRTOS\10.0.1\Source\portable\MemMang/heap_4.c **** 			mtCOVERAGE_TEST_MARKER();
 254:Generated_Source\PSoC6\pdl\rtos\FreeRTOS\10.0.1\Source\portable\MemMang/heap_4.c **** 		}
 255:Generated_Source\PSoC6\pdl\rtos\FreeRTOS\10.0.1\Source\portable\MemMang/heap_4.c **** 	}
 256:Generated_Source\PSoC6\pdl\rtos\FreeRTOS\10.0.1\Source\portable\MemMang/heap_4.c **** 	#endif
 257:Generated_Source\PSoC6\pdl\rtos\FreeRTOS\10.0.1\Source\portable\MemMang/heap_4.c **** 
 258:Generated_Source\PSoC6\pdl\rtos\FreeRTOS\10.0.1\Source\portable\MemMang/heap_4.c **** 	configASSERT( ( ( ( size_t ) pvReturn ) & ( size_t ) portBYTE_ALIGNMENT_MASK ) == 0 );
 280              		.loc 1 258 0
 281 0146 FB69     		ldr	r3, [r7, #28]
 282 0148 03F00703 		and	r3, r3, #7
 283 014c 002B     		cmp	r3, #0
 284 014e 09D0     		beq	.L13
 285              	.LBB16:
 286              	.LBB17:
 287              		.loc 2 156 0 discriminator 1
 288              		.syntax unified
 289              	@ 156 "Generated_Source\PSoC6\pdl\rtos/FreeRTOS/10.0.1/Source/portable/GCC/CM4F/portmacro.h" 1
 290 0150 4FF03F03 			mov r3, #63												
 291 0154 83F31188 		msr basepri, r3											
 292 0158 BFF36F8F 		isb														
 293 015c BFF34F8F 		dsb														
 294              	
 295              	@ 0 "" 2
 296              		.thumb
 297              		.syntax unified
 298 0160 3B61     		str	r3, [r7, #16]
 299              	.L14:
 300              	.LBE17:
 301              	.LBE16:
 302              		.loc 1 258 0 discriminator 5
 303 0162 FEE7     		b	.L14
 304              	.L13:
 259:Generated_Source\PSoC6\pdl\rtos\FreeRTOS\10.0.1\Source\portable\MemMang/heap_4.c **** 	return pvReturn;
 305              		.loc 1 259 0
 306 0164 FB69     		ldr	r3, [r7, #28]
 260:Generated_Source\PSoC6\pdl\rtos\FreeRTOS\10.0.1\Source\portable\MemMang/heap_4.c **** }
 307              		.loc 1 260 0
 308 0166 1846     		mov	r0, r3
 309 0168 2837     		adds	r7, r7, #40
 310              		.cfi_def_cfa_offset 8
 311 016a BD46     		mov	sp, r7
 312              		.cfi_def_cfa_register 13
 313              		@ sp needed
 314 016c 80BD     		pop	{r7, pc}
 315              	.L17:
 316 016e 00BF     		.align	2
 317              	.L16:
 318 0170 08280000 		.word	pxEnd
ARM GAS  C:\Users\jingyiwu\AppData\Local\Temp\ccuFUITf.s 			page 14


 319 0174 14280000 		.word	xBlockAllocatedBit
 320 0178 0C280000 		.word	xFreeBytesRemaining
 321 017c 00280000 		.word	xStart
 322 0180 10280000 		.word	xMinimumEverFreeBytesRemaining
 323              		.cfi_endproc
 324              	.LFE136:
 325              		.size	pvPortMalloc, .-pvPortMalloc
 326              		.section	.text.vPortFree,"ax",%progbits
 327              		.align	2
 328              		.global	vPortFree
 329              		.thumb
 330              		.thumb_func
 331              		.type	vPortFree, %function
 332              	vPortFree:
 333              	.LFB137:
 261:Generated_Source\PSoC6\pdl\rtos\FreeRTOS\10.0.1\Source\portable\MemMang/heap_4.c **** /*-----------------------------------------------------------*/
 262:Generated_Source\PSoC6\pdl\rtos\FreeRTOS\10.0.1\Source\portable\MemMang/heap_4.c **** 
 263:Generated_Source\PSoC6\pdl\rtos\FreeRTOS\10.0.1\Source\portable\MemMang/heap_4.c **** void vPortFree( void *pv )
 264:Generated_Source\PSoC6\pdl\rtos\FreeRTOS\10.0.1\Source\portable\MemMang/heap_4.c **** {
 334              		.loc 1 264 0
 335              		.cfi_startproc
 336              		@ args = 0, pretend = 0, frame = 24
 337              		@ frame_needed = 1, uses_anonymous_args = 0
 338 0000 80B5     		push	{r7, lr}
 339              		.cfi_def_cfa_offset 8
 340              		.cfi_offset 7, -8
 341              		.cfi_offset 14, -4
 342 0002 86B0     		sub	sp, sp, #24
 343              		.cfi_def_cfa_offset 32
 344 0004 00AF     		add	r7, sp, #0
 345              		.cfi_def_cfa_register 7
 346 0006 7860     		str	r0, [r7, #4]
 265:Generated_Source\PSoC6\pdl\rtos\FreeRTOS\10.0.1\Source\portable\MemMang/heap_4.c **** uint8_t *puc = ( uint8_t * ) pv;
 347              		.loc 1 265 0
 348 0008 7B68     		ldr	r3, [r7, #4]
 349 000a 7B61     		str	r3, [r7, #20]
 266:Generated_Source\PSoC6\pdl\rtos\FreeRTOS\10.0.1\Source\portable\MemMang/heap_4.c **** BlockLink_t *pxLink;
 267:Generated_Source\PSoC6\pdl\rtos\FreeRTOS\10.0.1\Source\portable\MemMang/heap_4.c **** 
 268:Generated_Source\PSoC6\pdl\rtos\FreeRTOS\10.0.1\Source\portable\MemMang/heap_4.c **** 	if( pv != NULL )
 350              		.loc 1 268 0
 351 000c 7B68     		ldr	r3, [r7, #4]
 352 000e 002B     		cmp	r3, #0
 353 0010 46D0     		beq	.L24
 269:Generated_Source\PSoC6\pdl\rtos\FreeRTOS\10.0.1\Source\portable\MemMang/heap_4.c **** 	{
 270:Generated_Source\PSoC6\pdl\rtos\FreeRTOS\10.0.1\Source\portable\MemMang/heap_4.c **** 		/* The memory being freed will have an BlockLink_t structure immediately
 271:Generated_Source\PSoC6\pdl\rtos\FreeRTOS\10.0.1\Source\portable\MemMang/heap_4.c **** 		before it. */
 272:Generated_Source\PSoC6\pdl\rtos\FreeRTOS\10.0.1\Source\portable\MemMang/heap_4.c **** 		puc -= xHeapStructSize;
 354              		.loc 1 272 0
 355 0012 0823     		movs	r3, #8
 356 0014 5B42     		negs	r3, r3
 357 0016 7A69     		ldr	r2, [r7, #20]
 358 0018 1344     		add	r3, r3, r2
 359 001a 7B61     		str	r3, [r7, #20]
 273:Generated_Source\PSoC6\pdl\rtos\FreeRTOS\10.0.1\Source\portable\MemMang/heap_4.c **** 
 274:Generated_Source\PSoC6\pdl\rtos\FreeRTOS\10.0.1\Source\portable\MemMang/heap_4.c **** 		/* This casting is to keep the compiler from issuing warnings. */
 275:Generated_Source\PSoC6\pdl\rtos\FreeRTOS\10.0.1\Source\portable\MemMang/heap_4.c **** 		pxLink = ( void * ) puc;
 360              		.loc 1 275 0
ARM GAS  C:\Users\jingyiwu\AppData\Local\Temp\ccuFUITf.s 			page 15


 361 001c 7B69     		ldr	r3, [r7, #20]
 362 001e 3B61     		str	r3, [r7, #16]
 276:Generated_Source\PSoC6\pdl\rtos\FreeRTOS\10.0.1\Source\portable\MemMang/heap_4.c **** 
 277:Generated_Source\PSoC6\pdl\rtos\FreeRTOS\10.0.1\Source\portable\MemMang/heap_4.c **** 		/* Check the block is actually allocated. */
 278:Generated_Source\PSoC6\pdl\rtos\FreeRTOS\10.0.1\Source\portable\MemMang/heap_4.c **** 		configASSERT( ( pxLink->xBlockSize & xBlockAllocatedBit ) != 0 );
 363              		.loc 1 278 0
 364 0020 3B69     		ldr	r3, [r7, #16]
 365 0022 5A68     		ldr	r2, [r3, #4]
 366 0024 204B     		ldr	r3, .L25
 367 0026 1B68     		ldr	r3, [r3]
 368 0028 1340     		ands	r3, r3, r2
 369 002a 002B     		cmp	r3, #0
 370 002c 09D1     		bne	.L20
 371              	.LBB18:
 372              	.LBB19:
 373              		.loc 2 156 0 discriminator 1
 374              		.syntax unified
 375              	@ 156 "Generated_Source\PSoC6\pdl\rtos/FreeRTOS/10.0.1/Source/portable/GCC/CM4F/portmacro.h" 1
 376 002e 4FF03F03 			mov r3, #63												
 377 0032 83F31188 		msr basepri, r3											
 378 0036 BFF36F8F 		isb														
 379 003a BFF34F8F 		dsb														
 380              	
 381              	@ 0 "" 2
 382              		.thumb
 383              		.syntax unified
 384 003e BB60     		str	r3, [r7, #8]
 385              	.L21:
 386              	.LBE19:
 387              	.LBE18:
 388              		.loc 1 278 0 discriminator 1
 389 0040 FEE7     		b	.L21
 390              	.L20:
 279:Generated_Source\PSoC6\pdl\rtos\FreeRTOS\10.0.1\Source\portable\MemMang/heap_4.c **** 		configASSERT( pxLink->pxNextFreeBlock == NULL );
 391              		.loc 1 279 0
 392 0042 3B69     		ldr	r3, [r7, #16]
 393 0044 1B68     		ldr	r3, [r3]
 394 0046 002B     		cmp	r3, #0
 395 0048 09D0     		beq	.L22
 396              	.LBB20:
 397              	.LBB21:
 398              		.loc 2 156 0 discriminator 1
 399              		.syntax unified
 400              	@ 156 "Generated_Source\PSoC6\pdl\rtos/FreeRTOS/10.0.1/Source/portable/GCC/CM4F/portmacro.h" 1
 401 004a 4FF03F03 			mov r3, #63												
 402 004e 83F31188 		msr basepri, r3											
 403 0052 BFF36F8F 		isb														
 404 0056 BFF34F8F 		dsb														
 405              	
 406              	@ 0 "" 2
 407              		.thumb
 408              		.syntax unified
 409 005a FB60     		str	r3, [r7, #12]
 410              	.L23:
 411              	.LBE21:
 412              	.LBE20:
 413              		.loc 1 279 0 discriminator 2
ARM GAS  C:\Users\jingyiwu\AppData\Local\Temp\ccuFUITf.s 			page 16


 414 005c FEE7     		b	.L23
 415              	.L22:
 280:Generated_Source\PSoC6\pdl\rtos\FreeRTOS\10.0.1\Source\portable\MemMang/heap_4.c **** 
 281:Generated_Source\PSoC6\pdl\rtos\FreeRTOS\10.0.1\Source\portable\MemMang/heap_4.c **** 		if( ( pxLink->xBlockSize & xBlockAllocatedBit ) != 0 )
 416              		.loc 1 281 0
 417 005e 3B69     		ldr	r3, [r7, #16]
 418 0060 5A68     		ldr	r2, [r3, #4]
 419 0062 114B     		ldr	r3, .L25
 420 0064 1B68     		ldr	r3, [r3]
 421 0066 1340     		ands	r3, r3, r2
 422 0068 002B     		cmp	r3, #0
 423 006a 19D0     		beq	.L24
 282:Generated_Source\PSoC6\pdl\rtos\FreeRTOS\10.0.1\Source\portable\MemMang/heap_4.c **** 		{
 283:Generated_Source\PSoC6\pdl\rtos\FreeRTOS\10.0.1\Source\portable\MemMang/heap_4.c **** 			if( pxLink->pxNextFreeBlock == NULL )
 424              		.loc 1 283 0
 425 006c 3B69     		ldr	r3, [r7, #16]
 426 006e 1B68     		ldr	r3, [r3]
 427 0070 002B     		cmp	r3, #0
 428 0072 15D1     		bne	.L24
 284:Generated_Source\PSoC6\pdl\rtos\FreeRTOS\10.0.1\Source\portable\MemMang/heap_4.c **** 			{
 285:Generated_Source\PSoC6\pdl\rtos\FreeRTOS\10.0.1\Source\portable\MemMang/heap_4.c **** 				/* The block is being returned to the heap - it is no longer
 286:Generated_Source\PSoC6\pdl\rtos\FreeRTOS\10.0.1\Source\portable\MemMang/heap_4.c **** 				allocated. */
 287:Generated_Source\PSoC6\pdl\rtos\FreeRTOS\10.0.1\Source\portable\MemMang/heap_4.c **** 				pxLink->xBlockSize &= ~xBlockAllocatedBit;
 429              		.loc 1 287 0
 430 0074 3B69     		ldr	r3, [r7, #16]
 431 0076 5A68     		ldr	r2, [r3, #4]
 432 0078 0B4B     		ldr	r3, .L25
 433 007a 1B68     		ldr	r3, [r3]
 434 007c DB43     		mvns	r3, r3
 435 007e 1A40     		ands	r2, r2, r3
 436 0080 3B69     		ldr	r3, [r7, #16]
 437 0082 5A60     		str	r2, [r3, #4]
 288:Generated_Source\PSoC6\pdl\rtos\FreeRTOS\10.0.1\Source\portable\MemMang/heap_4.c **** 
 289:Generated_Source\PSoC6\pdl\rtos\FreeRTOS\10.0.1\Source\portable\MemMang/heap_4.c **** 				vTaskSuspendAll();
 438              		.loc 1 289 0
 439 0084 FFF7FEFF 		bl	vTaskSuspendAll
 290:Generated_Source\PSoC6\pdl\rtos\FreeRTOS\10.0.1\Source\portable\MemMang/heap_4.c **** 				{
 291:Generated_Source\PSoC6\pdl\rtos\FreeRTOS\10.0.1\Source\portable\MemMang/heap_4.c **** 					/* Add this block to the list of free blocks. */
 292:Generated_Source\PSoC6\pdl\rtos\FreeRTOS\10.0.1\Source\portable\MemMang/heap_4.c **** 					xFreeBytesRemaining += pxLink->xBlockSize;
 440              		.loc 1 292 0
 441 0088 3B69     		ldr	r3, [r7, #16]
 442 008a 5A68     		ldr	r2, [r3, #4]
 443 008c 074B     		ldr	r3, .L25+4
 444 008e 1B68     		ldr	r3, [r3]
 445 0090 1344     		add	r3, r3, r2
 446 0092 064A     		ldr	r2, .L25+4
 447 0094 1360     		str	r3, [r2]
 293:Generated_Source\PSoC6\pdl\rtos\FreeRTOS\10.0.1\Source\portable\MemMang/heap_4.c **** 					traceFREE( pv, pxLink->xBlockSize );
 294:Generated_Source\PSoC6\pdl\rtos\FreeRTOS\10.0.1\Source\portable\MemMang/heap_4.c **** 					prvInsertBlockIntoFreeList( ( ( BlockLink_t * ) pxLink ) );
 448              		.loc 1 294 0
 449 0096 3869     		ldr	r0, [r7, #16]
 450 0098 FFF7FEFF 		bl	prvInsertBlockIntoFreeList
 295:Generated_Source\PSoC6\pdl\rtos\FreeRTOS\10.0.1\Source\portable\MemMang/heap_4.c **** 				}
 296:Generated_Source\PSoC6\pdl\rtos\FreeRTOS\10.0.1\Source\portable\MemMang/heap_4.c **** 				( void ) xTaskResumeAll();
 451              		.loc 1 296 0
 452 009c FFF7FEFF 		bl	xTaskResumeAll
 453              	.L24:
ARM GAS  C:\Users\jingyiwu\AppData\Local\Temp\ccuFUITf.s 			page 17


 297:Generated_Source\PSoC6\pdl\rtos\FreeRTOS\10.0.1\Source\portable\MemMang/heap_4.c **** 			}
 298:Generated_Source\PSoC6\pdl\rtos\FreeRTOS\10.0.1\Source\portable\MemMang/heap_4.c **** 			else
 299:Generated_Source\PSoC6\pdl\rtos\FreeRTOS\10.0.1\Source\portable\MemMang/heap_4.c **** 			{
 300:Generated_Source\PSoC6\pdl\rtos\FreeRTOS\10.0.1\Source\portable\MemMang/heap_4.c **** 				mtCOVERAGE_TEST_MARKER();
 301:Generated_Source\PSoC6\pdl\rtos\FreeRTOS\10.0.1\Source\portable\MemMang/heap_4.c **** 			}
 302:Generated_Source\PSoC6\pdl\rtos\FreeRTOS\10.0.1\Source\portable\MemMang/heap_4.c **** 		}
 303:Generated_Source\PSoC6\pdl\rtos\FreeRTOS\10.0.1\Source\portable\MemMang/heap_4.c **** 		else
 304:Generated_Source\PSoC6\pdl\rtos\FreeRTOS\10.0.1\Source\portable\MemMang/heap_4.c **** 		{
 305:Generated_Source\PSoC6\pdl\rtos\FreeRTOS\10.0.1\Source\portable\MemMang/heap_4.c **** 			mtCOVERAGE_TEST_MARKER();
 306:Generated_Source\PSoC6\pdl\rtos\FreeRTOS\10.0.1\Source\portable\MemMang/heap_4.c **** 		}
 307:Generated_Source\PSoC6\pdl\rtos\FreeRTOS\10.0.1\Source\portable\MemMang/heap_4.c **** 	}
 308:Generated_Source\PSoC6\pdl\rtos\FreeRTOS\10.0.1\Source\portable\MemMang/heap_4.c **** }
 454              		.loc 1 308 0
 455 00a0 00BF     		nop
 456 00a2 1837     		adds	r7, r7, #24
 457              		.cfi_def_cfa_offset 8
 458 00a4 BD46     		mov	sp, r7
 459              		.cfi_def_cfa_register 13
 460              		@ sp needed
 461 00a6 80BD     		pop	{r7, pc}
 462              	.L26:
 463              		.align	2
 464              	.L25:
 465 00a8 14280000 		.word	xBlockAllocatedBit
 466 00ac 0C280000 		.word	xFreeBytesRemaining
 467              		.cfi_endproc
 468              	.LFE137:
 469              		.size	vPortFree, .-vPortFree
 470              		.section	.text.xPortGetFreeHeapSize,"ax",%progbits
 471              		.align	2
 472              		.global	xPortGetFreeHeapSize
 473              		.thumb
 474              		.thumb_func
 475              		.type	xPortGetFreeHeapSize, %function
 476              	xPortGetFreeHeapSize:
 477              	.LFB138:
 309:Generated_Source\PSoC6\pdl\rtos\FreeRTOS\10.0.1\Source\portable\MemMang/heap_4.c **** /*-----------------------------------------------------------*/
 310:Generated_Source\PSoC6\pdl\rtos\FreeRTOS\10.0.1\Source\portable\MemMang/heap_4.c **** 
 311:Generated_Source\PSoC6\pdl\rtos\FreeRTOS\10.0.1\Source\portable\MemMang/heap_4.c **** size_t xPortGetFreeHeapSize( void )
 312:Generated_Source\PSoC6\pdl\rtos\FreeRTOS\10.0.1\Source\portable\MemMang/heap_4.c **** {
 478              		.loc 1 312 0
 479              		.cfi_startproc
 480              		@ args = 0, pretend = 0, frame = 0
 481              		@ frame_needed = 1, uses_anonymous_args = 0
 482              		@ link register save eliminated.
 483 0000 80B4     		push	{r7}
 484              		.cfi_def_cfa_offset 4
 485              		.cfi_offset 7, -4
 486 0002 00AF     		add	r7, sp, #0
 487              		.cfi_def_cfa_register 7
 313:Generated_Source\PSoC6\pdl\rtos\FreeRTOS\10.0.1\Source\portable\MemMang/heap_4.c **** 	return xFreeBytesRemaining;
 488              		.loc 1 313 0
 489 0004 034B     		ldr	r3, .L29
 490 0006 1B68     		ldr	r3, [r3]
 314:Generated_Source\PSoC6\pdl\rtos\FreeRTOS\10.0.1\Source\portable\MemMang/heap_4.c **** }
 491              		.loc 1 314 0
 492 0008 1846     		mov	r0, r3
ARM GAS  C:\Users\jingyiwu\AppData\Local\Temp\ccuFUITf.s 			page 18


 493 000a BD46     		mov	sp, r7
 494              		.cfi_def_cfa_register 13
 495              		@ sp needed
 496 000c 5DF8047B 		ldr	r7, [sp], #4
 497              		.cfi_restore 7
 498              		.cfi_def_cfa_offset 0
 499 0010 7047     		bx	lr
 500              	.L30:
 501 0012 00BF     		.align	2
 502              	.L29:
 503 0014 0C280000 		.word	xFreeBytesRemaining
 504              		.cfi_endproc
 505              	.LFE138:
 506              		.size	xPortGetFreeHeapSize, .-xPortGetFreeHeapSize
 507              		.section	.text.xPortGetMinimumEverFreeHeapSize,"ax",%progbits
 508              		.align	2
 509              		.global	xPortGetMinimumEverFreeHeapSize
 510              		.thumb
 511              		.thumb_func
 512              		.type	xPortGetMinimumEverFreeHeapSize, %function
 513              	xPortGetMinimumEverFreeHeapSize:
 514              	.LFB139:
 315:Generated_Source\PSoC6\pdl\rtos\FreeRTOS\10.0.1\Source\portable\MemMang/heap_4.c **** /*-----------------------------------------------------------*/
 316:Generated_Source\PSoC6\pdl\rtos\FreeRTOS\10.0.1\Source\portable\MemMang/heap_4.c **** 
 317:Generated_Source\PSoC6\pdl\rtos\FreeRTOS\10.0.1\Source\portable\MemMang/heap_4.c **** size_t xPortGetMinimumEverFreeHeapSize( void )
 318:Generated_Source\PSoC6\pdl\rtos\FreeRTOS\10.0.1\Source\portable\MemMang/heap_4.c **** {
 515              		.loc 1 318 0
 516              		.cfi_startproc
 517              		@ args = 0, pretend = 0, frame = 0
 518              		@ frame_needed = 1, uses_anonymous_args = 0
 519              		@ link register save eliminated.
 520 0000 80B4     		push	{r7}
 521              		.cfi_def_cfa_offset 4
 522              		.cfi_offset 7, -4
 523 0002 00AF     		add	r7, sp, #0
 524              		.cfi_def_cfa_register 7
 319:Generated_Source\PSoC6\pdl\rtos\FreeRTOS\10.0.1\Source\portable\MemMang/heap_4.c **** 	return xMinimumEverFreeBytesRemaining;
 525              		.loc 1 319 0
 526 0004 034B     		ldr	r3, .L33
 527 0006 1B68     		ldr	r3, [r3]
 320:Generated_Source\PSoC6\pdl\rtos\FreeRTOS\10.0.1\Source\portable\MemMang/heap_4.c **** }
 528              		.loc 1 320 0
 529 0008 1846     		mov	r0, r3
 530 000a BD46     		mov	sp, r7
 531              		.cfi_def_cfa_register 13
 532              		@ sp needed
 533 000c 5DF8047B 		ldr	r7, [sp], #4
 534              		.cfi_restore 7
 535              		.cfi_def_cfa_offset 0
 536 0010 7047     		bx	lr
 537              	.L34:
 538 0012 00BF     		.align	2
 539              	.L33:
 540 0014 10280000 		.word	xMinimumEverFreeBytesRemaining
 541              		.cfi_endproc
 542              	.LFE139:
 543              		.size	xPortGetMinimumEverFreeHeapSize, .-xPortGetMinimumEverFreeHeapSize
ARM GAS  C:\Users\jingyiwu\AppData\Local\Temp\ccuFUITf.s 			page 19


 544              		.section	.text.vPortInitialiseBlocks,"ax",%progbits
 545              		.align	2
 546              		.global	vPortInitialiseBlocks
 547              		.thumb
 548              		.thumb_func
 549              		.type	vPortInitialiseBlocks, %function
 550              	vPortInitialiseBlocks:
 551              	.LFB140:
 321:Generated_Source\PSoC6\pdl\rtos\FreeRTOS\10.0.1\Source\portable\MemMang/heap_4.c **** /*-----------------------------------------------------------*/
 322:Generated_Source\PSoC6\pdl\rtos\FreeRTOS\10.0.1\Source\portable\MemMang/heap_4.c **** 
 323:Generated_Source\PSoC6\pdl\rtos\FreeRTOS\10.0.1\Source\portable\MemMang/heap_4.c **** void vPortInitialiseBlocks( void )
 324:Generated_Source\PSoC6\pdl\rtos\FreeRTOS\10.0.1\Source\portable\MemMang/heap_4.c **** {
 552              		.loc 1 324 0
 553              		.cfi_startproc
 554              		@ args = 0, pretend = 0, frame = 0
 555              		@ frame_needed = 1, uses_anonymous_args = 0
 556              		@ link register save eliminated.
 557 0000 80B4     		push	{r7}
 558              		.cfi_def_cfa_offset 4
 559              		.cfi_offset 7, -4
 560 0002 00AF     		add	r7, sp, #0
 561              		.cfi_def_cfa_register 7
 325:Generated_Source\PSoC6\pdl\rtos\FreeRTOS\10.0.1\Source\portable\MemMang/heap_4.c **** 	/* This just exists to keep the linker quiet. */
 326:Generated_Source\PSoC6\pdl\rtos\FreeRTOS\10.0.1\Source\portable\MemMang/heap_4.c **** }
 562              		.loc 1 326 0
 563 0004 00BF     		nop
 564 0006 BD46     		mov	sp, r7
 565              		.cfi_def_cfa_register 13
 566              		@ sp needed
 567 0008 5DF8047B 		ldr	r7, [sp], #4
 568              		.cfi_restore 7
 569              		.cfi_def_cfa_offset 0
 570 000c 7047     		bx	lr
 571              		.cfi_endproc
 572              	.LFE140:
 573              		.size	vPortInitialiseBlocks, .-vPortInitialiseBlocks
 574 000e 00BF     		.section	.text.prvHeapInit,"ax",%progbits
 575              		.align	2
 576              		.thumb
 577              		.thumb_func
 578              		.type	prvHeapInit, %function
 579              	prvHeapInit:
 580              	.LFB141:
 327:Generated_Source\PSoC6\pdl\rtos\FreeRTOS\10.0.1\Source\portable\MemMang/heap_4.c **** /*-----------------------------------------------------------*/
 328:Generated_Source\PSoC6\pdl\rtos\FreeRTOS\10.0.1\Source\portable\MemMang/heap_4.c **** 
 329:Generated_Source\PSoC6\pdl\rtos\FreeRTOS\10.0.1\Source\portable\MemMang/heap_4.c **** static void prvHeapInit( void )
 330:Generated_Source\PSoC6\pdl\rtos\FreeRTOS\10.0.1\Source\portable\MemMang/heap_4.c **** {
 581              		.loc 1 330 0
 582              		.cfi_startproc
 583              		@ args = 0, pretend = 0, frame = 16
 584              		@ frame_needed = 1, uses_anonymous_args = 0
 585              		@ link register save eliminated.
 586 0000 80B4     		push	{r7}
 587              		.cfi_def_cfa_offset 4
 588              		.cfi_offset 7, -4
 589 0002 85B0     		sub	sp, sp, #20
 590              		.cfi_def_cfa_offset 24
ARM GAS  C:\Users\jingyiwu\AppData\Local\Temp\ccuFUITf.s 			page 20


 591 0004 00AF     		add	r7, sp, #0
 592              		.cfi_def_cfa_register 7
 331:Generated_Source\PSoC6\pdl\rtos\FreeRTOS\10.0.1\Source\portable\MemMang/heap_4.c **** BlockLink_t *pxFirstFreeBlock;
 332:Generated_Source\PSoC6\pdl\rtos\FreeRTOS\10.0.1\Source\portable\MemMang/heap_4.c **** uint8_t *pucAlignedHeap;
 333:Generated_Source\PSoC6\pdl\rtos\FreeRTOS\10.0.1\Source\portable\MemMang/heap_4.c **** size_t uxAddress;
 334:Generated_Source\PSoC6\pdl\rtos\FreeRTOS\10.0.1\Source\portable\MemMang/heap_4.c **** size_t xTotalHeapSize = configTOTAL_HEAP_SIZE;
 593              		.loc 1 334 0
 594 0006 4FF42053 		mov	r3, #10240
 595 000a BB60     		str	r3, [r7, #8]
 335:Generated_Source\PSoC6\pdl\rtos\FreeRTOS\10.0.1\Source\portable\MemMang/heap_4.c **** 
 336:Generated_Source\PSoC6\pdl\rtos\FreeRTOS\10.0.1\Source\portable\MemMang/heap_4.c **** 	/* Ensure the heap starts on a correctly aligned boundary. */
 337:Generated_Source\PSoC6\pdl\rtos\FreeRTOS\10.0.1\Source\portable\MemMang/heap_4.c **** 	uxAddress = ( size_t ) ucHeap;
 596              		.loc 1 337 0
 597 000c 274B     		ldr	r3, .L38
 598 000e FB60     		str	r3, [r7, #12]
 338:Generated_Source\PSoC6\pdl\rtos\FreeRTOS\10.0.1\Source\portable\MemMang/heap_4.c **** 
 339:Generated_Source\PSoC6\pdl\rtos\FreeRTOS\10.0.1\Source\portable\MemMang/heap_4.c **** 	if( ( uxAddress & portBYTE_ALIGNMENT_MASK ) != 0 )
 599              		.loc 1 339 0
 600 0010 FB68     		ldr	r3, [r7, #12]
 601 0012 03F00703 		and	r3, r3, #7
 602 0016 002B     		cmp	r3, #0
 603 0018 0CD0     		beq	.L37
 340:Generated_Source\PSoC6\pdl\rtos\FreeRTOS\10.0.1\Source\portable\MemMang/heap_4.c **** 	{
 341:Generated_Source\PSoC6\pdl\rtos\FreeRTOS\10.0.1\Source\portable\MemMang/heap_4.c **** 		uxAddress += ( portBYTE_ALIGNMENT - 1 );
 604              		.loc 1 341 0
 605 001a FB68     		ldr	r3, [r7, #12]
 606 001c 0733     		adds	r3, r3, #7
 607 001e FB60     		str	r3, [r7, #12]
 342:Generated_Source\PSoC6\pdl\rtos\FreeRTOS\10.0.1\Source\portable\MemMang/heap_4.c **** 		uxAddress &= ~( ( size_t ) portBYTE_ALIGNMENT_MASK );
 608              		.loc 1 342 0
 609 0020 FB68     		ldr	r3, [r7, #12]
 610 0022 23F00703 		bic	r3, r3, #7
 611 0026 FB60     		str	r3, [r7, #12]
 343:Generated_Source\PSoC6\pdl\rtos\FreeRTOS\10.0.1\Source\portable\MemMang/heap_4.c **** 		xTotalHeapSize -= uxAddress - ( size_t ) ucHeap;
 612              		.loc 1 343 0
 613 0028 BA68     		ldr	r2, [r7, #8]
 614 002a FB68     		ldr	r3, [r7, #12]
 615 002c D31A     		subs	r3, r2, r3
 616 002e 1F4A     		ldr	r2, .L38
 617 0030 1344     		add	r3, r3, r2
 618 0032 BB60     		str	r3, [r7, #8]
 619              	.L37:
 344:Generated_Source\PSoC6\pdl\rtos\FreeRTOS\10.0.1\Source\portable\MemMang/heap_4.c **** 	}
 345:Generated_Source\PSoC6\pdl\rtos\FreeRTOS\10.0.1\Source\portable\MemMang/heap_4.c **** 
 346:Generated_Source\PSoC6\pdl\rtos\FreeRTOS\10.0.1\Source\portable\MemMang/heap_4.c **** 	pucAlignedHeap = ( uint8_t * ) uxAddress;
 620              		.loc 1 346 0
 621 0034 FB68     		ldr	r3, [r7, #12]
 622 0036 7B60     		str	r3, [r7, #4]
 347:Generated_Source\PSoC6\pdl\rtos\FreeRTOS\10.0.1\Source\portable\MemMang/heap_4.c **** 
 348:Generated_Source\PSoC6\pdl\rtos\FreeRTOS\10.0.1\Source\portable\MemMang/heap_4.c **** 	/* xStart is used to hold a pointer to the first item in the list of free
 349:Generated_Source\PSoC6\pdl\rtos\FreeRTOS\10.0.1\Source\portable\MemMang/heap_4.c **** 	blocks.  The void cast is used to prevent compiler warnings. */
 350:Generated_Source\PSoC6\pdl\rtos\FreeRTOS\10.0.1\Source\portable\MemMang/heap_4.c **** 	xStart.pxNextFreeBlock = ( void * ) pucAlignedHeap;
 623              		.loc 1 350 0
 624 0038 1D4A     		ldr	r2, .L38+4
 625 003a 7B68     		ldr	r3, [r7, #4]
 626 003c 1360     		str	r3, [r2]
 351:Generated_Source\PSoC6\pdl\rtos\FreeRTOS\10.0.1\Source\portable\MemMang/heap_4.c **** 	xStart.xBlockSize = ( size_t ) 0;
ARM GAS  C:\Users\jingyiwu\AppData\Local\Temp\ccuFUITf.s 			page 21


 627              		.loc 1 351 0
 628 003e 1C4B     		ldr	r3, .L38+4
 629 0040 0022     		movs	r2, #0
 630 0042 5A60     		str	r2, [r3, #4]
 352:Generated_Source\PSoC6\pdl\rtos\FreeRTOS\10.0.1\Source\portable\MemMang/heap_4.c **** 
 353:Generated_Source\PSoC6\pdl\rtos\FreeRTOS\10.0.1\Source\portable\MemMang/heap_4.c **** 	/* pxEnd is used to mark the end of the list of free blocks and is inserted
 354:Generated_Source\PSoC6\pdl\rtos\FreeRTOS\10.0.1\Source\portable\MemMang/heap_4.c **** 	at the end of the heap space. */
 355:Generated_Source\PSoC6\pdl\rtos\FreeRTOS\10.0.1\Source\portable\MemMang/heap_4.c **** 	uxAddress = ( ( size_t ) pucAlignedHeap ) + xTotalHeapSize;
 631              		.loc 1 355 0
 632 0044 7A68     		ldr	r2, [r7, #4]
 633 0046 BB68     		ldr	r3, [r7, #8]
 634 0048 1344     		add	r3, r3, r2
 635 004a FB60     		str	r3, [r7, #12]
 356:Generated_Source\PSoC6\pdl\rtos\FreeRTOS\10.0.1\Source\portable\MemMang/heap_4.c **** 	uxAddress -= xHeapStructSize;
 636              		.loc 1 356 0
 637 004c 0822     		movs	r2, #8
 638 004e FB68     		ldr	r3, [r7, #12]
 639 0050 9B1A     		subs	r3, r3, r2
 640 0052 FB60     		str	r3, [r7, #12]
 357:Generated_Source\PSoC6\pdl\rtos\FreeRTOS\10.0.1\Source\portable\MemMang/heap_4.c **** 	uxAddress &= ~( ( size_t ) portBYTE_ALIGNMENT_MASK );
 641              		.loc 1 357 0
 642 0054 FB68     		ldr	r3, [r7, #12]
 643 0056 23F00703 		bic	r3, r3, #7
 644 005a FB60     		str	r3, [r7, #12]
 358:Generated_Source\PSoC6\pdl\rtos\FreeRTOS\10.0.1\Source\portable\MemMang/heap_4.c **** 	pxEnd = ( void * ) uxAddress;
 645              		.loc 1 358 0
 646 005c FB68     		ldr	r3, [r7, #12]
 647 005e 154A     		ldr	r2, .L38+8
 648 0060 1360     		str	r3, [r2]
 359:Generated_Source\PSoC6\pdl\rtos\FreeRTOS\10.0.1\Source\portable\MemMang/heap_4.c **** 	pxEnd->xBlockSize = 0;
 649              		.loc 1 359 0
 650 0062 144B     		ldr	r3, .L38+8
 651 0064 1B68     		ldr	r3, [r3]
 652 0066 0022     		movs	r2, #0
 653 0068 5A60     		str	r2, [r3, #4]
 360:Generated_Source\PSoC6\pdl\rtos\FreeRTOS\10.0.1\Source\portable\MemMang/heap_4.c **** 	pxEnd->pxNextFreeBlock = NULL;
 654              		.loc 1 360 0
 655 006a 124B     		ldr	r3, .L38+8
 656 006c 1B68     		ldr	r3, [r3]
 657 006e 0022     		movs	r2, #0
 658 0070 1A60     		str	r2, [r3]
 361:Generated_Source\PSoC6\pdl\rtos\FreeRTOS\10.0.1\Source\portable\MemMang/heap_4.c **** 
 362:Generated_Source\PSoC6\pdl\rtos\FreeRTOS\10.0.1\Source\portable\MemMang/heap_4.c **** 	/* To start with there is a single free block that is sized to take up the
 363:Generated_Source\PSoC6\pdl\rtos\FreeRTOS\10.0.1\Source\portable\MemMang/heap_4.c **** 	entire heap space, minus the space taken by pxEnd. */
 364:Generated_Source\PSoC6\pdl\rtos\FreeRTOS\10.0.1\Source\portable\MemMang/heap_4.c **** 	pxFirstFreeBlock = ( void * ) pucAlignedHeap;
 659              		.loc 1 364 0
 660 0072 7B68     		ldr	r3, [r7, #4]
 661 0074 3B60     		str	r3, [r7]
 365:Generated_Source\PSoC6\pdl\rtos\FreeRTOS\10.0.1\Source\portable\MemMang/heap_4.c **** 	pxFirstFreeBlock->xBlockSize = uxAddress - ( size_t ) pxFirstFreeBlock;
 662              		.loc 1 365 0
 663 0076 3B68     		ldr	r3, [r7]
 664 0078 FA68     		ldr	r2, [r7, #12]
 665 007a D21A     		subs	r2, r2, r3
 666 007c 3B68     		ldr	r3, [r7]
 667 007e 5A60     		str	r2, [r3, #4]
 366:Generated_Source\PSoC6\pdl\rtos\FreeRTOS\10.0.1\Source\portable\MemMang/heap_4.c **** 	pxFirstFreeBlock->pxNextFreeBlock = pxEnd;
 668              		.loc 1 366 0
ARM GAS  C:\Users\jingyiwu\AppData\Local\Temp\ccuFUITf.s 			page 22


 669 0080 0C4B     		ldr	r3, .L38+8
 670 0082 1A68     		ldr	r2, [r3]
 671 0084 3B68     		ldr	r3, [r7]
 672 0086 1A60     		str	r2, [r3]
 367:Generated_Source\PSoC6\pdl\rtos\FreeRTOS\10.0.1\Source\portable\MemMang/heap_4.c **** 
 368:Generated_Source\PSoC6\pdl\rtos\FreeRTOS\10.0.1\Source\portable\MemMang/heap_4.c **** 	/* Only one block exists - and it covers the entire usable heap space. */
 369:Generated_Source\PSoC6\pdl\rtos\FreeRTOS\10.0.1\Source\portable\MemMang/heap_4.c **** 	xMinimumEverFreeBytesRemaining = pxFirstFreeBlock->xBlockSize;
 673              		.loc 1 369 0
 674 0088 3B68     		ldr	r3, [r7]
 675 008a 5B68     		ldr	r3, [r3, #4]
 676 008c 0A4A     		ldr	r2, .L38+12
 677 008e 1360     		str	r3, [r2]
 370:Generated_Source\PSoC6\pdl\rtos\FreeRTOS\10.0.1\Source\portable\MemMang/heap_4.c **** 	xFreeBytesRemaining = pxFirstFreeBlock->xBlockSize;
 678              		.loc 1 370 0
 679 0090 3B68     		ldr	r3, [r7]
 680 0092 5B68     		ldr	r3, [r3, #4]
 681 0094 094A     		ldr	r2, .L38+16
 682 0096 1360     		str	r3, [r2]
 371:Generated_Source\PSoC6\pdl\rtos\FreeRTOS\10.0.1\Source\portable\MemMang/heap_4.c **** 
 372:Generated_Source\PSoC6\pdl\rtos\FreeRTOS\10.0.1\Source\portable\MemMang/heap_4.c **** 	/* Work out the position of the top bit in a size_t variable. */
 373:Generated_Source\PSoC6\pdl\rtos\FreeRTOS\10.0.1\Source\portable\MemMang/heap_4.c **** 	xBlockAllocatedBit = ( ( size_t ) 1 ) << ( ( sizeof( size_t ) * heapBITS_PER_BYTE ) - 1 );
 683              		.loc 1 373 0
 684 0098 094B     		ldr	r3, .L38+20
 685 009a 4FF00042 		mov	r2, #-2147483648
 686 009e 1A60     		str	r2, [r3]
 374:Generated_Source\PSoC6\pdl\rtos\FreeRTOS\10.0.1\Source\portable\MemMang/heap_4.c **** }
 687              		.loc 1 374 0
 688 00a0 00BF     		nop
 689 00a2 1437     		adds	r7, r7, #20
 690              		.cfi_def_cfa_offset 4
 691 00a4 BD46     		mov	sp, r7
 692              		.cfi_def_cfa_register 13
 693              		@ sp needed
 694 00a6 5DF8047B 		ldr	r7, [sp], #4
 695              		.cfi_restore 7
 696              		.cfi_def_cfa_offset 0
 697 00aa 7047     		bx	lr
 698              	.L39:
 699              		.align	2
 700              	.L38:
 701 00ac 00000000 		.word	ucHeap
 702 00b0 00280000 		.word	xStart
 703 00b4 08280000 		.word	pxEnd
 704 00b8 10280000 		.word	xMinimumEverFreeBytesRemaining
 705 00bc 0C280000 		.word	xFreeBytesRemaining
 706 00c0 14280000 		.word	xBlockAllocatedBit
 707              		.cfi_endproc
 708              	.LFE141:
 709              		.size	prvHeapInit, .-prvHeapInit
 710              		.section	.text.prvInsertBlockIntoFreeList,"ax",%progbits
 711              		.align	2
 712              		.thumb
 713              		.thumb_func
 714              		.type	prvInsertBlockIntoFreeList, %function
 715              	prvInsertBlockIntoFreeList:
 716              	.LFB142:
 375:Generated_Source\PSoC6\pdl\rtos\FreeRTOS\10.0.1\Source\portable\MemMang/heap_4.c **** /*-----------------------------------------------------------*/
ARM GAS  C:\Users\jingyiwu\AppData\Local\Temp\ccuFUITf.s 			page 23


 376:Generated_Source\PSoC6\pdl\rtos\FreeRTOS\10.0.1\Source\portable\MemMang/heap_4.c **** 
 377:Generated_Source\PSoC6\pdl\rtos\FreeRTOS\10.0.1\Source\portable\MemMang/heap_4.c **** static void prvInsertBlockIntoFreeList( BlockLink_t *pxBlockToInsert )
 378:Generated_Source\PSoC6\pdl\rtos\FreeRTOS\10.0.1\Source\portable\MemMang/heap_4.c **** {
 717              		.loc 1 378 0
 718              		.cfi_startproc
 719              		@ args = 0, pretend = 0, frame = 16
 720              		@ frame_needed = 1, uses_anonymous_args = 0
 721              		@ link register save eliminated.
 722 0000 80B4     		push	{r7}
 723              		.cfi_def_cfa_offset 4
 724              		.cfi_offset 7, -4
 725 0002 85B0     		sub	sp, sp, #20
 726              		.cfi_def_cfa_offset 24
 727 0004 00AF     		add	r7, sp, #0
 728              		.cfi_def_cfa_register 7
 729 0006 7860     		str	r0, [r7, #4]
 379:Generated_Source\PSoC6\pdl\rtos\FreeRTOS\10.0.1\Source\portable\MemMang/heap_4.c **** BlockLink_t *pxIterator;
 380:Generated_Source\PSoC6\pdl\rtos\FreeRTOS\10.0.1\Source\portable\MemMang/heap_4.c **** uint8_t *puc;
 381:Generated_Source\PSoC6\pdl\rtos\FreeRTOS\10.0.1\Source\portable\MemMang/heap_4.c **** 
 382:Generated_Source\PSoC6\pdl\rtos\FreeRTOS\10.0.1\Source\portable\MemMang/heap_4.c **** 	/* Iterate through the list until a block is found that has a higher address
 383:Generated_Source\PSoC6\pdl\rtos\FreeRTOS\10.0.1\Source\portable\MemMang/heap_4.c **** 	than the block being inserted. */
 384:Generated_Source\PSoC6\pdl\rtos\FreeRTOS\10.0.1\Source\portable\MemMang/heap_4.c **** 	for( pxIterator = &xStart; pxIterator->pxNextFreeBlock < pxBlockToInsert; pxIterator = pxIterator-
 730              		.loc 1 384 0
 731 0008 284B     		ldr	r3, .L50
 732 000a FB60     		str	r3, [r7, #12]
 733 000c 02E0     		b	.L41
 734              	.L42:
 735              		.loc 1 384 0 is_stmt 0 discriminator 3
 736 000e FB68     		ldr	r3, [r7, #12]
 737 0010 1B68     		ldr	r3, [r3]
 738 0012 FB60     		str	r3, [r7, #12]
 739              	.L41:
 740              		.loc 1 384 0 discriminator 1
 741 0014 FB68     		ldr	r3, [r7, #12]
 742 0016 1A68     		ldr	r2, [r3]
 743 0018 7B68     		ldr	r3, [r7, #4]
 744 001a 9A42     		cmp	r2, r3
 745 001c F7D3     		bcc	.L42
 385:Generated_Source\PSoC6\pdl\rtos\FreeRTOS\10.0.1\Source\portable\MemMang/heap_4.c **** 	{
 386:Generated_Source\PSoC6\pdl\rtos\FreeRTOS\10.0.1\Source\portable\MemMang/heap_4.c **** 		/* Nothing to do here, just iterate to the right position. */
 387:Generated_Source\PSoC6\pdl\rtos\FreeRTOS\10.0.1\Source\portable\MemMang/heap_4.c **** 	}
 388:Generated_Source\PSoC6\pdl\rtos\FreeRTOS\10.0.1\Source\portable\MemMang/heap_4.c **** 
 389:Generated_Source\PSoC6\pdl\rtos\FreeRTOS\10.0.1\Source\portable\MemMang/heap_4.c **** 	/* Do the block being inserted, and the block it is being inserted after
 390:Generated_Source\PSoC6\pdl\rtos\FreeRTOS\10.0.1\Source\portable\MemMang/heap_4.c **** 	make a contiguous block of memory? */
 391:Generated_Source\PSoC6\pdl\rtos\FreeRTOS\10.0.1\Source\portable\MemMang/heap_4.c **** 	puc = ( uint8_t * ) pxIterator;
 746              		.loc 1 391 0 is_stmt 1
 747 001e FB68     		ldr	r3, [r7, #12]
 748 0020 BB60     		str	r3, [r7, #8]
 392:Generated_Source\PSoC6\pdl\rtos\FreeRTOS\10.0.1\Source\portable\MemMang/heap_4.c **** 	if( ( puc + pxIterator->xBlockSize ) == ( uint8_t * ) pxBlockToInsert )
 749              		.loc 1 392 0
 750 0022 FB68     		ldr	r3, [r7, #12]
 751 0024 5B68     		ldr	r3, [r3, #4]
 752 0026 BA68     		ldr	r2, [r7, #8]
 753 0028 1A44     		add	r2, r2, r3
 754 002a 7B68     		ldr	r3, [r7, #4]
 755 002c 9A42     		cmp	r2, r3
 756 002e 08D1     		bne	.L43
ARM GAS  C:\Users\jingyiwu\AppData\Local\Temp\ccuFUITf.s 			page 24


 393:Generated_Source\PSoC6\pdl\rtos\FreeRTOS\10.0.1\Source\portable\MemMang/heap_4.c **** 	{
 394:Generated_Source\PSoC6\pdl\rtos\FreeRTOS\10.0.1\Source\portable\MemMang/heap_4.c **** 		pxIterator->xBlockSize += pxBlockToInsert->xBlockSize;
 757              		.loc 1 394 0
 758 0030 FB68     		ldr	r3, [r7, #12]
 759 0032 5A68     		ldr	r2, [r3, #4]
 760 0034 7B68     		ldr	r3, [r7, #4]
 761 0036 5B68     		ldr	r3, [r3, #4]
 762 0038 1A44     		add	r2, r2, r3
 763 003a FB68     		ldr	r3, [r7, #12]
 764 003c 5A60     		str	r2, [r3, #4]
 395:Generated_Source\PSoC6\pdl\rtos\FreeRTOS\10.0.1\Source\portable\MemMang/heap_4.c **** 		pxBlockToInsert = pxIterator;
 765              		.loc 1 395 0
 766 003e FB68     		ldr	r3, [r7, #12]
 767 0040 7B60     		str	r3, [r7, #4]
 768              	.L43:
 396:Generated_Source\PSoC6\pdl\rtos\FreeRTOS\10.0.1\Source\portable\MemMang/heap_4.c **** 	}
 397:Generated_Source\PSoC6\pdl\rtos\FreeRTOS\10.0.1\Source\portable\MemMang/heap_4.c **** 	else
 398:Generated_Source\PSoC6\pdl\rtos\FreeRTOS\10.0.1\Source\portable\MemMang/heap_4.c **** 	{
 399:Generated_Source\PSoC6\pdl\rtos\FreeRTOS\10.0.1\Source\portable\MemMang/heap_4.c **** 		mtCOVERAGE_TEST_MARKER();
 400:Generated_Source\PSoC6\pdl\rtos\FreeRTOS\10.0.1\Source\portable\MemMang/heap_4.c **** 	}
 401:Generated_Source\PSoC6\pdl\rtos\FreeRTOS\10.0.1\Source\portable\MemMang/heap_4.c **** 
 402:Generated_Source\PSoC6\pdl\rtos\FreeRTOS\10.0.1\Source\portable\MemMang/heap_4.c **** 	/* Do the block being inserted, and the block it is being inserted before
 403:Generated_Source\PSoC6\pdl\rtos\FreeRTOS\10.0.1\Source\portable\MemMang/heap_4.c **** 	make a contiguous block of memory? */
 404:Generated_Source\PSoC6\pdl\rtos\FreeRTOS\10.0.1\Source\portable\MemMang/heap_4.c **** 	puc = ( uint8_t * ) pxBlockToInsert;
 769              		.loc 1 404 0
 770 0042 7B68     		ldr	r3, [r7, #4]
 771 0044 BB60     		str	r3, [r7, #8]
 405:Generated_Source\PSoC6\pdl\rtos\FreeRTOS\10.0.1\Source\portable\MemMang/heap_4.c **** 	if( ( puc + pxBlockToInsert->xBlockSize ) == ( uint8_t * ) pxIterator->pxNextFreeBlock )
 772              		.loc 1 405 0
 773 0046 7B68     		ldr	r3, [r7, #4]
 774 0048 5B68     		ldr	r3, [r3, #4]
 775 004a BA68     		ldr	r2, [r7, #8]
 776 004c 1A44     		add	r2, r2, r3
 777 004e FB68     		ldr	r3, [r7, #12]
 778 0050 1B68     		ldr	r3, [r3]
 779 0052 9A42     		cmp	r2, r3
 780 0054 18D1     		bne	.L44
 406:Generated_Source\PSoC6\pdl\rtos\FreeRTOS\10.0.1\Source\portable\MemMang/heap_4.c **** 	{
 407:Generated_Source\PSoC6\pdl\rtos\FreeRTOS\10.0.1\Source\portable\MemMang/heap_4.c **** 		if( pxIterator->pxNextFreeBlock != pxEnd )
 781              		.loc 1 407 0
 782 0056 FB68     		ldr	r3, [r7, #12]
 783 0058 1A68     		ldr	r2, [r3]
 784 005a 154B     		ldr	r3, .L50+4
 785 005c 1B68     		ldr	r3, [r3]
 786 005e 9A42     		cmp	r2, r3
 787 0060 0DD0     		beq	.L45
 408:Generated_Source\PSoC6\pdl\rtos\FreeRTOS\10.0.1\Source\portable\MemMang/heap_4.c **** 		{
 409:Generated_Source\PSoC6\pdl\rtos\FreeRTOS\10.0.1\Source\portable\MemMang/heap_4.c **** 			/* Form one big block from the two blocks. */
 410:Generated_Source\PSoC6\pdl\rtos\FreeRTOS\10.0.1\Source\portable\MemMang/heap_4.c **** 			pxBlockToInsert->xBlockSize += pxIterator->pxNextFreeBlock->xBlockSize;
 788              		.loc 1 410 0
 789 0062 7B68     		ldr	r3, [r7, #4]
 790 0064 5A68     		ldr	r2, [r3, #4]
 791 0066 FB68     		ldr	r3, [r7, #12]
 792 0068 1B68     		ldr	r3, [r3]
 793 006a 5B68     		ldr	r3, [r3, #4]
 794 006c 1A44     		add	r2, r2, r3
 795 006e 7B68     		ldr	r3, [r7, #4]
ARM GAS  C:\Users\jingyiwu\AppData\Local\Temp\ccuFUITf.s 			page 25


 796 0070 5A60     		str	r2, [r3, #4]
 411:Generated_Source\PSoC6\pdl\rtos\FreeRTOS\10.0.1\Source\portable\MemMang/heap_4.c **** 			pxBlockToInsert->pxNextFreeBlock = pxIterator->pxNextFreeBlock->pxNextFreeBlock;
 797              		.loc 1 411 0
 798 0072 FB68     		ldr	r3, [r7, #12]
 799 0074 1B68     		ldr	r3, [r3]
 800 0076 1A68     		ldr	r2, [r3]
 801 0078 7B68     		ldr	r3, [r7, #4]
 802 007a 1A60     		str	r2, [r3]
 803 007c 08E0     		b	.L47
 804              	.L45:
 412:Generated_Source\PSoC6\pdl\rtos\FreeRTOS\10.0.1\Source\portable\MemMang/heap_4.c **** 		}
 413:Generated_Source\PSoC6\pdl\rtos\FreeRTOS\10.0.1\Source\portable\MemMang/heap_4.c **** 		else
 414:Generated_Source\PSoC6\pdl\rtos\FreeRTOS\10.0.1\Source\portable\MemMang/heap_4.c **** 		{
 415:Generated_Source\PSoC6\pdl\rtos\FreeRTOS\10.0.1\Source\portable\MemMang/heap_4.c **** 			pxBlockToInsert->pxNextFreeBlock = pxEnd;
 805              		.loc 1 415 0
 806 007e 0C4B     		ldr	r3, .L50+4
 807 0080 1A68     		ldr	r2, [r3]
 808 0082 7B68     		ldr	r3, [r7, #4]
 809 0084 1A60     		str	r2, [r3]
 810 0086 03E0     		b	.L47
 811              	.L44:
 416:Generated_Source\PSoC6\pdl\rtos\FreeRTOS\10.0.1\Source\portable\MemMang/heap_4.c **** 		}
 417:Generated_Source\PSoC6\pdl\rtos\FreeRTOS\10.0.1\Source\portable\MemMang/heap_4.c **** 	}
 418:Generated_Source\PSoC6\pdl\rtos\FreeRTOS\10.0.1\Source\portable\MemMang/heap_4.c **** 	else
 419:Generated_Source\PSoC6\pdl\rtos\FreeRTOS\10.0.1\Source\portable\MemMang/heap_4.c **** 	{
 420:Generated_Source\PSoC6\pdl\rtos\FreeRTOS\10.0.1\Source\portable\MemMang/heap_4.c **** 		pxBlockToInsert->pxNextFreeBlock = pxIterator->pxNextFreeBlock;
 812              		.loc 1 420 0
 813 0088 FB68     		ldr	r3, [r7, #12]
 814 008a 1A68     		ldr	r2, [r3]
 815 008c 7B68     		ldr	r3, [r7, #4]
 816 008e 1A60     		str	r2, [r3]
 817              	.L47:
 421:Generated_Source\PSoC6\pdl\rtos\FreeRTOS\10.0.1\Source\portable\MemMang/heap_4.c **** 	}
 422:Generated_Source\PSoC6\pdl\rtos\FreeRTOS\10.0.1\Source\portable\MemMang/heap_4.c **** 
 423:Generated_Source\PSoC6\pdl\rtos\FreeRTOS\10.0.1\Source\portable\MemMang/heap_4.c **** 	/* If the block being inserted plugged a gab, so was merged with the block
 424:Generated_Source\PSoC6\pdl\rtos\FreeRTOS\10.0.1\Source\portable\MemMang/heap_4.c **** 	before and the block after, then it's pxNextFreeBlock pointer will have
 425:Generated_Source\PSoC6\pdl\rtos\FreeRTOS\10.0.1\Source\portable\MemMang/heap_4.c **** 	already been set, and should not be set here as that would make it point
 426:Generated_Source\PSoC6\pdl\rtos\FreeRTOS\10.0.1\Source\portable\MemMang/heap_4.c **** 	to itself. */
 427:Generated_Source\PSoC6\pdl\rtos\FreeRTOS\10.0.1\Source\portable\MemMang/heap_4.c **** 	if( pxIterator != pxBlockToInsert )
 818              		.loc 1 427 0
 819 0090 FA68     		ldr	r2, [r7, #12]
 820 0092 7B68     		ldr	r3, [r7, #4]
 821 0094 9A42     		cmp	r2, r3
 822 0096 02D0     		beq	.L49
 428:Generated_Source\PSoC6\pdl\rtos\FreeRTOS\10.0.1\Source\portable\MemMang/heap_4.c **** 	{
 429:Generated_Source\PSoC6\pdl\rtos\FreeRTOS\10.0.1\Source\portable\MemMang/heap_4.c **** 		pxIterator->pxNextFreeBlock = pxBlockToInsert;
 823              		.loc 1 429 0
 824 0098 FB68     		ldr	r3, [r7, #12]
 825 009a 7A68     		ldr	r2, [r7, #4]
 826 009c 1A60     		str	r2, [r3]
 827              	.L49:
 430:Generated_Source\PSoC6\pdl\rtos\FreeRTOS\10.0.1\Source\portable\MemMang/heap_4.c **** 	}
 431:Generated_Source\PSoC6\pdl\rtos\FreeRTOS\10.0.1\Source\portable\MemMang/heap_4.c **** 	else
 432:Generated_Source\PSoC6\pdl\rtos\FreeRTOS\10.0.1\Source\portable\MemMang/heap_4.c **** 	{
 433:Generated_Source\PSoC6\pdl\rtos\FreeRTOS\10.0.1\Source\portable\MemMang/heap_4.c **** 		mtCOVERAGE_TEST_MARKER();
 434:Generated_Source\PSoC6\pdl\rtos\FreeRTOS\10.0.1\Source\portable\MemMang/heap_4.c **** 	}
 435:Generated_Source\PSoC6\pdl\rtos\FreeRTOS\10.0.1\Source\portable\MemMang/heap_4.c **** }
ARM GAS  C:\Users\jingyiwu\AppData\Local\Temp\ccuFUITf.s 			page 26


 828              		.loc 1 435 0
 829 009e 00BF     		nop
 830 00a0 1437     		adds	r7, r7, #20
 831              		.cfi_def_cfa_offset 4
 832 00a2 BD46     		mov	sp, r7
 833              		.cfi_def_cfa_register 13
 834              		@ sp needed
 835 00a4 5DF8047B 		ldr	r7, [sp], #4
 836              		.cfi_restore 7
 837              		.cfi_def_cfa_offset 0
 838 00a8 7047     		bx	lr
 839              	.L51:
 840 00aa 00BF     		.align	2
 841              	.L50:
 842 00ac 00280000 		.word	xStart
 843 00b0 08280000 		.word	pxEnd
 844              		.cfi_endproc
 845              	.LFE142:
 846              		.size	prvInsertBlockIntoFreeList, .-prvInsertBlockIntoFreeList
 847              		.text
 848              	.Letext0:
 849              		.file 3 "c:\\program files (x86)\\cypress\\psoc creator\\4.4\\psoc creator\\import\\gnu\\arm\\5.4.
 850              		.file 4 "c:\\program files (x86)\\cypress\\psoc creator\\4.4\\psoc creator\\import\\gnu\\arm\\5.4.
 851              		.file 5 "c:\\program files (x86)\\cypress\\psoc creator\\4.4\\psoc creator\\import\\gnu\\arm\\5.4.
 852              		.file 6 "Generated_Source\\PSoC6\\pdl\\cmsis/include/core_cm4.h"