ARM GAS  C:\Users\49148\AppData\Local\Temp\ccVXiEAG.s 			page 1


   1              		.syntax unified
   2              		.cpu cortex-m4
   3              		.eabi_attribute 27, 1
   4              		.fpu fpv4-sp-d16
   5              		.eabi_attribute 20, 1
   6              		.eabi_attribute 21, 1
   7              		.eabi_attribute 23, 3
   8              		.eabi_attribute 24, 1
   9              		.eabi_attribute 25, 1
  10              		.eabi_attribute 26, 1
  11              		.eabi_attribute 30, 6
  12              		.eabi_attribute 34, 1
  13              		.eabi_attribute 18, 4
  14              		.thumb
  15              		.syntax unified
  16              		.file	"oled_driver.c"
  17              		.text
  18              	.Ltext0:
  19              		.cfi_sections	.debug_frame
  20              		.section	.text.I2C_BUS_MasterSendStart,"ax",%progbits
  21              		.align	2
  22              		.thumb
  23              		.thumb_func
  24              		.type	I2C_BUS_MasterSendStart, %function
  25              	I2C_BUS_MasterSendStart:
  26              	.LFB538:
  27              		.file 1 "Generated_Source\\PSoC6/I2C_BUS.h"
   1:Generated_Source\PSoC6/I2C_BUS.h **** /***************************************************************************//**
   2:Generated_Source\PSoC6/I2C_BUS.h **** * \file I2C_BUS.c
   3:Generated_Source\PSoC6/I2C_BUS.h **** * \version 2.0
   4:Generated_Source\PSoC6/I2C_BUS.h **** *
   5:Generated_Source\PSoC6/I2C_BUS.h **** *  This file provides constants and parameter values for the I2C component.
   6:Generated_Source\PSoC6/I2C_BUS.h **** *
   7:Generated_Source\PSoC6/I2C_BUS.h **** ********************************************************************************
   8:Generated_Source\PSoC6/I2C_BUS.h **** * \copyright
   9:Generated_Source\PSoC6/I2C_BUS.h **** * Copyright 2016-2017, Cypress Semiconductor Corporation. All rights reserved.
  10:Generated_Source\PSoC6/I2C_BUS.h **** * You may use this file only in accordance with the license, terms, conditions,
  11:Generated_Source\PSoC6/I2C_BUS.h **** * disclaimers, and limitations in the end user license agreement accompanying
  12:Generated_Source\PSoC6/I2C_BUS.h **** * the software package with which this file was provided.
  13:Generated_Source\PSoC6/I2C_BUS.h **** *******************************************************************************/
  14:Generated_Source\PSoC6/I2C_BUS.h **** 
  15:Generated_Source\PSoC6/I2C_BUS.h **** #if !defined(I2C_BUS_CY_SCB_I2C_PDL_H)
  16:Generated_Source\PSoC6/I2C_BUS.h **** #define I2C_BUS_CY_SCB_I2C_PDL_H
  17:Generated_Source\PSoC6/I2C_BUS.h **** 
  18:Generated_Source\PSoC6/I2C_BUS.h **** #include "cyfitter.h"
  19:Generated_Source\PSoC6/I2C_BUS.h **** #include "scb/cy_scb_i2c.h"
  20:Generated_Source\PSoC6/I2C_BUS.h **** 
  21:Generated_Source\PSoC6/I2C_BUS.h **** #if defined(__cplusplus)
  22:Generated_Source\PSoC6/I2C_BUS.h **** extern "C" {
  23:Generated_Source\PSoC6/I2C_BUS.h **** #endif
  24:Generated_Source\PSoC6/I2C_BUS.h **** 
  25:Generated_Source\PSoC6/I2C_BUS.h **** /***************************************
  26:Generated_Source\PSoC6/I2C_BUS.h **** *   Initial Parameter Constants
  27:Generated_Source\PSoC6/I2C_BUS.h **** ****************************************/
  28:Generated_Source\PSoC6/I2C_BUS.h **** 
  29:Generated_Source\PSoC6/I2C_BUS.h **** #define I2C_BUS_MODE               (0x2U)
  30:Generated_Source\PSoC6/I2C_BUS.h **** #define I2C_BUS_MODE_SLAVE_MASK    (0x1U)
ARM GAS  C:\Users\49148\AppData\Local\Temp\ccVXiEAG.s 			page 2


  31:Generated_Source\PSoC6/I2C_BUS.h **** #define I2C_BUS_MODE_MASTER_MASK   (0x2U)
  32:Generated_Source\PSoC6/I2C_BUS.h **** 
  33:Generated_Source\PSoC6/I2C_BUS.h **** #define I2C_BUS_ENABLE_SLAVE       (0UL != (I2C_BUS_MODE & I2C_BUS_MODE_SLAVE_MASK))
  34:Generated_Source\PSoC6/I2C_BUS.h **** #define I2C_BUS_ENABLE_MASTER      (0UL != (I2C_BUS_MODE & I2C_BUS_MODE_MASTER_MASK))
  35:Generated_Source\PSoC6/I2C_BUS.h **** #define I2C_BUS_MANUAL_SCL_CONTROL (0U)
  36:Generated_Source\PSoC6/I2C_BUS.h **** 
  37:Generated_Source\PSoC6/I2C_BUS.h **** 
  38:Generated_Source\PSoC6/I2C_BUS.h **** /***************************************
  39:Generated_Source\PSoC6/I2C_BUS.h **** *        Function Prototypes
  40:Generated_Source\PSoC6/I2C_BUS.h **** ***************************************/
  41:Generated_Source\PSoC6/I2C_BUS.h **** /**
  42:Generated_Source\PSoC6/I2C_BUS.h **** * \addtogroup group_general
  43:Generated_Source\PSoC6/I2C_BUS.h **** * @{
  44:Generated_Source\PSoC6/I2C_BUS.h **** */
  45:Generated_Source\PSoC6/I2C_BUS.h **** /* Component only APIs. */
  46:Generated_Source\PSoC6/I2C_BUS.h **** void I2C_BUS_Start(void);
  47:Generated_Source\PSoC6/I2C_BUS.h **** 
  48:Generated_Source\PSoC6/I2C_BUS.h **** /* Basic functions. */
  49:Generated_Source\PSoC6/I2C_BUS.h **** __STATIC_INLINE cy_en_scb_i2c_status_t I2C_BUS_Init(cy_stc_scb_i2c_config_t const *config);
  50:Generated_Source\PSoC6/I2C_BUS.h **** __STATIC_INLINE void I2C_BUS_DeInit (void);
  51:Generated_Source\PSoC6/I2C_BUS.h **** __STATIC_INLINE void I2C_BUS_Enable (void);
  52:Generated_Source\PSoC6/I2C_BUS.h **** __STATIC_INLINE void I2C_BUS_Disable(void);
  53:Generated_Source\PSoC6/I2C_BUS.h **** 
  54:Generated_Source\PSoC6/I2C_BUS.h **** /* Data rate configuration functions. */
  55:Generated_Source\PSoC6/I2C_BUS.h **** __STATIC_INLINE uint32_t I2C_BUS_SetDataRate(uint32_t dataRateHz, uint32_t scbClockHz);
  56:Generated_Source\PSoC6/I2C_BUS.h **** __STATIC_INLINE uint32_t I2C_BUS_GetDataRate(uint32_t scbClockHz);
  57:Generated_Source\PSoC6/I2C_BUS.h **** 
  58:Generated_Source\PSoC6/I2C_BUS.h **** /* Register callbacks. */
  59:Generated_Source\PSoC6/I2C_BUS.h **** __STATIC_INLINE void I2C_BUS_RegisterEventCallback(cy_cb_scb_i2c_handle_events_t callback);
  60:Generated_Source\PSoC6/I2C_BUS.h **** #if (I2C_BUS_ENABLE_SLAVE)
  61:Generated_Source\PSoC6/I2C_BUS.h **** __STATIC_INLINE void I2C_BUS_RegisterAddrCallback (cy_cb_scb_i2c_handle_addr_t callback);
  62:Generated_Source\PSoC6/I2C_BUS.h **** #endif /* (I2C_BUS_ENABLE_SLAVE) */
  63:Generated_Source\PSoC6/I2C_BUS.h **** 
  64:Generated_Source\PSoC6/I2C_BUS.h **** /* Configuration functions. */
  65:Generated_Source\PSoC6/I2C_BUS.h **** #if (I2C_BUS_ENABLE_SLAVE)
  66:Generated_Source\PSoC6/I2C_BUS.h **** __STATIC_INLINE void     I2C_BUS_SlaveSetAddress(uint8_t addr);
  67:Generated_Source\PSoC6/I2C_BUS.h **** __STATIC_INLINE uint32_t I2C_BUS_SlaveGetAddress(void);
  68:Generated_Source\PSoC6/I2C_BUS.h **** __STATIC_INLINE void     I2C_BUS_SlaveSetAddressMask(uint8_t addrMask);
  69:Generated_Source\PSoC6/I2C_BUS.h **** __STATIC_INLINE uint32_t I2C_BUS_SlaveGetAddressMask(void);
  70:Generated_Source\PSoC6/I2C_BUS.h **** #endif /* (I2C_BUS_ENABLE_SLAVE) */
  71:Generated_Source\PSoC6/I2C_BUS.h **** 
  72:Generated_Source\PSoC6/I2C_BUS.h **** #if (I2C_BUS_ENABLE_MASTER)
  73:Generated_Source\PSoC6/I2C_BUS.h **** __STATIC_INLINE void I2C_BUS_MasterSetLowPhaseDutyCycle (uint32_t clockCycles);
  74:Generated_Source\PSoC6/I2C_BUS.h **** __STATIC_INLINE void I2C_BUS_MasterSetHighPhaseDutyCycle(uint32_t clockCycles);
  75:Generated_Source\PSoC6/I2C_BUS.h **** #endif /* (I2C_BUS_ENABLE_MASTER) */
  76:Generated_Source\PSoC6/I2C_BUS.h **** 
  77:Generated_Source\PSoC6/I2C_BUS.h **** /* Bus status. */
  78:Generated_Source\PSoC6/I2C_BUS.h **** __STATIC_INLINE bool     I2C_BUS_IsBusBusy(void);
  79:Generated_Source\PSoC6/I2C_BUS.h **** 
  80:Generated_Source\PSoC6/I2C_BUS.h **** /* Slave functions. */
  81:Generated_Source\PSoC6/I2C_BUS.h **** #if (I2C_BUS_ENABLE_SLAVE)
  82:Generated_Source\PSoC6/I2C_BUS.h **** __STATIC_INLINE uint32_t I2C_BUS_SlaveGetStatus(void);
  83:Generated_Source\PSoC6/I2C_BUS.h **** 
  84:Generated_Source\PSoC6/I2C_BUS.h **** __STATIC_INLINE void     I2C_BUS_SlaveConfigReadBuf(uint8_t *buffer, uint32_t size);
  85:Generated_Source\PSoC6/I2C_BUS.h **** __STATIC_INLINE void     I2C_BUS_SlaveAbortRead(void);
  86:Generated_Source\PSoC6/I2C_BUS.h **** __STATIC_INLINE uint32_t I2C_BUS_SlaveGetReadTransferCount(void);
  87:Generated_Source\PSoC6/I2C_BUS.h **** __STATIC_INLINE uint32_t I2C_BUS_SlaveClearReadStatus(void);
ARM GAS  C:\Users\49148\AppData\Local\Temp\ccVXiEAG.s 			page 3


  88:Generated_Source\PSoC6/I2C_BUS.h **** 
  89:Generated_Source\PSoC6/I2C_BUS.h **** __STATIC_INLINE void     I2C_BUS_SlaveConfigWriteBuf(uint8_t *buffer, uint32_t size);
  90:Generated_Source\PSoC6/I2C_BUS.h **** __STATIC_INLINE void     I2C_BUS_SlaveAbortWrite(void);
  91:Generated_Source\PSoC6/I2C_BUS.h **** __STATIC_INLINE uint32_t I2C_BUS_SlaveGetWriteTransferCount(void);
  92:Generated_Source\PSoC6/I2C_BUS.h **** __STATIC_INLINE uint32_t I2C_BUS_SlaveClearWriteStatus(void);
  93:Generated_Source\PSoC6/I2C_BUS.h **** #endif /* (I2C_BUS_ENABLE_SLAVE) */
  94:Generated_Source\PSoC6/I2C_BUS.h **** 
  95:Generated_Source\PSoC6/I2C_BUS.h **** /* Master interrupt processing functions. */
  96:Generated_Source\PSoC6/I2C_BUS.h **** #if (I2C_BUS_ENABLE_MASTER)
  97:Generated_Source\PSoC6/I2C_BUS.h **** __STATIC_INLINE uint32_t I2C_BUS_MasterGetStatus(void);
  98:Generated_Source\PSoC6/I2C_BUS.h **** 
  99:Generated_Source\PSoC6/I2C_BUS.h **** __STATIC_INLINE cy_en_scb_i2c_status_t I2C_BUS_MasterRead(cy_stc_scb_i2c_master_xfer_config_t *xfer
 100:Generated_Source\PSoC6/I2C_BUS.h **** __STATIC_INLINE void I2C_BUS_MasterAbortRead(void);
 101:Generated_Source\PSoC6/I2C_BUS.h **** __STATIC_INLINE cy_en_scb_i2c_status_t I2C_BUS_MasterWrite(cy_stc_scb_i2c_master_xfer_config_t *xfe
 102:Generated_Source\PSoC6/I2C_BUS.h **** __STATIC_INLINE void I2C_BUS_MasterAbortWrite(void);
 103:Generated_Source\PSoC6/I2C_BUS.h **** __STATIC_INLINE uint32_t I2C_BUS_MasterGetTransferCount(void);
 104:Generated_Source\PSoC6/I2C_BUS.h **** 
 105:Generated_Source\PSoC6/I2C_BUS.h **** /* Master manual processing functions. */
 106:Generated_Source\PSoC6/I2C_BUS.h **** __STATIC_INLINE cy_en_scb_i2c_status_t I2C_BUS_MasterSendStart(uint32_t address, cy_en_scb_i2c_dire
 107:Generated_Source\PSoC6/I2C_BUS.h **** __STATIC_INLINE cy_en_scb_i2c_status_t I2C_BUS_MasterSendReStart(uint32_t address, cy_en_scb_i2c_di
 108:Generated_Source\PSoC6/I2C_BUS.h **** __STATIC_INLINE cy_en_scb_i2c_status_t I2C_BUS_MasterSendStop(uint32_t timeoutMs);
 109:Generated_Source\PSoC6/I2C_BUS.h **** __STATIC_INLINE cy_en_scb_i2c_status_t I2C_BUS_MasterReadByte(cy_en_scb_i2c_command_t ackNack, uint
 110:Generated_Source\PSoC6/I2C_BUS.h **** __STATIC_INLINE cy_en_scb_i2c_status_t I2C_BUS_MasterWriteByte(uint8_t byte, uint32_t timeoutMs);
 111:Generated_Source\PSoC6/I2C_BUS.h **** #endif /* (I2C_BUS_ENABLE_MASTER) */
 112:Generated_Source\PSoC6/I2C_BUS.h **** 
 113:Generated_Source\PSoC6/I2C_BUS.h **** /* Interrupt handler. */
 114:Generated_Source\PSoC6/I2C_BUS.h **** __STATIC_INLINE void I2C_BUS_Interrupt(void);
 115:Generated_Source\PSoC6/I2C_BUS.h **** /** @} group_general */
 116:Generated_Source\PSoC6/I2C_BUS.h **** 
 117:Generated_Source\PSoC6/I2C_BUS.h **** 
 118:Generated_Source\PSoC6/I2C_BUS.h **** /***************************************
 119:Generated_Source\PSoC6/I2C_BUS.h **** *    Variables with External Linkage
 120:Generated_Source\PSoC6/I2C_BUS.h **** ***************************************/
 121:Generated_Source\PSoC6/I2C_BUS.h **** /**
 122:Generated_Source\PSoC6/I2C_BUS.h **** * \addtogroup group_globals
 123:Generated_Source\PSoC6/I2C_BUS.h **** * @{
 124:Generated_Source\PSoC6/I2C_BUS.h **** */
 125:Generated_Source\PSoC6/I2C_BUS.h **** extern uint8_t I2C_BUS_initVar;
 126:Generated_Source\PSoC6/I2C_BUS.h **** extern cy_stc_scb_i2c_config_t const I2C_BUS_config;
 127:Generated_Source\PSoC6/I2C_BUS.h **** extern cy_stc_scb_i2c_context_t I2C_BUS_context;
 128:Generated_Source\PSoC6/I2C_BUS.h **** /** @} group_globals */
 129:Generated_Source\PSoC6/I2C_BUS.h **** 
 130:Generated_Source\PSoC6/I2C_BUS.h **** 
 131:Generated_Source\PSoC6/I2C_BUS.h **** /***************************************
 132:Generated_Source\PSoC6/I2C_BUS.h **** *         Preprocessor Macros
 133:Generated_Source\PSoC6/I2C_BUS.h **** ***************************************/
 134:Generated_Source\PSoC6/I2C_BUS.h **** /**
 135:Generated_Source\PSoC6/I2C_BUS.h **** * \addtogroup group_macros
 136:Generated_Source\PSoC6/I2C_BUS.h **** * @{
 137:Generated_Source\PSoC6/I2C_BUS.h **** */
 138:Generated_Source\PSoC6/I2C_BUS.h **** /** The pointer to the base address of the SCB instance */
 139:Generated_Source\PSoC6/I2C_BUS.h **** #define I2C_BUS_HW     ((CySCB_Type *) I2C_BUS_SCB__HW)
 140:Generated_Source\PSoC6/I2C_BUS.h **** 
 141:Generated_Source\PSoC6/I2C_BUS.h **** /** The desired data rate in Hz */
 142:Generated_Source\PSoC6/I2C_BUS.h **** #define I2C_BUS_DATA_RATE_HZ      (100000U)
 143:Generated_Source\PSoC6/I2C_BUS.h **** 
 144:Generated_Source\PSoC6/I2C_BUS.h **** /** The frequency of the clock used by the Component in Hz */
ARM GAS  C:\Users\49148\AppData\Local\Temp\ccVXiEAG.s 			page 4


 145:Generated_Source\PSoC6/I2C_BUS.h **** #define I2C_BUS_CLK_FREQ_HZ       (1562500U)
 146:Generated_Source\PSoC6/I2C_BUS.h **** 
 147:Generated_Source\PSoC6/I2C_BUS.h **** /** The number of Component clocks used by the master to generate the SCL
 148:Generated_Source\PSoC6/I2C_BUS.h **** * low phase. This number is calculated by GUI based on the selected data rate.
 149:Generated_Source\PSoC6/I2C_BUS.h **** */
 150:Generated_Source\PSoC6/I2C_BUS.h **** #define I2C_BUS_LOW_PHASE_DUTY_CYCLE   (8U)
 151:Generated_Source\PSoC6/I2C_BUS.h **** 
 152:Generated_Source\PSoC6/I2C_BUS.h **** /** The number of Component clocks used by the master to generate the SCL
 153:Generated_Source\PSoC6/I2C_BUS.h **** * high phase. This number is calculated by GUI based on the selected data rate.
 154:Generated_Source\PSoC6/I2C_BUS.h **** */
 155:Generated_Source\PSoC6/I2C_BUS.h **** #define I2C_BUS_HIGH_PHASE_DUTY_CYCLE  (8U)
 156:Generated_Source\PSoC6/I2C_BUS.h **** /** @} group_macros */
 157:Generated_Source\PSoC6/I2C_BUS.h **** 
 158:Generated_Source\PSoC6/I2C_BUS.h **** 
 159:Generated_Source\PSoC6/I2C_BUS.h **** /***************************************
 160:Generated_Source\PSoC6/I2C_BUS.h **** *    In-line Function Implementation
 161:Generated_Source\PSoC6/I2C_BUS.h **** ***************************************/
 162:Generated_Source\PSoC6/I2C_BUS.h **** 
 163:Generated_Source\PSoC6/I2C_BUS.h **** /*******************************************************************************
 164:Generated_Source\PSoC6/I2C_BUS.h **** * Function Name: I2C_BUS_Init
 165:Generated_Source\PSoC6/I2C_BUS.h **** ****************************************************************************//**
 166:Generated_Source\PSoC6/I2C_BUS.h **** *
 167:Generated_Source\PSoC6/I2C_BUS.h **** * Invokes the Cy_SCB_I2C_Init() PDL driver function.
 168:Generated_Source\PSoC6/I2C_BUS.h **** *
 169:Generated_Source\PSoC6/I2C_BUS.h **** *******************************************************************************/
 170:Generated_Source\PSoC6/I2C_BUS.h **** __STATIC_INLINE cy_en_scb_i2c_status_t I2C_BUS_Init(cy_stc_scb_i2c_config_t const *config)
 171:Generated_Source\PSoC6/I2C_BUS.h **** {
 172:Generated_Source\PSoC6/I2C_BUS.h ****     return Cy_SCB_I2C_Init(I2C_BUS_HW, config, &I2C_BUS_context);
 173:Generated_Source\PSoC6/I2C_BUS.h **** }
 174:Generated_Source\PSoC6/I2C_BUS.h **** 
 175:Generated_Source\PSoC6/I2C_BUS.h **** 
 176:Generated_Source\PSoC6/I2C_BUS.h **** /*******************************************************************************
 177:Generated_Source\PSoC6/I2C_BUS.h **** *  Function Name: I2C_BUS_DeInit
 178:Generated_Source\PSoC6/I2C_BUS.h **** ****************************************************************************//**
 179:Generated_Source\PSoC6/I2C_BUS.h **** *
 180:Generated_Source\PSoC6/I2C_BUS.h **** * Invokes the Cy_SCB_I2C_DeInit() PDL driver function.
 181:Generated_Source\PSoC6/I2C_BUS.h **** *
 182:Generated_Source\PSoC6/I2C_BUS.h **** *******************************************************************************/
 183:Generated_Source\PSoC6/I2C_BUS.h **** __STATIC_INLINE void I2C_BUS_DeInit(void)
 184:Generated_Source\PSoC6/I2C_BUS.h **** {
 185:Generated_Source\PSoC6/I2C_BUS.h ****     Cy_SCB_I2C_DeInit(I2C_BUS_HW);
 186:Generated_Source\PSoC6/I2C_BUS.h **** }
 187:Generated_Source\PSoC6/I2C_BUS.h **** 
 188:Generated_Source\PSoC6/I2C_BUS.h **** 
 189:Generated_Source\PSoC6/I2C_BUS.h **** /*******************************************************************************
 190:Generated_Source\PSoC6/I2C_BUS.h **** * Function Name: I2C_BUS_Enable
 191:Generated_Source\PSoC6/I2C_BUS.h **** ****************************************************************************//**
 192:Generated_Source\PSoC6/I2C_BUS.h **** *
 193:Generated_Source\PSoC6/I2C_BUS.h **** * Invokes the Cy_SCB_I2C_Enable() PDL driver function.
 194:Generated_Source\PSoC6/I2C_BUS.h **** *
 195:Generated_Source\PSoC6/I2C_BUS.h **** *******************************************************************************/
 196:Generated_Source\PSoC6/I2C_BUS.h **** __STATIC_INLINE void I2C_BUS_Enable(void)
 197:Generated_Source\PSoC6/I2C_BUS.h **** {
 198:Generated_Source\PSoC6/I2C_BUS.h ****     Cy_SCB_I2C_Enable(I2C_BUS_HW);
 199:Generated_Source\PSoC6/I2C_BUS.h **** }
 200:Generated_Source\PSoC6/I2C_BUS.h **** 
 201:Generated_Source\PSoC6/I2C_BUS.h **** 
ARM GAS  C:\Users\49148\AppData\Local\Temp\ccVXiEAG.s 			page 5


 202:Generated_Source\PSoC6/I2C_BUS.h **** /*******************************************************************************
 203:Generated_Source\PSoC6/I2C_BUS.h **** * Function Name: I2C_BUS_Disable
 204:Generated_Source\PSoC6/I2C_BUS.h **** ****************************************************************************//**
 205:Generated_Source\PSoC6/I2C_BUS.h **** *
 206:Generated_Source\PSoC6/I2C_BUS.h **** * Invokes the Cy_SCB_I2C_Disable() PDL driver function.
 207:Generated_Source\PSoC6/I2C_BUS.h **** *
 208:Generated_Source\PSoC6/I2C_BUS.h **** *******************************************************************************/
 209:Generated_Source\PSoC6/I2C_BUS.h **** __STATIC_INLINE void I2C_BUS_Disable(void)
 210:Generated_Source\PSoC6/I2C_BUS.h **** {
 211:Generated_Source\PSoC6/I2C_BUS.h ****     Cy_SCB_I2C_Disable(I2C_BUS_HW, &I2C_BUS_context);
 212:Generated_Source\PSoC6/I2C_BUS.h **** }
 213:Generated_Source\PSoC6/I2C_BUS.h **** 
 214:Generated_Source\PSoC6/I2C_BUS.h **** 
 215:Generated_Source\PSoC6/I2C_BUS.h **** /*******************************************************************************
 216:Generated_Source\PSoC6/I2C_BUS.h **** * Function Name: I2C_BUS_SetDataRate
 217:Generated_Source\PSoC6/I2C_BUS.h **** ****************************************************************************//**
 218:Generated_Source\PSoC6/I2C_BUS.h **** *
 219:Generated_Source\PSoC6/I2C_BUS.h **** * Invokes the Cy_SCB_I2C_SetDataRate() PDL driver function.
 220:Generated_Source\PSoC6/I2C_BUS.h **** *
 221:Generated_Source\PSoC6/I2C_BUS.h **** *******************************************************************************/
 222:Generated_Source\PSoC6/I2C_BUS.h **** __STATIC_INLINE uint32_t I2C_BUS_SetDataRate(uint32_t dataRateHz, uint32_t scbClockHz)
 223:Generated_Source\PSoC6/I2C_BUS.h **** {
 224:Generated_Source\PSoC6/I2C_BUS.h ****     return Cy_SCB_I2C_SetDataRate(I2C_BUS_HW, dataRateHz, scbClockHz);
 225:Generated_Source\PSoC6/I2C_BUS.h **** }
 226:Generated_Source\PSoC6/I2C_BUS.h **** 
 227:Generated_Source\PSoC6/I2C_BUS.h **** 
 228:Generated_Source\PSoC6/I2C_BUS.h **** /*******************************************************************************
 229:Generated_Source\PSoC6/I2C_BUS.h **** * Function Name: I2C_BUS_GetDataRate
 230:Generated_Source\PSoC6/I2C_BUS.h **** ****************************************************************************//**
 231:Generated_Source\PSoC6/I2C_BUS.h **** *
 232:Generated_Source\PSoC6/I2C_BUS.h **** * Invokes the Cy_SCB_I2C_GetDataRate() PDL driver function.
 233:Generated_Source\PSoC6/I2C_BUS.h **** *
 234:Generated_Source\PSoC6/I2C_BUS.h **** *******************************************************************************/
 235:Generated_Source\PSoC6/I2C_BUS.h **** __STATIC_INLINE uint32_t I2C_BUS_GetDataRate(uint32_t scbClockHz)
 236:Generated_Source\PSoC6/I2C_BUS.h **** {
 237:Generated_Source\PSoC6/I2C_BUS.h ****     return Cy_SCB_I2C_GetDataRate(I2C_BUS_HW, scbClockHz);
 238:Generated_Source\PSoC6/I2C_BUS.h **** }
 239:Generated_Source\PSoC6/I2C_BUS.h **** 
 240:Generated_Source\PSoC6/I2C_BUS.h **** 
 241:Generated_Source\PSoC6/I2C_BUS.h **** /*******************************************************************************
 242:Generated_Source\PSoC6/I2C_BUS.h **** * Function Name: I2C_BUS_RegisterEventCallback
 243:Generated_Source\PSoC6/I2C_BUS.h **** ****************************************************************************//**
 244:Generated_Source\PSoC6/I2C_BUS.h **** *
 245:Generated_Source\PSoC6/I2C_BUS.h **** * Invokes the Cy_SCB_I2C_RegisterEventCallback() PDL driver function.
 246:Generated_Source\PSoC6/I2C_BUS.h **** *
 247:Generated_Source\PSoC6/I2C_BUS.h **** *******************************************************************************/
 248:Generated_Source\PSoC6/I2C_BUS.h **** __STATIC_INLINE void I2C_BUS_RegisterEventCallback(cy_cb_scb_i2c_handle_events_t callback)
 249:Generated_Source\PSoC6/I2C_BUS.h **** {
 250:Generated_Source\PSoC6/I2C_BUS.h ****     Cy_SCB_I2C_RegisterEventCallback(I2C_BUS_HW, callback, &I2C_BUS_context);
 251:Generated_Source\PSoC6/I2C_BUS.h **** }
 252:Generated_Source\PSoC6/I2C_BUS.h **** 
 253:Generated_Source\PSoC6/I2C_BUS.h **** 
 254:Generated_Source\PSoC6/I2C_BUS.h **** #if (I2C_BUS_ENABLE_SLAVE)
 255:Generated_Source\PSoC6/I2C_BUS.h **** /*******************************************************************************
 256:Generated_Source\PSoC6/I2C_BUS.h **** * Function Name: I2C_BUS_RegisterAddrCallback
 257:Generated_Source\PSoC6/I2C_BUS.h **** ****************************************************************************//**
 258:Generated_Source\PSoC6/I2C_BUS.h **** *
ARM GAS  C:\Users\49148\AppData\Local\Temp\ccVXiEAG.s 			page 6


 259:Generated_Source\PSoC6/I2C_BUS.h **** * Invokes the Cy_SCB_I2C_RegisterAddrCallback() PDL driver function.
 260:Generated_Source\PSoC6/I2C_BUS.h **** *
 261:Generated_Source\PSoC6/I2C_BUS.h **** *******************************************************************************/
 262:Generated_Source\PSoC6/I2C_BUS.h **** __STATIC_INLINE void I2C_BUS_RegisterAddrCallback(cy_cb_scb_i2c_handle_addr_t callback)
 263:Generated_Source\PSoC6/I2C_BUS.h **** {
 264:Generated_Source\PSoC6/I2C_BUS.h ****     Cy_SCB_I2C_RegisterAddrCallback(I2C_BUS_HW, callback, &I2C_BUS_context);
 265:Generated_Source\PSoC6/I2C_BUS.h **** }
 266:Generated_Source\PSoC6/I2C_BUS.h **** #endif /* (I2C_BUS_ENABLE_SLAVE) */
 267:Generated_Source\PSoC6/I2C_BUS.h **** 
 268:Generated_Source\PSoC6/I2C_BUS.h **** 
 269:Generated_Source\PSoC6/I2C_BUS.h **** /*******************************************************************************
 270:Generated_Source\PSoC6/I2C_BUS.h **** * Function Name: I2C_BUS_IsBusBusy
 271:Generated_Source\PSoC6/I2C_BUS.h **** ****************************************************************************//**
 272:Generated_Source\PSoC6/I2C_BUS.h **** *
 273:Generated_Source\PSoC6/I2C_BUS.h **** * Invokes the Cy_SCB_I2C_IsBusBusy() PDL driver function.
 274:Generated_Source\PSoC6/I2C_BUS.h **** *
 275:Generated_Source\PSoC6/I2C_BUS.h **** *******************************************************************************/
 276:Generated_Source\PSoC6/I2C_BUS.h **** __STATIC_INLINE bool I2C_BUS_IsBusBusy(void)
 277:Generated_Source\PSoC6/I2C_BUS.h **** {
 278:Generated_Source\PSoC6/I2C_BUS.h ****     return Cy_SCB_I2C_IsBusBusy(I2C_BUS_HW);
 279:Generated_Source\PSoC6/I2C_BUS.h **** }
 280:Generated_Source\PSoC6/I2C_BUS.h **** 
 281:Generated_Source\PSoC6/I2C_BUS.h **** 
 282:Generated_Source\PSoC6/I2C_BUS.h **** #if (I2C_BUS_ENABLE_SLAVE)
 283:Generated_Source\PSoC6/I2C_BUS.h **** /*******************************************************************************
 284:Generated_Source\PSoC6/I2C_BUS.h **** * Function Name: I2C_BUS_SlaveSetAddress
 285:Generated_Source\PSoC6/I2C_BUS.h **** ****************************************************************************//**
 286:Generated_Source\PSoC6/I2C_BUS.h **** *
 287:Generated_Source\PSoC6/I2C_BUS.h **** * Invokes the Cy_SCB_I2C_SlaveGetAddress() PDL driver function.
 288:Generated_Source\PSoC6/I2C_BUS.h **** *
 289:Generated_Source\PSoC6/I2C_BUS.h **** *******************************************************************************/
 290:Generated_Source\PSoC6/I2C_BUS.h **** __STATIC_INLINE void I2C_BUS_SlaveSetAddress(uint8_t addr)
 291:Generated_Source\PSoC6/I2C_BUS.h **** {
 292:Generated_Source\PSoC6/I2C_BUS.h ****     Cy_SCB_I2C_SlaveSetAddress(I2C_BUS_HW, addr);
 293:Generated_Source\PSoC6/I2C_BUS.h **** }
 294:Generated_Source\PSoC6/I2C_BUS.h **** 
 295:Generated_Source\PSoC6/I2C_BUS.h **** 
 296:Generated_Source\PSoC6/I2C_BUS.h **** /*******************************************************************************
 297:Generated_Source\PSoC6/I2C_BUS.h **** * Function Name: I2C_BUS_SlaveGetAddress
 298:Generated_Source\PSoC6/I2C_BUS.h **** ****************************************************************************//**
 299:Generated_Source\PSoC6/I2C_BUS.h **** *
 300:Generated_Source\PSoC6/I2C_BUS.h **** * Invokes the Cy_SCB_I2C_SlaveGetAddress() PDL driver function.
 301:Generated_Source\PSoC6/I2C_BUS.h **** *
 302:Generated_Source\PSoC6/I2C_BUS.h **** *******************************************************************************/
 303:Generated_Source\PSoC6/I2C_BUS.h **** __STATIC_INLINE uint32_t I2C_BUS_SlaveGetAddress(void)
 304:Generated_Source\PSoC6/I2C_BUS.h **** {
 305:Generated_Source\PSoC6/I2C_BUS.h ****     return Cy_SCB_I2C_SlaveGetAddress(I2C_BUS_HW);
 306:Generated_Source\PSoC6/I2C_BUS.h **** }
 307:Generated_Source\PSoC6/I2C_BUS.h **** 
 308:Generated_Source\PSoC6/I2C_BUS.h **** 
 309:Generated_Source\PSoC6/I2C_BUS.h **** /*******************************************************************************
 310:Generated_Source\PSoC6/I2C_BUS.h **** * Function Name: I2C_BUS_SlaveSetAddressMask
 311:Generated_Source\PSoC6/I2C_BUS.h **** ****************************************************************************//**
 312:Generated_Source\PSoC6/I2C_BUS.h **** *
 313:Generated_Source\PSoC6/I2C_BUS.h **** * Invokes the Cy_SCB_I2C_SlaveSetAddressMask() PDL driver function.
 314:Generated_Source\PSoC6/I2C_BUS.h **** *
 315:Generated_Source\PSoC6/I2C_BUS.h **** *******************************************************************************/
ARM GAS  C:\Users\49148\AppData\Local\Temp\ccVXiEAG.s 			page 7


 316:Generated_Source\PSoC6/I2C_BUS.h **** __STATIC_INLINE void I2C_BUS_SlaveSetAddressMask(uint8_t addrMask)
 317:Generated_Source\PSoC6/I2C_BUS.h **** {
 318:Generated_Source\PSoC6/I2C_BUS.h ****     Cy_SCB_I2C_SlaveSetAddressMask(I2C_BUS_HW, addrMask);
 319:Generated_Source\PSoC6/I2C_BUS.h **** }
 320:Generated_Source\PSoC6/I2C_BUS.h **** 
 321:Generated_Source\PSoC6/I2C_BUS.h **** 
 322:Generated_Source\PSoC6/I2C_BUS.h **** /*******************************************************************************
 323:Generated_Source\PSoC6/I2C_BUS.h **** * Function Name: I2C_BUS_SlaveGetAddressMask
 324:Generated_Source\PSoC6/I2C_BUS.h **** ****************************************************************************//**
 325:Generated_Source\PSoC6/I2C_BUS.h **** *
 326:Generated_Source\PSoC6/I2C_BUS.h **** * Invokes the Cy_SCB_I2C_SlaveGetAddressMask() PDL driver function.
 327:Generated_Source\PSoC6/I2C_BUS.h **** *
 328:Generated_Source\PSoC6/I2C_BUS.h **** *******************************************************************************/
 329:Generated_Source\PSoC6/I2C_BUS.h **** __STATIC_INLINE uint32_t I2C_BUS_SlaveGetAddressMask(void)
 330:Generated_Source\PSoC6/I2C_BUS.h **** {
 331:Generated_Source\PSoC6/I2C_BUS.h ****     return Cy_SCB_I2C_SlaveGetAddressMask(I2C_BUS_HW);
 332:Generated_Source\PSoC6/I2C_BUS.h **** }
 333:Generated_Source\PSoC6/I2C_BUS.h **** #endif /* (I2C_BUS_ENABLE_SLAVE) */
 334:Generated_Source\PSoC6/I2C_BUS.h **** 
 335:Generated_Source\PSoC6/I2C_BUS.h **** #if (I2C_BUS_ENABLE_MASTER)
 336:Generated_Source\PSoC6/I2C_BUS.h **** /*******************************************************************************
 337:Generated_Source\PSoC6/I2C_BUS.h **** * Function Name: I2C_BUS_MasterSetLowPhaseDutyCycle
 338:Generated_Source\PSoC6/I2C_BUS.h **** ****************************************************************************//**
 339:Generated_Source\PSoC6/I2C_BUS.h **** *
 340:Generated_Source\PSoC6/I2C_BUS.h **** * Invokes the Cy_SCB_I2C_MasterSetLowPhaseDutyCycle() PDL driver function.
 341:Generated_Source\PSoC6/I2C_BUS.h **** *
 342:Generated_Source\PSoC6/I2C_BUS.h **** *******************************************************************************/
 343:Generated_Source\PSoC6/I2C_BUS.h **** __STATIC_INLINE void I2C_BUS_MasterSetLowPhaseDutyCycle(uint32_t clockCycles)
 344:Generated_Source\PSoC6/I2C_BUS.h **** {
 345:Generated_Source\PSoC6/I2C_BUS.h ****     Cy_SCB_I2C_MasterSetLowPhaseDutyCycle(I2C_BUS_HW, clockCycles);
 346:Generated_Source\PSoC6/I2C_BUS.h **** }
 347:Generated_Source\PSoC6/I2C_BUS.h **** 
 348:Generated_Source\PSoC6/I2C_BUS.h **** 
 349:Generated_Source\PSoC6/I2C_BUS.h **** /*******************************************************************************
 350:Generated_Source\PSoC6/I2C_BUS.h **** * Function Name: I2C_BUS_MasterSetHighPhaseDutyCycle
 351:Generated_Source\PSoC6/I2C_BUS.h **** ****************************************************************************//**
 352:Generated_Source\PSoC6/I2C_BUS.h **** *
 353:Generated_Source\PSoC6/I2C_BUS.h **** * Invokes the Cy_SCB_I2C_MasterSetHighPhaseDutyCycle() PDL driver function.
 354:Generated_Source\PSoC6/I2C_BUS.h **** *
 355:Generated_Source\PSoC6/I2C_BUS.h **** *******************************************************************************/
 356:Generated_Source\PSoC6/I2C_BUS.h **** __STATIC_INLINE void I2C_BUS_MasterSetHighPhaseDutyCycle(uint32_t clockCycles)
 357:Generated_Source\PSoC6/I2C_BUS.h **** {
 358:Generated_Source\PSoC6/I2C_BUS.h ****     Cy_SCB_I2C_MasterSetHighPhaseDutyCycle(I2C_BUS_HW, clockCycles);
 359:Generated_Source\PSoC6/I2C_BUS.h **** }
 360:Generated_Source\PSoC6/I2C_BUS.h **** #endif /* (I2C_BUS_ENABLE_MASTER) */
 361:Generated_Source\PSoC6/I2C_BUS.h **** 
 362:Generated_Source\PSoC6/I2C_BUS.h **** 
 363:Generated_Source\PSoC6/I2C_BUS.h **** #if (I2C_BUS_ENABLE_SLAVE)
 364:Generated_Source\PSoC6/I2C_BUS.h **** /*******************************************************************************
 365:Generated_Source\PSoC6/I2C_BUS.h **** * Function Name: I2C_BUS_SlaveGetStatus
 366:Generated_Source\PSoC6/I2C_BUS.h **** ****************************************************************************//**
 367:Generated_Source\PSoC6/I2C_BUS.h **** *
 368:Generated_Source\PSoC6/I2C_BUS.h **** * Invokes the Cy_SCB_I2C_SlaveGetStatus() PDL driver function.
 369:Generated_Source\PSoC6/I2C_BUS.h **** *
 370:Generated_Source\PSoC6/I2C_BUS.h **** *******************************************************************************/
 371:Generated_Source\PSoC6/I2C_BUS.h **** __STATIC_INLINE uint32_t I2C_BUS_SlaveGetStatus(void)
 372:Generated_Source\PSoC6/I2C_BUS.h **** {
ARM GAS  C:\Users\49148\AppData\Local\Temp\ccVXiEAG.s 			page 8


 373:Generated_Source\PSoC6/I2C_BUS.h ****     return Cy_SCB_I2C_SlaveGetStatus(I2C_BUS_HW, &I2C_BUS_context);
 374:Generated_Source\PSoC6/I2C_BUS.h **** }
 375:Generated_Source\PSoC6/I2C_BUS.h **** 
 376:Generated_Source\PSoC6/I2C_BUS.h **** 
 377:Generated_Source\PSoC6/I2C_BUS.h **** /*******************************************************************************
 378:Generated_Source\PSoC6/I2C_BUS.h **** * Function Name: I2C_BUS_SlaveConfigReadBuf
 379:Generated_Source\PSoC6/I2C_BUS.h **** ****************************************************************************//**
 380:Generated_Source\PSoC6/I2C_BUS.h **** *
 381:Generated_Source\PSoC6/I2C_BUS.h **** * Invokes the Cy_SCB_I2C_SlaveConfigReadBuf() PDL driver function.
 382:Generated_Source\PSoC6/I2C_BUS.h **** *
 383:Generated_Source\PSoC6/I2C_BUS.h **** *******************************************************************************/
 384:Generated_Source\PSoC6/I2C_BUS.h **** __STATIC_INLINE void I2C_BUS_SlaveConfigReadBuf(uint8_t *buffer, uint32_t size)
 385:Generated_Source\PSoC6/I2C_BUS.h **** {
 386:Generated_Source\PSoC6/I2C_BUS.h ****     Cy_SCB_I2C_SlaveConfigReadBuf(I2C_BUS_HW, buffer, size, &I2C_BUS_context);
 387:Generated_Source\PSoC6/I2C_BUS.h **** }
 388:Generated_Source\PSoC6/I2C_BUS.h **** 
 389:Generated_Source\PSoC6/I2C_BUS.h **** 
 390:Generated_Source\PSoC6/I2C_BUS.h **** /*******************************************************************************
 391:Generated_Source\PSoC6/I2C_BUS.h **** * Function Name: I2C_BUS_SlaveAbortRead
 392:Generated_Source\PSoC6/I2C_BUS.h **** ****************************************************************************//**
 393:Generated_Source\PSoC6/I2C_BUS.h **** *
 394:Generated_Source\PSoC6/I2C_BUS.h **** * Invokes the Cy_SCB_I2C_SlaveAbortRead() PDL driver function.
 395:Generated_Source\PSoC6/I2C_BUS.h **** *
 396:Generated_Source\PSoC6/I2C_BUS.h **** *******************************************************************************/
 397:Generated_Source\PSoC6/I2C_BUS.h **** __STATIC_INLINE void I2C_BUS_SlaveAbortRead(void)
 398:Generated_Source\PSoC6/I2C_BUS.h **** {
 399:Generated_Source\PSoC6/I2C_BUS.h ****     Cy_SCB_I2C_SlaveAbortRead(I2C_BUS_HW, &I2C_BUS_context);
 400:Generated_Source\PSoC6/I2C_BUS.h **** }
 401:Generated_Source\PSoC6/I2C_BUS.h **** 
 402:Generated_Source\PSoC6/I2C_BUS.h **** 
 403:Generated_Source\PSoC6/I2C_BUS.h **** /*******************************************************************************
 404:Generated_Source\PSoC6/I2C_BUS.h **** * Function Name: I2C_BUS_SlaveGetReadTransferCount
 405:Generated_Source\PSoC6/I2C_BUS.h **** ****************************************************************************//**
 406:Generated_Source\PSoC6/I2C_BUS.h **** *
 407:Generated_Source\PSoC6/I2C_BUS.h **** * Invokes the Cy_SCB_I2C_SlaveGetReadTransferCount() PDL driver function.
 408:Generated_Source\PSoC6/I2C_BUS.h **** *
 409:Generated_Source\PSoC6/I2C_BUS.h **** *******************************************************************************/
 410:Generated_Source\PSoC6/I2C_BUS.h **** __STATIC_INLINE uint32_t I2C_BUS_SlaveGetReadTransferCount(void)
 411:Generated_Source\PSoC6/I2C_BUS.h **** {
 412:Generated_Source\PSoC6/I2C_BUS.h ****     return Cy_SCB_I2C_SlaveGetReadTransferCount(I2C_BUS_HW, &I2C_BUS_context);
 413:Generated_Source\PSoC6/I2C_BUS.h **** }
 414:Generated_Source\PSoC6/I2C_BUS.h **** 
 415:Generated_Source\PSoC6/I2C_BUS.h **** 
 416:Generated_Source\PSoC6/I2C_BUS.h **** /*******************************************************************************
 417:Generated_Source\PSoC6/I2C_BUS.h **** * Function Name: I2C_BUS_SlaveClearReadStatus
 418:Generated_Source\PSoC6/I2C_BUS.h **** ****************************************************************************//**
 419:Generated_Source\PSoC6/I2C_BUS.h **** *
 420:Generated_Source\PSoC6/I2C_BUS.h **** * Invokes the Cy_SCB_I2C_SlaveClearReadStatus() PDL driver function.
 421:Generated_Source\PSoC6/I2C_BUS.h **** *
 422:Generated_Source\PSoC6/I2C_BUS.h **** *******************************************************************************/
 423:Generated_Source\PSoC6/I2C_BUS.h **** __STATIC_INLINE uint32_t I2C_BUS_SlaveClearReadStatus(void)
 424:Generated_Source\PSoC6/I2C_BUS.h **** {
 425:Generated_Source\PSoC6/I2C_BUS.h ****     return Cy_SCB_I2C_SlaveClearReadStatus(I2C_BUS_HW, &I2C_BUS_context);
 426:Generated_Source\PSoC6/I2C_BUS.h **** }
 427:Generated_Source\PSoC6/I2C_BUS.h **** 
 428:Generated_Source\PSoC6/I2C_BUS.h **** 
 429:Generated_Source\PSoC6/I2C_BUS.h **** /*******************************************************************************
ARM GAS  C:\Users\49148\AppData\Local\Temp\ccVXiEAG.s 			page 9


 430:Generated_Source\PSoC6/I2C_BUS.h **** * Function Name: I2C_BUS_SlaveConfigWriteBuf
 431:Generated_Source\PSoC6/I2C_BUS.h **** ****************************************************************************//**
 432:Generated_Source\PSoC6/I2C_BUS.h **** *
 433:Generated_Source\PSoC6/I2C_BUS.h **** * Invokes the Cy_SCB_I2C_SlaveConfigWriteBuf() PDL driver function.
 434:Generated_Source\PSoC6/I2C_BUS.h **** *
 435:Generated_Source\PSoC6/I2C_BUS.h **** *******************************************************************************/
 436:Generated_Source\PSoC6/I2C_BUS.h **** __STATIC_INLINE void I2C_BUS_SlaveConfigWriteBuf(uint8_t *buffer, uint32_t size)
 437:Generated_Source\PSoC6/I2C_BUS.h **** {
 438:Generated_Source\PSoC6/I2C_BUS.h ****     Cy_SCB_I2C_SlaveConfigWriteBuf(I2C_BUS_HW, buffer, size, &I2C_BUS_context);
 439:Generated_Source\PSoC6/I2C_BUS.h **** }
 440:Generated_Source\PSoC6/I2C_BUS.h **** 
 441:Generated_Source\PSoC6/I2C_BUS.h **** 
 442:Generated_Source\PSoC6/I2C_BUS.h **** /*******************************************************************************
 443:Generated_Source\PSoC6/I2C_BUS.h **** * Function Name: I2C_BUS_SlaveAbortWrite
 444:Generated_Source\PSoC6/I2C_BUS.h **** ****************************************************************************//**
 445:Generated_Source\PSoC6/I2C_BUS.h **** *
 446:Generated_Source\PSoC6/I2C_BUS.h **** * Invokes the Cy_SCB_I2C_SlaveAbortWrite() PDL driver function.
 447:Generated_Source\PSoC6/I2C_BUS.h **** *
 448:Generated_Source\PSoC6/I2C_BUS.h **** *******************************************************************************/
 449:Generated_Source\PSoC6/I2C_BUS.h **** __STATIC_INLINE void I2C_BUS_SlaveAbortWrite(void)
 450:Generated_Source\PSoC6/I2C_BUS.h **** {
 451:Generated_Source\PSoC6/I2C_BUS.h ****     Cy_SCB_I2C_SlaveAbortWrite(I2C_BUS_HW, &I2C_BUS_context);
 452:Generated_Source\PSoC6/I2C_BUS.h **** }
 453:Generated_Source\PSoC6/I2C_BUS.h **** 
 454:Generated_Source\PSoC6/I2C_BUS.h **** 
 455:Generated_Source\PSoC6/I2C_BUS.h **** /*******************************************************************************
 456:Generated_Source\PSoC6/I2C_BUS.h **** * Function Name: I2C_BUS_SlaveGetWriteTransferCount
 457:Generated_Source\PSoC6/I2C_BUS.h **** ****************************************************************************//**
 458:Generated_Source\PSoC6/I2C_BUS.h **** *
 459:Generated_Source\PSoC6/I2C_BUS.h **** * Invokes the Cy_SCB_I2C_SlaveGetWriteTransferCount() PDL driver function.
 460:Generated_Source\PSoC6/I2C_BUS.h **** *
 461:Generated_Source\PSoC6/I2C_BUS.h **** *******************************************************************************/
 462:Generated_Source\PSoC6/I2C_BUS.h **** __STATIC_INLINE uint32_t I2C_BUS_SlaveGetWriteTransferCount(void)
 463:Generated_Source\PSoC6/I2C_BUS.h **** {
 464:Generated_Source\PSoC6/I2C_BUS.h ****     return Cy_SCB_I2C_SlaveGetWriteTransferCount(I2C_BUS_HW, &I2C_BUS_context);
 465:Generated_Source\PSoC6/I2C_BUS.h **** }
 466:Generated_Source\PSoC6/I2C_BUS.h **** 
 467:Generated_Source\PSoC6/I2C_BUS.h **** 
 468:Generated_Source\PSoC6/I2C_BUS.h **** /*******************************************************************************
 469:Generated_Source\PSoC6/I2C_BUS.h **** * Function Name: I2C_BUS_SlaveClearWriteStatus
 470:Generated_Source\PSoC6/I2C_BUS.h **** ****************************************************************************//**
 471:Generated_Source\PSoC6/I2C_BUS.h **** *
 472:Generated_Source\PSoC6/I2C_BUS.h **** * Invokes the Cy_SCB_I2C_SlaveClearWriteStatus() PDL driver function.
 473:Generated_Source\PSoC6/I2C_BUS.h **** *
 474:Generated_Source\PSoC6/I2C_BUS.h **** *******************************************************************************/
 475:Generated_Source\PSoC6/I2C_BUS.h **** __STATIC_INLINE uint32_t I2C_BUS_SlaveClearWriteStatus(void)
 476:Generated_Source\PSoC6/I2C_BUS.h **** {
 477:Generated_Source\PSoC6/I2C_BUS.h ****     return Cy_SCB_I2C_SlaveClearWriteStatus(I2C_BUS_HW, &I2C_BUS_context);
 478:Generated_Source\PSoC6/I2C_BUS.h **** }
 479:Generated_Source\PSoC6/I2C_BUS.h **** #endif /* (I2C_BUS_ENABLE_SLAVE) */
 480:Generated_Source\PSoC6/I2C_BUS.h **** 
 481:Generated_Source\PSoC6/I2C_BUS.h **** 
 482:Generated_Source\PSoC6/I2C_BUS.h **** #if (I2C_BUS_ENABLE_MASTER)
 483:Generated_Source\PSoC6/I2C_BUS.h **** /*******************************************************************************
 484:Generated_Source\PSoC6/I2C_BUS.h **** * Function Name: I2C_BUS_MasterGetStatus
 485:Generated_Source\PSoC6/I2C_BUS.h **** ****************************************************************************//**
 486:Generated_Source\PSoC6/I2C_BUS.h **** *
ARM GAS  C:\Users\49148\AppData\Local\Temp\ccVXiEAG.s 			page 10


 487:Generated_Source\PSoC6/I2C_BUS.h **** * Invokes the Cy_SCB_I2C_MasterGetStatus() PDL driver function.
 488:Generated_Source\PSoC6/I2C_BUS.h **** *
 489:Generated_Source\PSoC6/I2C_BUS.h **** *******************************************************************************/
 490:Generated_Source\PSoC6/I2C_BUS.h **** __STATIC_INLINE uint32_t I2C_BUS_MasterGetStatus(void)
 491:Generated_Source\PSoC6/I2C_BUS.h **** {
 492:Generated_Source\PSoC6/I2C_BUS.h ****     return Cy_SCB_I2C_MasterGetStatus(I2C_BUS_HW, &I2C_BUS_context);
 493:Generated_Source\PSoC6/I2C_BUS.h **** }
 494:Generated_Source\PSoC6/I2C_BUS.h **** 
 495:Generated_Source\PSoC6/I2C_BUS.h **** 
 496:Generated_Source\PSoC6/I2C_BUS.h **** /*******************************************************************************
 497:Generated_Source\PSoC6/I2C_BUS.h **** * Function Name: I2C_BUS_MasterRead
 498:Generated_Source\PSoC6/I2C_BUS.h **** ****************************************************************************//**
 499:Generated_Source\PSoC6/I2C_BUS.h **** *
 500:Generated_Source\PSoC6/I2C_BUS.h **** * Invokes the Cy_SCB_I2C_MasterRead() PDL driver function.
 501:Generated_Source\PSoC6/I2C_BUS.h **** *
 502:Generated_Source\PSoC6/I2C_BUS.h **** *******************************************************************************/
 503:Generated_Source\PSoC6/I2C_BUS.h **** __STATIC_INLINE cy_en_scb_i2c_status_t I2C_BUS_MasterRead(cy_stc_scb_i2c_master_xfer_config_t *xfer
 504:Generated_Source\PSoC6/I2C_BUS.h **** {
 505:Generated_Source\PSoC6/I2C_BUS.h ****     return Cy_SCB_I2C_MasterRead(I2C_BUS_HW, xferConfig, &I2C_BUS_context);
 506:Generated_Source\PSoC6/I2C_BUS.h **** }
 507:Generated_Source\PSoC6/I2C_BUS.h **** 
 508:Generated_Source\PSoC6/I2C_BUS.h **** 
 509:Generated_Source\PSoC6/I2C_BUS.h **** /*******************************************************************************
 510:Generated_Source\PSoC6/I2C_BUS.h **** * Function Name: I2C_BUS_MasterAbortRead
 511:Generated_Source\PSoC6/I2C_BUS.h **** ****************************************************************************//**
 512:Generated_Source\PSoC6/I2C_BUS.h **** *
 513:Generated_Source\PSoC6/I2C_BUS.h **** * Invokes the Cy_SCB_I2C_MasterAbortRead() PDL driver function.
 514:Generated_Source\PSoC6/I2C_BUS.h **** *
 515:Generated_Source\PSoC6/I2C_BUS.h **** ******************************************************************************/
 516:Generated_Source\PSoC6/I2C_BUS.h **** __STATIC_INLINE void I2C_BUS_MasterAbortRead(void)
 517:Generated_Source\PSoC6/I2C_BUS.h **** {
 518:Generated_Source\PSoC6/I2C_BUS.h ****     Cy_SCB_I2C_MasterAbortRead(I2C_BUS_HW, &I2C_BUS_context);
 519:Generated_Source\PSoC6/I2C_BUS.h **** }
 520:Generated_Source\PSoC6/I2C_BUS.h **** 
 521:Generated_Source\PSoC6/I2C_BUS.h **** 
 522:Generated_Source\PSoC6/I2C_BUS.h **** /*******************************************************************************
 523:Generated_Source\PSoC6/I2C_BUS.h **** * Function Name: I2C_BUS_MasterWrite
 524:Generated_Source\PSoC6/I2C_BUS.h **** ****************************************************************************//**
 525:Generated_Source\PSoC6/I2C_BUS.h **** *
 526:Generated_Source\PSoC6/I2C_BUS.h **** * Invokes the Cy_SCB_I2C_MasterWrite() PDL driver function.
 527:Generated_Source\PSoC6/I2C_BUS.h **** *
 528:Generated_Source\PSoC6/I2C_BUS.h **** *******************************************************************************/
 529:Generated_Source\PSoC6/I2C_BUS.h **** __STATIC_INLINE cy_en_scb_i2c_status_t I2C_BUS_MasterWrite(cy_stc_scb_i2c_master_xfer_config_t *xfe
 530:Generated_Source\PSoC6/I2C_BUS.h **** {
 531:Generated_Source\PSoC6/I2C_BUS.h ****     return Cy_SCB_I2C_MasterWrite(I2C_BUS_HW, xferConfig, &I2C_BUS_context);
 532:Generated_Source\PSoC6/I2C_BUS.h **** }
 533:Generated_Source\PSoC6/I2C_BUS.h **** 
 534:Generated_Source\PSoC6/I2C_BUS.h **** 
 535:Generated_Source\PSoC6/I2C_BUS.h **** /*******************************************************************************
 536:Generated_Source\PSoC6/I2C_BUS.h **** * Function Name: I2C_BUS_MasterAbortWrite
 537:Generated_Source\PSoC6/I2C_BUS.h **** ****************************************************************************//**
 538:Generated_Source\PSoC6/I2C_BUS.h **** *
 539:Generated_Source\PSoC6/I2C_BUS.h **** * Invokes the Cy_SCB_I2C_MasterAbortWrite() PDL driver function.
 540:Generated_Source\PSoC6/I2C_BUS.h **** *
 541:Generated_Source\PSoC6/I2C_BUS.h **** *******************************************************************************/
 542:Generated_Source\PSoC6/I2C_BUS.h **** __STATIC_INLINE void I2C_BUS_MasterAbortWrite(void)
 543:Generated_Source\PSoC6/I2C_BUS.h **** {
ARM GAS  C:\Users\49148\AppData\Local\Temp\ccVXiEAG.s 			page 11


 544:Generated_Source\PSoC6/I2C_BUS.h ****     Cy_SCB_I2C_MasterAbortWrite(I2C_BUS_HW, &I2C_BUS_context);
 545:Generated_Source\PSoC6/I2C_BUS.h **** }
 546:Generated_Source\PSoC6/I2C_BUS.h **** 
 547:Generated_Source\PSoC6/I2C_BUS.h **** 
 548:Generated_Source\PSoC6/I2C_BUS.h **** /*******************************************************************************
 549:Generated_Source\PSoC6/I2C_BUS.h **** * Function Name: I2C_BUS_MasterGetTransferCount
 550:Generated_Source\PSoC6/I2C_BUS.h **** ****************************************************************************//**
 551:Generated_Source\PSoC6/I2C_BUS.h **** *
 552:Generated_Source\PSoC6/I2C_BUS.h **** * Invokes the Cy_SCB_I2C_MasterGetTransferCount() PDL driver function.
 553:Generated_Source\PSoC6/I2C_BUS.h **** *
 554:Generated_Source\PSoC6/I2C_BUS.h **** *******************************************************************************/
 555:Generated_Source\PSoC6/I2C_BUS.h **** __STATIC_INLINE uint32_t I2C_BUS_MasterGetTransferCount(void)
 556:Generated_Source\PSoC6/I2C_BUS.h **** {
 557:Generated_Source\PSoC6/I2C_BUS.h ****     return Cy_SCB_I2C_MasterGetTransferCount(I2C_BUS_HW, &I2C_BUS_context);
 558:Generated_Source\PSoC6/I2C_BUS.h **** }
 559:Generated_Source\PSoC6/I2C_BUS.h **** 
 560:Generated_Source\PSoC6/I2C_BUS.h **** 
 561:Generated_Source\PSoC6/I2C_BUS.h **** /*******************************************************************************
 562:Generated_Source\PSoC6/I2C_BUS.h **** * Function Name: I2C_BUS_MasterSendStart
 563:Generated_Source\PSoC6/I2C_BUS.h **** ****************************************************************************//**
 564:Generated_Source\PSoC6/I2C_BUS.h **** *
 565:Generated_Source\PSoC6/I2C_BUS.h **** * Invokes the Cy_SCB_I2C_MasterSendStart() PDL driver function.
 566:Generated_Source\PSoC6/I2C_BUS.h **** *
 567:Generated_Source\PSoC6/I2C_BUS.h **** *******************************************************************************/
 568:Generated_Source\PSoC6/I2C_BUS.h **** __STATIC_INLINE cy_en_scb_i2c_status_t I2C_BUS_MasterSendStart(uint32_t address, cy_en_scb_i2c_dire
 569:Generated_Source\PSoC6/I2C_BUS.h **** {
  28              		.loc 1 569 0
  29              		.cfi_startproc
  30              		@ args = 0, pretend = 0, frame = 16
  31              		@ frame_needed = 1, uses_anonymous_args = 0
  32 0000 80B5     		push	{r7, lr}
  33              		.cfi_def_cfa_offset 8
  34              		.cfi_offset 7, -8
  35              		.cfi_offset 14, -4
  36 0002 86B0     		sub	sp, sp, #24
  37              		.cfi_def_cfa_offset 32
  38 0004 02AF     		add	r7, sp, #8
  39              		.cfi_def_cfa 7, 24
  40 0006 F860     		str	r0, [r7, #12]
  41 0008 0B46     		mov	r3, r1
  42 000a 7A60     		str	r2, [r7, #4]
  43 000c FB72     		strb	r3, [r7, #11]
 570:Generated_Source\PSoC6/I2C_BUS.h ****     return Cy_SCB_I2C_MasterSendStart(I2C_BUS_HW, address, bitRnW, timeoutMs, &I2C_BUS_context);
  44              		.loc 1 570 0
  45 000e FA7A     		ldrb	r2, [r7, #11]	@ zero_extendqisi2
  46 0010 054B     		ldr	r3, .L3
  47 0012 0093     		str	r3, [sp]
  48 0014 7B68     		ldr	r3, [r7, #4]
  49 0016 F968     		ldr	r1, [r7, #12]
  50 0018 0448     		ldr	r0, .L3+4
  51 001a FFF7FEFF 		bl	Cy_SCB_I2C_MasterSendStart
  52 001e 0346     		mov	r3, r0
 571:Generated_Source\PSoC6/I2C_BUS.h **** }
  53              		.loc 1 571 0
  54 0020 1846     		mov	r0, r3
  55 0022 1037     		adds	r7, r7, #16
  56              		.cfi_def_cfa_offset 8
ARM GAS  C:\Users\49148\AppData\Local\Temp\ccVXiEAG.s 			page 12


  57 0024 BD46     		mov	sp, r7
  58              		.cfi_def_cfa_register 13
  59              		@ sp needed
  60 0026 80BD     		pop	{r7, pc}
  61              	.L4:
  62              		.align	2
  63              	.L3:
  64 0028 00000000 		.word	I2C_BUS_context
  65 002c 00006740 		.word	1080492032
  66              		.cfi_endproc
  67              	.LFE538:
  68              		.size	I2C_BUS_MasterSendStart, .-I2C_BUS_MasterSendStart
  69              		.section	.text.I2C_BUS_MasterSendStop,"ax",%progbits
  70              		.align	2
  71              		.thumb
  72              		.thumb_func
  73              		.type	I2C_BUS_MasterSendStop, %function
  74              	I2C_BUS_MasterSendStop:
  75              	.LFB540:
 572:Generated_Source\PSoC6/I2C_BUS.h **** 
 573:Generated_Source\PSoC6/I2C_BUS.h **** 
 574:Generated_Source\PSoC6/I2C_BUS.h **** /*******************************************************************************
 575:Generated_Source\PSoC6/I2C_BUS.h **** * Function Name: I2C_BUS_MasterSendReStart
 576:Generated_Source\PSoC6/I2C_BUS.h **** ****************************************************************************//**
 577:Generated_Source\PSoC6/I2C_BUS.h **** *
 578:Generated_Source\PSoC6/I2C_BUS.h **** * Invokes the Cy_SCB_I2C_MasterSendReStart() PDL driver function.
 579:Generated_Source\PSoC6/I2C_BUS.h **** *
 580:Generated_Source\PSoC6/I2C_BUS.h **** *******************************************************************************/
 581:Generated_Source\PSoC6/I2C_BUS.h **** __STATIC_INLINE cy_en_scb_i2c_status_t I2C_BUS_MasterSendReStart(uint32_t address, cy_en_scb_i2c_di
 582:Generated_Source\PSoC6/I2C_BUS.h **** {
 583:Generated_Source\PSoC6/I2C_BUS.h ****     return Cy_SCB_I2C_MasterSendReStart(I2C_BUS_HW, address, bitRnW, timeoutMs, &I2C_BUS_context);
 584:Generated_Source\PSoC6/I2C_BUS.h **** }
 585:Generated_Source\PSoC6/I2C_BUS.h **** 
 586:Generated_Source\PSoC6/I2C_BUS.h **** 
 587:Generated_Source\PSoC6/I2C_BUS.h **** /*******************************************************************************
 588:Generated_Source\PSoC6/I2C_BUS.h **** * Function Name: I2C_BUS_MasterSendStop
 589:Generated_Source\PSoC6/I2C_BUS.h **** ****************************************************************************//**
 590:Generated_Source\PSoC6/I2C_BUS.h **** *
 591:Generated_Source\PSoC6/I2C_BUS.h **** * Invokes the Cy_SCB_I2C_MasterSendStop() PDL driver function.
 592:Generated_Source\PSoC6/I2C_BUS.h **** *
 593:Generated_Source\PSoC6/I2C_BUS.h **** *******************************************************************************/
 594:Generated_Source\PSoC6/I2C_BUS.h **** __STATIC_INLINE cy_en_scb_i2c_status_t I2C_BUS_MasterSendStop(uint32_t timeoutMs)
 595:Generated_Source\PSoC6/I2C_BUS.h **** {
  76              		.loc 1 595 0
  77              		.cfi_startproc
  78              		@ args = 0, pretend = 0, frame = 8
  79              		@ frame_needed = 1, uses_anonymous_args = 0
  80 0000 80B5     		push	{r7, lr}
  81              		.cfi_def_cfa_offset 8
  82              		.cfi_offset 7, -8
  83              		.cfi_offset 14, -4
  84 0002 82B0     		sub	sp, sp, #8
  85              		.cfi_def_cfa_offset 16
  86 0004 00AF     		add	r7, sp, #0
  87              		.cfi_def_cfa_register 7
  88 0006 7860     		str	r0, [r7, #4]
 596:Generated_Source\PSoC6/I2C_BUS.h ****     return Cy_SCB_I2C_MasterSendStop(I2C_BUS_HW, timeoutMs, &I2C_BUS_context);
ARM GAS  C:\Users\49148\AppData\Local\Temp\ccVXiEAG.s 			page 13


  89              		.loc 1 596 0
  90 0008 044A     		ldr	r2, .L7
  91 000a 7968     		ldr	r1, [r7, #4]
  92 000c 0448     		ldr	r0, .L7+4
  93 000e FFF7FEFF 		bl	Cy_SCB_I2C_MasterSendStop
  94 0012 0346     		mov	r3, r0
 597:Generated_Source\PSoC6/I2C_BUS.h **** }
  95              		.loc 1 597 0
  96 0014 1846     		mov	r0, r3
  97 0016 0837     		adds	r7, r7, #8
  98              		.cfi_def_cfa_offset 8
  99 0018 BD46     		mov	sp, r7
 100              		.cfi_def_cfa_register 13
 101              		@ sp needed
 102 001a 80BD     		pop	{r7, pc}
 103              	.L8:
 104              		.align	2
 105              	.L7:
 106 001c 00000000 		.word	I2C_BUS_context
 107 0020 00006740 		.word	1080492032
 108              		.cfi_endproc
 109              	.LFE540:
 110              		.size	I2C_BUS_MasterSendStop, .-I2C_BUS_MasterSendStop
 111              		.section	.text.I2C_BUS_MasterWriteByte,"ax",%progbits
 112              		.align	2
 113              		.thumb
 114              		.thumb_func
 115              		.type	I2C_BUS_MasterWriteByte, %function
 116              	I2C_BUS_MasterWriteByte:
 117              	.LFB542:
 598:Generated_Source\PSoC6/I2C_BUS.h **** 
 599:Generated_Source\PSoC6/I2C_BUS.h **** 
 600:Generated_Source\PSoC6/I2C_BUS.h **** /*******************************************************************************
 601:Generated_Source\PSoC6/I2C_BUS.h **** * Function Name: I2C_BUS_MasterReadByte
 602:Generated_Source\PSoC6/I2C_BUS.h **** ****************************************************************************//**
 603:Generated_Source\PSoC6/I2C_BUS.h **** *
 604:Generated_Source\PSoC6/I2C_BUS.h **** * Invokes the Cy_SCB_I2C_MasterReadByte() PDL driver function.
 605:Generated_Source\PSoC6/I2C_BUS.h **** *
 606:Generated_Source\PSoC6/I2C_BUS.h **** *******************************************************************************/
 607:Generated_Source\PSoC6/I2C_BUS.h **** __STATIC_INLINE cy_en_scb_i2c_status_t I2C_BUS_MasterReadByte(cy_en_scb_i2c_command_t ackNack, uint
 608:Generated_Source\PSoC6/I2C_BUS.h **** {
 609:Generated_Source\PSoC6/I2C_BUS.h ****     return Cy_SCB_I2C_MasterReadByte(I2C_BUS_HW, ackNack, byte, timeoutMs, &I2C_BUS_context);
 610:Generated_Source\PSoC6/I2C_BUS.h **** }
 611:Generated_Source\PSoC6/I2C_BUS.h **** 
 612:Generated_Source\PSoC6/I2C_BUS.h **** 
 613:Generated_Source\PSoC6/I2C_BUS.h **** /*******************************************************************************
 614:Generated_Source\PSoC6/I2C_BUS.h **** * Function Name: I2C_BUS_MasterWriteByte
 615:Generated_Source\PSoC6/I2C_BUS.h **** ****************************************************************************//**
 616:Generated_Source\PSoC6/I2C_BUS.h **** *
 617:Generated_Source\PSoC6/I2C_BUS.h **** * Invokes the Cy_SCB_I2C_MasterWriteByte() PDL driver function.
 618:Generated_Source\PSoC6/I2C_BUS.h **** *
 619:Generated_Source\PSoC6/I2C_BUS.h **** *******************************************************************************/
 620:Generated_Source\PSoC6/I2C_BUS.h **** __STATIC_INLINE cy_en_scb_i2c_status_t I2C_BUS_MasterWriteByte(uint8_t byte, uint32_t timeoutMs)
 621:Generated_Source\PSoC6/I2C_BUS.h **** {
 118              		.loc 1 621 0
 119              		.cfi_startproc
 120              		@ args = 0, pretend = 0, frame = 8
ARM GAS  C:\Users\49148\AppData\Local\Temp\ccVXiEAG.s 			page 14


 121              		@ frame_needed = 1, uses_anonymous_args = 0
 122 0000 80B5     		push	{r7, lr}
 123              		.cfi_def_cfa_offset 8
 124              		.cfi_offset 7, -8
 125              		.cfi_offset 14, -4
 126 0002 82B0     		sub	sp, sp, #8
 127              		.cfi_def_cfa_offset 16
 128 0004 00AF     		add	r7, sp, #0
 129              		.cfi_def_cfa_register 7
 130 0006 0346     		mov	r3, r0
 131 0008 3960     		str	r1, [r7]
 132 000a FB71     		strb	r3, [r7, #7]
 622:Generated_Source\PSoC6/I2C_BUS.h ****     return Cy_SCB_I2C_MasterWriteByte(I2C_BUS_HW, byte, timeoutMs, &I2C_BUS_context);
 133              		.loc 1 622 0
 134 000c F979     		ldrb	r1, [r7, #7]	@ zero_extendqisi2
 135 000e 054B     		ldr	r3, .L11
 136 0010 3A68     		ldr	r2, [r7]
 137 0012 0548     		ldr	r0, .L11+4
 138 0014 FFF7FEFF 		bl	Cy_SCB_I2C_MasterWriteByte
 139 0018 0346     		mov	r3, r0
 623:Generated_Source\PSoC6/I2C_BUS.h **** }
 140              		.loc 1 623 0
 141 001a 1846     		mov	r0, r3
 142 001c 0837     		adds	r7, r7, #8
 143              		.cfi_def_cfa_offset 8
 144 001e BD46     		mov	sp, r7
 145              		.cfi_def_cfa_register 13
 146              		@ sp needed
 147 0020 80BD     		pop	{r7, pc}
 148              	.L12:
 149 0022 00BF     		.align	2
 150              	.L11:
 151 0024 00000000 		.word	I2C_BUS_context
 152 0028 00006740 		.word	1080492032
 153              		.cfi_endproc
 154              	.LFE542:
 155              		.size	I2C_BUS_MasterWriteByte, .-I2C_BUS_MasterWriteByte
 156              		.section	.rodata
 157              		.align	2
 158              		.type	font, %object
 159              		.size	font, 1275
 160              	font:
 161 0000 00       		.byte	0
 162 0001 00       		.byte	0
 163 0002 00       		.byte	0
 164 0003 00       		.byte	0
 165 0004 00       		.byte	0
 166 0005 3E       		.byte	62
 167 0006 5B       		.byte	91
 168 0007 4F       		.byte	79
 169 0008 5B       		.byte	91
 170 0009 3E       		.byte	62
 171 000a 3E       		.byte	62
 172 000b 6B       		.byte	107
 173 000c 4F       		.byte	79
 174 000d 6B       		.byte	107
 175 000e 3E       		.byte	62
ARM GAS  C:\Users\49148\AppData\Local\Temp\ccVXiEAG.s 			page 15


 176 000f 1C       		.byte	28
 177 0010 3E       		.byte	62
 178 0011 7C       		.byte	124
 179 0012 3E       		.byte	62
 180 0013 1C       		.byte	28
 181 0014 18       		.byte	24
 182 0015 3C       		.byte	60
 183 0016 7E       		.byte	126
 184 0017 3C       		.byte	60
 185 0018 18       		.byte	24
 186 0019 1C       		.byte	28
 187 001a 57       		.byte	87
 188 001b 7D       		.byte	125
 189 001c 57       		.byte	87
 190 001d 1C       		.byte	28
 191 001e 1C       		.byte	28
 192 001f 5E       		.byte	94
 193 0020 7F       		.byte	127
 194 0021 5E       		.byte	94
 195 0022 1C       		.byte	28
 196 0023 00       		.byte	0
 197 0024 18       		.byte	24
 198 0025 3C       		.byte	60
 199 0026 18       		.byte	24
 200 0027 00       		.byte	0
 201 0028 FF       		.byte	-1
 202 0029 E7       		.byte	-25
 203 002a C3       		.byte	-61
 204 002b E7       		.byte	-25
 205 002c FF       		.byte	-1
 206 002d 00       		.byte	0
 207 002e 18       		.byte	24
 208 002f 24       		.byte	36
 209 0030 18       		.byte	24
 210 0031 00       		.byte	0
 211 0032 FF       		.byte	-1
 212 0033 E7       		.byte	-25
 213 0034 DB       		.byte	-37
 214 0035 E7       		.byte	-25
 215 0036 FF       		.byte	-1
 216 0037 30       		.byte	48
 217 0038 48       		.byte	72
 218 0039 3A       		.byte	58
 219 003a 06       		.byte	6
 220 003b 0E       		.byte	14
 221 003c 26       		.byte	38
 222 003d 29       		.byte	41
 223 003e 79       		.byte	121
 224 003f 29       		.byte	41
 225 0040 26       		.byte	38
 226 0041 40       		.byte	64
 227 0042 7F       		.byte	127
 228 0043 05       		.byte	5
 229 0044 05       		.byte	5
 230 0045 07       		.byte	7
 231 0046 40       		.byte	64
 232 0047 7F       		.byte	127
ARM GAS  C:\Users\49148\AppData\Local\Temp\ccVXiEAG.s 			page 16


 233 0048 05       		.byte	5
 234 0049 25       		.byte	37
 235 004a 3F       		.byte	63
 236 004b 5A       		.byte	90
 237 004c 3C       		.byte	60
 238 004d E7       		.byte	-25
 239 004e 3C       		.byte	60
 240 004f 5A       		.byte	90
 241 0050 7F       		.byte	127
 242 0051 3E       		.byte	62
 243 0052 1C       		.byte	28
 244 0053 1C       		.byte	28
 245 0054 08       		.byte	8
 246 0055 08       		.byte	8
 247 0056 1C       		.byte	28
 248 0057 1C       		.byte	28
 249 0058 3E       		.byte	62
 250 0059 7F       		.byte	127
 251 005a 14       		.byte	20
 252 005b 22       		.byte	34
 253 005c 7F       		.byte	127
 254 005d 22       		.byte	34
 255 005e 14       		.byte	20
 256 005f 5F       		.byte	95
 257 0060 5F       		.byte	95
 258 0061 00       		.byte	0
 259 0062 5F       		.byte	95
 260 0063 5F       		.byte	95
 261 0064 06       		.byte	6
 262 0065 09       		.byte	9
 263 0066 7F       		.byte	127
 264 0067 01       		.byte	1
 265 0068 7F       		.byte	127
 266 0069 00       		.byte	0
 267 006a 66       		.byte	102
 268 006b 89       		.byte	-119
 269 006c 95       		.byte	-107
 270 006d 6A       		.byte	106
 271 006e 60       		.byte	96
 272 006f 60       		.byte	96
 273 0070 60       		.byte	96
 274 0071 60       		.byte	96
 275 0072 60       		.byte	96
 276 0073 94       		.byte	-108
 277 0074 A2       		.byte	-94
 278 0075 FF       		.byte	-1
 279 0076 A2       		.byte	-94
 280 0077 94       		.byte	-108
 281 0078 08       		.byte	8
 282 0079 04       		.byte	4
 283 007a 7E       		.byte	126
 284 007b 04       		.byte	4
 285 007c 08       		.byte	8
 286 007d 10       		.byte	16
 287 007e 20       		.byte	32
 288 007f 7E       		.byte	126
 289 0080 20       		.byte	32
ARM GAS  C:\Users\49148\AppData\Local\Temp\ccVXiEAG.s 			page 17


 290 0081 10       		.byte	16
 291 0082 08       		.byte	8
 292 0083 08       		.byte	8
 293 0084 2A       		.byte	42
 294 0085 1C       		.byte	28
 295 0086 08       		.byte	8
 296 0087 08       		.byte	8
 297 0088 1C       		.byte	28
 298 0089 2A       		.byte	42
 299 008a 08       		.byte	8
 300 008b 08       		.byte	8
 301 008c 1E       		.byte	30
 302 008d 10       		.byte	16
 303 008e 10       		.byte	16
 304 008f 10       		.byte	16
 305 0090 10       		.byte	16
 306 0091 0C       		.byte	12
 307 0092 1E       		.byte	30
 308 0093 0C       		.byte	12
 309 0094 1E       		.byte	30
 310 0095 0C       		.byte	12
 311 0096 30       		.byte	48
 312 0097 38       		.byte	56
 313 0098 3E       		.byte	62
 314 0099 38       		.byte	56
 315 009a 30       		.byte	48
 316 009b 06       		.byte	6
 317 009c 0E       		.byte	14
 318 009d 3E       		.byte	62
 319 009e 0E       		.byte	14
 320 009f 06       		.byte	6
 321 00a0 00       		.byte	0
 322 00a1 00       		.byte	0
 323 00a2 00       		.byte	0
 324 00a3 00       		.byte	0
 325 00a4 00       		.byte	0
 326 00a5 00       		.byte	0
 327 00a6 00       		.byte	0
 328 00a7 5F       		.byte	95
 329 00a8 00       		.byte	0
 330 00a9 00       		.byte	0
 331 00aa 00       		.byte	0
 332 00ab 07       		.byte	7
 333 00ac 00       		.byte	0
 334 00ad 07       		.byte	7
 335 00ae 00       		.byte	0
 336 00af 14       		.byte	20
 337 00b0 7F       		.byte	127
 338 00b1 14       		.byte	20
 339 00b2 7F       		.byte	127
 340 00b3 14       		.byte	20
 341 00b4 24       		.byte	36
 342 00b5 2A       		.byte	42
 343 00b6 7F       		.byte	127
 344 00b7 2A       		.byte	42
 345 00b8 12       		.byte	18
 346 00b9 23       		.byte	35
ARM GAS  C:\Users\49148\AppData\Local\Temp\ccVXiEAG.s 			page 18


 347 00ba 13       		.byte	19
 348 00bb 08       		.byte	8
 349 00bc 64       		.byte	100
 350 00bd 62       		.byte	98
 351 00be 36       		.byte	54
 352 00bf 49       		.byte	73
 353 00c0 56       		.byte	86
 354 00c1 20       		.byte	32
 355 00c2 50       		.byte	80
 356 00c3 00       		.byte	0
 357 00c4 08       		.byte	8
 358 00c5 07       		.byte	7
 359 00c6 03       		.byte	3
 360 00c7 00       		.byte	0
 361 00c8 00       		.byte	0
 362 00c9 1C       		.byte	28
 363 00ca 22       		.byte	34
 364 00cb 41       		.byte	65
 365 00cc 00       		.byte	0
 366 00cd 00       		.byte	0
 367 00ce 41       		.byte	65
 368 00cf 22       		.byte	34
 369 00d0 1C       		.byte	28
 370 00d1 00       		.byte	0
 371 00d2 2A       		.byte	42
 372 00d3 1C       		.byte	28
 373 00d4 7F       		.byte	127
 374 00d5 1C       		.byte	28
 375 00d6 2A       		.byte	42
 376 00d7 08       		.byte	8
 377 00d8 08       		.byte	8
 378 00d9 3E       		.byte	62
 379 00da 08       		.byte	8
 380 00db 08       		.byte	8
 381 00dc 00       		.byte	0
 382 00dd 80       		.byte	-128
 383 00de 70       		.byte	112
 384 00df 30       		.byte	48
 385 00e0 00       		.byte	0
 386 00e1 08       		.byte	8
 387 00e2 08       		.byte	8
 388 00e3 08       		.byte	8
 389 00e4 08       		.byte	8
 390 00e5 08       		.byte	8
 391 00e6 00       		.byte	0
 392 00e7 00       		.byte	0
 393 00e8 60       		.byte	96
 394 00e9 60       		.byte	96
 395 00ea 00       		.byte	0
 396 00eb 20       		.byte	32
 397 00ec 10       		.byte	16
 398 00ed 08       		.byte	8
 399 00ee 04       		.byte	4
 400 00ef 02       		.byte	2
 401 00f0 3E       		.byte	62
 402 00f1 51       		.byte	81
 403 00f2 49       		.byte	73
ARM GAS  C:\Users\49148\AppData\Local\Temp\ccVXiEAG.s 			page 19


 404 00f3 45       		.byte	69
 405 00f4 3E       		.byte	62
 406 00f5 00       		.byte	0
 407 00f6 42       		.byte	66
 408 00f7 7F       		.byte	127
 409 00f8 40       		.byte	64
 410 00f9 00       		.byte	0
 411 00fa 72       		.byte	114
 412 00fb 49       		.byte	73
 413 00fc 49       		.byte	73
 414 00fd 49       		.byte	73
 415 00fe 46       		.byte	70
 416 00ff 21       		.byte	33
 417 0100 41       		.byte	65
 418 0101 49       		.byte	73
 419 0102 4D       		.byte	77
 420 0103 33       		.byte	51
 421 0104 18       		.byte	24
 422 0105 14       		.byte	20
 423 0106 12       		.byte	18
 424 0107 7F       		.byte	127
 425 0108 10       		.byte	16
 426 0109 27       		.byte	39
 427 010a 45       		.byte	69
 428 010b 45       		.byte	69
 429 010c 45       		.byte	69
 430 010d 39       		.byte	57
 431 010e 3C       		.byte	60
 432 010f 4A       		.byte	74
 433 0110 49       		.byte	73
 434 0111 49       		.byte	73
 435 0112 31       		.byte	49
 436 0113 41       		.byte	65
 437 0114 21       		.byte	33
 438 0115 11       		.byte	17
 439 0116 09       		.byte	9
 440 0117 07       		.byte	7
 441 0118 36       		.byte	54
 442 0119 49       		.byte	73
 443 011a 49       		.byte	73
 444 011b 49       		.byte	73
 445 011c 36       		.byte	54
 446 011d 46       		.byte	70
 447 011e 49       		.byte	73
 448 011f 49       		.byte	73
 449 0120 29       		.byte	41
 450 0121 1E       		.byte	30
 451 0122 00       		.byte	0
 452 0123 00       		.byte	0
 453 0124 14       		.byte	20
 454 0125 00       		.byte	0
 455 0126 00       		.byte	0
 456 0127 00       		.byte	0
 457 0128 40       		.byte	64
 458 0129 34       		.byte	52
 459 012a 00       		.byte	0
 460 012b 00       		.byte	0
ARM GAS  C:\Users\49148\AppData\Local\Temp\ccVXiEAG.s 			page 20


 461 012c 00       		.byte	0
 462 012d 08       		.byte	8
 463 012e 14       		.byte	20
 464 012f 22       		.byte	34
 465 0130 41       		.byte	65
 466 0131 14       		.byte	20
 467 0132 14       		.byte	20
 468 0133 14       		.byte	20
 469 0134 14       		.byte	20
 470 0135 14       		.byte	20
 471 0136 00       		.byte	0
 472 0137 41       		.byte	65
 473 0138 22       		.byte	34
 474 0139 14       		.byte	20
 475 013a 08       		.byte	8
 476 013b 02       		.byte	2
 477 013c 01       		.byte	1
 478 013d 59       		.byte	89
 479 013e 09       		.byte	9
 480 013f 06       		.byte	6
 481 0140 3E       		.byte	62
 482 0141 41       		.byte	65
 483 0142 5D       		.byte	93
 484 0143 59       		.byte	89
 485 0144 4E       		.byte	78
 486 0145 7C       		.byte	124
 487 0146 12       		.byte	18
 488 0147 11       		.byte	17
 489 0148 12       		.byte	18
 490 0149 7C       		.byte	124
 491 014a 7F       		.byte	127
 492 014b 49       		.byte	73
 493 014c 49       		.byte	73
 494 014d 49       		.byte	73
 495 014e 36       		.byte	54
 496 014f 3E       		.byte	62
 497 0150 41       		.byte	65
 498 0151 41       		.byte	65
 499 0152 41       		.byte	65
 500 0153 22       		.byte	34
 501 0154 7F       		.byte	127
 502 0155 41       		.byte	65
 503 0156 41       		.byte	65
 504 0157 41       		.byte	65
 505 0158 3E       		.byte	62
 506 0159 7F       		.byte	127
 507 015a 49       		.byte	73
 508 015b 49       		.byte	73
 509 015c 49       		.byte	73
 510 015d 41       		.byte	65
 511 015e 7F       		.byte	127
 512 015f 09       		.byte	9
 513 0160 09       		.byte	9
 514 0161 09       		.byte	9
 515 0162 01       		.byte	1
 516 0163 3E       		.byte	62
 517 0164 41       		.byte	65
ARM GAS  C:\Users\49148\AppData\Local\Temp\ccVXiEAG.s 			page 21


 518 0165 41       		.byte	65
 519 0166 51       		.byte	81
 520 0167 73       		.byte	115
 521 0168 7F       		.byte	127
 522 0169 08       		.byte	8
 523 016a 08       		.byte	8
 524 016b 08       		.byte	8
 525 016c 7F       		.byte	127
 526 016d 00       		.byte	0
 527 016e 41       		.byte	65
 528 016f 7F       		.byte	127
 529 0170 41       		.byte	65
 530 0171 00       		.byte	0
 531 0172 20       		.byte	32
 532 0173 40       		.byte	64
 533 0174 41       		.byte	65
 534 0175 3F       		.byte	63
 535 0176 01       		.byte	1
 536 0177 7F       		.byte	127
 537 0178 08       		.byte	8
 538 0179 14       		.byte	20
 539 017a 22       		.byte	34
 540 017b 41       		.byte	65
 541 017c 7F       		.byte	127
 542 017d 40       		.byte	64
 543 017e 40       		.byte	64
 544 017f 40       		.byte	64
 545 0180 40       		.byte	64
 546 0181 7F       		.byte	127
 547 0182 02       		.byte	2
 548 0183 1C       		.byte	28
 549 0184 02       		.byte	2
 550 0185 7F       		.byte	127
 551 0186 7F       		.byte	127
 552 0187 04       		.byte	4
 553 0188 08       		.byte	8
 554 0189 10       		.byte	16
 555 018a 7F       		.byte	127
 556 018b 3E       		.byte	62
 557 018c 41       		.byte	65
 558 018d 41       		.byte	65
 559 018e 41       		.byte	65
 560 018f 3E       		.byte	62
 561 0190 7F       		.byte	127
 562 0191 09       		.byte	9
 563 0192 09       		.byte	9
 564 0193 09       		.byte	9
 565 0194 06       		.byte	6
 566 0195 3E       		.byte	62
 567 0196 41       		.byte	65
 568 0197 51       		.byte	81
 569 0198 21       		.byte	33
 570 0199 5E       		.byte	94
 571 019a 7F       		.byte	127
 572 019b 09       		.byte	9
 573 019c 19       		.byte	25
 574 019d 29       		.byte	41
ARM GAS  C:\Users\49148\AppData\Local\Temp\ccVXiEAG.s 			page 22


 575 019e 46       		.byte	70
 576 019f 26       		.byte	38
 577 01a0 49       		.byte	73
 578 01a1 49       		.byte	73
 579 01a2 49       		.byte	73
 580 01a3 32       		.byte	50
 581 01a4 03       		.byte	3
 582 01a5 01       		.byte	1
 583 01a6 7F       		.byte	127
 584 01a7 01       		.byte	1
 585 01a8 03       		.byte	3
 586 01a9 3F       		.byte	63
 587 01aa 40       		.byte	64
 588 01ab 40       		.byte	64
 589 01ac 40       		.byte	64
 590 01ad 3F       		.byte	63
 591 01ae 1F       		.byte	31
 592 01af 20       		.byte	32
 593 01b0 40       		.byte	64
 594 01b1 20       		.byte	32
 595 01b2 1F       		.byte	31
 596 01b3 3F       		.byte	63
 597 01b4 40       		.byte	64
 598 01b5 38       		.byte	56
 599 01b6 40       		.byte	64
 600 01b7 3F       		.byte	63
 601 01b8 63       		.byte	99
 602 01b9 14       		.byte	20
 603 01ba 08       		.byte	8
 604 01bb 14       		.byte	20
 605 01bc 63       		.byte	99
 606 01bd 03       		.byte	3
 607 01be 04       		.byte	4
 608 01bf 78       		.byte	120
 609 01c0 04       		.byte	4
 610 01c1 03       		.byte	3
 611 01c2 61       		.byte	97
 612 01c3 59       		.byte	89
 613 01c4 49       		.byte	73
 614 01c5 4D       		.byte	77
 615 01c6 43       		.byte	67
 616 01c7 00       		.byte	0
 617 01c8 7F       		.byte	127
 618 01c9 41       		.byte	65
 619 01ca 41       		.byte	65
 620 01cb 41       		.byte	65
 621 01cc 02       		.byte	2
 622 01cd 04       		.byte	4
 623 01ce 08       		.byte	8
 624 01cf 10       		.byte	16
 625 01d0 20       		.byte	32
 626 01d1 00       		.byte	0
 627 01d2 41       		.byte	65
 628 01d3 41       		.byte	65
 629 01d4 41       		.byte	65
 630 01d5 7F       		.byte	127
 631 01d6 04       		.byte	4
ARM GAS  C:\Users\49148\AppData\Local\Temp\ccVXiEAG.s 			page 23


 632 01d7 02       		.byte	2
 633 01d8 01       		.byte	1
 634 01d9 02       		.byte	2
 635 01da 04       		.byte	4
 636 01db 40       		.byte	64
 637 01dc 40       		.byte	64
 638 01dd 40       		.byte	64
 639 01de 40       		.byte	64
 640 01df 40       		.byte	64
 641 01e0 00       		.byte	0
 642 01e1 03       		.byte	3
 643 01e2 07       		.byte	7
 644 01e3 08       		.byte	8
 645 01e4 00       		.byte	0
 646 01e5 20       		.byte	32
 647 01e6 54       		.byte	84
 648 01e7 54       		.byte	84
 649 01e8 78       		.byte	120
 650 01e9 40       		.byte	64
 651 01ea 7F       		.byte	127
 652 01eb 28       		.byte	40
 653 01ec 44       		.byte	68
 654 01ed 44       		.byte	68
 655 01ee 38       		.byte	56
 656 01ef 38       		.byte	56
 657 01f0 44       		.byte	68
 658 01f1 44       		.byte	68
 659 01f2 44       		.byte	68
 660 01f3 28       		.byte	40
 661 01f4 38       		.byte	56
 662 01f5 44       		.byte	68
 663 01f6 44       		.byte	68
 664 01f7 28       		.byte	40
 665 01f8 7F       		.byte	127
 666 01f9 38       		.byte	56
 667 01fa 54       		.byte	84
 668 01fb 54       		.byte	84
 669 01fc 54       		.byte	84
 670 01fd 18       		.byte	24
 671 01fe 00       		.byte	0
 672 01ff 08       		.byte	8
 673 0200 7E       		.byte	126
 674 0201 09       		.byte	9
 675 0202 02       		.byte	2
 676 0203 18       		.byte	24
 677 0204 A4       		.byte	-92
 678 0205 A4       		.byte	-92
 679 0206 9C       		.byte	-100
 680 0207 78       		.byte	120
 681 0208 7F       		.byte	127
 682 0209 08       		.byte	8
 683 020a 04       		.byte	4
 684 020b 04       		.byte	4
 685 020c 78       		.byte	120
 686 020d 00       		.byte	0
 687 020e 44       		.byte	68
 688 020f 7D       		.byte	125
ARM GAS  C:\Users\49148\AppData\Local\Temp\ccVXiEAG.s 			page 24


 689 0210 40       		.byte	64
 690 0211 00       		.byte	0
 691 0212 20       		.byte	32
 692 0213 40       		.byte	64
 693 0214 40       		.byte	64
 694 0215 3D       		.byte	61
 695 0216 00       		.byte	0
 696 0217 7F       		.byte	127
 697 0218 10       		.byte	16
 698 0219 28       		.byte	40
 699 021a 44       		.byte	68
 700 021b 00       		.byte	0
 701 021c 00       		.byte	0
 702 021d 41       		.byte	65
 703 021e 7F       		.byte	127
 704 021f 40       		.byte	64
 705 0220 00       		.byte	0
 706 0221 7C       		.byte	124
 707 0222 04       		.byte	4
 708 0223 78       		.byte	120
 709 0224 04       		.byte	4
 710 0225 78       		.byte	120
 711 0226 7C       		.byte	124
 712 0227 08       		.byte	8
 713 0228 04       		.byte	4
 714 0229 04       		.byte	4
 715 022a 78       		.byte	120
 716 022b 38       		.byte	56
 717 022c 44       		.byte	68
 718 022d 44       		.byte	68
 719 022e 44       		.byte	68
 720 022f 38       		.byte	56
 721 0230 FC       		.byte	-4
 722 0231 18       		.byte	24
 723 0232 24       		.byte	36
 724 0233 24       		.byte	36
 725 0234 18       		.byte	24
 726 0235 18       		.byte	24
 727 0236 24       		.byte	36
 728 0237 24       		.byte	36
 729 0238 18       		.byte	24
 730 0239 FC       		.byte	-4
 731 023a 7C       		.byte	124
 732 023b 08       		.byte	8
 733 023c 04       		.byte	4
 734 023d 04       		.byte	4
 735 023e 08       		.byte	8
 736 023f 48       		.byte	72
 737 0240 54       		.byte	84
 738 0241 54       		.byte	84
 739 0242 54       		.byte	84
 740 0243 24       		.byte	36
 741 0244 04       		.byte	4
 742 0245 04       		.byte	4
 743 0246 3F       		.byte	63
 744 0247 44       		.byte	68
 745 0248 24       		.byte	36
ARM GAS  C:\Users\49148\AppData\Local\Temp\ccVXiEAG.s 			page 25


 746 0249 3C       		.byte	60
 747 024a 40       		.byte	64
 748 024b 40       		.byte	64
 749 024c 20       		.byte	32
 750 024d 7C       		.byte	124
 751 024e 1C       		.byte	28
 752 024f 20       		.byte	32
 753 0250 40       		.byte	64
 754 0251 20       		.byte	32
 755 0252 1C       		.byte	28
 756 0253 3C       		.byte	60
 757 0254 40       		.byte	64
 758 0255 30       		.byte	48
 759 0256 40       		.byte	64
 760 0257 3C       		.byte	60
 761 0258 44       		.byte	68
 762 0259 28       		.byte	40
 763 025a 10       		.byte	16
 764 025b 28       		.byte	40
 765 025c 44       		.byte	68
 766 025d 4C       		.byte	76
 767 025e 90       		.byte	-112
 768 025f 90       		.byte	-112
 769 0260 90       		.byte	-112
 770 0261 7C       		.byte	124
 771 0262 44       		.byte	68
 772 0263 64       		.byte	100
 773 0264 54       		.byte	84
 774 0265 4C       		.byte	76
 775 0266 44       		.byte	68
 776 0267 00       		.byte	0
 777 0268 08       		.byte	8
 778 0269 36       		.byte	54
 779 026a 41       		.byte	65
 780 026b 00       		.byte	0
 781 026c 00       		.byte	0
 782 026d 00       		.byte	0
 783 026e 77       		.byte	119
 784 026f 00       		.byte	0
 785 0270 00       		.byte	0
 786 0271 00       		.byte	0
 787 0272 41       		.byte	65
 788 0273 36       		.byte	54
 789 0274 08       		.byte	8
 790 0275 00       		.byte	0
 791 0276 02       		.byte	2
 792 0277 01       		.byte	1
 793 0278 02       		.byte	2
 794 0279 04       		.byte	4
 795 027a 02       		.byte	2
 796 027b 3C       		.byte	60
 797 027c 26       		.byte	38
 798 027d 23       		.byte	35
 799 027e 26       		.byte	38
 800 027f 3C       		.byte	60
 801 0280 1E       		.byte	30
 802 0281 A1       		.byte	-95
ARM GAS  C:\Users\49148\AppData\Local\Temp\ccVXiEAG.s 			page 26


 803 0282 A1       		.byte	-95
 804 0283 61       		.byte	97
 805 0284 12       		.byte	18
 806 0285 3A       		.byte	58
 807 0286 40       		.byte	64
 808 0287 40       		.byte	64
 809 0288 20       		.byte	32
 810 0289 7A       		.byte	122
 811 028a 38       		.byte	56
 812 028b 54       		.byte	84
 813 028c 54       		.byte	84
 814 028d 55       		.byte	85
 815 028e 59       		.byte	89
 816 028f 21       		.byte	33
 817 0290 55       		.byte	85
 818 0291 55       		.byte	85
 819 0292 79       		.byte	121
 820 0293 41       		.byte	65
 821 0294 22       		.byte	34
 822 0295 54       		.byte	84
 823 0296 54       		.byte	84
 824 0297 78       		.byte	120
 825 0298 42       		.byte	66
 826 0299 21       		.byte	33
 827 029a 55       		.byte	85
 828 029b 54       		.byte	84
 829 029c 78       		.byte	120
 830 029d 40       		.byte	64
 831 029e 20       		.byte	32
 832 029f 54       		.byte	84
 833 02a0 55       		.byte	85
 834 02a1 79       		.byte	121
 835 02a2 40       		.byte	64
 836 02a3 0C       		.byte	12
 837 02a4 1E       		.byte	30
 838 02a5 52       		.byte	82
 839 02a6 72       		.byte	114
 840 02a7 12       		.byte	18
 841 02a8 39       		.byte	57
 842 02a9 55       		.byte	85
 843 02aa 55       		.byte	85
 844 02ab 55       		.byte	85
 845 02ac 59       		.byte	89
 846 02ad 39       		.byte	57
 847 02ae 54       		.byte	84
 848 02af 54       		.byte	84
 849 02b0 54       		.byte	84
 850 02b1 59       		.byte	89
 851 02b2 39       		.byte	57
 852 02b3 55       		.byte	85
 853 02b4 54       		.byte	84
 854 02b5 54       		.byte	84
 855 02b6 58       		.byte	88
 856 02b7 00       		.byte	0
 857 02b8 00       		.byte	0
 858 02b9 45       		.byte	69
 859 02ba 7C       		.byte	124
ARM GAS  C:\Users\49148\AppData\Local\Temp\ccVXiEAG.s 			page 27


 860 02bb 41       		.byte	65
 861 02bc 00       		.byte	0
 862 02bd 02       		.byte	2
 863 02be 45       		.byte	69
 864 02bf 7D       		.byte	125
 865 02c0 42       		.byte	66
 866 02c1 00       		.byte	0
 867 02c2 01       		.byte	1
 868 02c3 45       		.byte	69
 869 02c4 7C       		.byte	124
 870 02c5 40       		.byte	64
 871 02c6 7D       		.byte	125
 872 02c7 12       		.byte	18
 873 02c8 11       		.byte	17
 874 02c9 12       		.byte	18
 875 02ca 7D       		.byte	125
 876 02cb F0       		.byte	-16
 877 02cc 28       		.byte	40
 878 02cd 25       		.byte	37
 879 02ce 28       		.byte	40
 880 02cf F0       		.byte	-16
 881 02d0 7C       		.byte	124
 882 02d1 54       		.byte	84
 883 02d2 55       		.byte	85
 884 02d3 45       		.byte	69
 885 02d4 00       		.byte	0
 886 02d5 20       		.byte	32
 887 02d6 54       		.byte	84
 888 02d7 54       		.byte	84
 889 02d8 7C       		.byte	124
 890 02d9 54       		.byte	84
 891 02da 7C       		.byte	124
 892 02db 0A       		.byte	10
 893 02dc 09       		.byte	9
 894 02dd 7F       		.byte	127
 895 02de 49       		.byte	73
 896 02df 32       		.byte	50
 897 02e0 49       		.byte	73
 898 02e1 49       		.byte	73
 899 02e2 49       		.byte	73
 900 02e3 32       		.byte	50
 901 02e4 3A       		.byte	58
 902 02e5 44       		.byte	68
 903 02e6 44       		.byte	68
 904 02e7 44       		.byte	68
 905 02e8 3A       		.byte	58
 906 02e9 32       		.byte	50
 907 02ea 4A       		.byte	74
 908 02eb 48       		.byte	72
 909 02ec 48       		.byte	72
 910 02ed 30       		.byte	48
 911 02ee 3A       		.byte	58
 912 02ef 41       		.byte	65
 913 02f0 41       		.byte	65
 914 02f1 21       		.byte	33
 915 02f2 7A       		.byte	122
 916 02f3 3A       		.byte	58
ARM GAS  C:\Users\49148\AppData\Local\Temp\ccVXiEAG.s 			page 28


 917 02f4 42       		.byte	66
 918 02f5 40       		.byte	64
 919 02f6 20       		.byte	32
 920 02f7 78       		.byte	120
 921 02f8 00       		.byte	0
 922 02f9 9D       		.byte	-99
 923 02fa A0       		.byte	-96
 924 02fb A0       		.byte	-96
 925 02fc 7D       		.byte	125
 926 02fd 3D       		.byte	61
 927 02fe 42       		.byte	66
 928 02ff 42       		.byte	66
 929 0300 42       		.byte	66
 930 0301 3D       		.byte	61
 931 0302 3D       		.byte	61
 932 0303 40       		.byte	64
 933 0304 40       		.byte	64
 934 0305 40       		.byte	64
 935 0306 3D       		.byte	61
 936 0307 3C       		.byte	60
 937 0308 24       		.byte	36
 938 0309 FF       		.byte	-1
 939 030a 24       		.byte	36
 940 030b 24       		.byte	36
 941 030c 48       		.byte	72
 942 030d 7E       		.byte	126
 943 030e 49       		.byte	73
 944 030f 43       		.byte	67
 945 0310 66       		.byte	102
 946 0311 2B       		.byte	43
 947 0312 2F       		.byte	47
 948 0313 FC       		.byte	-4
 949 0314 2F       		.byte	47
 950 0315 2B       		.byte	43
 951 0316 FF       		.byte	-1
 952 0317 09       		.byte	9
 953 0318 29       		.byte	41
 954 0319 F6       		.byte	-10
 955 031a 20       		.byte	32
 956 031b C0       		.byte	-64
 957 031c 88       		.byte	-120
 958 031d 7E       		.byte	126
 959 031e 09       		.byte	9
 960 031f 03       		.byte	3
 961 0320 20       		.byte	32
 962 0321 54       		.byte	84
 963 0322 54       		.byte	84
 964 0323 79       		.byte	121
 965 0324 41       		.byte	65
 966 0325 00       		.byte	0
 967 0326 00       		.byte	0
 968 0327 44       		.byte	68
 969 0328 7D       		.byte	125
 970 0329 41       		.byte	65
 971 032a 30       		.byte	48
 972 032b 48       		.byte	72
 973 032c 48       		.byte	72
ARM GAS  C:\Users\49148\AppData\Local\Temp\ccVXiEAG.s 			page 29


 974 032d 4A       		.byte	74
 975 032e 32       		.byte	50
 976 032f 38       		.byte	56
 977 0330 40       		.byte	64
 978 0331 40       		.byte	64
 979 0332 22       		.byte	34
 980 0333 7A       		.byte	122
 981 0334 00       		.byte	0
 982 0335 7A       		.byte	122
 983 0336 0A       		.byte	10
 984 0337 0A       		.byte	10
 985 0338 72       		.byte	114
 986 0339 7D       		.byte	125
 987 033a 0D       		.byte	13
 988 033b 19       		.byte	25
 989 033c 31       		.byte	49
 990 033d 7D       		.byte	125
 991 033e 26       		.byte	38
 992 033f 29       		.byte	41
 993 0340 29       		.byte	41
 994 0341 2F       		.byte	47
 995 0342 28       		.byte	40
 996 0343 26       		.byte	38
 997 0344 29       		.byte	41
 998 0345 29       		.byte	41
 999 0346 29       		.byte	41
 1000 0347 26       		.byte	38
 1001 0348 30       		.byte	48
 1002 0349 48       		.byte	72
 1003 034a 4D       		.byte	77
 1004 034b 40       		.byte	64
 1005 034c 20       		.byte	32
 1006 034d 38       		.byte	56
 1007 034e 08       		.byte	8
 1008 034f 08       		.byte	8
 1009 0350 08       		.byte	8
 1010 0351 08       		.byte	8
 1011 0352 08       		.byte	8
 1012 0353 08       		.byte	8
 1013 0354 08       		.byte	8
 1014 0355 08       		.byte	8
 1015 0356 38       		.byte	56
 1016 0357 2F       		.byte	47
 1017 0358 10       		.byte	16
 1018 0359 C8       		.byte	-56
 1019 035a AC       		.byte	-84
 1020 035b BA       		.byte	-70
 1021 035c 2F       		.byte	47
 1022 035d 10       		.byte	16
 1023 035e 28       		.byte	40
 1024 035f 34       		.byte	52
 1025 0360 FA       		.byte	-6
 1026 0361 00       		.byte	0
 1027 0362 00       		.byte	0
 1028 0363 7B       		.byte	123
 1029 0364 00       		.byte	0
 1030 0365 00       		.byte	0
ARM GAS  C:\Users\49148\AppData\Local\Temp\ccVXiEAG.s 			page 30


 1031 0366 08       		.byte	8
 1032 0367 14       		.byte	20
 1033 0368 2A       		.byte	42
 1034 0369 14       		.byte	20
 1035 036a 22       		.byte	34
 1036 036b 22       		.byte	34
 1037 036c 14       		.byte	20
 1038 036d 2A       		.byte	42
 1039 036e 14       		.byte	20
 1040 036f 08       		.byte	8
 1041 0370 AA       		.byte	-86
 1042 0371 00       		.byte	0
 1043 0372 55       		.byte	85
 1044 0373 00       		.byte	0
 1045 0374 AA       		.byte	-86
 1046 0375 AA       		.byte	-86
 1047 0376 55       		.byte	85
 1048 0377 AA       		.byte	-86
 1049 0378 55       		.byte	85
 1050 0379 AA       		.byte	-86
 1051 037a 00       		.byte	0
 1052 037b 00       		.byte	0
 1053 037c 00       		.byte	0
 1054 037d FF       		.byte	-1
 1055 037e 00       		.byte	0
 1056 037f 10       		.byte	16
 1057 0380 10       		.byte	16
 1058 0381 10       		.byte	16
 1059 0382 FF       		.byte	-1
 1060 0383 00       		.byte	0
 1061 0384 14       		.byte	20
 1062 0385 14       		.byte	20
 1063 0386 14       		.byte	20
 1064 0387 FF       		.byte	-1
 1065 0388 00       		.byte	0
 1066 0389 10       		.byte	16
 1067 038a 10       		.byte	16
 1068 038b FF       		.byte	-1
 1069 038c 00       		.byte	0
 1070 038d FF       		.byte	-1
 1071 038e 10       		.byte	16
 1072 038f 10       		.byte	16
 1073 0390 F0       		.byte	-16
 1074 0391 10       		.byte	16
 1075 0392 F0       		.byte	-16
 1076 0393 14       		.byte	20
 1077 0394 14       		.byte	20
 1078 0395 14       		.byte	20
 1079 0396 FC       		.byte	-4
 1080 0397 00       		.byte	0
 1081 0398 14       		.byte	20
 1082 0399 14       		.byte	20
 1083 039a F7       		.byte	-9
 1084 039b 00       		.byte	0
 1085 039c FF       		.byte	-1
 1086 039d 00       		.byte	0
 1087 039e 00       		.byte	0
ARM GAS  C:\Users\49148\AppData\Local\Temp\ccVXiEAG.s 			page 31


 1088 039f FF       		.byte	-1
 1089 03a0 00       		.byte	0
 1090 03a1 FF       		.byte	-1
 1091 03a2 14       		.byte	20
 1092 03a3 14       		.byte	20
 1093 03a4 F4       		.byte	-12
 1094 03a5 04       		.byte	4
 1095 03a6 FC       		.byte	-4
 1096 03a7 14       		.byte	20
 1097 03a8 14       		.byte	20
 1098 03a9 17       		.byte	23
 1099 03aa 10       		.byte	16
 1100 03ab 1F       		.byte	31
 1101 03ac 10       		.byte	16
 1102 03ad 10       		.byte	16
 1103 03ae 1F       		.byte	31
 1104 03af 10       		.byte	16
 1105 03b0 1F       		.byte	31
 1106 03b1 14       		.byte	20
 1107 03b2 14       		.byte	20
 1108 03b3 14       		.byte	20
 1109 03b4 1F       		.byte	31
 1110 03b5 00       		.byte	0
 1111 03b6 10       		.byte	16
 1112 03b7 10       		.byte	16
 1113 03b8 10       		.byte	16
 1114 03b9 F0       		.byte	-16
 1115 03ba 00       		.byte	0
 1116 03bb 00       		.byte	0
 1117 03bc 00       		.byte	0
 1118 03bd 00       		.byte	0
 1119 03be 1F       		.byte	31
 1120 03bf 10       		.byte	16
 1121 03c0 10       		.byte	16
 1122 03c1 10       		.byte	16
 1123 03c2 10       		.byte	16
 1124 03c3 1F       		.byte	31
 1125 03c4 10       		.byte	16
 1126 03c5 10       		.byte	16
 1127 03c6 10       		.byte	16
 1128 03c7 10       		.byte	16
 1129 03c8 F0       		.byte	-16
 1130 03c9 10       		.byte	16
 1131 03ca 00       		.byte	0
 1132 03cb 00       		.byte	0
 1133 03cc 00       		.byte	0
 1134 03cd FF       		.byte	-1
 1135 03ce 10       		.byte	16
 1136 03cf 10       		.byte	16
 1137 03d0 10       		.byte	16
 1138 03d1 10       		.byte	16
 1139 03d2 10       		.byte	16
 1140 03d3 10       		.byte	16
 1141 03d4 10       		.byte	16
 1142 03d5 10       		.byte	16
 1143 03d6 10       		.byte	16
 1144 03d7 FF       		.byte	-1
ARM GAS  C:\Users\49148\AppData\Local\Temp\ccVXiEAG.s 			page 32


 1145 03d8 10       		.byte	16
 1146 03d9 00       		.byte	0
 1147 03da 00       		.byte	0
 1148 03db 00       		.byte	0
 1149 03dc FF       		.byte	-1
 1150 03dd 14       		.byte	20
 1151 03de 00       		.byte	0
 1152 03df 00       		.byte	0
 1153 03e0 FF       		.byte	-1
 1154 03e1 00       		.byte	0
 1155 03e2 FF       		.byte	-1
 1156 03e3 00       		.byte	0
 1157 03e4 00       		.byte	0
 1158 03e5 1F       		.byte	31
 1159 03e6 10       		.byte	16
 1160 03e7 17       		.byte	23
 1161 03e8 00       		.byte	0
 1162 03e9 00       		.byte	0
 1163 03ea FC       		.byte	-4
 1164 03eb 04       		.byte	4
 1165 03ec F4       		.byte	-12
 1166 03ed 14       		.byte	20
 1167 03ee 14       		.byte	20
 1168 03ef 17       		.byte	23
 1169 03f0 10       		.byte	16
 1170 03f1 17       		.byte	23
 1171 03f2 14       		.byte	20
 1172 03f3 14       		.byte	20
 1173 03f4 F4       		.byte	-12
 1174 03f5 04       		.byte	4
 1175 03f6 F4       		.byte	-12
 1176 03f7 00       		.byte	0
 1177 03f8 00       		.byte	0
 1178 03f9 FF       		.byte	-1
 1179 03fa 00       		.byte	0
 1180 03fb F7       		.byte	-9
 1181 03fc 14       		.byte	20
 1182 03fd 14       		.byte	20
 1183 03fe 14       		.byte	20
 1184 03ff 14       		.byte	20
 1185 0400 14       		.byte	20
 1186 0401 14       		.byte	20
 1187 0402 14       		.byte	20
 1188 0403 F7       		.byte	-9
 1189 0404 00       		.byte	0
 1190 0405 F7       		.byte	-9
 1191 0406 14       		.byte	20
 1192 0407 14       		.byte	20
 1193 0408 14       		.byte	20
 1194 0409 17       		.byte	23
 1195 040a 14       		.byte	20
 1196 040b 10       		.byte	16
 1197 040c 10       		.byte	16
 1198 040d 1F       		.byte	31
 1199 040e 10       		.byte	16
 1200 040f 1F       		.byte	31
 1201 0410 14       		.byte	20
ARM GAS  C:\Users\49148\AppData\Local\Temp\ccVXiEAG.s 			page 33


 1202 0411 14       		.byte	20
 1203 0412 14       		.byte	20
 1204 0413 F4       		.byte	-12
 1205 0414 14       		.byte	20
 1206 0415 10       		.byte	16
 1207 0416 10       		.byte	16
 1208 0417 F0       		.byte	-16
 1209 0418 10       		.byte	16
 1210 0419 F0       		.byte	-16
 1211 041a 00       		.byte	0
 1212 041b 00       		.byte	0
 1213 041c 1F       		.byte	31
 1214 041d 10       		.byte	16
 1215 041e 1F       		.byte	31
 1216 041f 00       		.byte	0
 1217 0420 00       		.byte	0
 1218 0421 00       		.byte	0
 1219 0422 1F       		.byte	31
 1220 0423 14       		.byte	20
 1221 0424 00       		.byte	0
 1222 0425 00       		.byte	0
 1223 0426 00       		.byte	0
 1224 0427 FC       		.byte	-4
 1225 0428 14       		.byte	20
 1226 0429 00       		.byte	0
 1227 042a 00       		.byte	0
 1228 042b F0       		.byte	-16
 1229 042c 10       		.byte	16
 1230 042d F0       		.byte	-16
 1231 042e 10       		.byte	16
 1232 042f 10       		.byte	16
 1233 0430 FF       		.byte	-1
 1234 0431 10       		.byte	16
 1235 0432 FF       		.byte	-1
 1236 0433 14       		.byte	20
 1237 0434 14       		.byte	20
 1238 0435 14       		.byte	20
 1239 0436 FF       		.byte	-1
 1240 0437 14       		.byte	20
 1241 0438 10       		.byte	16
 1242 0439 10       		.byte	16
 1243 043a 10       		.byte	16
 1244 043b 1F       		.byte	31
 1245 043c 00       		.byte	0
 1246 043d 00       		.byte	0
 1247 043e 00       		.byte	0
 1248 043f 00       		.byte	0
 1249 0440 F0       		.byte	-16
 1250 0441 10       		.byte	16
 1251 0442 FF       		.byte	-1
 1252 0443 FF       		.byte	-1
 1253 0444 FF       		.byte	-1
 1254 0445 FF       		.byte	-1
 1255 0446 FF       		.byte	-1
 1256 0447 F0       		.byte	-16
 1257 0448 F0       		.byte	-16
 1258 0449 F0       		.byte	-16
ARM GAS  C:\Users\49148\AppData\Local\Temp\ccVXiEAG.s 			page 34


 1259 044a F0       		.byte	-16
 1260 044b F0       		.byte	-16
 1261 044c FF       		.byte	-1
 1262 044d FF       		.byte	-1
 1263 044e FF       		.byte	-1
 1264 044f 00       		.byte	0
 1265 0450 00       		.byte	0
 1266 0451 00       		.byte	0
 1267 0452 00       		.byte	0
 1268 0453 00       		.byte	0
 1269 0454 FF       		.byte	-1
 1270 0455 FF       		.byte	-1
 1271 0456 0F       		.byte	15
 1272 0457 0F       		.byte	15
 1273 0458 0F       		.byte	15
 1274 0459 0F       		.byte	15
 1275 045a 0F       		.byte	15
 1276 045b 38       		.byte	56
 1277 045c 44       		.byte	68
 1278 045d 44       		.byte	68
 1279 045e 38       		.byte	56
 1280 045f 44       		.byte	68
 1281 0460 FC       		.byte	-4
 1282 0461 4A       		.byte	74
 1283 0462 4A       		.byte	74
 1284 0463 4A       		.byte	74
 1285 0464 34       		.byte	52
 1286 0465 7E       		.byte	126
 1287 0466 02       		.byte	2
 1288 0467 02       		.byte	2
 1289 0468 06       		.byte	6
 1290 0469 06       		.byte	6
 1291 046a 02       		.byte	2
 1292 046b 7E       		.byte	126
 1293 046c 02       		.byte	2
 1294 046d 7E       		.byte	126
 1295 046e 02       		.byte	2
 1296 046f 63       		.byte	99
 1297 0470 55       		.byte	85
 1298 0471 49       		.byte	73
 1299 0472 41       		.byte	65
 1300 0473 63       		.byte	99
 1301 0474 38       		.byte	56
 1302 0475 44       		.byte	68
 1303 0476 44       		.byte	68
 1304 0477 3C       		.byte	60
 1305 0478 04       		.byte	4
 1306 0479 40       		.byte	64
 1307 047a 7E       		.byte	126
 1308 047b 20       		.byte	32
 1309 047c 1E       		.byte	30
 1310 047d 20       		.byte	32
 1311 047e 06       		.byte	6
 1312 047f 02       		.byte	2
 1313 0480 7E       		.byte	126
 1314 0481 02       		.byte	2
 1315 0482 02       		.byte	2
ARM GAS  C:\Users\49148\AppData\Local\Temp\ccVXiEAG.s 			page 35


 1316 0483 99       		.byte	-103
 1317 0484 A5       		.byte	-91
 1318 0485 E7       		.byte	-25
 1319 0486 A5       		.byte	-91
 1320 0487 99       		.byte	-103
 1321 0488 1C       		.byte	28
 1322 0489 2A       		.byte	42
 1323 048a 49       		.byte	73
 1324 048b 2A       		.byte	42
 1325 048c 1C       		.byte	28
 1326 048d 4C       		.byte	76
 1327 048e 72       		.byte	114
 1328 048f 01       		.byte	1
 1329 0490 72       		.byte	114
 1330 0491 4C       		.byte	76
 1331 0492 30       		.byte	48
 1332 0493 4A       		.byte	74
 1333 0494 4D       		.byte	77
 1334 0495 4D       		.byte	77
 1335 0496 30       		.byte	48
 1336 0497 30       		.byte	48
 1337 0498 48       		.byte	72
 1338 0499 78       		.byte	120
 1339 049a 48       		.byte	72
 1340 049b 30       		.byte	48
 1341 049c BC       		.byte	-68
 1342 049d 62       		.byte	98
 1343 049e 5A       		.byte	90
 1344 049f 46       		.byte	70
 1345 04a0 3D       		.byte	61
 1346 04a1 3E       		.byte	62
 1347 04a2 49       		.byte	73
 1348 04a3 49       		.byte	73
 1349 04a4 49       		.byte	73
 1350 04a5 00       		.byte	0
 1351 04a6 7E       		.byte	126
 1352 04a7 01       		.byte	1
 1353 04a8 01       		.byte	1
 1354 04a9 01       		.byte	1
 1355 04aa 7E       		.byte	126
 1356 04ab 2A       		.byte	42
 1357 04ac 2A       		.byte	42
 1358 04ad 2A       		.byte	42
 1359 04ae 2A       		.byte	42
 1360 04af 2A       		.byte	42
 1361 04b0 44       		.byte	68
 1362 04b1 44       		.byte	68
 1363 04b2 5F       		.byte	95
 1364 04b3 44       		.byte	68
 1365 04b4 44       		.byte	68
 1366 04b5 40       		.byte	64
 1367 04b6 51       		.byte	81
 1368 04b7 4A       		.byte	74
 1369 04b8 44       		.byte	68
 1370 04b9 40       		.byte	64
 1371 04ba 40       		.byte	64
 1372 04bb 44       		.byte	68
ARM GAS  C:\Users\49148\AppData\Local\Temp\ccVXiEAG.s 			page 36


 1373 04bc 4A       		.byte	74
 1374 04bd 51       		.byte	81
 1375 04be 40       		.byte	64
 1376 04bf 00       		.byte	0
 1377 04c0 00       		.byte	0
 1378 04c1 FF       		.byte	-1
 1379 04c2 01       		.byte	1
 1380 04c3 03       		.byte	3
 1381 04c4 E0       		.byte	-32
 1382 04c5 80       		.byte	-128
 1383 04c6 FF       		.byte	-1
 1384 04c7 00       		.byte	0
 1385 04c8 00       		.byte	0
 1386 04c9 08       		.byte	8
 1387 04ca 08       		.byte	8
 1388 04cb 6B       		.byte	107
 1389 04cc 6B       		.byte	107
 1390 04cd 08       		.byte	8
 1391 04ce 36       		.byte	54
 1392 04cf 12       		.byte	18
 1393 04d0 36       		.byte	54
 1394 04d1 24       		.byte	36
 1395 04d2 36       		.byte	54
 1396 04d3 06       		.byte	6
 1397 04d4 0F       		.byte	15
 1398 04d5 09       		.byte	9
 1399 04d6 0F       		.byte	15
 1400 04d7 06       		.byte	6
 1401 04d8 00       		.byte	0
 1402 04d9 00       		.byte	0
 1403 04da 18       		.byte	24
 1404 04db 18       		.byte	24
 1405 04dc 00       		.byte	0
 1406 04dd 00       		.byte	0
 1407 04de 00       		.byte	0
 1408 04df 10       		.byte	16
 1409 04e0 10       		.byte	16
 1410 04e1 00       		.byte	0
 1411 04e2 30       		.byte	48
 1412 04e3 40       		.byte	64
 1413 04e4 FF       		.byte	-1
 1414 04e5 01       		.byte	1
 1415 04e6 01       		.byte	1
 1416 04e7 00       		.byte	0
 1417 04e8 1F       		.byte	31
 1418 04e9 01       		.byte	1
 1419 04ea 01       		.byte	1
 1420 04eb 1E       		.byte	30
 1421 04ec 00       		.byte	0
 1422 04ed 19       		.byte	25
 1423 04ee 1D       		.byte	29
 1424 04ef 17       		.byte	23
 1425 04f0 12       		.byte	18
 1426 04f1 00       		.byte	0
 1427 04f2 3C       		.byte	60
 1428 04f3 3C       		.byte	60
 1429 04f4 3C       		.byte	60
ARM GAS  C:\Users\49148\AppData\Local\Temp\ccVXiEAG.s 			page 37


 1430 04f5 3C       		.byte	60
 1431 04f6 00       		.byte	0
 1432 04f7 00       		.byte	0
 1433 04f8 00       		.byte	0
 1434 04f9 00       		.byte	0
 1435 04fa 00       		.byte	0
 1436              		.data
 1437              		.align	2
 1438              		.type	SH110X_buffer, %object
 1439              		.size	SH110X_buffer, 1025
 1440              	SH110X_buffer:
 1441 0000 40       		.byte	64
 1442 0001 00000000 		.space	1024
 1442      00000000 
 1442      00000000 
 1442      00000000 
 1442      00000000 
 1443 0401 000000   		.align	2
 1444              		.type	_displaybuf, %object
 1445              		.size	_displaybuf, 4
 1446              	_displaybuf:
 1447 0404 01000000 		.word	SH110X_buffer+1
 1448              		.align	1
 1449              		.type	_displaybuf_size, %object
 1450              		.size	_displaybuf_size, 2
 1451              	_displaybuf_size:
 1452 0408 0004     		.short	1024
 1453              		.bss
 1454              		.align	1
 1455              	_width:
 1456 0000 0000     		.space	2
 1457              		.align	1
 1458              	_height:
 1459 0002 0000     		.space	2
 1460              		.align	1
 1461              	cursor_x:
 1462 0004 0000     		.space	2
 1463              		.align	1
 1464              	cursor_y:
 1465 0006 0000     		.space	2
 1466              		.align	1
 1467              	textcolor:
 1468 0008 0000     		.space	2
 1469              		.align	1
 1470              	textbgcolor:
 1471 000a 0000     		.space	2
 1472              	textsize:
 1473 000c 00       		.space	1
 1474              		.comm	window_x1,2,2
 1475              		.comm	window_y1,2,2
 1476              		.comm	window_x2,2,2
 1477              		.comm	window_y2,2,2
 1478              		.comm	WIDTH,2,2
 1479              		.comm	HEIGHT,2,2
 1480              		.comm	rotation,1,1
 1481              		.comm	wrap,1,1
 1482              		.section	.rodata
ARM GAS  C:\Users\49148\AppData\Local\Temp\ccVXiEAG.s 			page 38


 1483 04fb 00       		.align	2
 1484              	.LC0:
 1485 04fc AE       		.byte	-82
 1486 04fd D5       		.byte	-43
 1487 04fe 51       		.byte	81
 1488 04ff 20       		.byte	32
 1489 0500 81       		.byte	-127
 1490 0501 4F       		.byte	79
 1491 0502 AD       		.byte	-83
 1492 0503 8A       		.byte	-118
 1493 0504 A0       		.byte	-96
 1494 0505 C0       		.byte	-64
 1495 0506 DC       		.byte	-36
 1496 0507 00       		.byte	0
 1497 0508 D3       		.byte	-45
 1498 0509 60       		.byte	96
 1499 050a D9       		.byte	-39
 1500 050b 22       		.byte	34
 1501 050c DB       		.byte	-37
 1502 050d 35       		.byte	53
 1503 050e A8       		.byte	-88
 1504 050f 3F       		.byte	63
 1505 0510 B0       		.byte	-80
 1506 0511 DA       		.byte	-38
 1507 0512 12       		.byte	18
 1508 0513 A4       		.byte	-92
 1509 0514 A6       		.byte	-90
 1510              		.section	.text.display_init,"ax",%progbits
 1511              		.align	2
 1512              		.global	display_init
 1513              		.thumb
 1514              		.thumb_func
 1515              		.type	display_init, %function
 1516              	display_init:
 1517              	.LFB627:
 1518              		.file 2 "oled_driver.c"
   1:oled_driver.c **** /**
   2:oled_driver.c ****  *   @file    oled_driver.c
   3:oled_driver.c ****  *   @author  Vlad-Eusebiu Baciu
   4:oled_driver.c ****  *   @brief   SH1107 Oled driver library
   5:oled_driver.c ****  *   @details Includes I2C communication and Adafruit gfx library
   6:oled_driver.c ****  *
   7:oled_driver.c ****  */
   8:oled_driver.c **** 
   9:oled_driver.c **** /*
  10:oled_driver.c **** ===== derived license (for graphics library) ======
  11:oled_driver.c **** 
  12:oled_driver.c **** Copyright (c) 2013 Adafruit Industries. All rights reserved.
  13:oled_driver.c **** 
  14:oled_driver.c **** Redistribution and use in source and binary forms, with or without
  15:oled_driver.c **** modification, are permitted provided that the following conditions are met:
  16:oled_driver.c **** - Redistributions of source code must retain the above copyright notice,
  17:oled_driver.c **** this list of conditions and the following disclaimer.
  18:oled_driver.c **** - Redistributions in binary form must reproduce the above copyright notice,
  19:oled_driver.c **** this list of conditions and the following disclaimer in the documentation
  20:oled_driver.c **** and/or other materials provided with the distribution.
  21:oled_driver.c **** THIS SOFTWARE IS PROVIDED BY THE COPYRIGHT HOLDERS AND CONTRIBUTORS "AS IS"
ARM GAS  C:\Users\49148\AppData\Local\Temp\ccVXiEAG.s 			page 39


  22:oled_driver.c **** AND ANY EXPRESS OR IMPLIED WARRANTIES, INCLUDING, BUT NOT LIMITED TO, THE
  23:oled_driver.c **** IMPLIED WARRANTIES OF MERCHANTABILITY AND FITNESS FOR A PARTICULAR PURPOSE
  24:oled_driver.c **** ARE DISCLAIMED. IN NO EVENT SHALL THE COPYRIGHT HOLDER OR CONTRIBUTORS BE
  25:oled_driver.c **** LIABLE FOR ANY DIRECT, INDIRECT, INCIDENTAL, SPECIAL, EXEMPLARY, OR
  26:oled_driver.c **** CONSEQUENTIAL DAMAGES (INCLUDING, BUT NOT LIMITED TO, PROCUREMENT OF
  27:oled_driver.c **** SUBSTITUTE GOODS OR SERVICES; LOSS OF USE, DATA, OR PROFITS; OR BUSINESS
  28:oled_driver.c **** INTERRUPTION) HOWEVER CAUSED AND ON ANY THEORY OF LIABILITY, WHETHER IN
  29:oled_driver.c **** CONTRACT, STRICT LIABILITY, OR TORT (INCLUDING NEGLIGENCE OR OTHERWISE)
  30:oled_driver.c **** ARISING IN ANY WAY OUT OF THE USE OF THIS SOFTWARE, EVEN IF ADVISED OF THE
  31:oled_driver.c **** POSSIBILITY OF SUCH DAMAGE.
  32:oled_driver.c **** */
  33:oled_driver.c **** 
  34:oled_driver.c **** /*=================================================================================================
  35:oled_driver.c ****  *                                        INCLUDE FILES
  36:oled_driver.c ****  * 1) system and project includes
  37:oled_driver.c ****  * 2) needed interfaces from external units
  38:oled_driver.c ****  * 3) internal and external interfaces from this unit
  39:oled_driver.c ****  *  ==============================================================================================*
  40:oled_driver.c **** 
  41:oled_driver.c **** /* @brief Include PSOC generated files */
  42:oled_driver.c **** #include "project.h"
  43:oled_driver.c **** 
  44:oled_driver.c **** /* @brief Include custom libraries for PPG EduKit */
  45:oled_driver.c **** #include "oled_driver.h"
  46:oled_driver.c **** #include "font.h"
  47:oled_driver.c **** 
  48:oled_driver.c **** /*=================================================================================================
  49:oled_driver.c ****  *                          LOCAL TYPEDEFS (STRUCTURES, UNIONS, ENUMS)
  50:oled_driver.c ****  *  ==============================================================================================*
  51:oled_driver.c **** 
  52:oled_driver.c **** 
  53:oled_driver.c **** /*=================================================================================================
  54:oled_driver.c ****  *                                       LOCAL MACROS
  55:oled_driver.c ****  *  ==============================================================================================*
  56:oled_driver.c **** 
  57:oled_driver.c **** #define I2C_TIMEOUT                 (100UL)
  58:oled_driver.c **** #define I2C_MAXIMUM_BUFF_SIZE       (32U)
  59:oled_driver.c **** 
  60:oled_driver.c **** #define DISPLAYWIDTH 64
  61:oled_driver.c **** #define DISPLAYHEIGHT 128
  62:oled_driver.c ****     
  63:oled_driver.c **** #define SH110X_MEMORYMODE 0x20          ///< See datasheet
  64:oled_driver.c **** #define SH110X_COLUMNADDR 0x21          ///< See datasheet
  65:oled_driver.c **** #define SH110X_PAGEADDR 0x22            ///< See datasheet
  66:oled_driver.c **** #define SH110X_SETCONTRAST 0x81         ///< See datasheet
  67:oled_driver.c **** #define SH110X_CHARGEPUMP 0x8D          ///< See datasheet
  68:oled_driver.c **** #define SH110X_SEGREMAP 0xA0            ///< See datasheet
  69:oled_driver.c **** #define SH110X_DISPLAYALLON_RESUME 0xA4 ///< See datasheet
  70:oled_driver.c **** #define SH110X_DISPLAYALLON 0xA5        ///< Not currently used
  71:oled_driver.c **** #define SH110X_NORMALDISPLAY 0xA6       ///< See datasheet
  72:oled_driver.c **** #define SH110X_INVERTDISPLAY 0xA7       ///< See datasheet
  73:oled_driver.c **** #define SH110X_SETMULTIPLEX 0xA8        ///< See datasheet
  74:oled_driver.c **** #define SH110X_DCDC 0xAD                ///< See datasheet
  75:oled_driver.c **** #define SH110X_DISPLAYOFF 0xAE          ///< See datasheet
  76:oled_driver.c **** #define SH110X_DISPLAYON 0xAF           ///< See datasheet
  77:oled_driver.c **** #define SH110X_SETPAGEADDR                                                     \
  78:oled_driver.c **** 0xB0 ///< Specify page address to load display RAM data to page address
ARM GAS  C:\Users\49148\AppData\Local\Temp\ccVXiEAG.s 			page 40


  79:oled_driver.c ****        ///< register
  80:oled_driver.c **** #define SH110X_COMSCANINC 0xC0         ///< Not currently used
  81:oled_driver.c **** #define SH110X_COMSCANDEC 0xC8         ///< See datasheet
  82:oled_driver.c **** #define SH110X_SETDISPLAYOFFSET 0xD3   ///< See datasheet
  83:oled_driver.c **** #define SH110X_SETDISPLAYCLOCKDIV 0xD5 ///< See datasheet
  84:oled_driver.c **** #define SH110X_SETPRECHARGE 0xD9       ///< See datasheet
  85:oled_driver.c **** #define SH110X_SETCOMPINS 0xDA         ///< See datasheet
  86:oled_driver.c **** #define SH110X_SETVCOMDETECT 0xDB      ///< See datasheet
  87:oled_driver.c **** #define SH110X_SETDISPSTARTLINE                                                \
  88:oled_driver.c ****   0xDC ///< Specify Column address to determine the initial display line or
  89:oled_driver.c ****        ///< COM0.
  90:oled_driver.c **** 
  91:oled_driver.c **** #define SH110X_SETLOWCOLUMN 0x00  ///< Not currently used
  92:oled_driver.c **** #define SH110X_SETHIGHCOLUMN 0x10 ///< Not currently used
  93:oled_driver.c **** #define SH110X_SETSTARTLINE 0x40  ///< See datasheet
  94:oled_driver.c **** 
  95:oled_driver.c **** 
  96:oled_driver.c **** // see data sheet page 25 for Graphic Display Data RAM organization
  97:oled_driver.c **** // 8 pages, each page a row of DISPLAYWIDTH bytes
  98:oled_driver.c **** // start address of of row: y/8*DISPLAYWIDTH
  99:oled_driver.c **** // x pos in row: == x 
 100:oled_driver.c **** #define GDDRAM_ADDRESS(X,Y) ((_displaybuf)+((Y)/8)*(DISPLAYWIDTH)+(X))
 101:oled_driver.c **** 
 102:oled_driver.c **** // lower 3 bit of y determine vertical pixel position (pos 0...7) in GDDRAM byte
 103:oled_driver.c **** // (y&0x07) == position of pixel on row (page). LSB is top, MSB bottom
 104:oled_driver.c **** #define GDDRAM_PIXMASK(Y) (1 << ((Y)&0x07))
 105:oled_driver.c **** 
 106:oled_driver.c **** #define PIXEL_ON(X,Y) (*GDDRAM_ADDRESS(x,y) |= GDDRAM_PIXMASK(y))
 107:oled_driver.c **** #define PIXEL_OFF(X,Y) (*GDDRAM_ADDRESS(x,y) &= ~GDDRAM_PIXMASK(y))
 108:oled_driver.c **** #define PIXEL_TOGGLE(X,Y) (*GDDRAM_ADDRESS(x,y) ^= GDDRAM_PIXMASK(y)) 
 109:oled_driver.c **** 
 110:oled_driver.c **** /*=================================================================================================
 111:oled_driver.c ****  *                                      LOCAL CONSTANTS
 112:oled_driver.c ****  *  ==============================================================================================*
 113:oled_driver.c **** 
 114:oled_driver.c **** 
 115:oled_driver.c **** /*=================================================================================================
 116:oled_driver.c ****  *                                      LOCAL VARIABLES
 117:oled_driver.c ****  *  ==============================================================================================*
 118:oled_driver.c **** 
 119:oled_driver.c **** /* @brief display memory buffer ( === MUST INCLUDE === the preceding I2C 0x40 control byte for the 
 120:oled_driver.c **** static uint8_t SH110X_buffer[DISPLAYHEIGHT * DISPLAYWIDTH / 8 + 1] = { 0x40 };
 121:oled_driver.c **** /* @brief pointer to actual display memory buffer */
 122:oled_driver.c **** static uint8_t* _displaybuf = SH110X_buffer+1;
 123:oled_driver.c **** static uint16_t _displaybuf_size = sizeof(SH110X_buffer) - 1;
 124:oled_driver.c **** 
 125:oled_driver.c **** /* @brief Display w/h as modified by current rotation */
 126:oled_driver.c **** static int16_t _width, _height;
 127:oled_driver.c **** /* @brief Stores current cursor position */
 128:oled_driver.c **** static int16_t cursor_x, cursor_y;
 129:oled_driver.c **** /* @brief Stores current text options */
 130:oled_driver.c **** static uint16_t textcolor, textbgcolor;
 131:oled_driver.c **** static uint8_t textsize;
 132:oled_driver.c **** 
 133:oled_driver.c **** /*=================================================================================================
 134:oled_driver.c ****  *                                      GLOBAL CONSTANTS
 135:oled_driver.c ****  *  ==============================================================================================*
ARM GAS  C:\Users\49148\AppData\Local\Temp\ccVXiEAG.s 			page 41


 136:oled_driver.c **** 
 137:oled_driver.c **** 
 138:oled_driver.c **** /*=================================================================================================
 139:oled_driver.c ****  *                                      GLOBAL VARIABLES
 140:oled_driver.c ****  *  ==============================================================================================*
 141:oled_driver.c **** 
 142:oled_driver.c **** /* @brief Dirty tracking window minimum x */
 143:oled_driver.c **** int16_t window_x1; 
 144:oled_driver.c **** /* @brief Dirty tracking window minimum y */
 145:oled_driver.c **** int16_t window_y1;
 146:oled_driver.c **** /* @brief Dirty tracking window maximum x */
 147:oled_driver.c **** int16_t window_x2;    
 148:oled_driver.c **** /* @brief Dirty tracking window maximum y */
 149:oled_driver.c **** int16_t window_y2; 
 150:oled_driver.c **** 
 151:oled_driver.c **** /* @brief This is the 'raw' display w/h - never changes */
 152:oled_driver.c **** int16_t WIDTH, HEIGHT;
 153:oled_driver.c **** /* @brief Stores the rotation of the display */
 154:oled_driver.c **** uint8_t rotation;
 155:oled_driver.c **** /* @brief If set, 'wrap' text at right edge of display */
 156:oled_driver.c **** uint8_t wrap; 
 157:oled_driver.c **** 
 158:oled_driver.c **** /*=================================================================================================
 159:oled_driver.c ****  *                                   LOCAL FUNCTION PROTOTYPES
 160:oled_driver.c ****  *  ==============================================================================================*
 161:oled_driver.c **** 
 162:oled_driver.c **** static uint32  display_write_buf( uint8* buf, uint16_t size, uint8_t dc_val, bool send_dc);
 163:oled_driver.c **** 
 164:oled_driver.c **** /*=================================================================================================
 165:oled_driver.c ****  *                                   GLOBAL FUNCTION PROTOTYPES
 166:oled_driver.c ****  *  ==============================================================================================*
 167:oled_driver.c **** 
 168:oled_driver.c **** void gfx_init( int16_t width, int16_t height );
 169:oled_driver.c **** 
 170:oled_driver.c **** /*=================================================================================================
 171:oled_driver.c ****  *                                       LOCAL FUNCTIONS
 172:oled_driver.c ****  *  ==============================================================================================*
 173:oled_driver.c **** 
 174:oled_driver.c **** 
 175:oled_driver.c **** /*=================================================================================================
 176:oled_driver.c ****  *                                       GLOBAL FUNCTIONS
 177:oled_driver.c ****  *  ==============================================================================================*
 178:oled_driver.c **** 
 179:oled_driver.c **** /***************************************************************************
 180:oled_driver.c ****  * Function: display_init    
 181:oled_driver.c ****  *
 182:oled_driver.c ****  * Description:  Send init command over I2C. Call before first use of other 
 183:oled_driver.c ****  *               functions
 184:oled_driver.c ****  **************************************************************************/
 185:oled_driver.c **** void display_init(void){
 1519              		.loc 2 185 0
 1520              		.cfi_startproc
 1521              		@ args = 0, pretend = 0, frame = 32
 1522              		@ frame_needed = 1, uses_anonymous_args = 0
 1523 0000 B0B5     		push	{r4, r5, r7, lr}
 1524              		.cfi_def_cfa_offset 16
 1525              		.cfi_offset 4, -16
ARM GAS  C:\Users\49148\AppData\Local\Temp\ccVXiEAG.s 			page 42


 1526              		.cfi_offset 5, -12
 1527              		.cfi_offset 7, -8
 1528              		.cfi_offset 14, -4
 1529 0002 88B0     		sub	sp, sp, #32
 1530              		.cfi_def_cfa_offset 48
 1531 0004 00AF     		add	r7, sp, #0
 1532              		.cfi_def_cfa_register 7
 186:oled_driver.c ****     
 187:oled_driver.c ****     
 188:oled_driver.c ****     gfx_init(DISPLAYWIDTH, DISPLAYHEIGHT);
 1533              		.loc 2 188 0
 1534 0006 8021     		movs	r1, #128
 1535 0008 4020     		movs	r0, #64
 1536 000a FFF7FEFF 		bl	gfx_init
 189:oled_driver.c ****    
 190:oled_driver.c ****     uint8 cmdbuf[] = {
 1537              		.loc 2 190 0
 1538 000e 114B     		ldr	r3, .L14
 1539 0010 3C1D     		adds	r4, r7, #4
 1540 0012 1D46     		mov	r5, r3
 1541 0014 2868     		ldr	r0, [r5]	@ unaligned
 1542 0016 6968     		ldr	r1, [r5, #4]	@ unaligned
 1543 0018 AA68     		ldr	r2, [r5, #8]	@ unaligned
 1544 001a EB68     		ldr	r3, [r5, #12]	@ unaligned
 1545 001c 0FC4     		stmia	r4!, {r0, r1, r2, r3}
 1546 001e 2869     		ldr	r0, [r5, #16]	@ unaligned
 1547 0020 6969     		ldr	r1, [r5, #20]	@ unaligned
 1548 0022 03C4     		stmia	r4!, {r0, r1}
 1549 0024 2B7E     		ldrb	r3, [r5, #24]
 1550 0026 2370     		strb	r3, [r4]
 191:oled_driver.c ****       SH110X_DISPLAYOFF,               // 0xAE
 192:oled_driver.c ****       SH110X_SETDISPLAYCLOCKDIV, 0x51, // 0xd5, 0x51,
 193:oled_driver.c ****       SH110X_MEMORYMODE,               // 0x20
 194:oled_driver.c ****       SH110X_SETCONTRAST, 0x4F,        // 0x81, 0x4F
 195:oled_driver.c ****       SH110X_DCDC, 0x8A,               // 0xAD, 0x8A
 196:oled_driver.c ****       SH110X_SEGREMAP,                 // 0xA0
 197:oled_driver.c ****       SH110X_COMSCANINC,               // 0xC0
 198:oled_driver.c ****       SH110X_SETDISPSTARTLINE, 0x0,    // 0xDC 0x00
 199:oled_driver.c ****       SH110X_SETDISPLAYOFFSET, 0x60,   // 0xd3, 0x60,
 200:oled_driver.c ****       SH110X_SETPRECHARGE, 0x22,       // 0xd9, 0x22,
 201:oled_driver.c ****       SH110X_SETVCOMDETECT, 0x35,      // 0xdb, 0x35,
 202:oled_driver.c ****       SH110X_SETMULTIPLEX, 0x3F,       // 0xa8, 0x3f,
 203:oled_driver.c ****       SH110X_SETPAGEADDR,                  // 0xb0
 204:oled_driver.c ****       SH110X_SETCOMPINS, 0x12,             // 0xda, 0x12,
 205:oled_driver.c ****       SH110X_DISPLAYALLON_RESUME, // 0xa4
 206:oled_driver.c ****       SH110X_NORMALDISPLAY,       // 0xa6
 207:oled_driver.c ****     };
 208:oled_driver.c ****     
 209:oled_driver.c ****     display_write_buf(cmdbuf, sizeof(cmdbuf), 0x00, true );
 1551              		.loc 2 209 0
 1552 0028 381D     		adds	r0, r7, #4
 1553 002a 0123     		movs	r3, #1
 1554 002c 0022     		movs	r2, #0
 1555 002e 1921     		movs	r1, #25
 1556 0030 FFF7FEFF 		bl	display_write_buf
 210:oled_driver.c ****     CyDelay(200);
 1557              		.loc 2 210 0
ARM GAS  C:\Users\49148\AppData\Local\Temp\ccVXiEAG.s 			page 43


 1558 0034 C820     		movs	r0, #200
 1559 0036 FFF7FEFF 		bl	Cy_SysLib_Delay
 211:oled_driver.c ****     cmdbuf[0] = SH110X_DISPLAYON;
 1560              		.loc 2 211 0
 1561 003a AF23     		movs	r3, #175
 1562 003c 3B71     		strb	r3, [r7, #4]
 212:oled_driver.c ****     display_write_buf(cmdbuf, 1, 0x00, true);
 1563              		.loc 2 212 0
 1564 003e 381D     		adds	r0, r7, #4
 1565 0040 0123     		movs	r3, #1
 1566 0042 0022     		movs	r2, #0
 1567 0044 0121     		movs	r1, #1
 1568 0046 FFF7FEFF 		bl	display_write_buf
 213:oled_driver.c ****     
 214:oled_driver.c **** }
 1569              		.loc 2 214 0
 1570 004a 00BF     		nop
 1571 004c 2037     		adds	r7, r7, #32
 1572              		.cfi_def_cfa_offset 16
 1573 004e BD46     		mov	sp, r7
 1574              		.cfi_def_cfa_register 13
 1575              		@ sp needed
 1576 0050 B0BD     		pop	{r4, r5, r7, pc}
 1577              	.L15:
 1578 0052 00BF     		.align	2
 1579              	.L14:
 1580 0054 FC040000 		.word	.LC0
 1581              		.cfi_endproc
 1582              	.LFE627:
 1583              		.size	display_init, .-display_init
 1584              		.section	.text.display_write_buf,"ax",%progbits
 1585              		.align	2
 1586              		.thumb
 1587              		.thumb_func
 1588              		.type	display_write_buf, %function
 1589              	display_write_buf:
 1590              	.LFB628:
 215:oled_driver.c **** 
 216:oled_driver.c **** /***************************************************************************
 217:oled_driver.c ****  * Function: display_write_buf    
 218:oled_driver.c ****  *
 219:oled_driver.c ****  * Description:  Send the display buffer over I2C
 220:oled_driver.c ****  *
 221:oled_driver.c ****  * NOTE:
 222:oled_driver.c ****  *          For submitting command sequences:  buf[0] must be 0x00
 223:oled_driver.c ****  *          For submitting bulk data (writing to display RAM): buf[0] must 
 224:oled_driver.c ****  *          be 0x40
 225:oled_driver.c ****  *
 226:oled_driver.c ****  **************************************************************************/
 227:oled_driver.c **** static uint32 display_write_buf( uint8* buf, uint16_t size, uint8_t dc_val, bool send_dc){
 1591              		.loc 2 227 0
 1592              		.cfi_startproc
 1593              		@ args = 0, pretend = 0, frame = 16
 1594              		@ frame_needed = 1, uses_anonymous_args = 0
 1595 0000 80B5     		push	{r7, lr}
 1596              		.cfi_def_cfa_offset 8
 1597              		.cfi_offset 7, -8
ARM GAS  C:\Users\49148\AppData\Local\Temp\ccVXiEAG.s 			page 44


 1598              		.cfi_offset 14, -4
 1599 0002 84B0     		sub	sp, sp, #16
 1600              		.cfi_def_cfa_offset 24
 1601 0004 00AF     		add	r7, sp, #0
 1602              		.cfi_def_cfa_register 7
 1603 0006 7860     		str	r0, [r7, #4]
 1604 0008 0846     		mov	r0, r1
 1605 000a 1146     		mov	r1, r2
 1606 000c 1A46     		mov	r2, r3
 1607 000e 0346     		mov	r3, r0	@ movhi
 1608 0010 7B80     		strh	r3, [r7, #2]	@ movhi
 1609 0012 0B46     		mov	r3, r1
 1610 0014 7B70     		strb	r3, [r7, #1]
 1611 0016 1346     		mov	r3, r2
 1612 0018 3B70     		strb	r3, [r7]
 228:oled_driver.c **** 
 229:oled_driver.c ****     uint32 status = TRANSFER_ERROR;
 1613              		.loc 2 229 0
 1614 001a FF23     		movs	r3, #255
 1615 001c FB60     		str	r3, [r7, #12]
 230:oled_driver.c ****     I2C_BUS_MasterSendStart(DISPLAY_ADDRESS, CY_SCB_I2C_WRITE_XFER, I2C_TIMEOUT);
 1616              		.loc 2 230 0
 1617 001e 6422     		movs	r2, #100
 1618 0020 0021     		movs	r1, #0
 1619 0022 3C20     		movs	r0, #60
 1620 0024 FFF7FEFF 		bl	I2C_BUS_MasterSendStart
 231:oled_driver.c ****     if(true == send_dc)
 1621              		.loc 2 231 0
 1622 0028 3B78     		ldrb	r3, [r7]	@ zero_extendqisi2
 1623 002a 002B     		cmp	r3, #0
 1624 002c 04D0     		beq	.L17
 232:oled_driver.c ****     {
 233:oled_driver.c ****         I2C_BUS_MasterWriteByte(dc_val, I2C_TIMEOUT);
 1625              		.loc 2 233 0
 1626 002e 7B78     		ldrb	r3, [r7, #1]	@ zero_extendqisi2
 1627 0030 6421     		movs	r1, #100
 1628 0032 1846     		mov	r0, r3
 1629 0034 FFF7FEFF 		bl	I2C_BUS_MasterWriteByte
 1630              	.L17:
 1631              	.LBB2:
 234:oled_driver.c ****     }
 235:oled_driver.c ****     for(int i=0; i<size; i++){  
 1632              		.loc 2 235 0
 1633 0038 0023     		movs	r3, #0
 1634 003a BB60     		str	r3, [r7, #8]
 1635 003c 0BE0     		b	.L18
 1636              	.L19:
 236:oled_driver.c ****         status=I2C_BUS_MasterWriteByte(buf[i], I2C_TIMEOUT);   
 1637              		.loc 2 236 0 discriminator 3
 1638 003e BB68     		ldr	r3, [r7, #8]
 1639 0040 7A68     		ldr	r2, [r7, #4]
 1640 0042 1344     		add	r3, r3, r2
 1641 0044 1B78     		ldrb	r3, [r3]	@ zero_extendqisi2
 1642 0046 6421     		movs	r1, #100
 1643 0048 1846     		mov	r0, r3
 1644 004a FFF7FEFF 		bl	I2C_BUS_MasterWriteByte
 1645 004e F860     		str	r0, [r7, #12]
ARM GAS  C:\Users\49148\AppData\Local\Temp\ccVXiEAG.s 			page 45


 235:oled_driver.c ****         status=I2C_BUS_MasterWriteByte(buf[i], I2C_TIMEOUT);   
 1646              		.loc 2 235 0 discriminator 3
 1647 0050 BB68     		ldr	r3, [r7, #8]
 1648 0052 0133     		adds	r3, r3, #1
 1649 0054 BB60     		str	r3, [r7, #8]
 1650              	.L18:
 235:oled_driver.c ****         status=I2C_BUS_MasterWriteByte(buf[i], I2C_TIMEOUT);   
 1651              		.loc 2 235 0 is_stmt 0 discriminator 1
 1652 0056 7A88     		ldrh	r2, [r7, #2]
 1653 0058 BB68     		ldr	r3, [r7, #8]
 1654 005a 9A42     		cmp	r2, r3
 1655 005c EFDC     		bgt	.L19
 1656              	.LBE2:
 237:oled_driver.c ****     }
 238:oled_driver.c ****     I2C_BUS_MasterSendStop(I2C_TIMEOUT);
 1657              		.loc 2 238 0 is_stmt 1
 1658 005e 6420     		movs	r0, #100
 1659 0060 FFF7FEFF 		bl	I2C_BUS_MasterSendStop
 239:oled_driver.c ****     return status;
 1660              		.loc 2 239 0
 1661 0064 FB68     		ldr	r3, [r7, #12]
 240:oled_driver.c **** }
 1662              		.loc 2 240 0
 1663 0066 1846     		mov	r0, r3
 1664 0068 1037     		adds	r7, r7, #16
 1665              		.cfi_def_cfa_offset 8
 1666 006a BD46     		mov	sp, r7
 1667              		.cfi_def_cfa_register 13
 1668              		@ sp needed
 1669 006c 80BD     		pop	{r7, pc}
 1670              		.cfi_endproc
 1671              	.LFE628:
 1672              		.size	display_write_buf, .-display_write_buf
 1673 006e 00BF     		.section	.text.display_setPixel,"ax",%progbits
 1674              		.align	2
 1675              		.thumb
 1676              		.thumb_func
 1677              		.type	display_setPixel, %function
 1678              	display_setPixel:
 1679              	.LFB629:
 241:oled_driver.c **** 
 242:oled_driver.c **** /***************************************************************************
 243:oled_driver.c ****  * Function: display_setPixel    
 244:oled_driver.c ****  *
 245:oled_driver.c ****  * Description:  Write the value of the pixel in display buffer
 246:oled_driver.c ****  **************************************************************************/
 247:oled_driver.c **** static void display_setPixel( int16_t x, int16_t y, uint16_t color ){
 1680              		.loc 2 247 0
 1681              		.cfi_startproc
 1682              		@ args = 0, pretend = 0, frame = 8
 1683              		@ frame_needed = 1, uses_anonymous_args = 0
 1684              		@ link register save eliminated.
 1685 0000 80B4     		push	{r7}
 1686              		.cfi_def_cfa_offset 4
 1687              		.cfi_offset 7, -4
 1688 0002 83B0     		sub	sp, sp, #12
 1689              		.cfi_def_cfa_offset 16
ARM GAS  C:\Users\49148\AppData\Local\Temp\ccVXiEAG.s 			page 46


 1690 0004 00AF     		add	r7, sp, #0
 1691              		.cfi_def_cfa_register 7
 1692 0006 0346     		mov	r3, r0
 1693 0008 FB80     		strh	r3, [r7, #6]	@ movhi
 1694 000a 0B46     		mov	r3, r1	@ movhi
 1695 000c BB80     		strh	r3, [r7, #4]	@ movhi
 1696 000e 1346     		mov	r3, r2	@ movhi
 1697 0010 7B80     		strh	r3, [r7, #2]	@ movhi
 248:oled_driver.c ****     
 249:oled_driver.c ****     if( (x < 0) || (x >= DISPLAYWIDTH) || (y < 0) || (y >= DISPLAYHEIGHT) )
 1698              		.loc 2 249 0
 1699 0012 B7F90630 		ldrsh	r3, [r7, #6]
 1700 0016 002B     		cmp	r3, #0
 1701 0018 C0F28E80 		blt	.L31
 1702              		.loc 2 249 0 is_stmt 0 discriminator 1
 1703 001c B7F90630 		ldrsh	r3, [r7, #6]
 1704 0020 3F2B     		cmp	r3, #63
 1705 0022 00F38980 		bgt	.L31
 1706              		.loc 2 249 0 discriminator 2
 1707 0026 B7F90430 		ldrsh	r3, [r7, #4]
 1708 002a 002B     		cmp	r3, #0
 1709 002c C0F28480 		blt	.L31
 1710              		.loc 2 249 0 discriminator 3
 1711 0030 B7F90430 		ldrsh	r3, [r7, #4]
 1712 0034 7F2B     		cmp	r3, #127
 1713 0036 7FDC     		bgt	.L31
 250:oled_driver.c ****         return;
 251:oled_driver.c **** 
 252:oled_driver.c ****     switch( color ){
 1714              		.loc 2 252 0 is_stmt 1
 1715 0038 7B88     		ldrh	r3, [r7, #2]
 1716 003a 012B     		cmp	r3, #1
 1717 003c 04D0     		beq	.L25
 1718 003e 022B     		cmp	r3, #2
 1719 0040 52D0     		beq	.L26
 1720 0042 002B     		cmp	r3, #0
 1721 0044 27D0     		beq	.L27
 1722 0046 78E0     		b	.L21
 1723              	.L25:
 253:oled_driver.c ****         case WHITE: 
 254:oled_driver.c ****             PIXEL_ON(x,y);
 1724              		.loc 2 254 0
 1725 0048 3E4B     		ldr	r3, .L32
 1726 004a 1A68     		ldr	r2, [r3]
 1727 004c B7F90430 		ldrsh	r3, [r7, #4]
 1728 0050 002B     		cmp	r3, #0
 1729 0052 00DA     		bge	.L28
 1730 0054 0733     		adds	r3, r3, #7
 1731              	.L28:
 1732 0056 DB10     		asrs	r3, r3, #3
 1733 0058 18B2     		sxth	r0, r3
 1734 005a 0346     		mov	r3, r0
 1735 005c 9B01     		lsls	r3, r3, #6
 1736 005e 1946     		mov	r1, r3
 1737 0060 B7F90630 		ldrsh	r3, [r7, #6]
 1738 0064 0B44     		add	r3, r3, r1
 1739 0066 1344     		add	r3, r3, r2
ARM GAS  C:\Users\49148\AppData\Local\Temp\ccVXiEAG.s 			page 47


 1740 0068 364A     		ldr	r2, .L32
 1741 006a 1168     		ldr	r1, [r2]
 1742 006c 0246     		mov	r2, r0
 1743 006e 9201     		lsls	r2, r2, #6
 1744 0070 1046     		mov	r0, r2
 1745 0072 B7F90620 		ldrsh	r2, [r7, #6]
 1746 0076 0244     		add	r2, r2, r0
 1747 0078 0A44     		add	r2, r2, r1
 1748 007a 1278     		ldrb	r2, [r2]	@ zero_extendqisi2
 1749 007c 51B2     		sxtb	r1, r2
 1750 007e BA88     		ldrh	r2, [r7, #4]
 1751 0080 02F00702 		and	r2, r2, #7
 1752 0084 0120     		movs	r0, #1
 1753 0086 00FA02F2 		lsl	r2, r0, r2
 1754 008a 52B2     		sxtb	r2, r2
 1755 008c 0A43     		orrs	r2, r2, r1
 1756 008e 52B2     		sxtb	r2, r2
 1757 0090 D2B2     		uxtb	r2, r2
 1758 0092 1A70     		strb	r2, [r3]
 255:oled_driver.c ****             break;
 1759              		.loc 2 255 0
 1760 0094 51E0     		b	.L21
 1761              	.L27:
 256:oled_driver.c ****         case BLACK:
 257:oled_driver.c ****             PIXEL_OFF(x,y);
 1762              		.loc 2 257 0
 1763 0096 2B4B     		ldr	r3, .L32
 1764 0098 1A68     		ldr	r2, [r3]
 1765 009a B7F90430 		ldrsh	r3, [r7, #4]
 1766 009e 002B     		cmp	r3, #0
 1767 00a0 00DA     		bge	.L29
 1768 00a2 0733     		adds	r3, r3, #7
 1769              	.L29:
 1770 00a4 DB10     		asrs	r3, r3, #3
 1771 00a6 18B2     		sxth	r0, r3
 1772 00a8 0346     		mov	r3, r0
 1773 00aa 9B01     		lsls	r3, r3, #6
 1774 00ac 1946     		mov	r1, r3
 1775 00ae B7F90630 		ldrsh	r3, [r7, #6]
 1776 00b2 0B44     		add	r3, r3, r1
 1777 00b4 1344     		add	r3, r3, r2
 1778 00b6 234A     		ldr	r2, .L32
 1779 00b8 1168     		ldr	r1, [r2]
 1780 00ba 0246     		mov	r2, r0
 1781 00bc 9201     		lsls	r2, r2, #6
 1782 00be 1046     		mov	r0, r2
 1783 00c0 B7F90620 		ldrsh	r2, [r7, #6]
 1784 00c4 0244     		add	r2, r2, r0
 1785 00c6 0A44     		add	r2, r2, r1
 1786 00c8 1278     		ldrb	r2, [r2]	@ zero_extendqisi2
 1787 00ca 51B2     		sxtb	r1, r2
 1788 00cc BA88     		ldrh	r2, [r7, #4]
 1789 00ce 02F00702 		and	r2, r2, #7
 1790 00d2 0120     		movs	r0, #1
 1791 00d4 00FA02F2 		lsl	r2, r0, r2
 1792 00d8 52B2     		sxtb	r2, r2
 1793 00da D243     		mvns	r2, r2
ARM GAS  C:\Users\49148\AppData\Local\Temp\ccVXiEAG.s 			page 48


 1794 00dc 52B2     		sxtb	r2, r2
 1795 00de 0A40     		ands	r2, r2, r1
 1796 00e0 52B2     		sxtb	r2, r2
 1797 00e2 D2B2     		uxtb	r2, r2
 1798 00e4 1A70     		strb	r2, [r3]
 258:oled_driver.c ****             break;
 1799              		.loc 2 258 0
 1800 00e6 28E0     		b	.L21
 1801              	.L26:
 259:oled_driver.c ****         case INVERSE: 
 260:oled_driver.c ****             PIXEL_TOGGLE(x,y);
 1802              		.loc 2 260 0
 1803 00e8 164B     		ldr	r3, .L32
 1804 00ea 1A68     		ldr	r2, [r3]
 1805 00ec B7F90430 		ldrsh	r3, [r7, #4]
 1806 00f0 002B     		cmp	r3, #0
 1807 00f2 00DA     		bge	.L30
 1808 00f4 0733     		adds	r3, r3, #7
 1809              	.L30:
 1810 00f6 DB10     		asrs	r3, r3, #3
 1811 00f8 18B2     		sxth	r0, r3
 1812 00fa 0346     		mov	r3, r0
 1813 00fc 9B01     		lsls	r3, r3, #6
 1814 00fe 1946     		mov	r1, r3
 1815 0100 B7F90630 		ldrsh	r3, [r7, #6]
 1816 0104 0B44     		add	r3, r3, r1
 1817 0106 1344     		add	r3, r3, r2
 1818 0108 0E4A     		ldr	r2, .L32
 1819 010a 1168     		ldr	r1, [r2]
 1820 010c 0246     		mov	r2, r0
 1821 010e 9201     		lsls	r2, r2, #6
 1822 0110 1046     		mov	r0, r2
 1823 0112 B7F90620 		ldrsh	r2, [r7, #6]
 1824 0116 0244     		add	r2, r2, r0
 1825 0118 0A44     		add	r2, r2, r1
 1826 011a 1278     		ldrb	r2, [r2]	@ zero_extendqisi2
 1827 011c 51B2     		sxtb	r1, r2
 1828 011e BA88     		ldrh	r2, [r7, #4]
 1829 0120 02F00702 		and	r2, r2, #7
 1830 0124 0120     		movs	r0, #1
 1831 0126 00FA02F2 		lsl	r2, r0, r2
 1832 012a 52B2     		sxtb	r2, r2
 1833 012c 4A40     		eors	r2, r2, r1
 1834 012e 52B2     		sxtb	r2, r2
 1835 0130 D2B2     		uxtb	r2, r2
 1836 0132 1A70     		strb	r2, [r3]
 261:oled_driver.c ****             break;
 1837              		.loc 2 261 0
 1838 0134 00BF     		nop
 1839 0136 00E0     		b	.L21
 1840              	.L31:
 250:oled_driver.c **** 
 1841              		.loc 2 250 0
 1842 0138 00BF     		nop
 1843              	.L21:
 262:oled_driver.c ****     }
 263:oled_driver.c **** }
ARM GAS  C:\Users\49148\AppData\Local\Temp\ccVXiEAG.s 			page 49


 1844              		.loc 2 263 0
 1845 013a 0C37     		adds	r7, r7, #12
 1846              		.cfi_def_cfa_offset 4
 1847 013c BD46     		mov	sp, r7
 1848              		.cfi_def_cfa_register 13
 1849              		@ sp needed
 1850 013e 5DF8047B 		ldr	r7, [sp], #4
 1851              		.cfi_restore 7
 1852              		.cfi_def_cfa_offset 0
 1853 0142 7047     		bx	lr
 1854              	.L33:
 1855              		.align	2
 1856              	.L32:
 1857 0144 04040000 		.word	_displaybuf
 1858              		.cfi_endproc
 1859              	.LFE629:
 1860              		.size	display_setPixel, .-display_setPixel
 1861              		.section	.text.display_clear,"ax",%progbits
 1862              		.align	2
 1863              		.global	display_clear
 1864              		.thumb
 1865              		.thumb_func
 1866              		.type	display_clear, %function
 1867              	display_clear:
 1868              	.LFB630:
 264:oled_driver.c **** 
 265:oled_driver.c **** /***************************************************************************
 266:oled_driver.c ****  * Function: display_clear    
 267:oled_driver.c ****  *
 268:oled_driver.c ****  * Description:  Clear display buffer and display pointers
 269:oled_driver.c ****  **************************************************************************/
 270:oled_driver.c **** void display_clear(void){
 1869              		.loc 2 270 0
 1870              		.cfi_startproc
 1871              		@ args = 0, pretend = 0, frame = 0
 1872              		@ frame_needed = 1, uses_anonymous_args = 0
 1873 0000 80B5     		push	{r7, lr}
 1874              		.cfi_def_cfa_offset 8
 1875              		.cfi_offset 7, -8
 1876              		.cfi_offset 14, -4
 1877 0002 00AF     		add	r7, sp, #0
 1878              		.cfi_def_cfa_register 7
 271:oled_driver.c ****     memset( _displaybuf, 0, _displaybuf_size );
 1879              		.loc 2 271 0
 1880 0004 0C4B     		ldr	r3, .L35
 1881 0006 1868     		ldr	r0, [r3]
 1882 0008 0C4B     		ldr	r3, .L35+4
 1883 000a 1B88     		ldrh	r3, [r3]
 1884 000c 1A46     		mov	r2, r3
 1885 000e 0021     		movs	r1, #0
 1886 0010 FFF7FEFF 		bl	memset
 272:oled_driver.c ****     SH110X_buffer[0] = 0x40; // to be sure its there
 1887              		.loc 2 272 0
 1888 0014 0A4B     		ldr	r3, .L35+8
 1889 0016 4022     		movs	r2, #64
 1890 0018 1A70     		strb	r2, [r3]
 273:oled_driver.c ****     
ARM GAS  C:\Users\49148\AppData\Local\Temp\ccVXiEAG.s 			page 50


 274:oled_driver.c ****     window_x1 = 0;
 1891              		.loc 2 274 0
 1892 001a 0A4B     		ldr	r3, .L35+12
 1893 001c 0022     		movs	r2, #0
 1894 001e 1A80     		strh	r2, [r3]	@ movhi
 275:oled_driver.c ****     window_y1 = 0;
 1895              		.loc 2 275 0
 1896 0020 094B     		ldr	r3, .L35+16
 1897 0022 0022     		movs	r2, #0
 1898 0024 1A80     		strh	r2, [r3]	@ movhi
 276:oled_driver.c ****     window_x2 = DISPLAYWIDTH - 1;
 1899              		.loc 2 276 0
 1900 0026 094B     		ldr	r3, .L35+20
 1901 0028 3F22     		movs	r2, #63
 1902 002a 1A80     		strh	r2, [r3]	@ movhi
 277:oled_driver.c ****     window_y2 = DISPLAYHEIGHT - 1;
 1903              		.loc 2 277 0
 1904 002c 084B     		ldr	r3, .L35+24
 1905 002e 7F22     		movs	r2, #127
 1906 0030 1A80     		strh	r2, [r3]	@ movhi
 278:oled_driver.c ****     
 279:oled_driver.c **** }
 1907              		.loc 2 279 0
 1908 0032 00BF     		nop
 1909 0034 80BD     		pop	{r7, pc}
 1910              	.L36:
 1911 0036 00BF     		.align	2
 1912              	.L35:
 1913 0038 04040000 		.word	_displaybuf
 1914 003c 08040000 		.word	_displaybuf_size
 1915 0040 00000000 		.word	SH110X_buffer
 1916 0044 00000000 		.word	window_x1
 1917 0048 00000000 		.word	window_y1
 1918 004c 00000000 		.word	window_x2
 1919 0050 00000000 		.word	window_y2
 1920              		.cfi_endproc
 1921              	.LFE630:
 1922              		.size	display_clear, .-display_clear
 1923              		.section	.text.display_contrast,"ax",%progbits
 1924              		.align	2
 1925              		.global	display_contrast
 1926              		.thumb
 1927              		.thumb_func
 1928              		.type	display_contrast, %function
 1929              	display_contrast:
 1930              	.LFB631:
 280:oled_driver.c **** 
 281:oled_driver.c **** /***************************************************************************
 282:oled_driver.c ****  * Function: display_invert    
 283:oled_driver.c ****  *
 284:oled_driver.c ****  * Description:  Set contrast (0 ... 255)
 285:oled_driver.c ****  **************************************************************************/
 286:oled_driver.c **** void display_contrast( uint8_t contrast ){
 1931              		.loc 2 286 0
 1932              		.cfi_startproc
 1933              		@ args = 0, pretend = 0, frame = 16
 1934              		@ frame_needed = 1, uses_anonymous_args = 0
ARM GAS  C:\Users\49148\AppData\Local\Temp\ccVXiEAG.s 			page 51


 1935 0000 80B5     		push	{r7, lr}
 1936              		.cfi_def_cfa_offset 8
 1937              		.cfi_offset 7, -8
 1938              		.cfi_offset 14, -4
 1939 0002 84B0     		sub	sp, sp, #16
 1940              		.cfi_def_cfa_offset 24
 1941 0004 00AF     		add	r7, sp, #0
 1942              		.cfi_def_cfa_register 7
 1943 0006 0346     		mov	r3, r0
 1944 0008 FB71     		strb	r3, [r7, #7]
 287:oled_driver.c ****         
 288:oled_driver.c ****     uint8 cmdbuf[] = {
 1945              		.loc 2 288 0
 1946 000a 8123     		movs	r3, #129
 1947 000c 3B73     		strb	r3, [r7, #12]
 1948 000e FB79     		ldrb	r3, [r7, #7]
 1949 0010 7B73     		strb	r3, [r7, #13]
 289:oled_driver.c ****         SH110X_SETCONTRAST,
 290:oled_driver.c ****         contrast
 291:oled_driver.c ****     };
 292:oled_driver.c ****     display_write_buf( cmdbuf, sizeof(cmdbuf), 0x00, true ); 
 1950              		.loc 2 292 0
 1951 0012 07F10C00 		add	r0, r7, #12
 1952 0016 0123     		movs	r3, #1
 1953 0018 0022     		movs	r2, #0
 1954 001a 0221     		movs	r1, #2
 1955 001c FFF7FEFF 		bl	display_write_buf
 293:oled_driver.c **** }
 1956              		.loc 2 293 0
 1957 0020 00BF     		nop
 1958 0022 1037     		adds	r7, r7, #16
 1959              		.cfi_def_cfa_offset 8
 1960 0024 BD46     		mov	sp, r7
 1961              		.cfi_def_cfa_register 13
 1962              		@ sp needed
 1963 0026 80BD     		pop	{r7, pc}
 1964              		.cfi_endproc
 1965              	.LFE631:
 1966              		.size	display_contrast, .-display_contrast
 1967              		.section	.text.display_invert,"ax",%progbits
 1968              		.align	2
 1969              		.global	display_invert
 1970              		.thumb
 1971              		.thumb_func
 1972              		.type	display_invert, %function
 1973              	display_invert:
 1974              	.LFB632:
 294:oled_driver.c **** 
 295:oled_driver.c **** /***************************************************************************
 296:oled_driver.c ****  * Function: display_invert    
 297:oled_driver.c ****  *
 298:oled_driver.c ****  * Description:  Invert 1 for inverse display, invert 0 for normal display
 299:oled_driver.c ****  **************************************************************************/
 300:oled_driver.c **** void display_invert( uint8_t invert ){
 1975              		.loc 2 300 0
 1976              		.cfi_startproc
 1977              		@ args = 0, pretend = 0, frame = 16
ARM GAS  C:\Users\49148\AppData\Local\Temp\ccVXiEAG.s 			page 52


 1978              		@ frame_needed = 1, uses_anonymous_args = 0
 1979 0000 80B5     		push	{r7, lr}
 1980              		.cfi_def_cfa_offset 8
 1981              		.cfi_offset 7, -8
 1982              		.cfi_offset 14, -4
 1983 0002 84B0     		sub	sp, sp, #16
 1984              		.cfi_def_cfa_offset 24
 1985 0004 00AF     		add	r7, sp, #0
 1986              		.cfi_def_cfa_register 7
 1987 0006 0346     		mov	r3, r0
 1988 0008 FB71     		strb	r3, [r7, #7]
 301:oled_driver.c **** 
 302:oled_driver.c ****     uint8 cmdbuf[] = {
 1989              		.loc 2 302 0
 1990 000a 0023     		movs	r3, #0
 1991 000c 3B73     		strb	r3, [r7, #12]
 1992 000e 0023     		movs	r3, #0
 1993 0010 7B73     		strb	r3, [r7, #13]
 303:oled_driver.c ****         0x00,  
 304:oled_driver.c ****         0
 305:oled_driver.c ****     };
 306:oled_driver.c ****     cmdbuf[1] = invert ? SH110X_INVERTDISPLAY : SH110X_NORMALDISPLAY;
 1994              		.loc 2 306 0
 1995 0012 FB79     		ldrb	r3, [r7, #7]	@ zero_extendqisi2
 1996 0014 002B     		cmp	r3, #0
 1997 0016 01D0     		beq	.L39
 1998              		.loc 2 306 0 is_stmt 0 discriminator 1
 1999 0018 A723     		movs	r3, #167
 2000 001a 00E0     		b	.L40
 2001              	.L39:
 2002              		.loc 2 306 0 discriminator 2
 2003 001c A623     		movs	r3, #166
 2004              	.L40:
 2005              		.loc 2 306 0 discriminator 4
 2006 001e 7B73     		strb	r3, [r7, #13]
 307:oled_driver.c ****     display_write_buf( cmdbuf, sizeof(cmdbuf), 0x00, false); 
 2007              		.loc 2 307 0 is_stmt 1 discriminator 4
 2008 0020 07F10C00 		add	r0, r7, #12
 2009 0024 0023     		movs	r3, #0
 2010 0026 0022     		movs	r2, #0
 2011 0028 0221     		movs	r1, #2
 2012 002a FFF7FEFF 		bl	display_write_buf
 308:oled_driver.c **** }
 2013              		.loc 2 308 0 discriminator 4
 2014 002e 00BF     		nop
 2015 0030 1037     		adds	r7, r7, #16
 2016              		.cfi_def_cfa_offset 8
 2017 0032 BD46     		mov	sp, r7
 2018              		.cfi_def_cfa_register 13
 2019              		@ sp needed
 2020 0034 80BD     		pop	{r7, pc}
 2021              		.cfi_endproc
 2022              	.LFE632:
 2023              		.size	display_invert, .-display_invert
 2024 0036 00BF     		.section	.text.display_update,"ax",%progbits
 2025              		.align	2
 2026              		.global	display_update
ARM GAS  C:\Users\49148\AppData\Local\Temp\ccVXiEAG.s 			page 53


 2027              		.thumb
 2028              		.thumb_func
 2029              		.type	display_update, %function
 2030              	display_update:
 2031              	.LFB633:
 309:oled_driver.c **** 
 310:oled_driver.c **** /***************************************************************************
 311:oled_driver.c ****  * Function: display_update    
 312:oled_driver.c ****  *
 313:oled_driver.c ****  * Description:  Update the display. Send the display buffer to the OLED I2C
 314:oled_driver.c **** *                controller
 315:oled_driver.c ****  **************************************************************************/
 316:oled_driver.c **** void display_update(void) {
 2032              		.loc 2 316 0
 2033              		.cfi_startproc
 2034              		@ args = 0, pretend = 0, frame = 24
 2035              		@ frame_needed = 1, uses_anonymous_args = 0
 2036 0000 80B5     		push	{r7, lr}
 2037              		.cfi_def_cfa_offset 8
 2038              		.cfi_offset 7, -8
 2039              		.cfi_offset 14, -4
 2040 0002 86B0     		sub	sp, sp, #24
 2041              		.cfi_def_cfa_offset 32
 2042 0004 00AF     		add	r7, sp, #0
 2043              		.cfi_def_cfa_register 7
 317:oled_driver.c ****  
 318:oled_driver.c ****     uint8_t *ptr = _displaybuf;
 2044              		.loc 2 318 0
 2045 0006 404B     		ldr	r3, .L49
 2046 0008 1B68     		ldr	r3, [r3]
 2047 000a 7B61     		str	r3, [r7, #20]
 319:oled_driver.c ****     uint8_t dc_byte = 0x40;
 2048              		.loc 2 319 0
 2049 000c 4023     		movs	r3, #64
 2050 000e 7B74     		strb	r3, [r7, #17]
 320:oled_driver.c ****     uint8_t pages = ((DISPLAYHEIGHT + 7) / 8);
 2051              		.loc 2 320 0
 2052 0010 1023     		movs	r3, #16
 2053 0012 3B74     		strb	r3, [r7, #16]
 321:oled_driver.c ****     
 322:oled_driver.c ****     uint8_t bytes_per_page = DISPLAYWIDTH;
 2054              		.loc 2 322 0
 2055 0014 4023     		movs	r3, #64
 2056 0016 FB73     		strb	r3, [r7, #15]
 323:oled_driver.c ****     uint16_t maxbuff = I2C_MAXIMUM_BUFF_SIZE - 1;
 2057              		.loc 2 323 0
 2058 0018 1F23     		movs	r3, #31
 2059 001a BB81     		strh	r3, [r7, #12]	@ movhi
 324:oled_driver.c ****     
 325:oled_driver.c ****     
 326:oled_driver.c ****     
 327:oled_driver.c ****     uint8_t first_page = window_y1 / 8;
 2060              		.loc 2 327 0
 2061 001c 3B4B     		ldr	r3, .L49+4
 2062 001e B3F90030 		ldrsh	r3, [r3]
 2063 0022 002B     		cmp	r3, #0
 2064 0024 00DA     		bge	.L42
ARM GAS  C:\Users\49148\AppData\Local\Temp\ccVXiEAG.s 			page 54


 2065 0026 0733     		adds	r3, r3, #7
 2066              	.L42:
 2067 0028 DB10     		asrs	r3, r3, #3
 2068 002a 1BB2     		sxth	r3, r3
 2069 002c FB72     		strb	r3, [r7, #11]
 328:oled_driver.c ****     uint8_t page_start = MIN(bytes_per_page, (uint8_t)window_x1);
 2070              		.loc 2 328 0
 2071 002e 384B     		ldr	r3, .L49+8
 2072 0030 B3F90030 		ldrsh	r3, [r3]
 2073 0034 DAB2     		uxtb	r2, r3
 2074 0036 FB7B     		ldrb	r3, [r7, #15]	@ zero_extendqisi2
 2075 0038 9342     		cmp	r3, r2
 2076 003a 28BF     		it	cs
 2077 003c 1346     		movcs	r3, r2
 2078 003e BB72     		strb	r3, [r7, #10]
 329:oled_driver.c ****     uint8_t page_end = (uint8_t)MAX((int)0, (int)window_x2);
 2079              		.loc 2 329 0
 2080 0040 344B     		ldr	r3, .L49+12
 2081 0042 B3F90030 		ldrsh	r3, [r3]
 2082 0046 002B     		cmp	r3, #0
 2083 0048 04DB     		blt	.L43
 2084              		.loc 2 329 0 is_stmt 0 discriminator 1
 2085 004a 324B     		ldr	r3, .L49+12
 2086 004c B3F90030 		ldrsh	r3, [r3]
 2087 0050 DBB2     		uxtb	r3, r3
 2088 0052 00E0     		b	.L44
 2089              	.L43:
 2090              		.loc 2 329 0 discriminator 2
 2091 0054 0023     		movs	r3, #0
 2092              	.L44:
 2093              		.loc 2 329 0 discriminator 4
 2094 0056 7B72     		strb	r3, [r7, #9]
 2095              	.LBB3:
 330:oled_driver.c **** 
 331:oled_driver.c ****     for (uint8_t p = first_page; p < pages; p++) 
 2096              		.loc 2 331 0 is_stmt 1 discriminator 4
 2097 0058 FB7A     		ldrb	r3, [r7, #11]
 2098 005a FB74     		strb	r3, [r7, #19]
 2099 005c 4BE0     		b	.L45
 2100              	.L48:
 2101              	.LBB4:
 332:oled_driver.c ****     {
 333:oled_driver.c ****         uint8_t bytes_remaining = bytes_per_page;
 2102              		.loc 2 333 0
 2103 005e FB7B     		ldrb	r3, [r7, #15]
 2104 0060 BB74     		strb	r3, [r7, #18]
 334:oled_driver.c ****         ptr = _displaybuf + (uint16_t)p * (uint16_t)bytes_per_page;
 2105              		.loc 2 334 0
 2106 0062 294B     		ldr	r3, .L49
 2107 0064 1B68     		ldr	r3, [r3]
 2108 0066 FA7C     		ldrb	r2, [r7, #19]	@ zero_extendqisi2
 2109 0068 F97B     		ldrb	r1, [r7, #15]	@ zero_extendqisi2
 2110 006a 01FB02F2 		mul	r2, r1, r2
 2111 006e 1344     		add	r3, r3, r2
 2112 0070 7B61     		str	r3, [r7, #20]
 335:oled_driver.c ****         ptr += page_start;
 2113              		.loc 2 335 0
ARM GAS  C:\Users\49148\AppData\Local\Temp\ccVXiEAG.s 			page 55


 2114 0072 BB7A     		ldrb	r3, [r7, #10]	@ zero_extendqisi2
 2115 0074 7A69     		ldr	r2, [r7, #20]
 2116 0076 1344     		add	r3, r3, r2
 2117 0078 7B61     		str	r3, [r7, #20]
 336:oled_driver.c ****         bytes_remaining -= page_start;
 2118              		.loc 2 336 0
 2119 007a BA7C     		ldrb	r2, [r7, #18]
 2120 007c BB7A     		ldrb	r3, [r7, #10]
 2121 007e D31A     		subs	r3, r2, r3
 2122 0080 BB74     		strb	r3, [r7, #18]
 337:oled_driver.c ****         
 338:oled_driver.c ****         bytes_remaining -= (DISPLAYWIDTH - 1) - page_end;
 2123              		.loc 2 338 0
 2124 0082 7A7A     		ldrb	r2, [r7, #9]
 2125 0084 BB7C     		ldrb	r3, [r7, #18]
 2126 0086 1344     		add	r3, r3, r2
 2127 0088 DBB2     		uxtb	r3, r3
 2128 008a 3F3B     		subs	r3, r3, #63
 2129 008c BB74     		strb	r3, [r7, #18]
 339:oled_driver.c **** 
 340:oled_driver.c **** 
 341:oled_driver.c ****         uint8_t cmd[] = { 0x00, (uint8_t)(SH110X_SETPAGEADDR + p),
 2130              		.loc 2 341 0
 2131 008e 0023     		movs	r3, #0
 2132 0090 3B71     		strb	r3, [r7, #4]
 2133 0092 FB7C     		ldrb	r3, [r7, #19]
 2134 0094 503B     		subs	r3, r3, #80
 2135 0096 DBB2     		uxtb	r3, r3
 2136 0098 7B71     		strb	r3, [r7, #5]
 342:oled_driver.c ****                          (uint8_t)(0x10 + ((page_start) >> 4)),
 2137              		.loc 2 342 0
 2138 009a BB7A     		ldrb	r3, [r7, #10]	@ zero_extendqisi2
 2139 009c 1B09     		lsrs	r3, r3, #4
 2140 009e DBB2     		uxtb	r3, r3
 2141 00a0 1033     		adds	r3, r3, #16
 2142 00a2 DBB2     		uxtb	r3, r3
 341:oled_driver.c ****                          (uint8_t)(0x10 + ((page_start) >> 4)),
 2143              		.loc 2 341 0
 2144 00a4 BB71     		strb	r3, [r7, #6]
 343:oled_driver.c ****                          (uint8_t)((page_start) & 0xF)
 2145              		.loc 2 343 0
 2146 00a6 BB7A     		ldrb	r3, [r7, #10]
 2147 00a8 03F00F03 		and	r3, r3, #15
 2148 00ac DBB2     		uxtb	r3, r3
 341:oled_driver.c ****                          (uint8_t)(0x10 + ((page_start) >> 4)),
 2149              		.loc 2 341 0
 2150 00ae FB71     		strb	r3, [r7, #7]
 344:oled_driver.c ****                         };
 345:oled_driver.c **** 
 346:oled_driver.c ****         display_write_buf(cmd, 4, 0x00, false);
 2151              		.loc 2 346 0
 2152 00b0 381D     		adds	r0, r7, #4
 2153 00b2 0023     		movs	r3, #0
 2154 00b4 0022     		movs	r2, #0
 2155 00b6 0421     		movs	r1, #4
 2156 00b8 FFF7FEFF 		bl	display_write_buf
 347:oled_driver.c ****      
ARM GAS  C:\Users\49148\AppData\Local\Temp\ccVXiEAG.s 			page 56


 348:oled_driver.c ****         while (bytes_remaining) 
 2157              		.loc 2 348 0
 2158 00bc 15E0     		b	.L46
 2159              	.L47:
 2160              	.LBB5:
 349:oled_driver.c ****         {
 350:oled_driver.c ****             uint8_t to_write = MIN(bytes_remaining, (uint8_t)maxbuff);
 2161              		.loc 2 350 0
 2162 00be BB89     		ldrh	r3, [r7, #12]	@ movhi
 2163 00c0 DAB2     		uxtb	r2, r3
 2164 00c2 BB7C     		ldrb	r3, [r7, #18]	@ zero_extendqisi2
 2165 00c4 9342     		cmp	r3, r2
 2166 00c6 28BF     		it	cs
 2167 00c8 1346     		movcs	r3, r2
 2168 00ca 3B72     		strb	r3, [r7, #8]
 351:oled_driver.c ****             display_write_buf(ptr, to_write, dc_byte, true);
 2169              		.loc 2 351 0
 2170 00cc 3B7A     		ldrb	r3, [r7, #8]	@ zero_extendqisi2
 2171 00ce 99B2     		uxth	r1, r3
 2172 00d0 7A7C     		ldrb	r2, [r7, #17]	@ zero_extendqisi2
 2173 00d2 0123     		movs	r3, #1
 2174 00d4 7869     		ldr	r0, [r7, #20]
 2175 00d6 FFF7FEFF 		bl	display_write_buf
 352:oled_driver.c ****             ptr += to_write;
 2176              		.loc 2 352 0
 2177 00da 3B7A     		ldrb	r3, [r7, #8]	@ zero_extendqisi2
 2178 00dc 7A69     		ldr	r2, [r7, #20]
 2179 00de 1344     		add	r3, r3, r2
 2180 00e0 7B61     		str	r3, [r7, #20]
 353:oled_driver.c ****             bytes_remaining -= to_write;
 2181              		.loc 2 353 0
 2182 00e2 BA7C     		ldrb	r2, [r7, #18]
 2183 00e4 3B7A     		ldrb	r3, [r7, #8]
 2184 00e6 D31A     		subs	r3, r2, r3
 2185 00e8 BB74     		strb	r3, [r7, #18]
 2186              	.L46:
 2187              	.LBE5:
 348:oled_driver.c ****         {
 2188              		.loc 2 348 0
 2189 00ea BB7C     		ldrb	r3, [r7, #18]	@ zero_extendqisi2
 2190 00ec 002B     		cmp	r3, #0
 2191 00ee E6D1     		bne	.L47
 2192              	.LBE4:
 331:oled_driver.c ****     {
 2193              		.loc 2 331 0 discriminator 2
 2194 00f0 FB7C     		ldrb	r3, [r7, #19]	@ zero_extendqisi2
 2195 00f2 0133     		adds	r3, r3, #1
 2196 00f4 FB74     		strb	r3, [r7, #19]
 2197              	.L45:
 331:oled_driver.c ****     {
 2198              		.loc 2 331 0 is_stmt 0 discriminator 1
 2199 00f6 FA7C     		ldrb	r2, [r7, #19]	@ zero_extendqisi2
 2200 00f8 3B7C     		ldrb	r3, [r7, #16]	@ zero_extendqisi2
 2201 00fa 9A42     		cmp	r2, r3
 2202 00fc AFD3     		bcc	.L48
 2203              	.LBE3:
 354:oled_driver.c ****         }
ARM GAS  C:\Users\49148\AppData\Local\Temp\ccVXiEAG.s 			page 57


 355:oled_driver.c ****    }
 356:oled_driver.c **** }
 2204              		.loc 2 356 0 is_stmt 1
 2205 00fe 00BF     		nop
 2206 0100 1837     		adds	r7, r7, #24
 2207              		.cfi_def_cfa_offset 8
 2208 0102 BD46     		mov	sp, r7
 2209              		.cfi_def_cfa_register 13
 2210              		@ sp needed
 2211 0104 80BD     		pop	{r7, pc}
 2212              	.L50:
 2213 0106 00BF     		.align	2
 2214              	.L49:
 2215 0108 04040000 		.word	_displaybuf
 2216 010c 00000000 		.word	window_y1
 2217 0110 00000000 		.word	window_x1
 2218 0114 00000000 		.word	window_x2
 2219              		.cfi_endproc
 2220              	.LFE633:
 2221              		.size	display_update, .-display_update
 2222              		.section	.text.display_line,"ax",%progbits
 2223              		.align	2
 2224              		.thumb
 2225              		.thumb_func
 2226              		.type	display_line, %function
 2227              	display_line:
 2228              	.LFB634:
 357:oled_driver.c **** 
 358:oled_driver.c **** /***************************************************************************
 359:oled_driver.c ****  * Function: display_line    
 360:oled_driver.c ****  *
 361:oled_driver.c ****  * Description:  Draws a horizontal or a vertical line
 362:oled_driver.c ****  **************************************************************************/
 363:oled_driver.c **** static void display_line( int16_t x1, int16_t y1, int16_t x2, int16_t y2, uint16_t color ){
 2229              		.loc 2 363 0
 2230              		.cfi_startproc
 2231              		@ args = 4, pretend = 0, frame = 48
 2232              		@ frame_needed = 1, uses_anonymous_args = 0
 2233              		@ link register save eliminated.
 2234 0000 90B4     		push	{r4, r7}
 2235              		.cfi_def_cfa_offset 8
 2236              		.cfi_offset 4, -8
 2237              		.cfi_offset 7, -4
 2238 0002 8CB0     		sub	sp, sp, #48
 2239              		.cfi_def_cfa_offset 56
 2240 0004 00AF     		add	r7, sp, #0
 2241              		.cfi_def_cfa_register 7
 2242 0006 0446     		mov	r4, r0
 2243 0008 0846     		mov	r0, r1
 2244 000a 1146     		mov	r1, r2
 2245 000c 1A46     		mov	r2, r3
 2246 000e 2346     		mov	r3, r4	@ movhi
 2247 0010 FB80     		strh	r3, [r7, #6]	@ movhi
 2248 0012 0346     		mov	r3, r0	@ movhi
 2249 0014 BB80     		strh	r3, [r7, #4]	@ movhi
 2250 0016 0B46     		mov	r3, r1	@ movhi
 2251 0018 7B80     		strh	r3, [r7, #2]	@ movhi
ARM GAS  C:\Users\49148\AppData\Local\Temp\ccVXiEAG.s 			page 58


 2252 001a 1346     		mov	r3, r2	@ movhi
 2253 001c 3B80     		strh	r3, [r7]	@ movhi
 364:oled_driver.c **** 
 365:oled_driver.c ****     if( x1 == x2 ){
 2254              		.loc 2 365 0
 2255 001e B7F90620 		ldrsh	r2, [r7, #6]
 2256 0022 B7F90230 		ldrsh	r3, [r7, #2]
 2257 0026 9A42     		cmp	r2, r3
 2258 0028 40F0B980 		bne	.L52
 2259              	.LBB6:
 366:oled_driver.c ****         // vertical
 367:oled_driver.c ****         uint8_t* pstart = GDDRAM_ADDRESS(x1,y1);
 2260              		.loc 2 367 0
 2261 002c 854B     		ldr	r3, .L81
 2262 002e 1A68     		ldr	r2, [r3]
 2263 0030 B7F90430 		ldrsh	r3, [r7, #4]
 2264 0034 002B     		cmp	r3, #0
 2265 0036 00DA     		bge	.L53
 2266 0038 0733     		adds	r3, r3, #7
 2267              	.L53:
 2268 003a DB10     		asrs	r3, r3, #3
 2269 003c 1BB2     		sxth	r3, r3
 2270 003e 9B01     		lsls	r3, r3, #6
 2271 0040 1946     		mov	r1, r3
 2272 0042 B7F90630 		ldrsh	r3, [r7, #6]
 2273 0046 0B44     		add	r3, r3, r1
 2274 0048 1344     		add	r3, r3, r2
 2275 004a 3B62     		str	r3, [r7, #32]
 368:oled_driver.c ****         uint8_t* pend = GDDRAM_ADDRESS(x2,y2);       
 2276              		.loc 2 368 0
 2277 004c 7D4B     		ldr	r3, .L81
 2278 004e 1A68     		ldr	r2, [r3]
 2279 0050 B7F90030 		ldrsh	r3, [r7]
 2280 0054 002B     		cmp	r3, #0
 2281 0056 00DA     		bge	.L54
 2282 0058 0733     		adds	r3, r3, #7
 2283              	.L54:
 2284 005a DB10     		asrs	r3, r3, #3
 2285 005c 1BB2     		sxth	r3, r3
 2286 005e 9B01     		lsls	r3, r3, #6
 2287 0060 1946     		mov	r1, r3
 2288 0062 B7F90230 		ldrsh	r3, [r7, #2]
 2289 0066 0B44     		add	r3, r3, r1
 2290 0068 1344     		add	r3, r3, r2
 2291 006a FB61     		str	r3, [r7, #28]
 369:oled_driver.c ****         uint8_t* ptr = pstart;             
 2292              		.loc 2 369 0
 2293 006c 3B6A     		ldr	r3, [r7, #32]
 2294 006e FB62     		str	r3, [r7, #44]
 370:oled_driver.c ****         
 371:oled_driver.c ****         while( ptr <= pend ){
 2295              		.loc 2 371 0
 2296 0070 8FE0     		b	.L55
 2297              	.L71:
 2298              	.LBB7:
 372:oled_driver.c ****             
 373:oled_driver.c ****             uint8_t mask;
ARM GAS  C:\Users\49148\AppData\Local\Temp\ccVXiEAG.s 			page 59


 374:oled_driver.c ****             if( ptr == pstart ){
 2299              		.loc 2 374 0
 2300 0072 FA6A     		ldr	r2, [r7, #44]
 2301 0074 3B6A     		ldr	r3, [r7, #32]
 2302 0076 9A42     		cmp	r2, r3
 2303 0078 2BD1     		bne	.L56
 2304              	.LBB8:
 375:oled_driver.c ****                 // top
 376:oled_driver.c ****                 uint8_t lbit = y1 % 8;
 2305              		.loc 2 376 0
 2306 007a B7F90420 		ldrsh	r2, [r7, #4]
 2307 007e 724B     		ldr	r3, .L81+4
 2308 0080 1340     		ands	r3, r3, r2
 2309 0082 002B     		cmp	r3, #0
 2310 0084 03DA     		bge	.L57
 2311 0086 013B     		subs	r3, r3, #1
 2312 0088 63F00703 		orn	r3, r3, #7
 2313 008c 0133     		adds	r3, r3, #1
 2314              	.L57:
 2315 008e 1BB2     		sxth	r3, r3
 2316 0090 FB76     		strb	r3, [r7, #27]
 377:oled_driver.c ****                 // bottom (line can be very short, all inside this one byte)
 378:oled_driver.c ****                 uint8_t ubit = lbit + y2 - y1;
 2317              		.loc 2 378 0
 2318 0092 3B88     		ldrh	r3, [r7]	@ movhi
 2319 0094 DAB2     		uxtb	r2, r3
 2320 0096 FB7E     		ldrb	r3, [r7, #27]
 2321 0098 1344     		add	r3, r3, r2
 2322 009a DAB2     		uxtb	r2, r3
 2323 009c BB88     		ldrh	r3, [r7, #4]	@ movhi
 2324 009e DBB2     		uxtb	r3, r3
 2325 00a0 D31A     		subs	r3, r2, r3
 2326 00a2 87F82A30 		strb	r3, [r7, #42]
 379:oled_driver.c ****                 if( ubit >= 7 )
 2327              		.loc 2 379 0
 2328 00a6 97F82A30 		ldrb	r3, [r7, #42]	@ zero_extendqisi2
 2329 00aa 062B     		cmp	r3, #6
 2330 00ac 02D9     		bls	.L58
 380:oled_driver.c ****                     ubit = 7;
 2331              		.loc 2 380 0
 2332 00ae 0723     		movs	r3, #7
 2333 00b0 87F82A30 		strb	r3, [r7, #42]
 2334              	.L58:
 381:oled_driver.c ****                 mask = ((1 << (ubit-lbit+1)) - 1) << lbit;    
 2335              		.loc 2 381 0
 2336 00b4 97F82A20 		ldrb	r2, [r7, #42]	@ zero_extendqisi2
 2337 00b8 FB7E     		ldrb	r3, [r7, #27]	@ zero_extendqisi2
 2338 00ba D31A     		subs	r3, r2, r3
 2339 00bc 0133     		adds	r3, r3, #1
 2340 00be 0122     		movs	r2, #1
 2341 00c0 02FA03F3 		lsl	r3, r2, r3
 2342 00c4 5A1E     		subs	r2, r3, #1
 2343 00c6 FB7E     		ldrb	r3, [r7, #27]	@ zero_extendqisi2
 2344 00c8 02FA03F3 		lsl	r3, r2, r3
 2345 00cc 87F82B30 		strb	r3, [r7, #43]
 2346              	.LBE8:
 2347 00d0 15E0     		b	.L59
ARM GAS  C:\Users\49148\AppData\Local\Temp\ccVXiEAG.s 			page 60


 2348              	.L56:
 382:oled_driver.c ****             }else if( ptr == pend ){
 2349              		.loc 2 382 0
 2350 00d2 FA6A     		ldr	r2, [r7, #44]
 2351 00d4 FB69     		ldr	r3, [r7, #28]
 2352 00d6 9A42     		cmp	r2, r3
 2353 00d8 11D1     		bne	.L59
 383:oled_driver.c ****                 // top is always bit 0, that makes it easy
 384:oled_driver.c ****                 // bottom
 385:oled_driver.c ****                 mask = (1 << (y2 % 8)) - 1;    
 2354              		.loc 2 385 0
 2355 00da B7F90020 		ldrsh	r2, [r7]
 2356 00de 5A4B     		ldr	r3, .L81+4
 2357 00e0 1340     		ands	r3, r3, r2
 2358 00e2 002B     		cmp	r3, #0
 2359 00e4 03DA     		bge	.L60
 2360 00e6 013B     		subs	r3, r3, #1
 2361 00e8 63F00703 		orn	r3, r3, #7
 2362 00ec 0133     		adds	r3, r3, #1
 2363              	.L60:
 2364 00ee 1BB2     		sxth	r3, r3
 2365 00f0 1A46     		mov	r2, r3
 2366 00f2 0123     		movs	r3, #1
 2367 00f4 9340     		lsls	r3, r3, r2
 2368 00f6 DBB2     		uxtb	r3, r3
 2369 00f8 013B     		subs	r3, r3, #1
 2370 00fa 87F82B30 		strb	r3, [r7, #43]
 2371              	.L59:
 386:oled_driver.c ****             }
 387:oled_driver.c **** 
 388:oled_driver.c ****             if( ptr == pstart || ptr == pend ){
 2372              		.loc 2 388 0
 2373 00fe FA6A     		ldr	r2, [r7, #44]
 2374 0100 3B6A     		ldr	r3, [r7, #32]
 2375 0102 9A42     		cmp	r2, r3
 2376 0104 03D0     		beq	.L61
 2377              		.loc 2 388 0 is_stmt 0 discriminator 1
 2378 0106 FA6A     		ldr	r2, [r7, #44]
 2379 0108 FB69     		ldr	r3, [r7, #28]
 2380 010a 9A42     		cmp	r2, r3
 2381 010c 27D1     		bne	.L62
 2382              	.L61:
 389:oled_driver.c ****                 switch( color ){
 2383              		.loc 2 389 0 is_stmt 1
 2384 010e 3B8F     		ldrh	r3, [r7, #56]
 2385 0110 012B     		cmp	r3, #1
 2386 0112 04D0     		beq	.L64
 2387 0114 022B     		cmp	r3, #2
 2388 0116 18D0     		beq	.L65
 2389 0118 002B     		cmp	r3, #0
 2390 011a 09D0     		beq	.L66
 390:oled_driver.c ****                     case WHITE:     *ptr |= mask; break;
 391:oled_driver.c ****                     case BLACK:     *ptr &= ~mask; break;
 392:oled_driver.c ****                     case INVERSE:   *ptr ^= mask; break;
 393:oled_driver.c ****                 };  
 2391              		.loc 2 393 0
 2392 011c 36E0     		b	.L67
ARM GAS  C:\Users\49148\AppData\Local\Temp\ccVXiEAG.s 			page 61


 2393              	.L64:
 390:oled_driver.c ****                     case WHITE:     *ptr |= mask; break;
 2394              		.loc 2 390 0
 2395 011e FB6A     		ldr	r3, [r7, #44]
 2396 0120 1A78     		ldrb	r2, [r3]	@ zero_extendqisi2
 2397 0122 97F82B30 		ldrb	r3, [r7, #43]
 2398 0126 1343     		orrs	r3, r3, r2
 2399 0128 DAB2     		uxtb	r2, r3
 2400 012a FB6A     		ldr	r3, [r7, #44]
 2401 012c 1A70     		strb	r2, [r3]
 2402 012e 15E0     		b	.L63
 2403              	.L66:
 391:oled_driver.c ****                     case INVERSE:   *ptr ^= mask; break;
 2404              		.loc 2 391 0
 2405 0130 FB6A     		ldr	r3, [r7, #44]
 2406 0132 1B78     		ldrb	r3, [r3]	@ zero_extendqisi2
 2407 0134 5AB2     		sxtb	r2, r3
 2408 0136 97F92B30 		ldrsb	r3, [r7, #43]
 2409 013a DB43     		mvns	r3, r3
 2410 013c 5BB2     		sxtb	r3, r3
 2411 013e 1340     		ands	r3, r3, r2
 2412 0140 5BB2     		sxtb	r3, r3
 2413 0142 DAB2     		uxtb	r2, r3
 2414 0144 FB6A     		ldr	r3, [r7, #44]
 2415 0146 1A70     		strb	r2, [r3]
 2416 0148 08E0     		b	.L63
 2417              	.L65:
 392:oled_driver.c ****                 };  
 2418              		.loc 2 392 0
 2419 014a FB6A     		ldr	r3, [r7, #44]
 2420 014c 1A78     		ldrb	r2, [r3]	@ zero_extendqisi2
 2421 014e 97F82B30 		ldrb	r3, [r7, #43]
 2422 0152 5340     		eors	r3, r3, r2
 2423 0154 DAB2     		uxtb	r2, r3
 2424 0156 FB6A     		ldr	r3, [r7, #44]
 2425 0158 1A70     		strb	r2, [r3]
 2426 015a 00BF     		nop
 2427              	.L63:
 2428              		.loc 2 393 0
 2429 015c 16E0     		b	.L67
 2430              	.L62:
 394:oled_driver.c ****             }else{
 395:oled_driver.c ****                 switch( color ){
 2431              		.loc 2 395 0
 2432 015e 3B8F     		ldrh	r3, [r7, #56]
 2433 0160 012B     		cmp	r3, #1
 2434 0162 04D0     		beq	.L68
 2435 0164 022B     		cmp	r3, #2
 2436 0166 0AD0     		beq	.L69
 2437 0168 002B     		cmp	r3, #0
 2438 016a 04D0     		beq	.L70
 2439 016c 0EE0     		b	.L67
 2440              	.L68:
 396:oled_driver.c ****                     case WHITE:     *ptr = 0xff; break;
 2441              		.loc 2 396 0
 2442 016e FB6A     		ldr	r3, [r7, #44]
 2443 0170 FF22     		movs	r2, #255
ARM GAS  C:\Users\49148\AppData\Local\Temp\ccVXiEAG.s 			page 62


 2444 0172 1A70     		strb	r2, [r3]
 2445 0174 0AE0     		b	.L67
 2446              	.L70:
 397:oled_driver.c ****                     case BLACK:     *ptr = 0x00; break;
 2447              		.loc 2 397 0
 2448 0176 FB6A     		ldr	r3, [r7, #44]
 2449 0178 0022     		movs	r2, #0
 2450 017a 1A70     		strb	r2, [r3]
 2451 017c 06E0     		b	.L67
 2452              	.L69:
 398:oled_driver.c ****                     case INVERSE:   *ptr ^= 0xff; break;
 2453              		.loc 2 398 0
 2454 017e FB6A     		ldr	r3, [r7, #44]
 2455 0180 1B78     		ldrb	r3, [r3]	@ zero_extendqisi2
 2456 0182 DB43     		mvns	r3, r3
 2457 0184 DAB2     		uxtb	r2, r3
 2458 0186 FB6A     		ldr	r3, [r7, #44]
 2459 0188 1A70     		strb	r2, [r3]
 2460 018a 00BF     		nop
 2461              	.L67:
 399:oled_driver.c ****                 };  
 400:oled_driver.c ****             }
 401:oled_driver.c ****             
 402:oled_driver.c ****             ptr += DISPLAYWIDTH;
 2462              		.loc 2 402 0
 2463 018c FB6A     		ldr	r3, [r7, #44]
 2464 018e 4033     		adds	r3, r3, #64
 2465 0190 FB62     		str	r3, [r7, #44]
 2466              	.L55:
 2467              	.LBE7:
 371:oled_driver.c ****             
 2468              		.loc 2 371 0
 2469 0192 FA6A     		ldr	r2, [r7, #44]
 2470 0194 FB69     		ldr	r3, [r7, #28]
 2471 0196 9A42     		cmp	r2, r3
 2472 0198 7FF66BAF 		bls	.L71
 2473              	.LBE6:
 403:oled_driver.c ****         }
 404:oled_driver.c ****     }else{
 405:oled_driver.c ****         // horizontal
 406:oled_driver.c ****         uint8_t* pstart = GDDRAM_ADDRESS(x1,y1);
 407:oled_driver.c ****         uint8_t* pend = pstart + x2 - x1;
 408:oled_driver.c ****         uint8_t pixmask = GDDRAM_PIXMASK(y1);    
 409:oled_driver.c **** 
 410:oled_driver.c ****         uint8_t* ptr = pstart;
 411:oled_driver.c ****         while( ptr <= pend ){
 412:oled_driver.c ****             switch( color ){
 413:oled_driver.c ****                 case WHITE:     *ptr |= pixmask; break;
 414:oled_driver.c ****                 case BLACK:     *ptr &= ~pixmask; break;
 415:oled_driver.c ****                 case INVERSE:   *ptr ^= pixmask; break;
 416:oled_driver.c ****             };
 417:oled_driver.c ****             ptr++;
 418:oled_driver.c ****         }
 419:oled_driver.c ****     }
 420:oled_driver.c **** }
 2474              		.loc 2 420 0
 2475 019c 4DE0     		b	.L80
ARM GAS  C:\Users\49148\AppData\Local\Temp\ccVXiEAG.s 			page 63


 2476              	.L52:
 2477              	.LBB9:
 406:oled_driver.c ****         uint8_t* pend = pstart + x2 - x1;
 2478              		.loc 2 406 0
 2479 019e 294B     		ldr	r3, .L81
 2480 01a0 1A68     		ldr	r2, [r3]
 2481 01a2 B7F90430 		ldrsh	r3, [r7, #4]
 2482 01a6 002B     		cmp	r3, #0
 2483 01a8 00DA     		bge	.L73
 2484 01aa 0733     		adds	r3, r3, #7
 2485              	.L73:
 2486 01ac DB10     		asrs	r3, r3, #3
 2487 01ae 1BB2     		sxth	r3, r3
 2488 01b0 9B01     		lsls	r3, r3, #6
 2489 01b2 1946     		mov	r1, r3
 2490 01b4 B7F90630 		ldrsh	r3, [r7, #6]
 2491 01b8 0B44     		add	r3, r3, r1
 2492 01ba 1344     		add	r3, r3, r2
 2493 01bc 7B61     		str	r3, [r7, #20]
 407:oled_driver.c ****         uint8_t pixmask = GDDRAM_PIXMASK(y1);    
 2494              		.loc 2 407 0
 2495 01be B7F90220 		ldrsh	r2, [r7, #2]
 2496 01c2 B7F90630 		ldrsh	r3, [r7, #6]
 2497 01c6 D31A     		subs	r3, r2, r3
 2498 01c8 7A69     		ldr	r2, [r7, #20]
 2499 01ca 1344     		add	r3, r3, r2
 2500 01cc 3B61     		str	r3, [r7, #16]
 408:oled_driver.c **** 
 2501              		.loc 2 408 0
 2502 01ce BB88     		ldrh	r3, [r7, #4]
 2503 01d0 03F00703 		and	r3, r3, #7
 2504 01d4 0122     		movs	r2, #1
 2505 01d6 02FA03F3 		lsl	r3, r2, r3
 2506 01da FB73     		strb	r3, [r7, #15]
 410:oled_driver.c ****         while( ptr <= pend ){
 2507              		.loc 2 410 0
 2508 01dc 7B69     		ldr	r3, [r7, #20]
 2509 01de 7B62     		str	r3, [r7, #36]
 411:oled_driver.c ****             switch( color ){
 2510              		.loc 2 411 0
 2511 01e0 27E0     		b	.L74
 2512              	.L79:
 412:oled_driver.c ****                 case WHITE:     *ptr |= pixmask; break;
 2513              		.loc 2 412 0
 2514 01e2 3B8F     		ldrh	r3, [r7, #56]
 2515 01e4 012B     		cmp	r3, #1
 2516 01e6 04D0     		beq	.L76
 2517 01e8 022B     		cmp	r3, #2
 2518 01ea 17D0     		beq	.L77
 2519 01ec 002B     		cmp	r3, #0
 2520 01ee 08D0     		beq	.L78
 2521 01f0 1CE0     		b	.L75
 2522              	.L76:
 413:oled_driver.c ****                 case BLACK:     *ptr &= ~pixmask; break;
 2523              		.loc 2 413 0
 2524 01f2 7B6A     		ldr	r3, [r7, #36]
 2525 01f4 1A78     		ldrb	r2, [r3]	@ zero_extendqisi2
ARM GAS  C:\Users\49148\AppData\Local\Temp\ccVXiEAG.s 			page 64


 2526 01f6 FB7B     		ldrb	r3, [r7, #15]
 2527 01f8 1343     		orrs	r3, r3, r2
 2528 01fa DAB2     		uxtb	r2, r3
 2529 01fc 7B6A     		ldr	r3, [r7, #36]
 2530 01fe 1A70     		strb	r2, [r3]
 2531 0200 14E0     		b	.L75
 2532              	.L78:
 414:oled_driver.c ****                 case INVERSE:   *ptr ^= pixmask; break;
 2533              		.loc 2 414 0
 2534 0202 7B6A     		ldr	r3, [r7, #36]
 2535 0204 1B78     		ldrb	r3, [r3]	@ zero_extendqisi2
 2536 0206 5AB2     		sxtb	r2, r3
 2537 0208 97F90F30 		ldrsb	r3, [r7, #15]
 2538 020c DB43     		mvns	r3, r3
 2539 020e 5BB2     		sxtb	r3, r3
 2540 0210 1340     		ands	r3, r3, r2
 2541 0212 5BB2     		sxtb	r3, r3
 2542 0214 DAB2     		uxtb	r2, r3
 2543 0216 7B6A     		ldr	r3, [r7, #36]
 2544 0218 1A70     		strb	r2, [r3]
 2545 021a 07E0     		b	.L75
 2546              	.L77:
 415:oled_driver.c ****             };
 2547              		.loc 2 415 0
 2548 021c 7B6A     		ldr	r3, [r7, #36]
 2549 021e 1A78     		ldrb	r2, [r3]	@ zero_extendqisi2
 2550 0220 FB7B     		ldrb	r3, [r7, #15]
 2551 0222 5340     		eors	r3, r3, r2
 2552 0224 DAB2     		uxtb	r2, r3
 2553 0226 7B6A     		ldr	r3, [r7, #36]
 2554 0228 1A70     		strb	r2, [r3]
 2555 022a 00BF     		nop
 2556              	.L75:
 417:oled_driver.c ****         }
 2557              		.loc 2 417 0
 2558 022c 7B6A     		ldr	r3, [r7, #36]
 2559 022e 0133     		adds	r3, r3, #1
 2560 0230 7B62     		str	r3, [r7, #36]
 2561              	.L74:
 411:oled_driver.c ****             switch( color ){
 2562              		.loc 2 411 0
 2563 0232 7A6A     		ldr	r2, [r7, #36]
 2564 0234 3B69     		ldr	r3, [r7, #16]
 2565 0236 9A42     		cmp	r2, r3
 2566 0238 D3D9     		bls	.L79
 2567              	.L80:
 2568              	.LBE9:
 2569              		.loc 2 420 0
 2570 023a 00BF     		nop
 2571 023c 3037     		adds	r7, r7, #48
 2572              		.cfi_def_cfa_offset 8
 2573 023e BD46     		mov	sp, r7
 2574              		.cfi_def_cfa_register 13
 2575              		@ sp needed
 2576 0240 90BC     		pop	{r4, r7}
 2577              		.cfi_restore 7
 2578              		.cfi_restore 4
ARM GAS  C:\Users\49148\AppData\Local\Temp\ccVXiEAG.s 			page 65


 2579              		.cfi_def_cfa_offset 0
 2580 0242 7047     		bx	lr
 2581              	.L82:
 2582              		.align	2
 2583              	.L81:
 2584 0244 04040000 		.word	_displaybuf
 2585 0248 07000080 		.word	-2147483641
 2586              		.cfi_endproc
 2587              	.LFE634:
 2588              		.size	display_line, .-display_line
 2589              		.section	.rodata
 2590 0515 000000   		.align	2
 2591              	.LC1:
 2592 0518 1027     		.short	10000
 2593 051a E803     		.short	1000
 2594 051c 6400     		.short	100
 2595 051e 0A00     		.short	10
 2596 0520 0100     		.short	1
 2597              		.section	.text.display_usint2decascii,"ax",%progbits
 2598              		.align	2
 2599              		.global	display_usint2decascii
 2600              		.thumb
 2601              		.thumb_func
 2602              		.type	display_usint2decascii, %function
 2603              	display_usint2decascii:
 2604              	.LFB635:
 421:oled_driver.c **** 
 422:oled_driver.c **** /***************************************************************************
 423:oled_driver.c ****  * Function: display_usint2decascii    
 424:oled_driver.c ****  *
 425:oled_driver.c ****  * Description:  Convert a number to a string
 426:oled_driver.c ****  **************************************************************************/
 427:oled_driver.c **** uint8_t display_usint2decascii(uint16_t num, char* buffer)
 428:oled_driver.c **** {
 2605              		.loc 2 428 0
 2606              		.cfi_startproc
 2607              		@ args = 0, pretend = 0, frame = 24
 2608              		@ frame_needed = 1, uses_anonymous_args = 0
 2609              		@ link register save eliminated.
 2610 0000 80B4     		push	{r7}
 2611              		.cfi_def_cfa_offset 4
 2612              		.cfi_offset 7, -4
 2613 0002 87B0     		sub	sp, sp, #28
 2614              		.cfi_def_cfa_offset 32
 2615 0004 00AF     		add	r7, sp, #0
 2616              		.cfi_def_cfa_register 7
 2617 0006 0346     		mov	r3, r0
 2618 0008 3960     		str	r1, [r7]
 2619 000a FB80     		strh	r3, [r7, #6]	@ movhi
 429:oled_driver.c **** 	const unsigned short powers[] = { 10000u, 1000u, 100u, 10u, 1u }; // The "const unsigned short" co
 2620              		.loc 2 429 0
 2621 000c 244A     		ldr	r2, .L92
 2622 000e 07F10803 		add	r3, r7, #8
 2623 0012 1068     		ldr	r0, [r2]	@ unaligned
 2624 0014 5168     		ldr	r1, [r2, #4]	@ unaligned
 2625 0016 03C3     		stmia	r3!, {r0, r1}
 2626 0018 1289     		ldrh	r2, [r2, #8]	@ unaligned
ARM GAS  C:\Users\49148\AppData\Local\Temp\ccVXiEAG.s 			page 66


 2627 001a 1A80     		strh	r2, [r3]	@ unaligned
 430:oled_driver.c **** 	char digit; // "digit" is stored in a char array, so it should be of type char.
 431:oled_driver.c **** 	uint8_t digits = USINT2DECASCII_MAX_DIGITS - 1;
 2628              		.loc 2 431 0
 2629 001c 0423     		movs	r3, #4
 2630 001e BB75     		strb	r3, [r7, #22]
 2631              	.LBB10:
 432:oled_driver.c **** 	for (uint8_t pos = 0; pos < 5; pos++) // "pos" is index in array, so should be of type int.
 2632              		.loc 2 432 0
 2633 0020 0023     		movs	r3, #0
 2634 0022 7B75     		strb	r3, [r7, #21]
 2635 0024 31E0     		b	.L84
 2636              	.L90:
 433:oled_driver.c **** 	{
 434:oled_driver.c **** 		digit = 0;
 2637              		.loc 2 434 0
 2638 0026 0023     		movs	r3, #0
 2639 0028 FB75     		strb	r3, [r7, #23]
 435:oled_driver.c **** 		while (num >= powers[pos])
 2640              		.loc 2 435 0
 2641 002a 0CE0     		b	.L85
 2642              	.L86:
 436:oled_driver.c **** 		{
 437:oled_driver.c **** 			digit++;
 2643              		.loc 2 437 0
 2644 002c FB7D     		ldrb	r3, [r7, #23]	@ zero_extendqisi2
 2645 002e 0133     		adds	r3, r3, #1
 2646 0030 FB75     		strb	r3, [r7, #23]
 438:oled_driver.c **** 			num -= powers[pos];
 2647              		.loc 2 438 0
 2648 0032 7B7D     		ldrb	r3, [r7, #21]	@ zero_extendqisi2
 2649 0034 5B00     		lsls	r3, r3, #1
 2650 0036 07F11802 		add	r2, r7, #24
 2651 003a 1344     		add	r3, r3, r2
 2652 003c 33F8103C 		ldrh	r3, [r3, #-16]
 2653 0040 FA88     		ldrh	r2, [r7, #6]	@ movhi
 2654 0042 D31A     		subs	r3, r2, r3
 2655 0044 FB80     		strh	r3, [r7, #6]	@ movhi
 2656              	.L85:
 435:oled_driver.c **** 		while (num >= powers[pos])
 2657              		.loc 2 435 0
 2658 0046 7B7D     		ldrb	r3, [r7, #21]	@ zero_extendqisi2
 2659 0048 5B00     		lsls	r3, r3, #1
 2660 004a 07F11802 		add	r2, r7, #24
 2661 004e 1344     		add	r3, r3, r2
 2662 0050 33F8103C 		ldrh	r3, [r3, #-16]
 2663 0054 FA88     		ldrh	r2, [r7, #6]
 2664 0056 9A42     		cmp	r2, r3
 2665 0058 E8D2     		bcs	.L86
 439:oled_driver.c **** 		}
 440:oled_driver.c **** 
 441:oled_driver.c **** 		// ---- CHOOSE (1), (2) or (3) ----
 442:oled_driver.c **** 
 443:oled_driver.c **** 		// CHOICE (1) Fixed width, zero padded result.
 444:oled_driver.c **** 		/*
 445:oled_driver.c **** 		buffer[pos] = digit + '0';	// Convert to ASCII
 446:oled_driver.c **** 		*/
ARM GAS  C:\Users\49148\AppData\Local\Temp\ccVXiEAG.s 			page 67


 447:oled_driver.c **** 
 448:oled_driver.c **** 		// CHOICE (2) Fixed width, zero padded result, digits offset.
 449:oled_driver.c **** 		/*
 450:oled_driver.c **** 		buffer[pos] = digit + '0';	// Convert to ASCII
 451:oled_driver.c **** 		// Note: Determines the offset of the first significant digit.
 452:oled_driver.c **** 		if (digits == -1 && digit != 0) digits = pos;
 453:oled_driver.c **** 		// Note: Could be used for variable width, not padded, left aligned result.
 454:oled_driver.c **** 		*/
 455:oled_driver.c **** 
 456:oled_driver.c **** 		// CHOICE (3) Fixed width, space (or anything else) padded result, digits offset.
 457:oled_driver.c **** 		// Note: Determines the offset of the first significant digit.
 458:oled_driver.c **** 		// Note: Could be used for variable width, not padded, left aligned result.
 459:oled_driver.c **** 		if (digits == USINT2DECASCII_MAX_DIGITS - 1)
 2666              		.loc 2 459 0
 2667 005a BB7D     		ldrb	r3, [r7, #22]	@ zero_extendqisi2
 2668 005c 042B     		cmp	r3, #4
 2669 005e 0AD1     		bne	.L87
 460:oled_driver.c **** 		{
 461:oled_driver.c **** 			if (digit == 0)
 2670              		.loc 2 461 0
 2671 0060 FB7D     		ldrb	r3, [r7, #23]	@ zero_extendqisi2
 2672 0062 002B     		cmp	r3, #0
 2673 0064 05D1     		bne	.L88
 462:oled_driver.c **** 			{
 463:oled_driver.c **** 				if (pos < USINT2DECASCII_MAX_DIGITS - 1)	// Check position, so single "0" will be handled prope
 2674              		.loc 2 463 0
 2675 0066 7B7D     		ldrb	r3, [r7, #21]	@ zero_extendqisi2
 2676 0068 032B     		cmp	r3, #3
 2677 006a 04D8     		bhi	.L87
 464:oled_driver.c **** 					digit = -16;	// Use: "-16" for space (' '), "-3" for dash/minus ('-'), "0" for zero ('0'), etc
 2678              		.loc 2 464 0
 2679 006c F023     		movs	r3, #240
 2680 006e FB75     		strb	r3, [r7, #23]
 2681 0070 01E0     		b	.L87
 2682              	.L88:
 465:oled_driver.c **** 			}
 466:oled_driver.c **** 			else
 467:oled_driver.c **** 			{
 468:oled_driver.c **** 				digits = pos;
 2683              		.loc 2 468 0
 2684 0072 7B7D     		ldrb	r3, [r7, #21]
 2685 0074 BB75     		strb	r3, [r7, #22]
 2686              	.L87:
 469:oled_driver.c **** 			}
 470:oled_driver.c **** 		}
 471:oled_driver.c **** 		buffer[pos] = digit + '0';	// Convert to ASCII
 2687              		.loc 2 471 0 discriminator 2
 2688 0076 7B7D     		ldrb	r3, [r7, #21]	@ zero_extendqisi2
 2689 0078 3A68     		ldr	r2, [r7]
 2690 007a 1344     		add	r3, r3, r2
 2691 007c FA7D     		ldrb	r2, [r7, #23]
 2692 007e 3032     		adds	r2, r2, #48
 2693 0080 D2B2     		uxtb	r2, r2
 2694 0082 1A70     		strb	r2, [r3]
 432:oled_driver.c **** 	{
 2695              		.loc 2 432 0 discriminator 2
 2696 0084 7B7D     		ldrb	r3, [r7, #21]	@ zero_extendqisi2
ARM GAS  C:\Users\49148\AppData\Local\Temp\ccVXiEAG.s 			page 68


 2697 0086 0133     		adds	r3, r3, #1
 2698 0088 7B75     		strb	r3, [r7, #21]
 2699              	.L84:
 432:oled_driver.c **** 	{
 2700              		.loc 2 432 0 is_stmt 0 discriminator 1
 2701 008a 7B7D     		ldrb	r3, [r7, #21]	@ zero_extendqisi2
 2702 008c 042B     		cmp	r3, #4
 2703 008e CAD9     		bls	.L90
 2704              	.LBE10:
 472:oled_driver.c **** 		
 473:oled_driver.c **** 	}
 474:oled_driver.c **** 	
 475:oled_driver.c **** 	// NOTE: The resulting ascii text should not be terminated with '\0' here.
 476:oled_driver.c **** 	//       The provided buffer maybe part of a larger text in both directions.
 477:oled_driver.c **** 	
 478:oled_driver.c **** 	return digits;
 2705              		.loc 2 478 0 is_stmt 1
 2706 0090 BB7D     		ldrb	r3, [r7, #22]	@ zero_extendqisi2
 479:oled_driver.c **** }
 2707              		.loc 2 479 0
 2708 0092 1846     		mov	r0, r3
 2709 0094 1C37     		adds	r7, r7, #28
 2710              		.cfi_def_cfa_offset 4
 2711 0096 BD46     		mov	sp, r7
 2712              		.cfi_def_cfa_register 13
 2713              		@ sp needed
 2714 0098 5DF8047B 		ldr	r7, [sp], #4
 2715              		.cfi_restore 7
 2716              		.cfi_def_cfa_offset 0
 2717 009c 7047     		bx	lr
 2718              	.L93:
 2719 009e 00BF     		.align	2
 2720              	.L92:
 2721 00a0 18050000 		.word	.LC1
 2722              		.cfi_endproc
 2723              	.LFE635:
 2724              		.size	display_usint2decascii, .-display_usint2decascii
 2725              		.section	.text.gfx_init,"ax",%progbits
 2726              		.align	2
 2727              		.global	gfx_init
 2728              		.thumb
 2729              		.thumb_func
 2730              		.type	gfx_init, %function
 2731              	gfx_init:
 2732              	.LFB636:
 480:oled_driver.c **** 
 481:oled_driver.c **** /*=================================================================================================
 482:oled_driver.c ****  *                                      ADAFRUIT GFX LIBRARY
 483:oled_driver.c ****  *  ==============================================================================================*
 484:oled_driver.c **** 
 485:oled_driver.c **** /***************************************************************************
 486:oled_driver.c ****  * Function: gfx_init    
 487:oled_driver.c ****  *
 488:oled_driver.c ****  * Description:  Init graphic library variables
 489:oled_driver.c ****  **************************************************************************/
 490:oled_driver.c **** void gfx_init( int16_t width, int16_t height ){
 2733              		.loc 2 490 0
ARM GAS  C:\Users\49148\AppData\Local\Temp\ccVXiEAG.s 			page 69


 2734              		.cfi_startproc
 2735              		@ args = 0, pretend = 0, frame = 8
 2736              		@ frame_needed = 1, uses_anonymous_args = 0
 2737              		@ link register save eliminated.
 2738 0000 80B4     		push	{r7}
 2739              		.cfi_def_cfa_offset 4
 2740              		.cfi_offset 7, -4
 2741 0002 83B0     		sub	sp, sp, #12
 2742              		.cfi_def_cfa_offset 16
 2743 0004 00AF     		add	r7, sp, #0
 2744              		.cfi_def_cfa_register 7
 2745 0006 0346     		mov	r3, r0
 2746 0008 0A46     		mov	r2, r1
 2747 000a FB80     		strh	r3, [r7, #6]	@ movhi
 2748 000c 1346     		mov	r3, r2	@ movhi
 2749 000e BB80     		strh	r3, [r7, #4]	@ movhi
 491:oled_driver.c ****     WIDTH = width;
 2750              		.loc 2 491 0
 2751 0010 174A     		ldr	r2, .L95
 2752 0012 FB88     		ldrh	r3, [r7, #6]	@ movhi
 2753 0014 1380     		strh	r3, [r2]	@ movhi
 492:oled_driver.c ****     HEIGHT = height;
 2754              		.loc 2 492 0
 2755 0016 174A     		ldr	r2, .L95+4
 2756 0018 BB88     		ldrh	r3, [r7, #4]	@ movhi
 2757 001a 1380     		strh	r3, [r2]	@ movhi
 493:oled_driver.c ****     _width = WIDTH;
 2758              		.loc 2 493 0
 2759 001c 144B     		ldr	r3, .L95
 2760 001e B3F90020 		ldrsh	r2, [r3]
 2761 0022 154B     		ldr	r3, .L95+8
 2762 0024 1A80     		strh	r2, [r3]	@ movhi
 494:oled_driver.c ****     _height = HEIGHT;
 2763              		.loc 2 494 0
 2764 0026 134B     		ldr	r3, .L95+4
 2765 0028 B3F90020 		ldrsh	r2, [r3]
 2766 002c 134B     		ldr	r3, .L95+12
 2767 002e 1A80     		strh	r2, [r3]	@ movhi
 495:oled_driver.c ****     
 496:oled_driver.c ****     rotation = 0;
 2768              		.loc 2 496 0
 2769 0030 134B     		ldr	r3, .L95+16
 2770 0032 0022     		movs	r2, #0
 2771 0034 1A70     		strb	r2, [r3]
 497:oled_driver.c ****     cursor_y = cursor_x = 0;
 2772              		.loc 2 497 0
 2773 0036 134B     		ldr	r3, .L95+20
 2774 0038 0022     		movs	r2, #0
 2775 003a 1A80     		strh	r2, [r3]	@ movhi
 2776 003c 114B     		ldr	r3, .L95+20
 2777 003e B3F90020 		ldrsh	r2, [r3]
 2778 0042 114B     		ldr	r3, .L95+24
 2779 0044 1A80     		strh	r2, [r3]	@ movhi
 498:oled_driver.c ****     textsize = 1;
 2780              		.loc 2 498 0
 2781 0046 114B     		ldr	r3, .L95+28
 2782 0048 0122     		movs	r2, #1
ARM GAS  C:\Users\49148\AppData\Local\Temp\ccVXiEAG.s 			page 70


 2783 004a 1A70     		strb	r2, [r3]
 499:oled_driver.c ****     textcolor = textbgcolor = 0xFFFF;
 2784              		.loc 2 499 0
 2785 004c 104B     		ldr	r3, .L95+32
 2786 004e 4FF6FF72 		movw	r2, #65535
 2787 0052 1A80     		strh	r2, [r3]	@ movhi
 2788 0054 0E4B     		ldr	r3, .L95+32
 2789 0056 1A88     		ldrh	r2, [r3]
 2790 0058 0E4B     		ldr	r3, .L95+36
 2791 005a 1A80     		strh	r2, [r3]	@ movhi
 500:oled_driver.c ****     wrap = 1;
 2792              		.loc 2 500 0
 2793 005c 0E4B     		ldr	r3, .L95+40
 2794 005e 0122     		movs	r2, #1
 2795 0060 1A70     		strb	r2, [r3]
 501:oled_driver.c **** }
 2796              		.loc 2 501 0
 2797 0062 00BF     		nop
 2798 0064 0C37     		adds	r7, r7, #12
 2799              		.cfi_def_cfa_offset 4
 2800 0066 BD46     		mov	sp, r7
 2801              		.cfi_def_cfa_register 13
 2802              		@ sp needed
 2803 0068 5DF8047B 		ldr	r7, [sp], #4
 2804              		.cfi_restore 7
 2805              		.cfi_def_cfa_offset 0
 2806 006c 7047     		bx	lr
 2807              	.L96:
 2808 006e 00BF     		.align	2
 2809              	.L95:
 2810 0070 00000000 		.word	WIDTH
 2811 0074 00000000 		.word	HEIGHT
 2812 0078 00000000 		.word	_width
 2813 007c 02000000 		.word	_height
 2814 0080 00000000 		.word	rotation
 2815 0084 04000000 		.word	cursor_x
 2816 0088 06000000 		.word	cursor_y
 2817 008c 0C000000 		.word	textsize
 2818 0090 0A000000 		.word	textbgcolor
 2819 0094 08000000 		.word	textcolor
 2820 0098 00000000 		.word	wrap
 2821              		.cfi_endproc
 2822              	.LFE636:
 2823              		.size	gfx_init, .-gfx_init
 2824              		.section	.text.gfx_width,"ax",%progbits
 2825              		.align	2
 2826              		.global	gfx_width
 2827              		.thumb
 2828              		.thumb_func
 2829              		.type	gfx_width, %function
 2830              	gfx_width:
 2831              	.LFB637:
 502:oled_driver.c **** 
 503:oled_driver.c **** /***************************************************************************
 504:oled_driver.c ****  * Function: gfx_width    
 505:oled_driver.c ****  *
 506:oled_driver.c ****  * Description:  Get display width (per current rotation)
ARM GAS  C:\Users\49148\AppData\Local\Temp\ccVXiEAG.s 			page 71


 507:oled_driver.c ****  **************************************************************************/
 508:oled_driver.c **** int16_t gfx_width(void){
 2832              		.loc 2 508 0
 2833              		.cfi_startproc
 2834              		@ args = 0, pretend = 0, frame = 0
 2835              		@ frame_needed = 1, uses_anonymous_args = 0
 2836              		@ link register save eliminated.
 2837 0000 80B4     		push	{r7}
 2838              		.cfi_def_cfa_offset 4
 2839              		.cfi_offset 7, -4
 2840 0002 00AF     		add	r7, sp, #0
 2841              		.cfi_def_cfa_register 7
 509:oled_driver.c ****     return _width;
 2842              		.loc 2 509 0
 2843 0004 034B     		ldr	r3, .L99
 2844 0006 B3F90030 		ldrsh	r3, [r3]
 510:oled_driver.c **** }
 2845              		.loc 2 510 0
 2846 000a 1846     		mov	r0, r3
 2847 000c BD46     		mov	sp, r7
 2848              		.cfi_def_cfa_register 13
 2849              		@ sp needed
 2850 000e 5DF8047B 		ldr	r7, [sp], #4
 2851              		.cfi_restore 7
 2852              		.cfi_def_cfa_offset 0
 2853 0012 7047     		bx	lr
 2854              	.L100:
 2855              		.align	2
 2856              	.L99:
 2857 0014 00000000 		.word	_width
 2858              		.cfi_endproc
 2859              	.LFE637:
 2860              		.size	gfx_width, .-gfx_width
 2861              		.section	.text.gfx_height,"ax",%progbits
 2862              		.align	2
 2863              		.global	gfx_height
 2864              		.thumb
 2865              		.thumb_func
 2866              		.type	gfx_height, %function
 2867              	gfx_height:
 2868              	.LFB638:
 511:oled_driver.c **** 
 512:oled_driver.c **** /***************************************************************************
 513:oled_driver.c ****  * Function: gfx_height    
 514:oled_driver.c ****  *
 515:oled_driver.c ****  * Description:  Get display height (per current rotation)
 516:oled_driver.c ****  **************************************************************************/
 517:oled_driver.c **** int16_t gfx_height(void){
 2869              		.loc 2 517 0
 2870              		.cfi_startproc
 2871              		@ args = 0, pretend = 0, frame = 0
 2872              		@ frame_needed = 1, uses_anonymous_args = 0
 2873              		@ link register save eliminated.
 2874 0000 80B4     		push	{r7}
 2875              		.cfi_def_cfa_offset 4
 2876              		.cfi_offset 7, -4
 2877 0002 00AF     		add	r7, sp, #0
ARM GAS  C:\Users\49148\AppData\Local\Temp\ccVXiEAG.s 			page 72


 2878              		.cfi_def_cfa_register 7
 518:oled_driver.c ****     return _height;
 2879              		.loc 2 518 0
 2880 0004 034B     		ldr	r3, .L103
 2881 0006 B3F90030 		ldrsh	r3, [r3]
 519:oled_driver.c **** }
 2882              		.loc 2 519 0
 2883 000a 1846     		mov	r0, r3
 2884 000c BD46     		mov	sp, r7
 2885              		.cfi_def_cfa_register 13
 2886              		@ sp needed
 2887 000e 5DF8047B 		ldr	r7, [sp], #4
 2888              		.cfi_restore 7
 2889              		.cfi_def_cfa_offset 0
 2890 0012 7047     		bx	lr
 2891              	.L104:
 2892              		.align	2
 2893              	.L103:
 2894 0014 02000000 		.word	_height
 2895              		.cfi_endproc
 2896              	.LFE638:
 2897              		.size	gfx_height, .-gfx_height
 2898              		.section	.text.gfx_rotation,"ax",%progbits
 2899              		.align	2
 2900              		.global	gfx_rotation
 2901              		.thumb
 2902              		.thumb_func
 2903              		.type	gfx_rotation, %function
 2904              	gfx_rotation:
 2905              	.LFB639:
 520:oled_driver.c **** 
 521:oled_driver.c **** /***************************************************************************
 522:oled_driver.c ****  * Function: gfx_rotation    
 523:oled_driver.c ****  *
 524:oled_driver.c ****  * Description:  Get current rotation
 525:oled_driver.c ****  **************************************************************************/
 526:oled_driver.c **** uint8_t gfx_rotation(void){
 2906              		.loc 2 526 0
 2907              		.cfi_startproc
 2908              		@ args = 0, pretend = 0, frame = 0
 2909              		@ frame_needed = 1, uses_anonymous_args = 0
 2910              		@ link register save eliminated.
 2911 0000 80B4     		push	{r7}
 2912              		.cfi_def_cfa_offset 4
 2913              		.cfi_offset 7, -4
 2914 0002 00AF     		add	r7, sp, #0
 2915              		.cfi_def_cfa_register 7
 527:oled_driver.c ****     return rotation;
 2916              		.loc 2 527 0
 2917 0004 034B     		ldr	r3, .L107
 2918 0006 1B78     		ldrb	r3, [r3]	@ zero_extendqisi2
 528:oled_driver.c **** }
 2919              		.loc 2 528 0
 2920 0008 1846     		mov	r0, r3
 2921 000a BD46     		mov	sp, r7
 2922              		.cfi_def_cfa_register 13
 2923              		@ sp needed
ARM GAS  C:\Users\49148\AppData\Local\Temp\ccVXiEAG.s 			page 73


 2924 000c 5DF8047B 		ldr	r7, [sp], #4
 2925              		.cfi_restore 7
 2926              		.cfi_def_cfa_offset 0
 2927 0010 7047     		bx	lr
 2928              	.L108:
 2929 0012 00BF     		.align	2
 2930              	.L107:
 2931 0014 00000000 		.word	rotation
 2932              		.cfi_endproc
 2933              	.LFE639:
 2934              		.size	gfx_rotation, .-gfx_rotation
 2935              		.section	.text.gfx_setCursor,"ax",%progbits
 2936              		.align	2
 2937              		.global	gfx_setCursor
 2938              		.thumb
 2939              		.thumb_func
 2940              		.type	gfx_setCursor, %function
 2941              	gfx_setCursor:
 2942              	.LFB640:
 529:oled_driver.c **** 
 530:oled_driver.c **** /***************************************************************************
 531:oled_driver.c ****  * Function: gfx_setCursor    
 532:oled_driver.c ****  *
 533:oled_driver.c ****  * Description:  Set cursor position
 534:oled_driver.c ****  **************************************************************************/
 535:oled_driver.c **** void gfx_setCursor( int16_t x, int16_t y ){
 2943              		.loc 2 535 0
 2944              		.cfi_startproc
 2945              		@ args = 0, pretend = 0, frame = 8
 2946              		@ frame_needed = 1, uses_anonymous_args = 0
 2947              		@ link register save eliminated.
 2948 0000 80B4     		push	{r7}
 2949              		.cfi_def_cfa_offset 4
 2950              		.cfi_offset 7, -4
 2951 0002 83B0     		sub	sp, sp, #12
 2952              		.cfi_def_cfa_offset 16
 2953 0004 00AF     		add	r7, sp, #0
 2954              		.cfi_def_cfa_register 7
 2955 0006 0346     		mov	r3, r0
 2956 0008 0A46     		mov	r2, r1
 2957 000a FB80     		strh	r3, [r7, #6]	@ movhi
 2958 000c 1346     		mov	r3, r2	@ movhi
 2959 000e BB80     		strh	r3, [r7, #4]	@ movhi
 536:oled_driver.c ****     cursor_x = x;
 2960              		.loc 2 536 0
 2961 0010 054A     		ldr	r2, .L110
 2962 0012 FB88     		ldrh	r3, [r7, #6]	@ movhi
 2963 0014 1380     		strh	r3, [r2]	@ movhi
 537:oled_driver.c ****     cursor_y = y;
 2964              		.loc 2 537 0
 2965 0016 054A     		ldr	r2, .L110+4
 2966 0018 BB88     		ldrh	r3, [r7, #4]	@ movhi
 2967 001a 1380     		strh	r3, [r2]	@ movhi
 538:oled_driver.c **** }
 2968              		.loc 2 538 0
 2969 001c 00BF     		nop
 2970 001e 0C37     		adds	r7, r7, #12
ARM GAS  C:\Users\49148\AppData\Local\Temp\ccVXiEAG.s 			page 74


 2971              		.cfi_def_cfa_offset 4
 2972 0020 BD46     		mov	sp, r7
 2973              		.cfi_def_cfa_register 13
 2974              		@ sp needed
 2975 0022 5DF8047B 		ldr	r7, [sp], #4
 2976              		.cfi_restore 7
 2977              		.cfi_def_cfa_offset 0
 2978 0026 7047     		bx	lr
 2979              	.L111:
 2980              		.align	2
 2981              	.L110:
 2982 0028 04000000 		.word	cursor_x
 2983 002c 06000000 		.word	cursor_y
 2984              		.cfi_endproc
 2985              	.LFE640:
 2986              		.size	gfx_setCursor, .-gfx_setCursor
 2987              		.section	.text.gfx_setTextSize,"ax",%progbits
 2988              		.align	2
 2989              		.global	gfx_setTextSize
 2990              		.thumb
 2991              		.thumb_func
 2992              		.type	gfx_setTextSize, %function
 2993              	gfx_setTextSize:
 2994              	.LFB641:
 539:oled_driver.c **** 
 540:oled_driver.c **** /***************************************************************************
 541:oled_driver.c ****  * Function: gfx_setTextSize    
 542:oled_driver.c ****  *
 543:oled_driver.c ****  * Description:  Set text size
 544:oled_driver.c ****  **************************************************************************/
 545:oled_driver.c **** void gfx_setTextSize( uint8_t size ){
 2995              		.loc 2 545 0
 2996              		.cfi_startproc
 2997              		@ args = 0, pretend = 0, frame = 8
 2998              		@ frame_needed = 1, uses_anonymous_args = 0
 2999              		@ link register save eliminated.
 3000 0000 80B4     		push	{r7}
 3001              		.cfi_def_cfa_offset 4
 3002              		.cfi_offset 7, -4
 3003 0002 83B0     		sub	sp, sp, #12
 3004              		.cfi_def_cfa_offset 16
 3005 0004 00AF     		add	r7, sp, #0
 3006              		.cfi_def_cfa_register 7
 3007 0006 0346     		mov	r3, r0
 3008 0008 FB71     		strb	r3, [r7, #7]
 546:oled_driver.c ****     textsize = (size > 0) ? size : 1;
 3009              		.loc 2 546 0
 3010 000a FB79     		ldrb	r3, [r7, #7]	@ zero_extendqisi2
 3011 000c 002B     		cmp	r3, #0
 3012 000e 01D0     		beq	.L113
 3013              		.loc 2 546 0 is_stmt 0 discriminator 1
 3014 0010 FB79     		ldrb	r3, [r7, #7]	@ zero_extendqisi2
 3015 0012 00E0     		b	.L114
 3016              	.L113:
 3017              		.loc 2 546 0 discriminator 2
 3018 0014 0123     		movs	r3, #1
 3019              	.L114:
ARM GAS  C:\Users\49148\AppData\Local\Temp\ccVXiEAG.s 			page 75


 3020              		.loc 2 546 0 discriminator 4
 3021 0016 044A     		ldr	r2, .L115
 3022 0018 1370     		strb	r3, [r2]
 547:oled_driver.c **** }
 3023              		.loc 2 547 0 is_stmt 1 discriminator 4
 3024 001a 00BF     		nop
 3025 001c 0C37     		adds	r7, r7, #12
 3026              		.cfi_def_cfa_offset 4
 3027 001e BD46     		mov	sp, r7
 3028              		.cfi_def_cfa_register 13
 3029              		@ sp needed
 3030 0020 5DF8047B 		ldr	r7, [sp], #4
 3031              		.cfi_restore 7
 3032              		.cfi_def_cfa_offset 0
 3033 0024 7047     		bx	lr
 3034              	.L116:
 3035 0026 00BF     		.align	2
 3036              	.L115:
 3037 0028 0C000000 		.word	textsize
 3038              		.cfi_endproc
 3039              	.LFE641:
 3040              		.size	gfx_setTextSize, .-gfx_setTextSize
 3041              		.section	.text.gfx_setTextColor,"ax",%progbits
 3042              		.align	2
 3043              		.global	gfx_setTextColor
 3044              		.thumb
 3045              		.thumb_func
 3046              		.type	gfx_setTextColor, %function
 3047              	gfx_setTextColor:
 3048              	.LFB642:
 548:oled_driver.c **** 
 549:oled_driver.c **** /***************************************************************************
 550:oled_driver.c ****  * Function: gfx_setTextColor    
 551:oled_driver.c ****  *
 552:oled_driver.c ****  * Description:  Set text color
 553:oled_driver.c ****  **************************************************************************/
 554:oled_driver.c **** void gfx_setTextColor( uint16_t color ){
 3049              		.loc 2 554 0
 3050              		.cfi_startproc
 3051              		@ args = 0, pretend = 0, frame = 8
 3052              		@ frame_needed = 1, uses_anonymous_args = 0
 3053              		@ link register save eliminated.
 3054 0000 80B4     		push	{r7}
 3055              		.cfi_def_cfa_offset 4
 3056              		.cfi_offset 7, -4
 3057 0002 83B0     		sub	sp, sp, #12
 3058              		.cfi_def_cfa_offset 16
 3059 0004 00AF     		add	r7, sp, #0
 3060              		.cfi_def_cfa_register 7
 3061 0006 0346     		mov	r3, r0
 3062 0008 FB80     		strh	r3, [r7, #6]	@ movhi
 555:oled_driver.c ****     // For 'transparent' background, we'll set the bg
 556:oled_driver.c ****     // to the same as fg instead of using a flag
 557:oled_driver.c ****     textcolor = textbgcolor = color;
 3063              		.loc 2 557 0
 3064 000a 064A     		ldr	r2, .L118
 3065 000c FB88     		ldrh	r3, [r7, #6]	@ movhi
ARM GAS  C:\Users\49148\AppData\Local\Temp\ccVXiEAG.s 			page 76


 3066 000e 1380     		strh	r3, [r2]	@ movhi
 3067 0010 044B     		ldr	r3, .L118
 3068 0012 1A88     		ldrh	r2, [r3]
 3069 0014 044B     		ldr	r3, .L118+4
 3070 0016 1A80     		strh	r2, [r3]	@ movhi
 558:oled_driver.c **** }
 3071              		.loc 2 558 0
 3072 0018 00BF     		nop
 3073 001a 0C37     		adds	r7, r7, #12
 3074              		.cfi_def_cfa_offset 4
 3075 001c BD46     		mov	sp, r7
 3076              		.cfi_def_cfa_register 13
 3077              		@ sp needed
 3078 001e 5DF8047B 		ldr	r7, [sp], #4
 3079              		.cfi_restore 7
 3080              		.cfi_def_cfa_offset 0
 3081 0022 7047     		bx	lr
 3082              	.L119:
 3083              		.align	2
 3084              	.L118:
 3085 0024 0A000000 		.word	textbgcolor
 3086 0028 08000000 		.word	textcolor
 3087              		.cfi_endproc
 3088              	.LFE642:
 3089              		.size	gfx_setTextColor, .-gfx_setTextColor
 3090              		.section	.text.gfx_setTextBg,"ax",%progbits
 3091              		.align	2
 3092              		.global	gfx_setTextBg
 3093              		.thumb
 3094              		.thumb_func
 3095              		.type	gfx_setTextBg, %function
 3096              	gfx_setTextBg:
 3097              	.LFB643:
 559:oled_driver.c **** 
 560:oled_driver.c **** /***************************************************************************
 561:oled_driver.c ****  * Function: gfx_setTextBg    
 562:oled_driver.c ****  *
 563:oled_driver.c ****  * Description:  Set backgroung color
 564:oled_driver.c ****  **************************************************************************/
 565:oled_driver.c **** void gfx_setTextBg( uint16_t color ){
 3098              		.loc 2 565 0
 3099              		.cfi_startproc
 3100              		@ args = 0, pretend = 0, frame = 8
 3101              		@ frame_needed = 1, uses_anonymous_args = 0
 3102              		@ link register save eliminated.
 3103 0000 80B4     		push	{r7}
 3104              		.cfi_def_cfa_offset 4
 3105              		.cfi_offset 7, -4
 3106 0002 83B0     		sub	sp, sp, #12
 3107              		.cfi_def_cfa_offset 16
 3108 0004 00AF     		add	r7, sp, #0
 3109              		.cfi_def_cfa_register 7
 3110 0006 0346     		mov	r3, r0
 3111 0008 FB80     		strh	r3, [r7, #6]	@ movhi
 566:oled_driver.c ****     textbgcolor = color;
 3112              		.loc 2 566 0
 3113 000a 044A     		ldr	r2, .L121
ARM GAS  C:\Users\49148\AppData\Local\Temp\ccVXiEAG.s 			page 77


 3114 000c FB88     		ldrh	r3, [r7, #6]	@ movhi
 3115 000e 1380     		strh	r3, [r2]	@ movhi
 567:oled_driver.c **** }
 3116              		.loc 2 567 0
 3117 0010 00BF     		nop
 3118 0012 0C37     		adds	r7, r7, #12
 3119              		.cfi_def_cfa_offset 4
 3120 0014 BD46     		mov	sp, r7
 3121              		.cfi_def_cfa_register 13
 3122              		@ sp needed
 3123 0016 5DF8047B 		ldr	r7, [sp], #4
 3124              		.cfi_restore 7
 3125              		.cfi_def_cfa_offset 0
 3126 001a 7047     		bx	lr
 3127              	.L122:
 3128              		.align	2
 3129              	.L121:
 3130 001c 0A000000 		.word	textbgcolor
 3131              		.cfi_endproc
 3132              	.LFE643:
 3133              		.size	gfx_setTextBg, .-gfx_setTextBg
 3134              		.section	.text.gfx_setTextWrap,"ax",%progbits
 3135              		.align	2
 3136              		.global	gfx_setTextWrap
 3137              		.thumb
 3138              		.thumb_func
 3139              		.type	gfx_setTextWrap, %function
 3140              	gfx_setTextWrap:
 3141              	.LFB644:
 568:oled_driver.c **** 
 569:oled_driver.c **** /***************************************************************************
 570:oled_driver.c ****  * Function: gfx_setTextWrap    
 571:oled_driver.c ****  *
 572:oled_driver.c ****  * Description:  Set if text should be wraped or not
 573:oled_driver.c ****  **************************************************************************/
 574:oled_driver.c **** void gfx_setTextWrap( uint8 w ){
 3142              		.loc 2 574 0
 3143              		.cfi_startproc
 3144              		@ args = 0, pretend = 0, frame = 8
 3145              		@ frame_needed = 1, uses_anonymous_args = 0
 3146              		@ link register save eliminated.
 3147 0000 80B4     		push	{r7}
 3148              		.cfi_def_cfa_offset 4
 3149              		.cfi_offset 7, -4
 3150 0002 83B0     		sub	sp, sp, #12
 3151              		.cfi_def_cfa_offset 16
 3152 0004 00AF     		add	r7, sp, #0
 3153              		.cfi_def_cfa_register 7
 3154 0006 0346     		mov	r3, r0
 3155 0008 FB71     		strb	r3, [r7, #7]
 575:oled_driver.c ****     wrap = w;
 3156              		.loc 2 575 0
 3157 000a 044A     		ldr	r2, .L124
 3158 000c FB79     		ldrb	r3, [r7, #7]
 3159 000e 1370     		strb	r3, [r2]
 576:oled_driver.c **** }
 3160              		.loc 2 576 0
ARM GAS  C:\Users\49148\AppData\Local\Temp\ccVXiEAG.s 			page 78


 3161 0010 00BF     		nop
 3162 0012 0C37     		adds	r7, r7, #12
 3163              		.cfi_def_cfa_offset 4
 3164 0014 BD46     		mov	sp, r7
 3165              		.cfi_def_cfa_register 13
 3166              		@ sp needed
 3167 0016 5DF8047B 		ldr	r7, [sp], #4
 3168              		.cfi_restore 7
 3169              		.cfi_def_cfa_offset 0
 3170 001a 7047     		bx	lr
 3171              	.L125:
 3172              		.align	2
 3173              	.L124:
 3174 001c 00000000 		.word	wrap
 3175              		.cfi_endproc
 3176              	.LFE644:
 3177              		.size	gfx_setTextWrap, .-gfx_setTextWrap
 3178              		.section	.text.gfx_setRotation,"ax",%progbits
 3179              		.align	2
 3180              		.global	gfx_setRotation
 3181              		.thumb
 3182              		.thumb_func
 3183              		.type	gfx_setRotation, %function
 3184              	gfx_setRotation:
 3185              	.LFB645:
 577:oled_driver.c **** 
 578:oled_driver.c **** /***************************************************************************
 579:oled_driver.c ****  * Function: gfx_setRotation    
 580:oled_driver.c ****  *
 581:oled_driver.c ****  * Description:  Changes display rotation
 582:oled_driver.c ****  **************************************************************************/
 583:oled_driver.c **** void gfx_setRotation( uint8_t x ){
 3186              		.loc 2 583 0
 3187              		.cfi_startproc
 3188              		@ args = 0, pretend = 0, frame = 8
 3189              		@ frame_needed = 1, uses_anonymous_args = 0
 3190              		@ link register save eliminated.
 3191 0000 80B4     		push	{r7}
 3192              		.cfi_def_cfa_offset 4
 3193              		.cfi_offset 7, -4
 3194 0002 83B0     		sub	sp, sp, #12
 3195              		.cfi_def_cfa_offset 16
 3196 0004 00AF     		add	r7, sp, #0
 3197              		.cfi_def_cfa_register 7
 3198 0006 0346     		mov	r3, r0
 3199 0008 FB71     		strb	r3, [r7, #7]
 584:oled_driver.c ****     
 585:oled_driver.c ****     rotation = (x & 3);
 3200              		.loc 2 585 0
 3201 000a FB79     		ldrb	r3, [r7, #7]
 3202 000c 03F00303 		and	r3, r3, #3
 3203 0010 DAB2     		uxtb	r2, r3
 3204 0012 164B     		ldr	r3, .L132
 3205 0014 1A70     		strb	r2, [r3]
 586:oled_driver.c ****     switch( rotation ){
 3206              		.loc 2 586 0
 3207 0016 154B     		ldr	r3, .L132
ARM GAS  C:\Users\49148\AppData\Local\Temp\ccVXiEAG.s 			page 79


 3208 0018 1B78     		ldrb	r3, [r3]	@ zero_extendqisi2
 3209 001a 032B     		cmp	r3, #3
 3210 001c 20D8     		bhi	.L131
 3211 001e 01A2     		adr	r2, .L129
 3212 0020 52F823F0 		ldr	pc, [r2, r3, lsl #2]
 3213              		.p2align 2
 3214              	.L129:
 3215 0024 35000000 		.word	.L128+1
 3216 0028 4B000000 		.word	.L130+1
 3217 002c 35000000 		.word	.L128+1
 3218 0030 4B000000 		.word	.L130+1
 3219              		.p2align 1
 3220              	.L128:
 587:oled_driver.c ****         case 0:
 588:oled_driver.c ****         case 2:
 589:oled_driver.c ****             _width = WIDTH;
 3221              		.loc 2 589 0
 3222 0034 0E4B     		ldr	r3, .L132+4
 3223 0036 B3F90020 		ldrsh	r2, [r3]
 3224 003a 0E4B     		ldr	r3, .L132+8
 3225 003c 1A80     		strh	r2, [r3]	@ movhi
 590:oled_driver.c ****             _height = HEIGHT;
 3226              		.loc 2 590 0
 3227 003e 0E4B     		ldr	r3, .L132+12
 3228 0040 B3F90020 		ldrsh	r2, [r3]
 3229 0044 0D4B     		ldr	r3, .L132+16
 3230 0046 1A80     		strh	r2, [r3]	@ movhi
 591:oled_driver.c ****             break;
 3231              		.loc 2 591 0
 3232 0048 0AE0     		b	.L127
 3233              	.L130:
 592:oled_driver.c ****         case 1:
 593:oled_driver.c ****         case 3:
 594:oled_driver.c ****             _width = HEIGHT;
 3234              		.loc 2 594 0
 3235 004a 0B4B     		ldr	r3, .L132+12
 3236 004c B3F90020 		ldrsh	r2, [r3]
 3237 0050 084B     		ldr	r3, .L132+8
 3238 0052 1A80     		strh	r2, [r3]	@ movhi
 595:oled_driver.c ****             _height = WIDTH;
 3239              		.loc 2 595 0
 3240 0054 064B     		ldr	r3, .L132+4
 3241 0056 B3F90020 		ldrsh	r2, [r3]
 3242 005a 084B     		ldr	r3, .L132+16
 3243 005c 1A80     		strh	r2, [r3]	@ movhi
 596:oled_driver.c ****         break;
 3244              		.loc 2 596 0
 3245 005e 00BF     		nop
 3246              	.L127:
 3247              	.L131:
 597:oled_driver.c ****     }
 598:oled_driver.c **** }
 3248              		.loc 2 598 0
 3249 0060 00BF     		nop
 3250 0062 0C37     		adds	r7, r7, #12
 3251              		.cfi_def_cfa_offset 4
 3252 0064 BD46     		mov	sp, r7
ARM GAS  C:\Users\49148\AppData\Local\Temp\ccVXiEAG.s 			page 80


 3253              		.cfi_def_cfa_register 13
 3254              		@ sp needed
 3255 0066 5DF8047B 		ldr	r7, [sp], #4
 3256              		.cfi_restore 7
 3257              		.cfi_def_cfa_offset 0
 3258 006a 7047     		bx	lr
 3259              	.L133:
 3260              		.align	2
 3261              	.L132:
 3262 006c 00000000 		.word	rotation
 3263 0070 00000000 		.word	WIDTH
 3264 0074 00000000 		.word	_width
 3265 0078 00000000 		.word	HEIGHT
 3266 007c 02000000 		.word	_height
 3267              		.cfi_endproc
 3268              	.LFE645:
 3269              		.size	gfx_setRotation, .-gfx_setRotation
 3270              		.section	.text.gfx_rotation_adjust,"ax",%progbits
 3271              		.align	2
 3272              		.thumb
 3273              		.thumb_func
 3274              		.type	gfx_rotation_adjust, %function
 3275              	gfx_rotation_adjust:
 3276              	.LFB646:
 599:oled_driver.c **** 
 600:oled_driver.c **** /***************************************************************************
 601:oled_driver.c ****  * Function: gfx_rotation_adjust    
 602:oled_driver.c ****  *
 603:oled_driver.c ****  * Description:  Adjusts display rotation
 604:oled_driver.c ****  **************************************************************************/
 605:oled_driver.c **** static void gfx_rotation_adjust( int16_t* px, int16_t* py ){
 3277              		.loc 2 605 0
 3278              		.cfi_startproc
 3279              		@ args = 0, pretend = 0, frame = 16
 3280              		@ frame_needed = 1, uses_anonymous_args = 0
 3281              		@ link register save eliminated.
 3282 0000 80B4     		push	{r7}
 3283              		.cfi_def_cfa_offset 4
 3284              		.cfi_offset 7, -4
 3285 0002 85B0     		sub	sp, sp, #20
 3286              		.cfi_def_cfa_offset 24
 3287 0004 00AF     		add	r7, sp, #0
 3288              		.cfi_def_cfa_register 7
 3289 0006 7860     		str	r0, [r7, #4]
 3290 0008 3960     		str	r1, [r7]
 606:oled_driver.c **** 
 607:oled_driver.c ****     int16_t y0 = *py;
 3291              		.loc 2 607 0
 3292 000a 3B68     		ldr	r3, [r7]
 3293 000c 1B88     		ldrh	r3, [r3]	@ movhi
 3294 000e FB81     		strh	r3, [r7, #14]	@ movhi
 608:oled_driver.c ****     
 609:oled_driver.c ****     switch( rotation ){
 3295              		.loc 2 609 0
 3296 0010 294B     		ldr	r3, .L140
 3297 0012 1B78     		ldrb	r3, [r3]	@ zero_extendqisi2
 3298 0014 022B     		cmp	r3, #2
ARM GAS  C:\Users\49148\AppData\Local\Temp\ccVXiEAG.s 			page 81


 3299 0016 16D0     		beq	.L136
 3300 0018 032B     		cmp	r3, #3
 3301 001a 33D0     		beq	.L137
 3302 001c 012B     		cmp	r3, #1
 3303 001e 00D0     		beq	.L138
 610:oled_driver.c ****         case 1:
 611:oled_driver.c ****             *py = *px;
 612:oled_driver.c ****             *px = WIDTH - y0 - 1;
 613:oled_driver.c ****             break;
 614:oled_driver.c ****         case 2:
 615:oled_driver.c ****             *px = WIDTH - *px - 1;
 616:oled_driver.c ****             *py = HEIGHT - *py - 1;
 617:oled_driver.c ****             break;
 618:oled_driver.c ****         case 3:
 619:oled_driver.c ****             *py = HEIGHT - *px - 1;
 620:oled_driver.c ****             *px = y0;
 621:oled_driver.c ****             break;
 622:oled_driver.c ****     }
 623:oled_driver.c **** }
 3304              		.loc 2 623 0
 3305 0020 43E0     		b	.L139
 3306              	.L138:
 611:oled_driver.c ****             *px = WIDTH - y0 - 1;
 3307              		.loc 2 611 0
 3308 0022 7B68     		ldr	r3, [r7, #4]
 3309 0024 B3F90020 		ldrsh	r2, [r3]
 3310 0028 3B68     		ldr	r3, [r7]
 3311 002a 1A80     		strh	r2, [r3]	@ movhi
 612:oled_driver.c ****             break;
 3312              		.loc 2 612 0
 3313 002c 234B     		ldr	r3, .L140+4
 3314 002e B3F90030 		ldrsh	r3, [r3]
 3315 0032 9AB2     		uxth	r2, r3
 3316 0034 FB89     		ldrh	r3, [r7, #14]
 3317 0036 D31A     		subs	r3, r2, r3
 3318 0038 9BB2     		uxth	r3, r3
 3319 003a 013B     		subs	r3, r3, #1
 3320 003c 9BB2     		uxth	r3, r3
 3321 003e 1AB2     		sxth	r2, r3
 3322 0040 7B68     		ldr	r3, [r7, #4]
 3323 0042 1A80     		strh	r2, [r3]	@ movhi
 613:oled_driver.c ****         case 2:
 3324              		.loc 2 613 0
 3325 0044 31E0     		b	.L135
 3326              	.L136:
 615:oled_driver.c ****             *py = HEIGHT - *py - 1;
 3327              		.loc 2 615 0
 3328 0046 1D4B     		ldr	r3, .L140+4
 3329 0048 B3F90030 		ldrsh	r3, [r3]
 3330 004c 9AB2     		uxth	r2, r3
 3331 004e 7B68     		ldr	r3, [r7, #4]
 3332 0050 B3F90030 		ldrsh	r3, [r3]
 3333 0054 9BB2     		uxth	r3, r3
 3334 0056 D31A     		subs	r3, r2, r3
 3335 0058 9BB2     		uxth	r3, r3
 3336 005a 013B     		subs	r3, r3, #1
 3337 005c 9BB2     		uxth	r3, r3
ARM GAS  C:\Users\49148\AppData\Local\Temp\ccVXiEAG.s 			page 82


 3338 005e 1AB2     		sxth	r2, r3
 3339 0060 7B68     		ldr	r3, [r7, #4]
 3340 0062 1A80     		strh	r2, [r3]	@ movhi
 616:oled_driver.c ****             break;
 3341              		.loc 2 616 0
 3342 0064 164B     		ldr	r3, .L140+8
 3343 0066 B3F90030 		ldrsh	r3, [r3]
 3344 006a 9AB2     		uxth	r2, r3
 3345 006c 3B68     		ldr	r3, [r7]
 3346 006e B3F90030 		ldrsh	r3, [r3]
 3347 0072 9BB2     		uxth	r3, r3
 3348 0074 D31A     		subs	r3, r2, r3
 3349 0076 9BB2     		uxth	r3, r3
 3350 0078 013B     		subs	r3, r3, #1
 3351 007a 9BB2     		uxth	r3, r3
 3352 007c 1AB2     		sxth	r2, r3
 3353 007e 3B68     		ldr	r3, [r7]
 3354 0080 1A80     		strh	r2, [r3]	@ movhi
 617:oled_driver.c ****         case 3:
 3355              		.loc 2 617 0
 3356 0082 12E0     		b	.L135
 3357              	.L137:
 619:oled_driver.c ****             *px = y0;
 3358              		.loc 2 619 0
 3359 0084 0E4B     		ldr	r3, .L140+8
 3360 0086 B3F90030 		ldrsh	r3, [r3]
 3361 008a 9AB2     		uxth	r2, r3
 3362 008c 7B68     		ldr	r3, [r7, #4]
 3363 008e B3F90030 		ldrsh	r3, [r3]
 3364 0092 9BB2     		uxth	r3, r3
 3365 0094 D31A     		subs	r3, r2, r3
 3366 0096 9BB2     		uxth	r3, r3
 3367 0098 013B     		subs	r3, r3, #1
 3368 009a 9BB2     		uxth	r3, r3
 3369 009c 1AB2     		sxth	r2, r3
 3370 009e 3B68     		ldr	r3, [r7]
 3371 00a0 1A80     		strh	r2, [r3]	@ movhi
 620:oled_driver.c ****             break;
 3372              		.loc 2 620 0
 3373 00a2 7B68     		ldr	r3, [r7, #4]
 3374 00a4 FA89     		ldrh	r2, [r7, #14]	@ movhi
 3375 00a6 1A80     		strh	r2, [r3]	@ movhi
 621:oled_driver.c ****     }
 3376              		.loc 2 621 0
 3377 00a8 00BF     		nop
 3378              	.L135:
 3379              	.L139:
 3380              		.loc 2 623 0
 3381 00aa 00BF     		nop
 3382 00ac 1437     		adds	r7, r7, #20
 3383              		.cfi_def_cfa_offset 4
 3384 00ae BD46     		mov	sp, r7
 3385              		.cfi_def_cfa_register 13
 3386              		@ sp needed
 3387 00b0 5DF8047B 		ldr	r7, [sp], #4
 3388              		.cfi_restore 7
 3389              		.cfi_def_cfa_offset 0
ARM GAS  C:\Users\49148\AppData\Local\Temp\ccVXiEAG.s 			page 83


 3390 00b4 7047     		bx	lr
 3391              	.L141:
 3392 00b6 00BF     		.align	2
 3393              	.L140:
 3394 00b8 00000000 		.word	rotation
 3395 00bc 00000000 		.word	WIDTH
 3396 00c0 00000000 		.word	HEIGHT
 3397              		.cfi_endproc
 3398              	.LFE646:
 3399              		.size	gfx_rotation_adjust, .-gfx_rotation_adjust
 3400              		.section	.text.gfx_drawPixel,"ax",%progbits
 3401              		.align	2
 3402              		.global	gfx_drawPixel
 3403              		.thumb
 3404              		.thumb_func
 3405              		.type	gfx_drawPixel, %function
 3406              	gfx_drawPixel:
 3407              	.LFB647:
 624:oled_driver.c **** 
 625:oled_driver.c **** /***************************************************************************
 626:oled_driver.c ****  * Function: gfx_drawPixel    
 627:oled_driver.c ****  *
 628:oled_driver.c ****  * Description:  Draws a pixel at a specific X,Y position
 629:oled_driver.c ****  **************************************************************************/
 630:oled_driver.c **** void gfx_drawPixel( int16_t x, int16_t y, uint16_t color ){
 3408              		.loc 2 630 0
 3409              		.cfi_startproc
 3410              		@ args = 0, pretend = 0, frame = 8
 3411              		@ frame_needed = 1, uses_anonymous_args = 0
 3412 0000 80B5     		push	{r7, lr}
 3413              		.cfi_def_cfa_offset 8
 3414              		.cfi_offset 7, -8
 3415              		.cfi_offset 14, -4
 3416 0002 82B0     		sub	sp, sp, #8
 3417              		.cfi_def_cfa_offset 16
 3418 0004 00AF     		add	r7, sp, #0
 3419              		.cfi_def_cfa_register 7
 3420 0006 0346     		mov	r3, r0
 3421 0008 FB80     		strh	r3, [r7, #6]	@ movhi
 3422 000a 0B46     		mov	r3, r1	@ movhi
 3423 000c BB80     		strh	r3, [r7, #4]	@ movhi
 3424 000e 1346     		mov	r3, r2	@ movhi
 3425 0010 7B80     		strh	r3, [r7, #2]	@ movhi
 631:oled_driver.c ****     
 632:oled_driver.c ****     if( (x < 0) || (x >= _width) || (y < 0) || (y >= _height) )
 3426              		.loc 2 632 0
 3427 0012 B7F90630 		ldrsh	r3, [r7, #6]
 3428 0016 002B     		cmp	r3, #0
 3429 0018 20DB     		blt	.L146
 3430              		.loc 2 632 0 is_stmt 0 discriminator 1
 3431 001a B7F90620 		ldrsh	r2, [r7, #6]
 3432 001e 114B     		ldr	r3, .L147
 3433 0020 B3F90030 		ldrsh	r3, [r3]
 3434 0024 9A42     		cmp	r2, r3
 3435 0026 19DA     		bge	.L146
 3436              		.loc 2 632 0 discriminator 2
 3437 0028 B7F90430 		ldrsh	r3, [r7, #4]
ARM GAS  C:\Users\49148\AppData\Local\Temp\ccVXiEAG.s 			page 84


 3438 002c 002B     		cmp	r3, #0
 3439 002e 15DB     		blt	.L146
 3440              		.loc 2 632 0 discriminator 3
 3441 0030 B7F90420 		ldrsh	r2, [r7, #4]
 3442 0034 0C4B     		ldr	r3, .L147+4
 3443 0036 B3F90030 		ldrsh	r3, [r3]
 3444 003a 9A42     		cmp	r2, r3
 3445 003c 0EDA     		bge	.L146
 633:oled_driver.c ****         return;
 634:oled_driver.c ****     
 635:oled_driver.c ****     gfx_rotation_adjust( &x, &y );
 3446              		.loc 2 635 0 is_stmt 1
 3447 003e 3A1D     		adds	r2, r7, #4
 3448 0040 BB1D     		adds	r3, r7, #6
 3449 0042 1146     		mov	r1, r2
 3450 0044 1846     		mov	r0, r3
 3451 0046 FFF7FEFF 		bl	gfx_rotation_adjust
 636:oled_driver.c **** 
 637:oled_driver.c ****     display_setPixel(x,y,color);
 3452              		.loc 2 637 0
 3453 004a B7F90630 		ldrsh	r3, [r7, #6]
 3454 004e B7F90410 		ldrsh	r1, [r7, #4]
 3455 0052 7A88     		ldrh	r2, [r7, #2]
 3456 0054 1846     		mov	r0, r3
 3457 0056 FFF7FEFF 		bl	display_setPixel
 3458 005a 00E0     		b	.L142
 3459              	.L146:
 633:oled_driver.c ****         return;
 3460              		.loc 2 633 0
 3461 005c 00BF     		nop
 3462              	.L142:
 638:oled_driver.c **** }
 3463              		.loc 2 638 0
 3464 005e 0837     		adds	r7, r7, #8
 3465              		.cfi_def_cfa_offset 8
 3466 0060 BD46     		mov	sp, r7
 3467              		.cfi_def_cfa_register 13
 3468              		@ sp needed
 3469 0062 80BD     		pop	{r7, pc}
 3470              	.L148:
 3471              		.align	2
 3472              	.L147:
 3473 0064 00000000 		.word	_width
 3474 0068 02000000 		.word	_height
 3475              		.cfi_endproc
 3476              	.LFE647:
 3477              		.size	gfx_drawPixel, .-gfx_drawPixel
 3478              		.section	.text.gfx_hvLine,"ax",%progbits
 3479              		.align	2
 3480              		.thumb
 3481              		.thumb_func
 3482              		.type	gfx_hvLine, %function
 3483              	gfx_hvLine:
 3484              	.LFB648:
 639:oled_driver.c **** 
 640:oled_driver.c **** /***************************************************************************
 641:oled_driver.c ****  * Function: gfx_hvLine    
ARM GAS  C:\Users\49148\AppData\Local\Temp\ccVXiEAG.s 			page 85


 642:oled_driver.c ****  *
 643:oled_driver.c ****  * Description:  Helper function for gfx_drawLine, handles special cases of 
 644:oled_driver.c ****  *               horizontal and vertical lines
 645:oled_driver.c ****  **************************************************************************/
 646:oled_driver.c **** static void gfx_hvLine( int16_t x1, int16_t y1, int16_t x2, int16_t y2, uint16_t color ){
 3485              		.loc 2 646 0
 3486              		.cfi_startproc
 3487              		@ args = 4, pretend = 0, frame = 16
 3488              		@ frame_needed = 1, uses_anonymous_args = 0
 3489 0000 90B5     		push	{r4, r7, lr}
 3490              		.cfi_def_cfa_offset 12
 3491              		.cfi_offset 4, -12
 3492              		.cfi_offset 7, -8
 3493              		.cfi_offset 14, -4
 3494 0002 87B0     		sub	sp, sp, #28
 3495              		.cfi_def_cfa_offset 40
 3496 0004 02AF     		add	r7, sp, #8
 3497              		.cfi_def_cfa 7, 32
 3498 0006 0446     		mov	r4, r0
 3499 0008 0846     		mov	r0, r1
 3500 000a 1146     		mov	r1, r2
 3501 000c 1A46     		mov	r2, r3
 3502 000e 2346     		mov	r3, r4	@ movhi
 3503 0010 FB80     		strh	r3, [r7, #6]	@ movhi
 3504 0012 0346     		mov	r3, r0	@ movhi
 3505 0014 BB80     		strh	r3, [r7, #4]	@ movhi
 3506 0016 0B46     		mov	r3, r1	@ movhi
 3507 0018 7B80     		strh	r3, [r7, #2]	@ movhi
 3508 001a 1346     		mov	r3, r2	@ movhi
 3509 001c 3B80     		strh	r3, [r7]	@ movhi
 647:oled_driver.c ****     
 648:oled_driver.c ****     if( x1 != x2 && y1 != y2 ){
 3510              		.loc 2 648 0
 3511 001e B7F90620 		ldrsh	r2, [r7, #6]
 3512 0022 B7F90230 		ldrsh	r3, [r7, #2]
 3513 0026 9A42     		cmp	r2, r3
 3514 0028 06D0     		beq	.L150
 3515              		.loc 2 648 0 is_stmt 0 discriminator 1
 3516 002a B7F90420 		ldrsh	r2, [r7, #4]
 3517 002e B7F90030 		ldrsh	r3, [r7]
 3518 0032 9A42     		cmp	r2, r3
 3519 0034 40F0A880 		bne	.L165
 3520              	.L150:
 649:oled_driver.c ****         // neither vertical nor horizontal
 650:oled_driver.c ****         return;
 651:oled_driver.c ****     }    
 652:oled_driver.c ****     
 653:oled_driver.c ****     // bounds check
 654:oled_driver.c ****     if( rotation == 1 || rotation == 3 ){
 3521              		.loc 2 654 0 is_stmt 1
 3522 0038 594B     		ldr	r3, .L171
 3523 003a 1B78     		ldrb	r3, [r3]	@ zero_extendqisi2
 3524 003c 012B     		cmp	r3, #1
 3525 003e 03D0     		beq	.L152
 3526              		.loc 2 654 0 is_stmt 0 discriminator 1
 3527 0040 574B     		ldr	r3, .L171
 3528 0042 1B78     		ldrb	r3, [r3]	@ zero_extendqisi2
ARM GAS  C:\Users\49148\AppData\Local\Temp\ccVXiEAG.s 			page 86


 3529 0044 032B     		cmp	r3, #3
 3530 0046 31D1     		bne	.L153
 3531              	.L152:
 655:oled_driver.c ****         if( x1 < 0 || x1 >= HEIGHT || x2 < 0 || x2 >= HEIGHT )
 3532              		.loc 2 655 0 is_stmt 1
 3533 0048 B7F90630 		ldrsh	r3, [r7, #6]
 3534 004c 002B     		cmp	r3, #0
 3535 004e C0F29D80 		blt	.L166
 3536              		.loc 2 655 0 is_stmt 0 discriminator 1
 3537 0052 B7F90620 		ldrsh	r2, [r7, #6]
 3538 0056 534B     		ldr	r3, .L171+4
 3539 0058 B3F90030 		ldrsh	r3, [r3]
 3540 005c 9A42     		cmp	r2, r3
 3541 005e 80F29580 		bge	.L166
 3542              		.loc 2 655 0 discriminator 2
 3543 0062 B7F90230 		ldrsh	r3, [r7, #2]
 3544 0066 002B     		cmp	r3, #0
 3545 0068 C0F29080 		blt	.L166
 3546              		.loc 2 655 0 discriminator 3
 3547 006c B7F90220 		ldrsh	r2, [r7, #2]
 3548 0070 4C4B     		ldr	r3, .L171+4
 3549 0072 B3F90030 		ldrsh	r3, [r3]
 3550 0076 9A42     		cmp	r2, r3
 3551 0078 80F28880 		bge	.L166
 656:oled_driver.c ****             return;
 657:oled_driver.c ****         if( y1 < 0 || y1 >= WIDTH || y2 < 0 || y2 >= WIDTH )
 3552              		.loc 2 657 0 is_stmt 1
 3553 007c B7F90430 		ldrsh	r3, [r7, #4]
 3554 0080 002B     		cmp	r3, #0
 3555 0082 C0F28580 		blt	.L167
 3556              		.loc 2 657 0 is_stmt 0 discriminator 1
 3557 0086 B7F90420 		ldrsh	r2, [r7, #4]
 3558 008a 474B     		ldr	r3, .L171+8
 3559 008c B3F90030 		ldrsh	r3, [r3]
 3560 0090 9A42     		cmp	r2, r3
 3561 0092 7DDA     		bge	.L167
 3562              		.loc 2 657 0 discriminator 2
 3563 0094 B7F90030 		ldrsh	r3, [r7]
 3564 0098 002B     		cmp	r3, #0
 3565 009a 79DB     		blt	.L167
 3566              		.loc 2 657 0 discriminator 3
 3567 009c B7F90020 		ldrsh	r2, [r7]
 3568 00a0 414B     		ldr	r3, .L171+8
 3569 00a2 B3F90030 		ldrsh	r3, [r3]
 3570 00a6 9A42     		cmp	r2, r3
 3571 00a8 2DDB     		blt	.L168
 658:oled_driver.c ****             return;
 3572              		.loc 2 658 0 is_stmt 1
 3573 00aa 71E0     		b	.L167
 3574              	.L153:
 659:oled_driver.c ****     }else{
 660:oled_driver.c ****         if( y1 < 0 || y1 >= HEIGHT || y2 < 0 || y2 >= HEIGHT )
 3575              		.loc 2 660 0
 3576 00ac B7F90430 		ldrsh	r3, [r7, #4]
 3577 00b0 002B     		cmp	r3, #0
 3578 00b2 6FDB     		blt	.L169
 3579              		.loc 2 660 0 is_stmt 0 discriminator 1
ARM GAS  C:\Users\49148\AppData\Local\Temp\ccVXiEAG.s 			page 87


 3580 00b4 B7F90420 		ldrsh	r2, [r7, #4]
 3581 00b8 3A4B     		ldr	r3, .L171+4
 3582 00ba B3F90030 		ldrsh	r3, [r3]
 3583 00be 9A42     		cmp	r2, r3
 3584 00c0 68DA     		bge	.L169
 3585              		.loc 2 660 0 discriminator 2
 3586 00c2 B7F90030 		ldrsh	r3, [r7]
 3587 00c6 002B     		cmp	r3, #0
 3588 00c8 64DB     		blt	.L169
 3589              		.loc 2 660 0 discriminator 3
 3590 00ca B7F90020 		ldrsh	r2, [r7]
 3591 00ce 354B     		ldr	r3, .L171+4
 3592 00d0 B3F90030 		ldrsh	r3, [r3]
 3593 00d4 9A42     		cmp	r2, r3
 3594 00d6 5DDA     		bge	.L169
 661:oled_driver.c ****             return;
 662:oled_driver.c ****         if( x1 < 0 || x1 >= WIDTH || x2 < 0 || x2 >= WIDTH )
 3595              		.loc 2 662 0 is_stmt 1
 3596 00d8 B7F90630 		ldrsh	r3, [r7, #6]
 3597 00dc 002B     		cmp	r3, #0
 3598 00de 5BDB     		blt	.L170
 3599              		.loc 2 662 0 is_stmt 0 discriminator 1
 3600 00e0 B7F90620 		ldrsh	r2, [r7, #6]
 3601 00e4 304B     		ldr	r3, .L171+8
 3602 00e6 B3F90030 		ldrsh	r3, [r3]
 3603 00ea 9A42     		cmp	r2, r3
 3604 00ec 54DA     		bge	.L170
 3605              		.loc 2 662 0 discriminator 2
 3606 00ee B7F90230 		ldrsh	r3, [r7, #2]
 3607 00f2 002B     		cmp	r3, #0
 3608 00f4 50DB     		blt	.L170
 3609              		.loc 2 662 0 discriminator 3
 3610 00f6 B7F90220 		ldrsh	r2, [r7, #2]
 3611 00fa 2B4B     		ldr	r3, .L171+8
 3612 00fc B3F90030 		ldrsh	r3, [r3]
 3613 0100 9A42     		cmp	r2, r3
 3614 0102 49DA     		bge	.L170
 3615 0104 00E0     		b	.L158
 3616              	.L168:
 657:oled_driver.c ****             return;
 3617              		.loc 2 657 0 is_stmt 1
 3618 0106 00BF     		nop
 3619              	.L158:
 663:oled_driver.c ****             return;
 664:oled_driver.c ****     }
 665:oled_driver.c ****     
 666:oled_driver.c ****     gfx_rotation_adjust( &x1, &y1 );
 3620              		.loc 2 666 0
 3621 0108 3A1D     		adds	r2, r7, #4
 3622 010a BB1D     		adds	r3, r7, #6
 3623 010c 1146     		mov	r1, r2
 3624 010e 1846     		mov	r0, r3
 3625 0110 FFF7FEFF 		bl	gfx_rotation_adjust
 667:oled_driver.c ****     gfx_rotation_adjust( &x2, &y2 );
 3626              		.loc 2 667 0
 3627 0114 3A46     		mov	r2, r7
 3628 0116 BB1C     		adds	r3, r7, #2
ARM GAS  C:\Users\49148\AppData\Local\Temp\ccVXiEAG.s 			page 88


 3629 0118 1146     		mov	r1, r2
 3630 011a 1846     		mov	r0, r3
 3631 011c FFF7FEFF 		bl	gfx_rotation_adjust
 668:oled_driver.c ****     
 669:oled_driver.c ****     // ensure coords are from left to right and top to bottom
 670:oled_driver.c ****     if( (x1 == x2 && y2 < y1) || (y1 == y2 && x2 < x1) ){
 3632              		.loc 2 670 0
 3633 0120 B7F90620 		ldrsh	r2, [r7, #6]
 3634 0124 B7F90230 		ldrsh	r3, [r7, #2]
 3635 0128 9A42     		cmp	r2, r3
 3636 012a 05D1     		bne	.L162
 3637              		.loc 2 670 0 is_stmt 0 discriminator 1
 3638 012c B7F90020 		ldrsh	r2, [r7]
 3639 0130 B7F90430 		ldrsh	r3, [r7, #4]
 3640 0134 9A42     		cmp	r2, r3
 3641 0136 0BDB     		blt	.L163
 3642              	.L162:
 3643              		.loc 2 670 0 discriminator 3
 3644 0138 B7F90420 		ldrsh	r2, [r7, #4]
 3645 013c B7F90030 		ldrsh	r3, [r7]
 3646 0140 9A42     		cmp	r2, r3
 3647 0142 13D1     		bne	.L164
 3648              		.loc 2 670 0 discriminator 4
 3649 0144 B7F90220 		ldrsh	r2, [r7, #2]
 3650 0148 B7F90630 		ldrsh	r3, [r7, #6]
 3651 014c 9A42     		cmp	r2, r3
 3652 014e 0DDA     		bge	.L164
 3653              	.L163:
 3654              	.LBB11:
 671:oled_driver.c ****         // swap as needed
 672:oled_driver.c ****         int16_t t = x1; x1 = x2; x2 = t;
 3655              		.loc 2 672 0 is_stmt 1
 3656 0150 FB88     		ldrh	r3, [r7, #6]	@ movhi
 3657 0152 FB81     		strh	r3, [r7, #14]	@ movhi
 3658 0154 B7F90230 		ldrsh	r3, [r7, #2]
 3659 0158 FB80     		strh	r3, [r7, #6]	@ movhi
 3660 015a FB89     		ldrh	r3, [r7, #14]	@ movhi
 3661 015c 7B80     		strh	r3, [r7, #2]	@ movhi
 673:oled_driver.c ****         t = y1; y1 = y2; y2 = t;
 3662              		.loc 2 673 0
 3663 015e BB88     		ldrh	r3, [r7, #4]	@ movhi
 3664 0160 FB81     		strh	r3, [r7, #14]	@ movhi
 3665 0162 B7F90030 		ldrsh	r3, [r7]
 3666 0166 BB80     		strh	r3, [r7, #4]	@ movhi
 3667 0168 FB89     		ldrh	r3, [r7, #14]	@ movhi
 3668 016a 3B80     		strh	r3, [r7]	@ movhi
 3669              	.L164:
 3670              	.LBE11:
 674:oled_driver.c ****     }
 675:oled_driver.c ****     
 676:oled_driver.c ****     display_line( x1, y1, x2, y2, color );
 3671              		.loc 2 676 0
 3672 016c B7F90600 		ldrsh	r0, [r7, #6]
 3673 0170 B7F90410 		ldrsh	r1, [r7, #4]
 3674 0174 B7F90220 		ldrsh	r2, [r7, #2]
 3675 0178 B7F90040 		ldrsh	r4, [r7]
 3676 017c 3B8C     		ldrh	r3, [r7, #32]
ARM GAS  C:\Users\49148\AppData\Local\Temp\ccVXiEAG.s 			page 89


 3677 017e 0093     		str	r3, [sp]
 3678 0180 2346     		mov	r3, r4
 3679 0182 FFF7FEFF 		bl	display_line
 3680 0186 08E0     		b	.L149
 3681              	.L165:
 650:oled_driver.c ****     }    
 3682              		.loc 2 650 0
 3683 0188 00BF     		nop
 3684 018a 06E0     		b	.L149
 3685              	.L166:
 656:oled_driver.c ****         if( y1 < 0 || y1 >= WIDTH || y2 < 0 || y2 >= WIDTH )
 3686              		.loc 2 656 0
 3687 018c 00BF     		nop
 3688 018e 04E0     		b	.L149
 3689              	.L167:
 658:oled_driver.c ****     }else{
 3690              		.loc 2 658 0
 3691 0190 00BF     		nop
 3692 0192 02E0     		b	.L149
 3693              	.L169:
 661:oled_driver.c ****         if( x1 < 0 || x1 >= WIDTH || x2 < 0 || x2 >= WIDTH )
 3694              		.loc 2 661 0
 3695 0194 00BF     		nop
 3696 0196 00E0     		b	.L149
 3697              	.L170:
 663:oled_driver.c ****     }
 3698              		.loc 2 663 0
 3699 0198 00BF     		nop
 3700              	.L149:
 677:oled_driver.c **** }
 3701              		.loc 2 677 0
 3702 019a 1437     		adds	r7, r7, #20
 3703              		.cfi_def_cfa_offset 12
 3704 019c BD46     		mov	sp, r7
 3705              		.cfi_def_cfa_register 13
 3706              		@ sp needed
 3707 019e 90BD     		pop	{r4, r7, pc}
 3708              	.L172:
 3709              		.align	2
 3710              	.L171:
 3711 01a0 00000000 		.word	rotation
 3712 01a4 00000000 		.word	HEIGHT
 3713 01a8 00000000 		.word	WIDTH
 3714              		.cfi_endproc
 3715              	.LFE648:
 3716              		.size	gfx_hvLine, .-gfx_hvLine
 3717              		.section	.text.gfx_drawLine,"ax",%progbits
 3718              		.align	2
 3719              		.global	gfx_drawLine
 3720              		.thumb
 3721              		.thumb_func
 3722              		.type	gfx_drawLine, %function
 3723              	gfx_drawLine:
 3724              	.LFB649:
 678:oled_driver.c **** 
 679:oled_driver.c **** /***************************************************************************
 680:oled_driver.c ****  * Function: gfx_drawLine    
ARM GAS  C:\Users\49148\AppData\Local\Temp\ccVXiEAG.s 			page 90


 681:oled_driver.c ****  *
 682:oled_driver.c ****  * Description: Function used for line drawing
 683:oled_driver.c ****  **************************************************************************/
 684:oled_driver.c **** void gfx_drawLine( int16_t x0, int16_t y0, int16_t x1, int16_t y1, uint16_t color ){
 3725              		.loc 2 684 0
 3726              		.cfi_startproc
 3727              		@ args = 4, pretend = 0, frame = 24
 3728              		@ frame_needed = 1, uses_anonymous_args = 0
 3729 0000 90B5     		push	{r4, r7, lr}
 3730              		.cfi_def_cfa_offset 12
 3731              		.cfi_offset 4, -12
 3732              		.cfi_offset 7, -8
 3733              		.cfi_offset 14, -4
 3734 0002 89B0     		sub	sp, sp, #36
 3735              		.cfi_def_cfa_offset 48
 3736 0004 02AF     		add	r7, sp, #8
 3737              		.cfi_def_cfa 7, 40
 3738 0006 0446     		mov	r4, r0
 3739 0008 0846     		mov	r0, r1
 3740 000a 1146     		mov	r1, r2
 3741 000c 1A46     		mov	r2, r3
 3742 000e 2346     		mov	r3, r4	@ movhi
 3743 0010 FB80     		strh	r3, [r7, #6]	@ movhi
 3744 0012 0346     		mov	r3, r0	@ movhi
 3745 0014 BB80     		strh	r3, [r7, #4]	@ movhi
 3746 0016 0B46     		mov	r3, r1	@ movhi
 3747 0018 7B80     		strh	r3, [r7, #2]	@ movhi
 3748 001a 1346     		mov	r3, r2	@ movhi
 3749 001c 3B80     		strh	r3, [r7]	@ movhi
 685:oled_driver.c ****  
 686:oled_driver.c ****     if( x0 == x1 || y0 == y1 ){
 3750              		.loc 2 686 0
 3751 001e B7F90620 		ldrsh	r2, [r7, #6]
 3752 0022 B7F90230 		ldrsh	r3, [r7, #2]
 3753 0026 9A42     		cmp	r2, r3
 3754 0028 05D0     		beq	.L174
 3755              		.loc 2 686 0 is_stmt 0 discriminator 1
 3756 002a B7F90420 		ldrsh	r2, [r7, #4]
 3757 002e B7F90030 		ldrsh	r3, [r7]
 3758 0032 9A42     		cmp	r2, r3
 3759 0034 0DD1     		bne	.L175
 3760              	.L174:
 687:oled_driver.c ****         // vertical and horizontal lines can be drawn faster
 688:oled_driver.c ****         gfx_hvLine( x0, y0, x1, y1, color );
 3761              		.loc 2 688 0 is_stmt 1
 3762 0036 B7F90040 		ldrsh	r4, [r7]
 3763 003a B7F90220 		ldrsh	r2, [r7, #2]
 3764 003e B7F90410 		ldrsh	r1, [r7, #4]
 3765 0042 B7F90600 		ldrsh	r0, [r7, #6]
 3766 0046 3B8D     		ldrh	r3, [r7, #40]
 3767 0048 0093     		str	r3, [sp]
 3768 004a 2346     		mov	r3, r4
 3769 004c FFF7FEFF 		bl	gfx_hvLine
 689:oled_driver.c ****         return;
 3770              		.loc 2 689 0
 3771 0050 8DE0     		b	.L173
 3772              	.L175:
ARM GAS  C:\Users\49148\AppData\Local\Temp\ccVXiEAG.s 			page 91


 690:oled_driver.c ****     }
 691:oled_driver.c ****     
 692:oled_driver.c ****     int16_t t;
 693:oled_driver.c ****     
 694:oled_driver.c ****     int16_t steep = abs(y1 - y0) > abs(x1 - x0);
 3773              		.loc 2 694 0
 3774 0052 B7F90020 		ldrsh	r2, [r7]
 3775 0056 B7F90430 		ldrsh	r3, [r7, #4]
 3776 005a D31A     		subs	r3, r2, r3
 3777 005c 83EAE372 		eor	r2, r3, r3, asr #31
 3778 0060 A2EBE372 		sub	r2, r2, r3, asr #31
 3779 0064 B7F90210 		ldrsh	r1, [r7, #2]
 3780 0068 B7F90630 		ldrsh	r3, [r7, #6]
 3781 006c CB1A     		subs	r3, r1, r3
 3782 006e 002B     		cmp	r3, #0
 3783 0070 B8BF     		it	lt
 3784 0072 5B42     		rsblt	r3, r3, #0
 3785 0074 9A42     		cmp	r2, r3
 3786 0076 CCBF     		ite	gt
 3787 0078 0123     		movgt	r3, #1
 3788 007a 0023     		movle	r3, #0
 3789 007c DBB2     		uxtb	r3, r3
 3790 007e 7B82     		strh	r3, [r7, #18]	@ movhi
 695:oled_driver.c ****     if( steep ){
 3791              		.loc 2 695 0
 3792 0080 B7F91230 		ldrsh	r3, [r7, #18]
 3793 0084 002B     		cmp	r3, #0
 3794 0086 0BD0     		beq	.L177
 696:oled_driver.c ****         t = x0; x0 = y0; y0 = t;
 3795              		.loc 2 696 0
 3796 0088 FB88     		ldrh	r3, [r7, #6]	@ movhi
 3797 008a 3B82     		strh	r3, [r7, #16]	@ movhi
 3798 008c BB88     		ldrh	r3, [r7, #4]	@ movhi
 3799 008e FB80     		strh	r3, [r7, #6]	@ movhi
 3800 0090 3B8A     		ldrh	r3, [r7, #16]	@ movhi
 3801 0092 BB80     		strh	r3, [r7, #4]	@ movhi
 697:oled_driver.c ****         t = x1; x1 = y1; y1 = t;
 3802              		.loc 2 697 0
 3803 0094 7B88     		ldrh	r3, [r7, #2]	@ movhi
 3804 0096 3B82     		strh	r3, [r7, #16]	@ movhi
 3805 0098 3B88     		ldrh	r3, [r7]	@ movhi
 3806 009a 7B80     		strh	r3, [r7, #2]	@ movhi
 3807 009c 3B8A     		ldrh	r3, [r7, #16]	@ movhi
 3808 009e 3B80     		strh	r3, [r7]	@ movhi
 3809              	.L177:
 698:oled_driver.c ****     }
 699:oled_driver.c ****     if( x0 > x1 ){
 3810              		.loc 2 699 0
 3811 00a0 B7F90620 		ldrsh	r2, [r7, #6]
 3812 00a4 B7F90230 		ldrsh	r3, [r7, #2]
 3813 00a8 9A42     		cmp	r2, r3
 3814 00aa 0BDD     		ble	.L178
 700:oled_driver.c ****         t = x0; x0 = x1; x1 = t;
 3815              		.loc 2 700 0
 3816 00ac FB88     		ldrh	r3, [r7, #6]	@ movhi
 3817 00ae 3B82     		strh	r3, [r7, #16]	@ movhi
 3818 00b0 7B88     		ldrh	r3, [r7, #2]	@ movhi
ARM GAS  C:\Users\49148\AppData\Local\Temp\ccVXiEAG.s 			page 92


 3819 00b2 FB80     		strh	r3, [r7, #6]	@ movhi
 3820 00b4 3B8A     		ldrh	r3, [r7, #16]	@ movhi
 3821 00b6 7B80     		strh	r3, [r7, #2]	@ movhi
 701:oled_driver.c ****         t = y0; y0 = y1; y1 = t;
 3822              		.loc 2 701 0
 3823 00b8 BB88     		ldrh	r3, [r7, #4]	@ movhi
 3824 00ba 3B82     		strh	r3, [r7, #16]	@ movhi
 3825 00bc 3B88     		ldrh	r3, [r7]	@ movhi
 3826 00be BB80     		strh	r3, [r7, #4]	@ movhi
 3827 00c0 3B8A     		ldrh	r3, [r7, #16]	@ movhi
 3828 00c2 3B80     		strh	r3, [r7]	@ movhi
 3829              	.L178:
 702:oled_driver.c ****     }
 703:oled_driver.c ****     int16_t dx, dy;
 704:oled_driver.c ****     dx = x1 - x0;
 3830              		.loc 2 704 0
 3831 00c4 7A88     		ldrh	r2, [r7, #2]
 3832 00c6 FB88     		ldrh	r3, [r7, #6]
 3833 00c8 D31A     		subs	r3, r2, r3
 3834 00ca 9BB2     		uxth	r3, r3
 3835 00cc FB81     		strh	r3, [r7, #14]	@ movhi
 705:oled_driver.c ****     dy = abs(y1 - y0);
 3836              		.loc 2 705 0
 3837 00ce B7F90020 		ldrsh	r2, [r7]
 3838 00d2 B7F90430 		ldrsh	r3, [r7, #4]
 3839 00d6 D31A     		subs	r3, r2, r3
 3840 00d8 002B     		cmp	r3, #0
 3841 00da B8BF     		it	lt
 3842 00dc 5B42     		rsblt	r3, r3, #0
 3843 00de BB81     		strh	r3, [r7, #12]	@ movhi
 706:oled_driver.c ****     int16_t err = dx / 2;
 3844              		.loc 2 706 0
 3845 00e0 B7F90E30 		ldrsh	r3, [r7, #14]
 3846 00e4 DA0F     		lsrs	r2, r3, #31
 3847 00e6 1344     		add	r3, r3, r2
 3848 00e8 5B10     		asrs	r3, r3, #1
 3849 00ea FB82     		strh	r3, [r7, #22]	@ movhi
 707:oled_driver.c ****     int16_t ystep;
 708:oled_driver.c ****     if( y0 < y1 ){
 3850              		.loc 2 708 0
 3851 00ec B7F90420 		ldrsh	r2, [r7, #4]
 3852 00f0 B7F90030 		ldrsh	r3, [r7]
 3853 00f4 9A42     		cmp	r2, r3
 3854 00f6 02DA     		bge	.L179
 709:oled_driver.c ****         ystep = 1;
 3855              		.loc 2 709 0
 3856 00f8 0123     		movs	r3, #1
 3857 00fa BB82     		strh	r3, [r7, #20]	@ movhi
 3858 00fc 31E0     		b	.L181
 3859              	.L179:
 710:oled_driver.c ****     }else{
 711:oled_driver.c ****         ystep = -1;
 3860              		.loc 2 711 0
 3861 00fe 4FF6FF73 		movw	r3, #65535
 3862 0102 BB82     		strh	r3, [r7, #20]	@ movhi
 712:oled_driver.c ****     }
 713:oled_driver.c ****     for( ; x0<=x1; x0++ ){
ARM GAS  C:\Users\49148\AppData\Local\Temp\ccVXiEAG.s 			page 93


 3863              		.loc 2 713 0
 3864 0104 2DE0     		b	.L181
 3865              	.L185:
 714:oled_driver.c ****         if( steep ){
 3866              		.loc 2 714 0
 3867 0106 B7F91230 		ldrsh	r3, [r7, #18]
 3868 010a 002B     		cmp	r3, #0
 3869 010c 08D0     		beq	.L182
 715:oled_driver.c ****             gfx_drawPixel( y0, x0, color );
 3870              		.loc 2 715 0
 3871 010e 3A8D     		ldrh	r2, [r7, #40]
 3872 0110 B7F90610 		ldrsh	r1, [r7, #6]
 3873 0114 B7F90430 		ldrsh	r3, [r7, #4]
 3874 0118 1846     		mov	r0, r3
 3875 011a FFF7FEFF 		bl	gfx_drawPixel
 3876 011e 07E0     		b	.L183
 3877              	.L182:
 716:oled_driver.c ****         }else{
 717:oled_driver.c ****             gfx_drawPixel( x0, y0, color );
 3878              		.loc 2 717 0
 3879 0120 3A8D     		ldrh	r2, [r7, #40]
 3880 0122 B7F90410 		ldrsh	r1, [r7, #4]
 3881 0126 B7F90630 		ldrsh	r3, [r7, #6]
 3882 012a 1846     		mov	r0, r3
 3883 012c FFF7FEFF 		bl	gfx_drawPixel
 3884              	.L183:
 718:oled_driver.c ****         }
 719:oled_driver.c ****         err -= dy;
 3885              		.loc 2 719 0
 3886 0130 FA8A     		ldrh	r2, [r7, #22]
 3887 0132 BB89     		ldrh	r3, [r7, #12]
 3888 0134 D31A     		subs	r3, r2, r3
 3889 0136 9BB2     		uxth	r3, r3
 3890 0138 FB82     		strh	r3, [r7, #22]	@ movhi
 720:oled_driver.c ****         if( err < 0 ){
 3891              		.loc 2 720 0
 3892 013a B7F91630 		ldrsh	r3, [r7, #22]
 3893 013e 002B     		cmp	r3, #0
 3894 0140 09DA     		bge	.L184
 721:oled_driver.c ****             y0 += ystep;
 3895              		.loc 2 721 0
 3896 0142 BA88     		ldrh	r2, [r7, #4]
 3897 0144 BB8A     		ldrh	r3, [r7, #20]
 3898 0146 1344     		add	r3, r3, r2
 3899 0148 9BB2     		uxth	r3, r3
 3900 014a BB80     		strh	r3, [r7, #4]	@ movhi
 722:oled_driver.c ****             err += dx;
 3901              		.loc 2 722 0
 3902 014c FA8A     		ldrh	r2, [r7, #22]
 3903 014e FB89     		ldrh	r3, [r7, #14]
 3904 0150 1344     		add	r3, r3, r2
 3905 0152 9BB2     		uxth	r3, r3
 3906 0154 FB82     		strh	r3, [r7, #22]	@ movhi
 3907              	.L184:
 713:oled_driver.c ****         if( steep ){
 3908              		.loc 2 713 0
 3909 0156 B7F90630 		ldrsh	r3, [r7, #6]
ARM GAS  C:\Users\49148\AppData\Local\Temp\ccVXiEAG.s 			page 94


 3910 015a 9BB2     		uxth	r3, r3
 3911 015c 0133     		adds	r3, r3, #1
 3912 015e 9BB2     		uxth	r3, r3
 3913 0160 FB80     		strh	r3, [r7, #6]	@ movhi
 3914              	.L181:
 713:oled_driver.c ****         if( steep ){
 3915              		.loc 2 713 0 is_stmt 0 discriminator 1
 3916 0162 B7F90620 		ldrsh	r2, [r7, #6]
 3917 0166 B7F90230 		ldrsh	r3, [r7, #2]
 3918 016a 9A42     		cmp	r2, r3
 3919 016c CBDD     		ble	.L185
 3920              	.L173:
 723:oled_driver.c ****         }
 724:oled_driver.c ****     }
 725:oled_driver.c **** }
 3921              		.loc 2 725 0 is_stmt 1
 3922 016e 1C37     		adds	r7, r7, #28
 3923              		.cfi_def_cfa_offset 12
 3924 0170 BD46     		mov	sp, r7
 3925              		.cfi_def_cfa_register 13
 3926              		@ sp needed
 3927 0172 90BD     		pop	{r4, r7, pc}
 3928              		.cfi_endproc
 3929              	.LFE649:
 3930              		.size	gfx_drawLine, .-gfx_drawLine
 3931              		.section	.text.gfx_drawRect,"ax",%progbits
 3932              		.align	2
 3933              		.global	gfx_drawRect
 3934              		.thumb
 3935              		.thumb_func
 3936              		.type	gfx_drawRect, %function
 3937              	gfx_drawRect:
 3938              	.LFB650:
 726:oled_driver.c **** 
 727:oled_driver.c **** /***************************************************************************
 728:oled_driver.c ****  * Function: gfx_fillRect    
 729:oled_driver.c ****  *
 730:oled_driver.c ****  * Description: Function used to draw a rectangle 
 731:oled_driver.c ****  **************************************************************************/
 732:oled_driver.c **** void gfx_drawRect( int16_t x, int16_t y, int16_t w, int16_t h, uint16_t color ){
 3939              		.loc 2 732 0
 3940              		.cfi_startproc
 3941              		@ args = 4, pretend = 0, frame = 8
 3942              		@ frame_needed = 1, uses_anonymous_args = 0
 3943 0000 90B5     		push	{r4, r7, lr}
 3944              		.cfi_def_cfa_offset 12
 3945              		.cfi_offset 4, -12
 3946              		.cfi_offset 7, -8
 3947              		.cfi_offset 14, -4
 3948 0002 85B0     		sub	sp, sp, #20
 3949              		.cfi_def_cfa_offset 32
 3950 0004 02AF     		add	r7, sp, #8
 3951              		.cfi_def_cfa 7, 24
 3952 0006 0446     		mov	r4, r0
 3953 0008 0846     		mov	r0, r1
 3954 000a 1146     		mov	r1, r2
 3955 000c 1A46     		mov	r2, r3
ARM GAS  C:\Users\49148\AppData\Local\Temp\ccVXiEAG.s 			page 95


 3956 000e 2346     		mov	r3, r4	@ movhi
 3957 0010 FB80     		strh	r3, [r7, #6]	@ movhi
 3958 0012 0346     		mov	r3, r0	@ movhi
 3959 0014 BB80     		strh	r3, [r7, #4]	@ movhi
 3960 0016 0B46     		mov	r3, r1	@ movhi
 3961 0018 7B80     		strh	r3, [r7, #2]	@ movhi
 3962 001a 1346     		mov	r3, r2	@ movhi
 3963 001c 3B80     		strh	r3, [r7]	@ movhi
 733:oled_driver.c ****     
 734:oled_driver.c ****     gfx_drawLine( x, y, x+w-1, y, color );
 3964              		.loc 2 734 0
 3965 001e FA88     		ldrh	r2, [r7, #6]
 3966 0020 7B88     		ldrh	r3, [r7, #2]
 3967 0022 1344     		add	r3, r3, r2
 3968 0024 9BB2     		uxth	r3, r3
 3969 0026 013B     		subs	r3, r3, #1
 3970 0028 9BB2     		uxth	r3, r3
 3971 002a 1AB2     		sxth	r2, r3
 3972 002c B7F90440 		ldrsh	r4, [r7, #4]
 3973 0030 B7F90410 		ldrsh	r1, [r7, #4]
 3974 0034 B7F90600 		ldrsh	r0, [r7, #6]
 3975 0038 3B8B     		ldrh	r3, [r7, #24]
 3976 003a 0093     		str	r3, [sp]
 3977 003c 2346     		mov	r3, r4
 3978 003e FFF7FEFF 		bl	gfx_drawLine
 735:oled_driver.c ****     gfx_drawLine( x, y+h-1, x+w-1, y+h-1, color );
 3979              		.loc 2 735 0
 3980 0042 BA88     		ldrh	r2, [r7, #4]
 3981 0044 3B88     		ldrh	r3, [r7]
 3982 0046 1344     		add	r3, r3, r2
 3983 0048 9BB2     		uxth	r3, r3
 3984 004a 013B     		subs	r3, r3, #1
 3985 004c 9BB2     		uxth	r3, r3
 3986 004e 19B2     		sxth	r1, r3
 3987 0050 FA88     		ldrh	r2, [r7, #6]
 3988 0052 7B88     		ldrh	r3, [r7, #2]
 3989 0054 1344     		add	r3, r3, r2
 3990 0056 9BB2     		uxth	r3, r3
 3991 0058 013B     		subs	r3, r3, #1
 3992 005a 9BB2     		uxth	r3, r3
 3993 005c 1CB2     		sxth	r4, r3
 3994 005e BA88     		ldrh	r2, [r7, #4]
 3995 0060 3B88     		ldrh	r3, [r7]
 3996 0062 1344     		add	r3, r3, r2
 3997 0064 9BB2     		uxth	r3, r3
 3998 0066 013B     		subs	r3, r3, #1
 3999 0068 9BB2     		uxth	r3, r3
 4000 006a 1AB2     		sxth	r2, r3
 4001 006c B7F90600 		ldrsh	r0, [r7, #6]
 4002 0070 3B8B     		ldrh	r3, [r7, #24]
 4003 0072 0093     		str	r3, [sp]
 4004 0074 1346     		mov	r3, r2
 4005 0076 2246     		mov	r2, r4
 4006 0078 FFF7FEFF 		bl	gfx_drawLine
 736:oled_driver.c ****     gfx_drawLine( x, y, x, y+h-1, color );
 4007              		.loc 2 736 0
 4008 007c BA88     		ldrh	r2, [r7, #4]
ARM GAS  C:\Users\49148\AppData\Local\Temp\ccVXiEAG.s 			page 96


 4009 007e 3B88     		ldrh	r3, [r7]
 4010 0080 1344     		add	r3, r3, r2
 4011 0082 9BB2     		uxth	r3, r3
 4012 0084 013B     		subs	r3, r3, #1
 4013 0086 9BB2     		uxth	r3, r3
 4014 0088 1CB2     		sxth	r4, r3
 4015 008a B7F90620 		ldrsh	r2, [r7, #6]
 4016 008e B7F90410 		ldrsh	r1, [r7, #4]
 4017 0092 B7F90600 		ldrsh	r0, [r7, #6]
 4018 0096 3B8B     		ldrh	r3, [r7, #24]
 4019 0098 0093     		str	r3, [sp]
 4020 009a 2346     		mov	r3, r4
 4021 009c FFF7FEFF 		bl	gfx_drawLine
 737:oled_driver.c ****     gfx_drawLine( x+w-1, y, x+w-1, y+h-1, color );
 4022              		.loc 2 737 0
 4023 00a0 FA88     		ldrh	r2, [r7, #6]
 4024 00a2 7B88     		ldrh	r3, [r7, #2]
 4025 00a4 1344     		add	r3, r3, r2
 4026 00a6 9BB2     		uxth	r3, r3
 4027 00a8 013B     		subs	r3, r3, #1
 4028 00aa 9BB2     		uxth	r3, r3
 4029 00ac 18B2     		sxth	r0, r3
 4030 00ae FA88     		ldrh	r2, [r7, #6]
 4031 00b0 7B88     		ldrh	r3, [r7, #2]
 4032 00b2 1344     		add	r3, r3, r2
 4033 00b4 9BB2     		uxth	r3, r3
 4034 00b6 013B     		subs	r3, r3, #1
 4035 00b8 9BB2     		uxth	r3, r3
 4036 00ba 1CB2     		sxth	r4, r3
 4037 00bc BA88     		ldrh	r2, [r7, #4]
 4038 00be 3B88     		ldrh	r3, [r7]
 4039 00c0 1344     		add	r3, r3, r2
 4040 00c2 9BB2     		uxth	r3, r3
 4041 00c4 013B     		subs	r3, r3, #1
 4042 00c6 9BB2     		uxth	r3, r3
 4043 00c8 1AB2     		sxth	r2, r3
 4044 00ca B7F90410 		ldrsh	r1, [r7, #4]
 4045 00ce 3B8B     		ldrh	r3, [r7, #24]
 4046 00d0 0093     		str	r3, [sp]
 4047 00d2 1346     		mov	r3, r2
 4048 00d4 2246     		mov	r2, r4
 4049 00d6 FFF7FEFF 		bl	gfx_drawLine
 738:oled_driver.c **** }
 4050              		.loc 2 738 0
 4051 00da 00BF     		nop
 4052 00dc 0C37     		adds	r7, r7, #12
 4053              		.cfi_def_cfa_offset 12
 4054 00de BD46     		mov	sp, r7
 4055              		.cfi_def_cfa_register 13
 4056              		@ sp needed
 4057 00e0 90BD     		pop	{r4, r7, pc}
 4058              		.cfi_endproc
 4059              	.LFE650:
 4060              		.size	gfx_drawRect, .-gfx_drawRect
 4061 00e2 00BF     		.section	.text.gfx_fillRect,"ax",%progbits
 4062              		.align	2
 4063              		.global	gfx_fillRect
ARM GAS  C:\Users\49148\AppData\Local\Temp\ccVXiEAG.s 			page 97


 4064              		.thumb
 4065              		.thumb_func
 4066              		.type	gfx_fillRect, %function
 4067              	gfx_fillRect:
 4068              	.LFB651:
 739:oled_driver.c **** 
 740:oled_driver.c **** /***************************************************************************
 741:oled_driver.c ****  * Function: gfx_fillRect    
 742:oled_driver.c ****  *
 743:oled_driver.c ****  * Description: Fill a rectangle with the specified color
 744:oled_driver.c ****  **************************************************************************/
 745:oled_driver.c **** void gfx_fillRect( int16_t x, int16_t y, int16_t w, int16_t h, uint16_t color ){
 4069              		.loc 2 745 0
 4070              		.cfi_startproc
 4071              		@ args = 4, pretend = 0, frame = 16
 4072              		@ frame_needed = 1, uses_anonymous_args = 0
 4073 0000 90B5     		push	{r4, r7, lr}
 4074              		.cfi_def_cfa_offset 12
 4075              		.cfi_offset 4, -12
 4076              		.cfi_offset 7, -8
 4077              		.cfi_offset 14, -4
 4078 0002 87B0     		sub	sp, sp, #28
 4079              		.cfi_def_cfa_offset 40
 4080 0004 02AF     		add	r7, sp, #8
 4081              		.cfi_def_cfa 7, 32
 4082 0006 0446     		mov	r4, r0
 4083 0008 0846     		mov	r0, r1
 4084 000a 1146     		mov	r1, r2
 4085 000c 1A46     		mov	r2, r3
 4086 000e 2346     		mov	r3, r4	@ movhi
 4087 0010 FB80     		strh	r3, [r7, #6]	@ movhi
 4088 0012 0346     		mov	r3, r0	@ movhi
 4089 0014 BB80     		strh	r3, [r7, #4]	@ movhi
 4090 0016 0B46     		mov	r3, r1	@ movhi
 4091 0018 7B80     		strh	r3, [r7, #2]	@ movhi
 4092 001a 1346     		mov	r3, r2	@ movhi
 4093 001c 3B80     		strh	r3, [r7]	@ movhi
 746:oled_driver.c ****     int16_t i = 0;
 4094              		.loc 2 746 0
 4095 001e 0023     		movs	r3, #0
 4096 0020 FB81     		strh	r3, [r7, #14]	@ movhi
 747:oled_driver.c ****     if( h > w ){
 4097              		.loc 2 747 0
 4098 0022 B7F90020 		ldrsh	r2, [r7]
 4099 0026 B7F90230 		ldrsh	r3, [r7, #2]
 4100 002a 9A42     		cmp	r2, r3
 4101 002c 24DD     		ble	.L188
 748:oled_driver.c ****         for( i = x ; i < x+w ; i++ ){
 4102              		.loc 2 748 0
 4103 002e FB88     		ldrh	r3, [r7, #6]	@ movhi
 4104 0030 FB81     		strh	r3, [r7, #14]	@ movhi
 4105 0032 17E0     		b	.L189
 4106              	.L190:
 749:oled_driver.c ****             gfx_drawLine( i, y, i, y+h-1, color );
 4107              		.loc 2 749 0 discriminator 3
 4108 0034 BA88     		ldrh	r2, [r7, #4]
 4109 0036 3B88     		ldrh	r3, [r7]
ARM GAS  C:\Users\49148\AppData\Local\Temp\ccVXiEAG.s 			page 98


 4110 0038 1344     		add	r3, r3, r2
 4111 003a 9BB2     		uxth	r3, r3
 4112 003c 013B     		subs	r3, r3, #1
 4113 003e 9BB2     		uxth	r3, r3
 4114 0040 1CB2     		sxth	r4, r3
 4115 0042 B7F90E20 		ldrsh	r2, [r7, #14]
 4116 0046 B7F90410 		ldrsh	r1, [r7, #4]
 4117 004a B7F90E00 		ldrsh	r0, [r7, #14]
 4118 004e 3B8C     		ldrh	r3, [r7, #32]
 4119 0050 0093     		str	r3, [sp]
 4120 0052 2346     		mov	r3, r4
 4121 0054 FFF7FEFF 		bl	gfx_drawLine
 748:oled_driver.c ****         for( i = x ; i < x+w ; i++ ){
 4122              		.loc 2 748 0 discriminator 3
 4123 0058 B7F90E30 		ldrsh	r3, [r7, #14]
 4124 005c 9BB2     		uxth	r3, r3
 4125 005e 0133     		adds	r3, r3, #1
 4126 0060 9BB2     		uxth	r3, r3
 4127 0062 FB81     		strh	r3, [r7, #14]	@ movhi
 4128              	.L189:
 748:oled_driver.c ****         for( i = x ; i < x+w ; i++ ){
 4129              		.loc 2 748 0 is_stmt 0 discriminator 1
 4130 0064 B7F90E20 		ldrsh	r2, [r7, #14]
 4131 0068 B7F90610 		ldrsh	r1, [r7, #6]
 4132 006c B7F90230 		ldrsh	r3, [r7, #2]
 4133 0070 0B44     		add	r3, r3, r1
 4134 0072 9A42     		cmp	r2, r3
 4135 0074 DEDB     		blt	.L190
 750:oled_driver.c ****         }
 751:oled_driver.c ****     }else{
 752:oled_driver.c ****         for( i = y ; i < y+h ; i++ ){
 753:oled_driver.c ****             gfx_drawLine( x, i, x+w-1, i, color );
 754:oled_driver.c ****         }
 755:oled_driver.c ****     }
 756:oled_driver.c **** }
 4136              		.loc 2 756 0 is_stmt 1
 4137 0076 23E0     		b	.L194
 4138              	.L188:
 752:oled_driver.c ****             gfx_drawLine( x, i, x+w-1, i, color );
 4139              		.loc 2 752 0
 4140 0078 BB88     		ldrh	r3, [r7, #4]	@ movhi
 4141 007a FB81     		strh	r3, [r7, #14]	@ movhi
 4142 007c 17E0     		b	.L192
 4143              	.L193:
 753:oled_driver.c ****         }
 4144              		.loc 2 753 0 discriminator 3
 4145 007e FA88     		ldrh	r2, [r7, #6]
 4146 0080 7B88     		ldrh	r3, [r7, #2]
 4147 0082 1344     		add	r3, r3, r2
 4148 0084 9BB2     		uxth	r3, r3
 4149 0086 013B     		subs	r3, r3, #1
 4150 0088 9BB2     		uxth	r3, r3
 4151 008a 1AB2     		sxth	r2, r3
 4152 008c B7F90E40 		ldrsh	r4, [r7, #14]
 4153 0090 B7F90E10 		ldrsh	r1, [r7, #14]
 4154 0094 B7F90600 		ldrsh	r0, [r7, #6]
 4155 0098 3B8C     		ldrh	r3, [r7, #32]
ARM GAS  C:\Users\49148\AppData\Local\Temp\ccVXiEAG.s 			page 99


 4156 009a 0093     		str	r3, [sp]
 4157 009c 2346     		mov	r3, r4
 4158 009e FFF7FEFF 		bl	gfx_drawLine
 752:oled_driver.c ****             gfx_drawLine( x, i, x+w-1, i, color );
 4159              		.loc 2 752 0 discriminator 3
 4160 00a2 B7F90E30 		ldrsh	r3, [r7, #14]
 4161 00a6 9BB2     		uxth	r3, r3
 4162 00a8 0133     		adds	r3, r3, #1
 4163 00aa 9BB2     		uxth	r3, r3
 4164 00ac FB81     		strh	r3, [r7, #14]	@ movhi
 4165              	.L192:
 752:oled_driver.c ****             gfx_drawLine( x, i, x+w-1, i, color );
 4166              		.loc 2 752 0 is_stmt 0 discriminator 1
 4167 00ae B7F90E20 		ldrsh	r2, [r7, #14]
 4168 00b2 B7F90410 		ldrsh	r1, [r7, #4]
 4169 00b6 B7F90030 		ldrsh	r3, [r7]
 4170 00ba 0B44     		add	r3, r3, r1
 4171 00bc 9A42     		cmp	r2, r3
 4172 00be DEDB     		blt	.L193
 4173              	.L194:
 4174              		.loc 2 756 0 is_stmt 1
 4175 00c0 00BF     		nop
 4176 00c2 1437     		adds	r7, r7, #20
 4177              		.cfi_def_cfa_offset 12
 4178 00c4 BD46     		mov	sp, r7
 4179              		.cfi_def_cfa_register 13
 4180              		@ sp needed
 4181 00c6 90BD     		pop	{r4, r7, pc}
 4182              		.cfi_endproc
 4183              	.LFE651:
 4184              		.size	gfx_fillRect, .-gfx_fillRect
 4185              		.section	.text.gfx_drawCircle,"ax",%progbits
 4186              		.align	2
 4187              		.global	gfx_drawCircle
 4188              		.thumb
 4189              		.thumb_func
 4190              		.type	gfx_drawCircle, %function
 4191              	gfx_drawCircle:
 4192              	.LFB652:
 757:oled_driver.c **** 
 758:oled_driver.c **** /***************************************************************************
 759:oled_driver.c ****  * Function: gfx_drawCircle    
 760:oled_driver.c ****  *
 761:oled_driver.c ****  * Description: Displays a circle
 762:oled_driver.c ****  **************************************************************************/
 763:oled_driver.c **** void gfx_drawCircle( int16_t x0, int16_t y0, int16_t r,uint16_t color ){
 4193              		.loc 2 763 0
 4194              		.cfi_startproc
 4195              		@ args = 0, pretend = 0, frame = 24
 4196              		@ frame_needed = 1, uses_anonymous_args = 0
 4197 0000 90B5     		push	{r4, r7, lr}
 4198              		.cfi_def_cfa_offset 12
 4199              		.cfi_offset 4, -12
 4200              		.cfi_offset 7, -8
 4201              		.cfi_offset 14, -4
 4202 0002 87B0     		sub	sp, sp, #28
 4203              		.cfi_def_cfa_offset 40
ARM GAS  C:\Users\49148\AppData\Local\Temp\ccVXiEAG.s 			page 100


 4204 0004 00AF     		add	r7, sp, #0
 4205              		.cfi_def_cfa_register 7
 4206 0006 0446     		mov	r4, r0
 4207 0008 0846     		mov	r0, r1
 4208 000a 1146     		mov	r1, r2
 4209 000c 1A46     		mov	r2, r3
 4210 000e 2346     		mov	r3, r4	@ movhi
 4211 0010 FB80     		strh	r3, [r7, #6]	@ movhi
 4212 0012 0346     		mov	r3, r0	@ movhi
 4213 0014 BB80     		strh	r3, [r7, #4]	@ movhi
 4214 0016 0B46     		mov	r3, r1	@ movhi
 4215 0018 7B80     		strh	r3, [r7, #2]	@ movhi
 4216 001a 1346     		mov	r3, r2	@ movhi
 4217 001c 3B80     		strh	r3, [r7]	@ movhi
 764:oled_driver.c **** 
 765:oled_driver.c ****     int16_t f = 1 - r;
 4218              		.loc 2 765 0
 4219 001e 7B88     		ldrh	r3, [r7, #2]
 4220 0020 C3F10103 		rsb	r3, r3, #1
 4221 0024 9BB2     		uxth	r3, r3
 4222 0026 FB82     		strh	r3, [r7, #22]	@ movhi
 766:oled_driver.c ****     int16_t ddF_x = 1;
 4223              		.loc 2 766 0
 4224 0028 0123     		movs	r3, #1
 4225 002a BB82     		strh	r3, [r7, #20]	@ movhi
 767:oled_driver.c ****     int16_t ddF_y = -2 * r;
 4226              		.loc 2 767 0
 4227 002c 7B88     		ldrh	r3, [r7, #2]
 4228 002e 1A46     		mov	r2, r3	@ movhi
 4229 0030 D203     		lsls	r2, r2, #15
 4230 0032 D31A     		subs	r3, r2, r3
 4231 0034 5B00     		lsls	r3, r3, #1
 4232 0036 9BB2     		uxth	r3, r3
 4233 0038 7B82     		strh	r3, [r7, #18]	@ movhi
 768:oled_driver.c ****     int16_t x = 0;
 4234              		.loc 2 768 0
 4235 003a 0023     		movs	r3, #0
 4236 003c 3B82     		strh	r3, [r7, #16]	@ movhi
 769:oled_driver.c ****     int16_t y = r;
 4237              		.loc 2 769 0
 4238 003e 7B88     		ldrh	r3, [r7, #2]	@ movhi
 4239 0040 FB81     		strh	r3, [r7, #14]	@ movhi
 770:oled_driver.c ****     gfx_drawPixel( x0 , y0+r, color );
 4240              		.loc 2 770 0
 4241 0042 BA88     		ldrh	r2, [r7, #4]
 4242 0044 7B88     		ldrh	r3, [r7, #2]
 4243 0046 1344     		add	r3, r3, r2
 4244 0048 9BB2     		uxth	r3, r3
 4245 004a 19B2     		sxth	r1, r3
 4246 004c 3A88     		ldrh	r2, [r7]
 4247 004e B7F90630 		ldrsh	r3, [r7, #6]
 4248 0052 1846     		mov	r0, r3
 4249 0054 FFF7FEFF 		bl	gfx_drawPixel
 771:oled_driver.c ****     gfx_drawPixel( x0 , y0-r, color );
 4250              		.loc 2 771 0
 4251 0058 BA88     		ldrh	r2, [r7, #4]
 4252 005a 7B88     		ldrh	r3, [r7, #2]
ARM GAS  C:\Users\49148\AppData\Local\Temp\ccVXiEAG.s 			page 101


 4253 005c D31A     		subs	r3, r2, r3
 4254 005e 9BB2     		uxth	r3, r3
 4255 0060 19B2     		sxth	r1, r3
 4256 0062 3A88     		ldrh	r2, [r7]
 4257 0064 B7F90630 		ldrsh	r3, [r7, #6]
 4258 0068 1846     		mov	r0, r3
 4259 006a FFF7FEFF 		bl	gfx_drawPixel
 772:oled_driver.c ****     gfx_drawPixel( x0+r, y0 , color );
 4260              		.loc 2 772 0
 4261 006e FA88     		ldrh	r2, [r7, #6]
 4262 0070 7B88     		ldrh	r3, [r7, #2]
 4263 0072 1344     		add	r3, r3, r2
 4264 0074 9BB2     		uxth	r3, r3
 4265 0076 1BB2     		sxth	r3, r3
 4266 0078 3A88     		ldrh	r2, [r7]
 4267 007a B7F90410 		ldrsh	r1, [r7, #4]
 4268 007e 1846     		mov	r0, r3
 4269 0080 FFF7FEFF 		bl	gfx_drawPixel
 773:oled_driver.c ****     gfx_drawPixel( x0-r, y0 , color );
 4270              		.loc 2 773 0
 4271 0084 FA88     		ldrh	r2, [r7, #6]
 4272 0086 7B88     		ldrh	r3, [r7, #2]
 4273 0088 D31A     		subs	r3, r2, r3
 4274 008a 9BB2     		uxth	r3, r3
 4275 008c 1BB2     		sxth	r3, r3
 4276 008e 3A88     		ldrh	r2, [r7]
 4277 0090 B7F90410 		ldrsh	r1, [r7, #4]
 4278 0094 1846     		mov	r0, r3
 4279 0096 FFF7FEFF 		bl	gfx_drawPixel
 774:oled_driver.c ****     while( x < y ){
 4280              		.loc 2 774 0
 4281 009a 91E0     		b	.L196
 4282              	.L198:
 775:oled_driver.c ****         if( f >= 0 ){
 4283              		.loc 2 775 0
 4284 009c B7F91630 		ldrsh	r3, [r7, #22]
 4285 00a0 002B     		cmp	r3, #0
 4286 00a2 0EDB     		blt	.L197
 776:oled_driver.c ****             y--;
 4287              		.loc 2 776 0
 4288 00a4 B7F90E30 		ldrsh	r3, [r7, #14]
 4289 00a8 9BB2     		uxth	r3, r3
 4290 00aa 013B     		subs	r3, r3, #1
 4291 00ac 9BB2     		uxth	r3, r3
 4292 00ae FB81     		strh	r3, [r7, #14]	@ movhi
 777:oled_driver.c ****             ddF_y += 2;
 4293              		.loc 2 777 0
 4294 00b0 7B8A     		ldrh	r3, [r7, #18]
 4295 00b2 0233     		adds	r3, r3, #2
 4296 00b4 9BB2     		uxth	r3, r3
 4297 00b6 7B82     		strh	r3, [r7, #18]	@ movhi
 778:oled_driver.c ****             f += ddF_y;
 4298              		.loc 2 778 0
 4299 00b8 FA8A     		ldrh	r2, [r7, #22]
 4300 00ba 7B8A     		ldrh	r3, [r7, #18]
 4301 00bc 1344     		add	r3, r3, r2
 4302 00be 9BB2     		uxth	r3, r3
ARM GAS  C:\Users\49148\AppData\Local\Temp\ccVXiEAG.s 			page 102


 4303 00c0 FB82     		strh	r3, [r7, #22]	@ movhi
 4304              	.L197:
 779:oled_driver.c ****         }
 780:oled_driver.c ****         x++;
 4305              		.loc 2 780 0
 4306 00c2 B7F91030 		ldrsh	r3, [r7, #16]
 4307 00c6 9BB2     		uxth	r3, r3
 4308 00c8 0133     		adds	r3, r3, #1
 4309 00ca 9BB2     		uxth	r3, r3
 4310 00cc 3B82     		strh	r3, [r7, #16]	@ movhi
 781:oled_driver.c ****         ddF_x += 2;
 4311              		.loc 2 781 0
 4312 00ce BB8A     		ldrh	r3, [r7, #20]
 4313 00d0 0233     		adds	r3, r3, #2
 4314 00d2 9BB2     		uxth	r3, r3
 4315 00d4 BB82     		strh	r3, [r7, #20]	@ movhi
 782:oled_driver.c ****         f += ddF_x;
 4316              		.loc 2 782 0
 4317 00d6 FA8A     		ldrh	r2, [r7, #22]
 4318 00d8 BB8A     		ldrh	r3, [r7, #20]
 4319 00da 1344     		add	r3, r3, r2
 4320 00dc 9BB2     		uxth	r3, r3
 4321 00de FB82     		strh	r3, [r7, #22]	@ movhi
 783:oled_driver.c ****         gfx_drawPixel( x0 + x, y0 + y, color );
 4322              		.loc 2 783 0
 4323 00e0 FA88     		ldrh	r2, [r7, #6]
 4324 00e2 3B8A     		ldrh	r3, [r7, #16]
 4325 00e4 1344     		add	r3, r3, r2
 4326 00e6 9BB2     		uxth	r3, r3
 4327 00e8 18B2     		sxth	r0, r3
 4328 00ea BA88     		ldrh	r2, [r7, #4]
 4329 00ec FB89     		ldrh	r3, [r7, #14]
 4330 00ee 1344     		add	r3, r3, r2
 4331 00f0 9BB2     		uxth	r3, r3
 4332 00f2 1BB2     		sxth	r3, r3
 4333 00f4 3A88     		ldrh	r2, [r7]
 4334 00f6 1946     		mov	r1, r3
 4335 00f8 FFF7FEFF 		bl	gfx_drawPixel
 784:oled_driver.c ****         gfx_drawPixel( x0 - x, y0 + y, color );
 4336              		.loc 2 784 0
 4337 00fc FA88     		ldrh	r2, [r7, #6]
 4338 00fe 3B8A     		ldrh	r3, [r7, #16]
 4339 0100 D31A     		subs	r3, r2, r3
 4340 0102 9BB2     		uxth	r3, r3
 4341 0104 18B2     		sxth	r0, r3
 4342 0106 BA88     		ldrh	r2, [r7, #4]
 4343 0108 FB89     		ldrh	r3, [r7, #14]
 4344 010a 1344     		add	r3, r3, r2
 4345 010c 9BB2     		uxth	r3, r3
 4346 010e 1BB2     		sxth	r3, r3
 4347 0110 3A88     		ldrh	r2, [r7]
 4348 0112 1946     		mov	r1, r3
 4349 0114 FFF7FEFF 		bl	gfx_drawPixel
 785:oled_driver.c ****         gfx_drawPixel( x0 + x, y0 - y, color );
 4350              		.loc 2 785 0
 4351 0118 FA88     		ldrh	r2, [r7, #6]
 4352 011a 3B8A     		ldrh	r3, [r7, #16]
ARM GAS  C:\Users\49148\AppData\Local\Temp\ccVXiEAG.s 			page 103


 4353 011c 1344     		add	r3, r3, r2
 4354 011e 9BB2     		uxth	r3, r3
 4355 0120 18B2     		sxth	r0, r3
 4356 0122 BA88     		ldrh	r2, [r7, #4]
 4357 0124 FB89     		ldrh	r3, [r7, #14]
 4358 0126 D31A     		subs	r3, r2, r3
 4359 0128 9BB2     		uxth	r3, r3
 4360 012a 1BB2     		sxth	r3, r3
 4361 012c 3A88     		ldrh	r2, [r7]
 4362 012e 1946     		mov	r1, r3
 4363 0130 FFF7FEFF 		bl	gfx_drawPixel
 786:oled_driver.c ****         gfx_drawPixel( x0 - x, y0 - y, color );
 4364              		.loc 2 786 0
 4365 0134 FA88     		ldrh	r2, [r7, #6]
 4366 0136 3B8A     		ldrh	r3, [r7, #16]
 4367 0138 D31A     		subs	r3, r2, r3
 4368 013a 9BB2     		uxth	r3, r3
 4369 013c 18B2     		sxth	r0, r3
 4370 013e BA88     		ldrh	r2, [r7, #4]
 4371 0140 FB89     		ldrh	r3, [r7, #14]
 4372 0142 D31A     		subs	r3, r2, r3
 4373 0144 9BB2     		uxth	r3, r3
 4374 0146 1BB2     		sxth	r3, r3
 4375 0148 3A88     		ldrh	r2, [r7]
 4376 014a 1946     		mov	r1, r3
 4377 014c FFF7FEFF 		bl	gfx_drawPixel
 787:oled_driver.c ****         gfx_drawPixel( x0 + y, y0 + x, color );
 4378              		.loc 2 787 0
 4379 0150 FA88     		ldrh	r2, [r7, #6]
 4380 0152 FB89     		ldrh	r3, [r7, #14]
 4381 0154 1344     		add	r3, r3, r2
 4382 0156 9BB2     		uxth	r3, r3
 4383 0158 18B2     		sxth	r0, r3
 4384 015a BA88     		ldrh	r2, [r7, #4]
 4385 015c 3B8A     		ldrh	r3, [r7, #16]
 4386 015e 1344     		add	r3, r3, r2
 4387 0160 9BB2     		uxth	r3, r3
 4388 0162 1BB2     		sxth	r3, r3
 4389 0164 3A88     		ldrh	r2, [r7]
 4390 0166 1946     		mov	r1, r3
 4391 0168 FFF7FEFF 		bl	gfx_drawPixel
 788:oled_driver.c ****         gfx_drawPixel( x0 - y, y0 + x, color );
 4392              		.loc 2 788 0
 4393 016c FA88     		ldrh	r2, [r7, #6]
 4394 016e FB89     		ldrh	r3, [r7, #14]
 4395 0170 D31A     		subs	r3, r2, r3
 4396 0172 9BB2     		uxth	r3, r3
 4397 0174 18B2     		sxth	r0, r3
 4398 0176 BA88     		ldrh	r2, [r7, #4]
 4399 0178 3B8A     		ldrh	r3, [r7, #16]
 4400 017a 1344     		add	r3, r3, r2
 4401 017c 9BB2     		uxth	r3, r3
 4402 017e 1BB2     		sxth	r3, r3
 4403 0180 3A88     		ldrh	r2, [r7]
 4404 0182 1946     		mov	r1, r3
 4405 0184 FFF7FEFF 		bl	gfx_drawPixel
 789:oled_driver.c ****         gfx_drawPixel( x0 + y, y0 - x, color );
ARM GAS  C:\Users\49148\AppData\Local\Temp\ccVXiEAG.s 			page 104


 4406              		.loc 2 789 0
 4407 0188 FA88     		ldrh	r2, [r7, #6]
 4408 018a FB89     		ldrh	r3, [r7, #14]
 4409 018c 1344     		add	r3, r3, r2
 4410 018e 9BB2     		uxth	r3, r3
 4411 0190 18B2     		sxth	r0, r3
 4412 0192 BA88     		ldrh	r2, [r7, #4]
 4413 0194 3B8A     		ldrh	r3, [r7, #16]
 4414 0196 D31A     		subs	r3, r2, r3
 4415 0198 9BB2     		uxth	r3, r3
 4416 019a 1BB2     		sxth	r3, r3
 4417 019c 3A88     		ldrh	r2, [r7]
 4418 019e 1946     		mov	r1, r3
 4419 01a0 FFF7FEFF 		bl	gfx_drawPixel
 790:oled_driver.c ****         gfx_drawPixel( x0 - y, y0 - x, color );
 4420              		.loc 2 790 0
 4421 01a4 FA88     		ldrh	r2, [r7, #6]
 4422 01a6 FB89     		ldrh	r3, [r7, #14]
 4423 01a8 D31A     		subs	r3, r2, r3
 4424 01aa 9BB2     		uxth	r3, r3
 4425 01ac 18B2     		sxth	r0, r3
 4426 01ae BA88     		ldrh	r2, [r7, #4]
 4427 01b0 3B8A     		ldrh	r3, [r7, #16]
 4428 01b2 D31A     		subs	r3, r2, r3
 4429 01b4 9BB2     		uxth	r3, r3
 4430 01b6 1BB2     		sxth	r3, r3
 4431 01b8 3A88     		ldrh	r2, [r7]
 4432 01ba 1946     		mov	r1, r3
 4433 01bc FFF7FEFF 		bl	gfx_drawPixel
 4434              	.L196:
 774:oled_driver.c ****         if( f >= 0 ){
 4435              		.loc 2 774 0
 4436 01c0 B7F91020 		ldrsh	r2, [r7, #16]
 4437 01c4 B7F90E30 		ldrsh	r3, [r7, #14]
 4438 01c8 9A42     		cmp	r2, r3
 4439 01ca FFF667AF 		blt	.L198
 791:oled_driver.c ****     }
 792:oled_driver.c **** }
 4440              		.loc 2 792 0
 4441 01ce 00BF     		nop
 4442 01d0 1C37     		adds	r7, r7, #28
 4443              		.cfi_def_cfa_offset 12
 4444 01d2 BD46     		mov	sp, r7
 4445              		.cfi_def_cfa_register 13
 4446              		@ sp needed
 4447 01d4 90BD     		pop	{r4, r7, pc}
 4448              		.cfi_endproc
 4449              	.LFE652:
 4450              		.size	gfx_drawCircle, .-gfx_drawCircle
 4451 01d6 00BF     		.section	.text.gfx_drawTriangle,"ax",%progbits
 4452              		.align	2
 4453              		.global	gfx_drawTriangle
 4454              		.thumb
 4455              		.thumb_func
 4456              		.type	gfx_drawTriangle, %function
 4457              	gfx_drawTriangle:
 4458              	.LFB653:
ARM GAS  C:\Users\49148\AppData\Local\Temp\ccVXiEAG.s 			page 105


 793:oled_driver.c **** 
 794:oled_driver.c **** /***************************************************************************
 795:oled_driver.c ****  * Function: gfx_drawTriangle    
 796:oled_driver.c ****  *
 797:oled_driver.c ****  * Description: Draws a triangle
 798:oled_driver.c ****  **************************************************************************/
 799:oled_driver.c **** void gfx_drawTriangle( int16_t x0, int16_t y0,int16_t x1, int16_t y1, int16_t x2, int16_t y2, uint1
 4459              		.loc 2 799 0
 4460              		.cfi_startproc
 4461              		@ args = 12, pretend = 0, frame = 8
 4462              		@ frame_needed = 1, uses_anonymous_args = 0
 4463 0000 90B5     		push	{r4, r7, lr}
 4464              		.cfi_def_cfa_offset 12
 4465              		.cfi_offset 4, -12
 4466              		.cfi_offset 7, -8
 4467              		.cfi_offset 14, -4
 4468 0002 85B0     		sub	sp, sp, #20
 4469              		.cfi_def_cfa_offset 32
 4470 0004 02AF     		add	r7, sp, #8
 4471              		.cfi_def_cfa 7, 24
 4472 0006 0446     		mov	r4, r0
 4473 0008 0846     		mov	r0, r1
 4474 000a 1146     		mov	r1, r2
 4475 000c 1A46     		mov	r2, r3
 4476 000e 2346     		mov	r3, r4	@ movhi
 4477 0010 FB80     		strh	r3, [r7, #6]	@ movhi
 4478 0012 0346     		mov	r3, r0	@ movhi
 4479 0014 BB80     		strh	r3, [r7, #4]	@ movhi
 4480 0016 0B46     		mov	r3, r1	@ movhi
 4481 0018 7B80     		strh	r3, [r7, #2]	@ movhi
 4482 001a 1346     		mov	r3, r2	@ movhi
 4483 001c 3B80     		strh	r3, [r7]	@ movhi
 800:oled_driver.c ****     
 801:oled_driver.c ****     gfx_drawLine( x0, y0, x1, y1, color );
 4484              		.loc 2 801 0
 4485 001e B7F90040 		ldrsh	r4, [r7]
 4486 0022 B7F90220 		ldrsh	r2, [r7, #2]
 4487 0026 B7F90410 		ldrsh	r1, [r7, #4]
 4488 002a B7F90600 		ldrsh	r0, [r7, #6]
 4489 002e 3B8C     		ldrh	r3, [r7, #32]
 4490 0030 0093     		str	r3, [sp]
 4491 0032 2346     		mov	r3, r4
 4492 0034 FFF7FEFF 		bl	gfx_drawLine
 802:oled_driver.c ****     gfx_drawLine( x1, y1, x2, y2, color );
 4493              		.loc 2 802 0
 4494 0038 B7F91C40 		ldrsh	r4, [r7, #28]
 4495 003c B7F91820 		ldrsh	r2, [r7, #24]
 4496 0040 B7F90010 		ldrsh	r1, [r7]
 4497 0044 B7F90200 		ldrsh	r0, [r7, #2]
 4498 0048 3B8C     		ldrh	r3, [r7, #32]
 4499 004a 0093     		str	r3, [sp]
 4500 004c 2346     		mov	r3, r4
 4501 004e FFF7FEFF 		bl	gfx_drawLine
 803:oled_driver.c ****     gfx_drawLine( x2, y2, x0, y0, color );
 4502              		.loc 2 803 0
 4503 0052 B7F90440 		ldrsh	r4, [r7, #4]
 4504 0056 B7F90620 		ldrsh	r2, [r7, #6]
ARM GAS  C:\Users\49148\AppData\Local\Temp\ccVXiEAG.s 			page 106


 4505 005a B7F91C10 		ldrsh	r1, [r7, #28]
 4506 005e B7F91800 		ldrsh	r0, [r7, #24]
 4507 0062 3B8C     		ldrh	r3, [r7, #32]
 4508 0064 0093     		str	r3, [sp]
 4509 0066 2346     		mov	r3, r4
 4510 0068 FFF7FEFF 		bl	gfx_drawLine
 804:oled_driver.c **** }
 4511              		.loc 2 804 0
 4512 006c 00BF     		nop
 4513 006e 0C37     		adds	r7, r7, #12
 4514              		.cfi_def_cfa_offset 12
 4515 0070 BD46     		mov	sp, r7
 4516              		.cfi_def_cfa_register 13
 4517              		@ sp needed
 4518 0072 90BD     		pop	{r4, r7, pc}
 4519              		.cfi_endproc
 4520              	.LFE653:
 4521              		.size	gfx_drawTriangle, .-gfx_drawTriangle
 4522              		.section	.text.gfx_drawChar,"ax",%progbits
 4523              		.align	2
 4524              		.global	gfx_drawChar
 4525              		.thumb
 4526              		.thumb_func
 4527              		.type	gfx_drawChar, %function
 4528              	gfx_drawChar:
 4529              	.LFB654:
 805:oled_driver.c **** 
 806:oled_driver.c **** 
 807:oled_driver.c **** /***************************************************************************
 808:oled_driver.c ****  * Function: gfx_drawChar    
 809:oled_driver.c ****  *
 810:oled_driver.c ****  * Description: Draws one character at a specific X,Y position
 811:oled_driver.c ****  **************************************************************************/
 812:oled_driver.c **** void gfx_drawChar( int16_t x, int16_t y, unsigned char c,uint16_t color, uint16_t bg, uint8_t size)
 4530              		.loc 2 812 0
 4531              		.cfi_startproc
 4532              		@ args = 8, pretend = 0, frame = 16
 4533              		@ frame_needed = 1, uses_anonymous_args = 0
 4534 0000 90B5     		push	{r4, r7, lr}
 4535              		.cfi_def_cfa_offset 12
 4536              		.cfi_offset 4, -12
 4537              		.cfi_offset 7, -8
 4538              		.cfi_offset 14, -4
 4539 0002 87B0     		sub	sp, sp, #28
 4540              		.cfi_def_cfa_offset 40
 4541 0004 02AF     		add	r7, sp, #8
 4542              		.cfi_def_cfa 7, 32
 4543 0006 0446     		mov	r4, r0
 4544 0008 0846     		mov	r0, r1
 4545 000a 1146     		mov	r1, r2
 4546 000c 1A46     		mov	r2, r3
 4547 000e 2346     		mov	r3, r4	@ movhi
 4548 0010 FB80     		strh	r3, [r7, #6]	@ movhi
 4549 0012 0346     		mov	r3, r0	@ movhi
 4550 0014 BB80     		strh	r3, [r7, #4]	@ movhi
 4551 0016 0B46     		mov	r3, r1
 4552 0018 FB70     		strb	r3, [r7, #3]
ARM GAS  C:\Users\49148\AppData\Local\Temp\ccVXiEAG.s 			page 107


 4553 001a 1346     		mov	r3, r2	@ movhi
 4554 001c 3B80     		strh	r3, [r7]	@ movhi
 813:oled_driver.c ****     if( (x >= _width) || // Clip right
 4555              		.loc 2 813 0
 4556 001e 714B     		ldr	r3, .L216
 4557 0020 B3F90030 		ldrsh	r3, [r3]
 4558 0024 B7F90620 		ldrsh	r2, [r7, #6]
 4559 0028 9A42     		cmp	r2, r3
 4560 002a 80F2D680 		bge	.L215
 814:oled_driver.c ****         (y >= _height) || // Clip bottom
 4561              		.loc 2 814 0 discriminator 1
 4562 002e 6E4B     		ldr	r3, .L216+4
 4563 0030 B3F90030 		ldrsh	r3, [r3]
 813:oled_driver.c ****     if( (x >= _width) || // Clip right
 4564              		.loc 2 813 0 discriminator 1
 4565 0034 B7F90420 		ldrsh	r2, [r7, #4]
 4566 0038 9A42     		cmp	r2, r3
 4567 003a 80F2CE80 		bge	.L215
 815:oled_driver.c ****         ((x + 6 * size - 1) < 0) || // Clip left
 4568              		.loc 2 815 0
 4569 003e B7F90610 		ldrsh	r1, [r7, #6]
 4570 0042 97F82420 		ldrb	r2, [r7, #36]	@ zero_extendqisi2
 4571 0046 1346     		mov	r3, r2
 4572 0048 5B00     		lsls	r3, r3, #1
 4573 004a 1344     		add	r3, r3, r2
 4574 004c 5B00     		lsls	r3, r3, #1
 4575 004e 0B44     		add	r3, r3, r1
 4576 0050 013B     		subs	r3, r3, #1
 814:oled_driver.c ****         (y >= _height) || // Clip bottom
 4577              		.loc 2 814 0
 4578 0052 002B     		cmp	r3, #0
 4579 0054 C0F2C180 		blt	.L215
 816:oled_driver.c ****         ((y + 8 * size - 1) < 0)) // Clip top
 4580              		.loc 2 816 0
 4581 0058 B7F90420 		ldrsh	r2, [r7, #4]
 4582 005c 97F82430 		ldrb	r3, [r7, #36]	@ zero_extendqisi2
 4583 0060 DB00     		lsls	r3, r3, #3
 4584 0062 1344     		add	r3, r3, r2
 4585 0064 013B     		subs	r3, r3, #1
 815:oled_driver.c ****         ((x + 6 * size - 1) < 0) || // Clip left
 4586              		.loc 2 815 0
 4587 0066 002B     		cmp	r3, #0
 4588 0068 C0F2B780 		blt	.L215
 817:oled_driver.c ****         return;
 818:oled_driver.c **** 
 819:oled_driver.c ****     int8_t i = 0;
 4589              		.loc 2 819 0
 4590 006c 0023     		movs	r3, #0
 4591 006e FB73     		strb	r3, [r7, #15]
 820:oled_driver.c ****     for( i = 0 ; i < 6 ; i++ ){
 4592              		.loc 2 820 0
 4593 0070 0023     		movs	r3, #0
 4594 0072 FB73     		strb	r3, [r7, #15]
 4595 0074 ABE0     		b	.L204
 4596              	.L214:
 4597              	.LBB12:
 821:oled_driver.c ****         uint8_t line;
ARM GAS  C:\Users\49148\AppData\Local\Temp\ccVXiEAG.s 			page 108


 822:oled_driver.c ****         if( i == 5 )
 4598              		.loc 2 822 0
 4599 0076 97F90F30 		ldrsb	r3, [r7, #15]
 4600 007a 052B     		cmp	r3, #5
 4601 007c 02D1     		bne	.L205
 823:oled_driver.c ****             line = 0x0;
 4602              		.loc 2 823 0
 4603 007e 0023     		movs	r3, #0
 4604 0080 BB73     		strb	r3, [r7, #14]
 4605 0082 09E0     		b	.L206
 4606              	.L205:
 824:oled_driver.c ****         else
 825:oled_driver.c ****            line = font[(c*5)+i];
 4607              		.loc 2 825 0
 4608 0084 FA78     		ldrb	r2, [r7, #3]	@ zero_extendqisi2
 4609 0086 1346     		mov	r3, r2
 4610 0088 9B00     		lsls	r3, r3, #2
 4611 008a 1A44     		add	r2, r2, r3
 4612 008c 97F90F30 		ldrsb	r3, [r7, #15]
 4613 0090 1344     		add	r3, r3, r2
 4614 0092 564A     		ldr	r2, .L216+8
 4615 0094 D35C     		ldrb	r3, [r2, r3]
 4616 0096 BB73     		strb	r3, [r7, #14]
 4617              	.L206:
 826:oled_driver.c ****         int8_t j = 0;
 4618              		.loc 2 826 0
 4619 0098 0023     		movs	r3, #0
 4620 009a 7B73     		strb	r3, [r7, #13]
 827:oled_driver.c ****         for( j = 0; j < 8 ; j++ ){
 4621              		.loc 2 827 0
 4622 009c 0023     		movs	r3, #0
 4623 009e 7B73     		strb	r3, [r7, #13]
 4624 00a0 8AE0     		b	.L207
 4625              	.L213:
 828:oled_driver.c ****             if( line & 0x1 ){
 4626              		.loc 2 828 0
 4627 00a2 BB7B     		ldrb	r3, [r7, #14]	@ zero_extendqisi2
 4628 00a4 03F00103 		and	r3, r3, #1
 4629 00a8 002B     		cmp	r3, #0
 4630 00aa 3CD0     		beq	.L208
 829:oled_driver.c ****                 if( size == 1 ) // default size
 4631              		.loc 2 829 0
 4632 00ac 97F82430 		ldrb	r3, [r7, #36]	@ zero_extendqisi2
 4633 00b0 012B     		cmp	r3, #1
 4634 00b2 12D1     		bne	.L209
 830:oled_driver.c ****                     gfx_drawPixel( x+i, y+j, color );
 4635              		.loc 2 830 0
 4636 00b4 97F90F30 		ldrsb	r3, [r7, #15]
 4637 00b8 9AB2     		uxth	r2, r3
 4638 00ba FB88     		ldrh	r3, [r7, #6]
 4639 00bc 1344     		add	r3, r3, r2
 4640 00be 9BB2     		uxth	r3, r3
 4641 00c0 18B2     		sxth	r0, r3
 4642 00c2 97F90D30 		ldrsb	r3, [r7, #13]
 4643 00c6 9AB2     		uxth	r2, r3
 4644 00c8 BB88     		ldrh	r3, [r7, #4]
 4645 00ca 1344     		add	r3, r3, r2
ARM GAS  C:\Users\49148\AppData\Local\Temp\ccVXiEAG.s 			page 109


 4646 00cc 9BB2     		uxth	r3, r3
 4647 00ce 1BB2     		sxth	r3, r3
 4648 00d0 3A88     		ldrh	r2, [r7]
 4649 00d2 1946     		mov	r1, r3
 4650 00d4 FFF7FEFF 		bl	gfx_drawPixel
 4651 00d8 65E0     		b	.L211
 4652              	.L209:
 831:oled_driver.c ****                 else { // big size
 832:oled_driver.c ****                     gfx_fillRect( x+(i*size), y+(j*size), size, size, color );
 4653              		.loc 2 832 0
 4654 00da 97F90F30 		ldrsb	r3, [r7, #15]
 4655 00de 9AB2     		uxth	r2, r3
 4656 00e0 97F82430 		ldrb	r3, [r7, #36]	@ zero_extendqisi2
 4657 00e4 9BB2     		uxth	r3, r3
 4658 00e6 12FB03F3 		smulbb	r3, r2, r3
 4659 00ea 9AB2     		uxth	r2, r3
 4660 00ec FB88     		ldrh	r3, [r7, #6]
 4661 00ee 1344     		add	r3, r3, r2
 4662 00f0 9BB2     		uxth	r3, r3
 4663 00f2 18B2     		sxth	r0, r3
 4664 00f4 97F90D30 		ldrsb	r3, [r7, #13]
 4665 00f8 9AB2     		uxth	r2, r3
 4666 00fa 97F82430 		ldrb	r3, [r7, #36]	@ zero_extendqisi2
 4667 00fe 9BB2     		uxth	r3, r3
 4668 0100 12FB03F3 		smulbb	r3, r2, r3
 4669 0104 9AB2     		uxth	r2, r3
 4670 0106 BB88     		ldrh	r3, [r7, #4]
 4671 0108 1344     		add	r3, r3, r2
 4672 010a 9BB2     		uxth	r3, r3
 4673 010c 19B2     		sxth	r1, r3
 4674 010e 97F82430 		ldrb	r3, [r7, #36]	@ zero_extendqisi2
 4675 0112 1AB2     		sxth	r2, r3
 4676 0114 97F82430 		ldrb	r3, [r7, #36]	@ zero_extendqisi2
 4677 0118 1CB2     		sxth	r4, r3
 4678 011a 3B88     		ldrh	r3, [r7]
 4679 011c 0093     		str	r3, [sp]
 4680 011e 2346     		mov	r3, r4
 4681 0120 FFF7FEFF 		bl	gfx_fillRect
 4682 0124 3FE0     		b	.L211
 4683              	.L208:
 833:oled_driver.c ****                 }
 834:oled_driver.c ****             } else if( bg != color ){
 4684              		.loc 2 834 0
 4685 0126 3A8C     		ldrh	r2, [r7, #32]
 4686 0128 3B88     		ldrh	r3, [r7]
 4687 012a 9A42     		cmp	r2, r3
 4688 012c 3BD0     		beq	.L211
 835:oled_driver.c ****                 if( size == 1 ) // default size
 4689              		.loc 2 835 0
 4690 012e 97F82430 		ldrb	r3, [r7, #36]	@ zero_extendqisi2
 4691 0132 012B     		cmp	r3, #1
 4692 0134 12D1     		bne	.L212
 836:oled_driver.c ****                     gfx_drawPixel( x+i, y+j, bg );
 4693              		.loc 2 836 0
 4694 0136 97F90F30 		ldrsb	r3, [r7, #15]
 4695 013a 9AB2     		uxth	r2, r3
 4696 013c FB88     		ldrh	r3, [r7, #6]
ARM GAS  C:\Users\49148\AppData\Local\Temp\ccVXiEAG.s 			page 110


 4697 013e 1344     		add	r3, r3, r2
 4698 0140 9BB2     		uxth	r3, r3
 4699 0142 18B2     		sxth	r0, r3
 4700 0144 97F90D30 		ldrsb	r3, [r7, #13]
 4701 0148 9AB2     		uxth	r2, r3
 4702 014a BB88     		ldrh	r3, [r7, #4]
 4703 014c 1344     		add	r3, r3, r2
 4704 014e 9BB2     		uxth	r3, r3
 4705 0150 1BB2     		sxth	r3, r3
 4706 0152 3A8C     		ldrh	r2, [r7, #32]
 4707 0154 1946     		mov	r1, r3
 4708 0156 FFF7FEFF 		bl	gfx_drawPixel
 4709 015a 24E0     		b	.L211
 4710              	.L212:
 837:oled_driver.c ****                 else { // big size
 838:oled_driver.c ****                     gfx_fillRect( x+i*size, y+j*size, size, size, bg );
 4711              		.loc 2 838 0
 4712 015c 97F90F30 		ldrsb	r3, [r7, #15]
 4713 0160 9AB2     		uxth	r2, r3
 4714 0162 97F82430 		ldrb	r3, [r7, #36]	@ zero_extendqisi2
 4715 0166 9BB2     		uxth	r3, r3
 4716 0168 12FB03F3 		smulbb	r3, r2, r3
 4717 016c 9AB2     		uxth	r2, r3
 4718 016e FB88     		ldrh	r3, [r7, #6]
 4719 0170 1344     		add	r3, r3, r2
 4720 0172 9BB2     		uxth	r3, r3
 4721 0174 18B2     		sxth	r0, r3
 4722 0176 97F90D30 		ldrsb	r3, [r7, #13]
 4723 017a 9AB2     		uxth	r2, r3
 4724 017c 97F82430 		ldrb	r3, [r7, #36]	@ zero_extendqisi2
 4725 0180 9BB2     		uxth	r3, r3
 4726 0182 12FB03F3 		smulbb	r3, r2, r3
 4727 0186 9AB2     		uxth	r2, r3
 4728 0188 BB88     		ldrh	r3, [r7, #4]
 4729 018a 1344     		add	r3, r3, r2
 4730 018c 9BB2     		uxth	r3, r3
 4731 018e 19B2     		sxth	r1, r3
 4732 0190 97F82430 		ldrb	r3, [r7, #36]	@ zero_extendqisi2
 4733 0194 1AB2     		sxth	r2, r3
 4734 0196 97F82430 		ldrb	r3, [r7, #36]	@ zero_extendqisi2
 4735 019a 1CB2     		sxth	r4, r3
 4736 019c 3B8C     		ldrh	r3, [r7, #32]
 4737 019e 0093     		str	r3, [sp]
 4738 01a0 2346     		mov	r3, r4
 4739 01a2 FFF7FEFF 		bl	gfx_fillRect
 4740              	.L211:
 839:oled_driver.c ****                 }
 840:oled_driver.c ****             }
 841:oled_driver.c ****             line >>= 1;
 4741              		.loc 2 841 0 discriminator 2
 4742 01a6 BB7B     		ldrb	r3, [r7, #14]	@ zero_extendqisi2
 4743 01a8 5B08     		lsrs	r3, r3, #1
 4744 01aa BB73     		strb	r3, [r7, #14]
 827:oled_driver.c ****             if( line & 0x1 ){
 4745              		.loc 2 827 0 discriminator 2
 4746 01ac 97F90D30 		ldrsb	r3, [r7, #13]
 4747 01b0 DBB2     		uxtb	r3, r3
ARM GAS  C:\Users\49148\AppData\Local\Temp\ccVXiEAG.s 			page 111


 4748 01b2 0133     		adds	r3, r3, #1
 4749 01b4 DBB2     		uxtb	r3, r3
 4750 01b6 7B73     		strb	r3, [r7, #13]
 4751              	.L207:
 827:oled_driver.c ****             if( line & 0x1 ){
 4752              		.loc 2 827 0 is_stmt 0 discriminator 1
 4753 01b8 97F90D30 		ldrsb	r3, [r7, #13]
 4754 01bc 072B     		cmp	r3, #7
 4755 01be 7FF770AF 		ble	.L213
 4756              	.LBE12:
 820:oled_driver.c ****         uint8_t line;
 4757              		.loc 2 820 0 is_stmt 1 discriminator 2
 4758 01c2 97F90F30 		ldrsb	r3, [r7, #15]
 4759 01c6 DBB2     		uxtb	r3, r3
 4760 01c8 0133     		adds	r3, r3, #1
 4761 01ca DBB2     		uxtb	r3, r3
 4762 01cc FB73     		strb	r3, [r7, #15]
 4763              	.L204:
 820:oled_driver.c ****         uint8_t line;
 4764              		.loc 2 820 0 is_stmt 0 discriminator 1
 4765 01ce 97F90F30 		ldrsb	r3, [r7, #15]
 4766 01d2 052B     		cmp	r3, #5
 4767 01d4 7FF74FAF 		ble	.L214
 4768 01d8 00E0     		b	.L200
 4769              	.L215:
 817:oled_driver.c **** 
 4770              		.loc 2 817 0 is_stmt 1
 4771 01da 00BF     		nop
 4772              	.L200:
 842:oled_driver.c ****         }
 843:oled_driver.c ****     }
 844:oled_driver.c **** }
 4773              		.loc 2 844 0
 4774 01dc 1437     		adds	r7, r7, #20
 4775              		.cfi_def_cfa_offset 12
 4776 01de BD46     		mov	sp, r7
 4777              		.cfi_def_cfa_register 13
 4778              		@ sp needed
 4779 01e0 90BD     		pop	{r4, r7, pc}
 4780              	.L217:
 4781 01e2 00BF     		.align	2
 4782              	.L216:
 4783 01e4 00000000 		.word	_width
 4784 01e8 02000000 		.word	_height
 4785 01ec 00000000 		.word	font
 4786              		.cfi_endproc
 4787              	.LFE654:
 4788              		.size	gfx_drawChar, .-gfx_drawChar
 4789              		.section	.text.gfx_write,"ax",%progbits
 4790              		.align	2
 4791              		.global	gfx_write
 4792              		.thumb
 4793              		.thumb_func
 4794              		.type	gfx_write, %function
 4795              	gfx_write:
 4796              	.LFB655:
 845:oled_driver.c **** 
ARM GAS  C:\Users\49148\AppData\Local\Temp\ccVXiEAG.s 			page 112


 846:oled_driver.c **** /***************************************************************************
 847:oled_driver.c ****  * Function: gfx_write    
 848:oled_driver.c ****  *
 849:oled_driver.c ****  * Description: Draws one character on the OLED display
 850:oled_driver.c ****  **************************************************************************/
 851:oled_driver.c **** void gfx_write( uint8_t ch ){
 4797              		.loc 2 851 0
 4798              		.cfi_startproc
 4799              		@ args = 0, pretend = 0, frame = 8
 4800              		@ frame_needed = 1, uses_anonymous_args = 0
 4801 0000 B0B5     		push	{r4, r5, r7, lr}
 4802              		.cfi_def_cfa_offset 16
 4803              		.cfi_offset 4, -16
 4804              		.cfi_offset 5, -12
 4805              		.cfi_offset 7, -8
 4806              		.cfi_offset 14, -4
 4807 0002 84B0     		sub	sp, sp, #16
 4808              		.cfi_def_cfa_offset 32
 4809 0004 02AF     		add	r7, sp, #8
 4810              		.cfi_def_cfa 7, 24
 4811 0006 0346     		mov	r3, r0
 4812 0008 FB71     		strb	r3, [r7, #7]
 852:oled_driver.c ****     if( ch == '\n' ){
 4813              		.loc 2 852 0
 4814 000a FB79     		ldrb	r3, [r7, #7]	@ zero_extendqisi2
 4815 000c 0A2B     		cmp	r3, #10
 4816 000e 11D1     		bne	.L219
 853:oled_driver.c ****         cursor_y += textsize*8;
 4817              		.loc 2 853 0
 4818 0010 314B     		ldr	r3, .L222
 4819 0012 1B78     		ldrb	r3, [r3]	@ zero_extendqisi2
 4820 0014 9BB2     		uxth	r3, r3
 4821 0016 DB00     		lsls	r3, r3, #3
 4822 0018 9AB2     		uxth	r2, r3
 4823 001a 304B     		ldr	r3, .L222+4
 4824 001c B3F90030 		ldrsh	r3, [r3]
 4825 0020 9BB2     		uxth	r3, r3
 4826 0022 1344     		add	r3, r3, r2
 4827 0024 9BB2     		uxth	r3, r3
 4828 0026 1AB2     		sxth	r2, r3
 4829 0028 2C4B     		ldr	r3, .L222+4
 4830 002a 1A80     		strh	r2, [r3]	@ movhi
 854:oled_driver.c ****         cursor_x = 0;
 4831              		.loc 2 854 0
 4832 002c 2C4B     		ldr	r3, .L222+8
 4833 002e 0022     		movs	r2, #0
 4834 0030 1A80     		strh	r2, [r3]	@ movhi
 855:oled_driver.c ****     }else if( ch == '\r' ){
 856:oled_driver.c ****         // skip em
 857:oled_driver.c ****     }else{
 858:oled_driver.c ****         gfx_drawChar(cursor_x, cursor_y, ch, textcolor, textbgcolor, textsize);
 859:oled_driver.c ****         cursor_x += textsize*6;
 860:oled_driver.c ****         if( wrap && (cursor_x > (_width - textsize*6)) ){
 861:oled_driver.c ****             cursor_y += textsize*8;
 862:oled_driver.c ****             cursor_x = 0;
 863:oled_driver.c ****         }
 864:oled_driver.c ****     }
ARM GAS  C:\Users\49148\AppData\Local\Temp\ccVXiEAG.s 			page 113


 865:oled_driver.c **** }
 4835              		.loc 2 865 0
 4836 0032 4DE0     		b	.L221
 4837              	.L219:
 855:oled_driver.c ****     }else if( ch == '\r' ){
 4838              		.loc 2 855 0
 4839 0034 FB79     		ldrb	r3, [r7, #7]	@ zero_extendqisi2
 4840 0036 0D2B     		cmp	r3, #13
 4841 0038 4AD0     		beq	.L221
 858:oled_driver.c ****         cursor_x += textsize*6;
 4842              		.loc 2 858 0
 4843 003a 294B     		ldr	r3, .L222+8
 4844 003c B3F90000 		ldrsh	r0, [r3]
 4845 0040 264B     		ldr	r3, .L222+4
 4846 0042 B3F90010 		ldrsh	r1, [r3]
 4847 0046 274B     		ldr	r3, .L222+12
 4848 0048 1D88     		ldrh	r5, [r3]
 4849 004a 274B     		ldr	r3, .L222+16
 4850 004c 1B88     		ldrh	r3, [r3]
 4851 004e 224A     		ldr	r2, .L222
 4852 0050 1278     		ldrb	r2, [r2]	@ zero_extendqisi2
 4853 0052 FC79     		ldrb	r4, [r7, #7]	@ zero_extendqisi2
 4854 0054 0192     		str	r2, [sp, #4]
 4855 0056 0093     		str	r3, [sp]
 4856 0058 2B46     		mov	r3, r5
 4857 005a 2246     		mov	r2, r4
 4858 005c FFF7FEFF 		bl	gfx_drawChar
 859:oled_driver.c ****         if( wrap && (cursor_x > (_width - textsize*6)) ){
 4859              		.loc 2 859 0
 4860 0060 1D4B     		ldr	r3, .L222
 4861 0062 1B78     		ldrb	r3, [r3]	@ zero_extendqisi2
 4862 0064 9BB2     		uxth	r3, r3
 4863 0066 1A46     		mov	r2, r3	@ movhi
 4864 0068 5200     		lsls	r2, r2, #1
 4865 006a 1344     		add	r3, r3, r2
 4866 006c 5B00     		lsls	r3, r3, #1
 4867 006e 9AB2     		uxth	r2, r3
 4868 0070 1B4B     		ldr	r3, .L222+8
 4869 0072 B3F90030 		ldrsh	r3, [r3]
 4870 0076 9BB2     		uxth	r3, r3
 4871 0078 1344     		add	r3, r3, r2
 4872 007a 9BB2     		uxth	r3, r3
 4873 007c 1AB2     		sxth	r2, r3
 4874 007e 184B     		ldr	r3, .L222+8
 4875 0080 1A80     		strh	r2, [r3]	@ movhi
 860:oled_driver.c ****             cursor_y += textsize*8;
 4876              		.loc 2 860 0
 4877 0082 1A4B     		ldr	r3, .L222+20
 4878 0084 1B78     		ldrb	r3, [r3]	@ zero_extendqisi2
 4879 0086 002B     		cmp	r3, #0
 4880 0088 22D0     		beq	.L221
 860:oled_driver.c ****             cursor_y += textsize*8;
 4881              		.loc 2 860 0 is_stmt 0 discriminator 1
 4882 008a 154B     		ldr	r3, .L222+8
 4883 008c B3F90030 		ldrsh	r3, [r3]
 4884 0090 1946     		mov	r1, r3
 4885 0092 174B     		ldr	r3, .L222+24
ARM GAS  C:\Users\49148\AppData\Local\Temp\ccVXiEAG.s 			page 114


 4886 0094 B3F90030 		ldrsh	r3, [r3]
 4887 0098 1846     		mov	r0, r3
 4888 009a 0F4B     		ldr	r3, .L222
 4889 009c 1B78     		ldrb	r3, [r3]	@ zero_extendqisi2
 4890 009e 1A46     		mov	r2, r3
 4891 00a0 1346     		mov	r3, r2
 4892 00a2 9200     		lsls	r2, r2, #2
 4893 00a4 9B1A     		subs	r3, r3, r2
 4894 00a6 5B00     		lsls	r3, r3, #1
 4895 00a8 0344     		add	r3, r3, r0
 4896 00aa 9942     		cmp	r1, r3
 4897 00ac 10DD     		ble	.L221
 861:oled_driver.c ****             cursor_x = 0;
 4898              		.loc 2 861 0 is_stmt 1
 4899 00ae 0A4B     		ldr	r3, .L222
 4900 00b0 1B78     		ldrb	r3, [r3]	@ zero_extendqisi2
 4901 00b2 9BB2     		uxth	r3, r3
 4902 00b4 DB00     		lsls	r3, r3, #3
 4903 00b6 9AB2     		uxth	r2, r3
 4904 00b8 084B     		ldr	r3, .L222+4
 4905 00ba B3F90030 		ldrsh	r3, [r3]
 4906 00be 9BB2     		uxth	r3, r3
 4907 00c0 1344     		add	r3, r3, r2
 4908 00c2 9BB2     		uxth	r3, r3
 4909 00c4 1AB2     		sxth	r2, r3
 4910 00c6 054B     		ldr	r3, .L222+4
 4911 00c8 1A80     		strh	r2, [r3]	@ movhi
 862:oled_driver.c ****         }
 4912              		.loc 2 862 0
 4913 00ca 054B     		ldr	r3, .L222+8
 4914 00cc 0022     		movs	r2, #0
 4915 00ce 1A80     		strh	r2, [r3]	@ movhi
 4916              	.L221:
 4917              		.loc 2 865 0
 4918 00d0 00BF     		nop
 4919 00d2 0837     		adds	r7, r7, #8
 4920              		.cfi_def_cfa_offset 16
 4921 00d4 BD46     		mov	sp, r7
 4922              		.cfi_def_cfa_register 13
 4923              		@ sp needed
 4924 00d6 B0BD     		pop	{r4, r5, r7, pc}
 4925              	.L223:
 4926              		.align	2
 4927              	.L222:
 4928 00d8 0C000000 		.word	textsize
 4929 00dc 06000000 		.word	cursor_y
 4930 00e0 04000000 		.word	cursor_x
 4931 00e4 08000000 		.word	textcolor
 4932 00e8 0A000000 		.word	textbgcolor
 4933 00ec 00000000 		.word	wrap
 4934 00f0 00000000 		.word	_width
 4935              		.cfi_endproc
 4936              	.LFE655:
 4937              		.size	gfx_write, .-gfx_write
 4938              		.section	.text.gfx_print,"ax",%progbits
 4939              		.align	2
 4940              		.global	gfx_print
ARM GAS  C:\Users\49148\AppData\Local\Temp\ccVXiEAG.s 			page 115


 4941              		.thumb
 4942              		.thumb_func
 4943              		.type	gfx_print, %function
 4944              	gfx_print:
 4945              	.LFB656:
 866:oled_driver.c **** 
 867:oled_driver.c **** /***************************************************************************
 868:oled_driver.c ****  * Function: gfx_print    
 869:oled_driver.c ****  *
 870:oled_driver.c ****  * Description: Displays a string on the OLED display
 871:oled_driver.c ****  **************************************************************************/
 872:oled_driver.c **** void gfx_print( const char* s ){
 4946              		.loc 2 872 0
 4947              		.cfi_startproc
 4948              		@ args = 0, pretend = 0, frame = 16
 4949              		@ frame_needed = 1, uses_anonymous_args = 0
 4950 0000 80B5     		push	{r7, lr}
 4951              		.cfi_def_cfa_offset 8
 4952              		.cfi_offset 7, -8
 4953              		.cfi_offset 14, -4
 4954 0002 84B0     		sub	sp, sp, #16
 4955              		.cfi_def_cfa_offset 24
 4956 0004 00AF     		add	r7, sp, #0
 4957              		.cfi_def_cfa_register 7
 4958 0006 7860     		str	r0, [r7, #4]
 873:oled_driver.c ****     
 874:oled_driver.c ****     unsigned int len = strlen( s );
 4959              		.loc 2 874 0
 4960 0008 7868     		ldr	r0, [r7, #4]
 4961 000a FFF7FEFF 		bl	strlen
 4962 000e B860     		str	r0, [r7, #8]
 875:oled_driver.c ****     unsigned int i = 0; 
 4963              		.loc 2 875 0
 4964 0010 0023     		movs	r3, #0
 4965 0012 FB60     		str	r3, [r7, #12]
 876:oled_driver.c ****     for( i = 0 ; i < len ; i++ ){
 4966              		.loc 2 876 0
 4967 0014 0023     		movs	r3, #0
 4968 0016 FB60     		str	r3, [r7, #12]
 4969 0018 09E0     		b	.L225
 4970              	.L226:
 877:oled_driver.c ****         gfx_write( s[i] );
 4971              		.loc 2 877 0 discriminator 3
 4972 001a 7A68     		ldr	r2, [r7, #4]
 4973 001c FB68     		ldr	r3, [r7, #12]
 4974 001e 1344     		add	r3, r3, r2
 4975 0020 1B78     		ldrb	r3, [r3]	@ zero_extendqisi2
 4976 0022 1846     		mov	r0, r3
 4977 0024 FFF7FEFF 		bl	gfx_write
 876:oled_driver.c ****     for( i = 0 ; i < len ; i++ ){
 4978              		.loc 2 876 0 discriminator 3
 4979 0028 FB68     		ldr	r3, [r7, #12]
 4980 002a 0133     		adds	r3, r3, #1
 4981 002c FB60     		str	r3, [r7, #12]
 4982              	.L225:
 876:oled_driver.c ****     for( i = 0 ; i < len ; i++ ){
 4983              		.loc 2 876 0 is_stmt 0 discriminator 1
ARM GAS  C:\Users\49148\AppData\Local\Temp\ccVXiEAG.s 			page 116


 4984 002e FA68     		ldr	r2, [r7, #12]
 4985 0030 BB68     		ldr	r3, [r7, #8]
 4986 0032 9A42     		cmp	r2, r3
 4987 0034 F1D3     		bcc	.L226
 878:oled_driver.c ****     }
 879:oled_driver.c **** }
 4988              		.loc 2 879 0 is_stmt 1
 4989 0036 00BF     		nop
 4990 0038 1037     		adds	r7, r7, #16
 4991              		.cfi_def_cfa_offset 8
 4992 003a BD46     		mov	sp, r7
 4993              		.cfi_def_cfa_register 13
 4994              		@ sp needed
 4995 003c 80BD     		pop	{r7, pc}
 4996              		.cfi_endproc
 4997              	.LFE656:
 4998              		.size	gfx_print, .-gfx_print
 4999 003e 00BF     		.section	.text.gfx_println,"ax",%progbits
 5000              		.align	2
 5001              		.global	gfx_println
 5002              		.thumb
 5003              		.thumb_func
 5004              		.type	gfx_println, %function
 5005              	gfx_println:
 5006              	.LFB657:
 880:oled_driver.c **** 
 881:oled_driver.c **** /***************************************************************************
 882:oled_driver.c ****  * Function: gfx_println    
 883:oled_driver.c ****  *
 884:oled_driver.c ****  * Description: Displays a string on the OLED display
 885:oled_driver.c ****  **************************************************************************/
 886:oled_driver.c **** void gfx_println( const char* s ){ 
 5007              		.loc 2 886 0
 5008              		.cfi_startproc
 5009              		@ args = 0, pretend = 0, frame = 8
 5010              		@ frame_needed = 1, uses_anonymous_args = 0
 5011 0000 80B5     		push	{r7, lr}
 5012              		.cfi_def_cfa_offset 8
 5013              		.cfi_offset 7, -8
 5014              		.cfi_offset 14, -4
 5015 0002 82B0     		sub	sp, sp, #8
 5016              		.cfi_def_cfa_offset 16
 5017 0004 00AF     		add	r7, sp, #0
 5018              		.cfi_def_cfa_register 7
 5019 0006 7860     		str	r0, [r7, #4]
 887:oled_driver.c ****     gfx_print( s ); 
 5020              		.loc 2 887 0
 5021 0008 7868     		ldr	r0, [r7, #4]
 5022 000a FFF7FEFF 		bl	gfx_print
 888:oled_driver.c ****     gfx_write( '\n' );
 5023              		.loc 2 888 0
 5024 000e 0A20     		movs	r0, #10
 5025 0010 FFF7FEFF 		bl	gfx_write
 889:oled_driver.c **** }
 5026              		.loc 2 889 0
 5027 0014 00BF     		nop
 5028 0016 0837     		adds	r7, r7, #8
ARM GAS  C:\Users\49148\AppData\Local\Temp\ccVXiEAG.s 			page 117


 5029              		.cfi_def_cfa_offset 8
 5030 0018 BD46     		mov	sp, r7
 5031              		.cfi_def_cfa_register 13
 5032              		@ sp needed
 5033 001a 80BD     		pop	{r7, pc}
 5034              		.cfi_endproc
 5035              	.LFE657:
 5036              		.size	gfx_println, .-gfx_println
 5037              		.text
 5038              	.Letext0:
 5039              		.file 3 "d:\\psoc_jingyi\\psoc creator\\4.4\\psoc creator\\import\\gnu\\arm\\5.4.1\\arm-none-eabi\
 5040              		.file 4 "d:\\psoc_jingyi\\psoc creator\\4.4\\psoc creator\\import\\gnu\\arm\\5.4.1\\arm-none-eabi\
 5041              		.file 5 "Generated_Source\\PSoC6\\pdl\\devices/psoc6/include/ip/cyip_scb.h"
 5042              		.file 6 "Generated_Source\\PSoC6\\pdl\\devices/psoc6/include/psoc6_01_config.h"
 5043              		.file 7 "Generated_Source\\PSoC6\\pdl\\drivers/peripheral/device/cy_device.h"
 5044              		.file 8 "Generated_Source\\PSoC6\\pdl\\drivers/peripheral/syslib/cy_syslib.h"
 5045              		.file 9 "Generated_Source\\PSoC6\\pdl\\drivers/peripheral/sar/cy_sar.h"
 5046              		.file 10 "Generated_Source\\PSoC6\\pdl\\drivers/peripheral/scb/cy_scb_i2c.h"
 5047              		.file 11 "Generated_Source\\PSoC6\\pdl\\drivers/peripheral/scb/cy_scb_uart.h"
 5048              		.file 12 "Generated_Source\\PSoC6\\pdl\\drivers/peripheral/tcpwm/cy_tcpwm_counter.h"
 5049              		.file 13 "Generated_Source\\PSoC6\\pdl\\middleware/ble/cy_ble_stack.h"
 5050              		.file 14 "Generated_Source\\PSoC6\\pdl\\middleware/ble/cy_ble_stack_host_main.h"
 5051              		.file 15 "Generated_Source\\PSoC6\\pdl\\middleware/ble/cy_ble_gap.h"
 5052              		.file 16 "Generated_Source\\PSoC6\\pdl\\middleware/ble/cy_ble_dis.h"
 5053              		.file 17 "Generated_Source\\PSoC6\\pdl\\middleware/ble/cy_ble_hrs.h"
 5054              		.file 18 "Generated_Source\\PSoC6/ADC.h"
 5055              		.file 19 "font.h"
 5056              		.file 20 "Generated_Source\\PSoC6\\pdl\\cmsis/include/core_cm4.h"
 5057              		.file 21 "Generated_Source\\PSoC6/Timer.h"
 5058              		.file 22 "Generated_Source\\PSoC6/Uart_Printf.h"
 5059              		.section	.debug_info,"",%progbits
 5060              	.Ldebug_info0:
 5061 0000 28210000 		.4byte	0x2128
 5062 0004 0400     		.2byte	0x4
 5063 0006 00000000 		.4byte	.Ldebug_abbrev0
 5064 000a 04       		.byte	0x4
 5065 000b 01       		.uleb128 0x1
 5066 000c 62230000 		.4byte	.LASF539
 5067 0010 0C       		.byte	0xc
 5068 0011 860D0000 		.4byte	.LASF540
 5069 0015 050F0000 		.4byte	.LASF541
 5070 0019 00000000 		.4byte	.Ldebug_ranges0+0
 5071 001d 00000000 		.4byte	0
 5072 0021 00000000 		.4byte	.Ldebug_line0
 5073 0025 02       		.uleb128 0x2
 5074 0026 02       		.byte	0x2
 5075 0027 05       		.byte	0x5
 5076 0028 1F210000 		.4byte	.LASF0
 5077 002c 03       		.uleb128 0x3
 5078 002d BA1A0000 		.4byte	.LASF2
 5079 0031 03       		.byte	0x3
 5080 0032 1B       		.byte	0x1b
 5081 0033 37000000 		.4byte	0x37
 5082 0037 02       		.uleb128 0x2
 5083 0038 01       		.byte	0x1
 5084 0039 06       		.byte	0x6
 5085 003a F2070000 		.4byte	.LASF1
ARM GAS  C:\Users\49148\AppData\Local\Temp\ccVXiEAG.s 			page 118


 5086 003e 03       		.uleb128 0x3
 5087 003f AD040000 		.4byte	.LASF3
 5088 0043 03       		.byte	0x3
 5089 0044 1D       		.byte	0x1d
 5090 0045 49000000 		.4byte	0x49
 5091 0049 02       		.uleb128 0x2
 5092 004a 01       		.byte	0x1
 5093 004b 08       		.byte	0x8
 5094 004c 06090000 		.4byte	.LASF4
 5095 0050 03       		.uleb128 0x3
 5096 0051 7F030000 		.4byte	.LASF5
 5097 0055 03       		.byte	0x3
 5098 0056 29       		.byte	0x29
 5099 0057 25000000 		.4byte	0x25
 5100 005b 03       		.uleb128 0x3
 5101 005c CD060000 		.4byte	.LASF6
 5102 0060 03       		.byte	0x3
 5103 0061 2B       		.byte	0x2b
 5104 0062 66000000 		.4byte	0x66
 5105 0066 02       		.uleb128 0x2
 5106 0067 02       		.byte	0x2
 5107 0068 07       		.byte	0x7
 5108 0069 C8250000 		.4byte	.LASF7
 5109 006d 03       		.uleb128 0x3
 5110 006e 03270000 		.4byte	.LASF8
 5111 0072 03       		.byte	0x3
 5112 0073 3F       		.byte	0x3f
 5113 0074 78000000 		.4byte	0x78
 5114 0078 02       		.uleb128 0x2
 5115 0079 04       		.byte	0x4
 5116 007a 05       		.byte	0x5
 5117 007b 84050000 		.4byte	.LASF9
 5118 007f 03       		.uleb128 0x3
 5119 0080 4B130000 		.4byte	.LASF10
 5120 0084 03       		.byte	0x3
 5121 0085 41       		.byte	0x41
 5122 0086 8A000000 		.4byte	0x8a
 5123 008a 02       		.uleb128 0x2
 5124 008b 04       		.byte	0x4
 5125 008c 07       		.byte	0x7
 5126 008d C10F0000 		.4byte	.LASF11
 5127 0091 02       		.uleb128 0x2
 5128 0092 08       		.byte	0x8
 5129 0093 05       		.byte	0x5
 5130 0094 D4240000 		.4byte	.LASF12
 5131 0098 02       		.uleb128 0x2
 5132 0099 08       		.byte	0x8
 5133 009a 07       		.byte	0x7
 5134 009b 311B0000 		.4byte	.LASF13
 5135 009f 04       		.uleb128 0x4
 5136 00a0 04       		.byte	0x4
 5137 00a1 05       		.byte	0x5
 5138 00a2 696E7400 		.ascii	"int\000"
 5139 00a6 02       		.uleb128 0x2
 5140 00a7 04       		.byte	0x4
 5141 00a8 07       		.byte	0x7
 5142 00a9 EA150000 		.4byte	.LASF14
ARM GAS  C:\Users\49148\AppData\Local\Temp\ccVXiEAG.s 			page 119


 5143 00ad 03       		.uleb128 0x3
 5144 00ae 58000000 		.4byte	.LASF15
 5145 00b2 04       		.byte	0x4
 5146 00b3 14       		.byte	0x14
 5147 00b4 2C000000 		.4byte	0x2c
 5148 00b8 03       		.uleb128 0x3
 5149 00b9 20080000 		.4byte	.LASF16
 5150 00bd 04       		.byte	0x4
 5151 00be 18       		.byte	0x18
 5152 00bf 3E000000 		.4byte	0x3e
 5153 00c3 03       		.uleb128 0x3
 5154 00c4 77210000 		.4byte	.LASF17
 5155 00c8 04       		.byte	0x4
 5156 00c9 20       		.byte	0x20
 5157 00ca 50000000 		.4byte	0x50
 5158 00ce 03       		.uleb128 0x3
 5159 00cf 681B0000 		.4byte	.LASF18
 5160 00d3 04       		.byte	0x4
 5161 00d4 24       		.byte	0x24
 5162 00d5 5B000000 		.4byte	0x5b
 5163 00d9 03       		.uleb128 0x3
 5164 00da 5D1D0000 		.4byte	.LASF19
 5165 00de 04       		.byte	0x4
 5166 00df 2C       		.byte	0x2c
 5167 00e0 6D000000 		.4byte	0x6d
 5168 00e4 03       		.uleb128 0x3
 5169 00e5 02250000 		.4byte	.LASF20
 5170 00e9 04       		.byte	0x4
 5171 00ea 30       		.byte	0x30
 5172 00eb 7F000000 		.4byte	0x7f
 5173 00ef 02       		.uleb128 0x2
 5174 00f0 04       		.byte	0x4
 5175 00f1 07       		.byte	0x7
 5176 00f2 760F0000 		.4byte	.LASF21
 5177 00f6 05       		.uleb128 0x5
 5178 00f7 E4000000 		.4byte	0xe4
 5179 00fb 06       		.uleb128 0x6
 5180 00fc F6000000 		.4byte	0xf6
 5181 0100 07       		.uleb128 0x7
 5182 0101 FB000000 		.4byte	0xfb
 5183 0105 10010000 		.4byte	0x110
 5184 0109 08       		.uleb128 0x8
 5185 010a EF000000 		.4byte	0xef
 5186 010e 03       		.byte	0x3
 5187 010f 00       		.byte	0
 5188 0110 07       		.uleb128 0x7
 5189 0111 FB000000 		.4byte	0xfb
 5190 0115 20010000 		.4byte	0x120
 5191 0119 08       		.uleb128 0x8
 5192 011a EF000000 		.4byte	0xef
 5193 011e 05       		.byte	0x5
 5194 011f 00       		.byte	0
 5195 0120 07       		.uleb128 0x7
 5196 0121 FB000000 		.4byte	0xfb
 5197 0125 30010000 		.4byte	0x130
 5198 0129 08       		.uleb128 0x8
 5199 012a EF000000 		.4byte	0xef
ARM GAS  C:\Users\49148\AppData\Local\Temp\ccVXiEAG.s 			page 120


 5200 012e 7F       		.byte	0x7f
 5201 012f 00       		.byte	0
 5202 0130 07       		.uleb128 0x7
 5203 0131 FB000000 		.4byte	0xfb
 5204 0135 40010000 		.4byte	0x140
 5205 0139 08       		.uleb128 0x8
 5206 013a EF000000 		.4byte	0xef
 5207 013e 0C       		.byte	0xc
 5208 013f 00       		.byte	0
 5209 0140 07       		.uleb128 0x7
 5210 0141 FB000000 		.4byte	0xfb
 5211 0145 50010000 		.4byte	0x150
 5212 0149 08       		.uleb128 0x8
 5213 014a EF000000 		.4byte	0xef
 5214 014e 1E       		.byte	0x1e
 5215 014f 00       		.byte	0
 5216 0150 07       		.uleb128 0x7
 5217 0151 FB000000 		.4byte	0xfb
 5218 0155 60010000 		.4byte	0x160
 5219 0159 08       		.uleb128 0x8
 5220 015a EF000000 		.4byte	0xef
 5221 015e 02       		.byte	0x2
 5222 015f 00       		.byte	0
 5223 0160 07       		.uleb128 0x7
 5224 0161 FB000000 		.4byte	0xfb
 5225 0165 70010000 		.4byte	0x170
 5226 0169 08       		.uleb128 0x8
 5227 016a EF000000 		.4byte	0xef
 5228 016e 0B       		.byte	0xb
 5229 016f 00       		.byte	0
 5230 0170 07       		.uleb128 0x7
 5231 0171 B8000000 		.4byte	0xb8
 5232 0175 80010000 		.4byte	0x180
 5233 0179 08       		.uleb128 0x8
 5234 017a EF000000 		.4byte	0xef
 5235 017e 03       		.byte	0x3
 5236 017f 00       		.byte	0
 5237 0180 07       		.uleb128 0x7
 5238 0181 FB000000 		.4byte	0xfb
 5239 0185 90010000 		.4byte	0x190
 5240 0189 08       		.uleb128 0x8
 5241 018a EF000000 		.4byte	0xef
 5242 018e 0A       		.byte	0xa
 5243 018f 00       		.byte	0
 5244 0190 07       		.uleb128 0x7
 5245 0191 FB000000 		.4byte	0xfb
 5246 0195 A0010000 		.4byte	0x1a0
 5247 0199 08       		.uleb128 0x8
 5248 019a EF000000 		.4byte	0xef
 5249 019e 2E       		.byte	0x2e
 5250 019f 00       		.byte	0
 5251 01a0 07       		.uleb128 0x7
 5252 01a1 FB000000 		.4byte	0xfb
 5253 01a5 B0010000 		.4byte	0x1b0
 5254 01a9 08       		.uleb128 0x8
 5255 01aa EF000000 		.4byte	0xef
 5256 01ae 2D       		.byte	0x2d
ARM GAS  C:\Users\49148\AppData\Local\Temp\ccVXiEAG.s 			page 121


 5257 01af 00       		.byte	0
 5258 01b0 07       		.uleb128 0x7
 5259 01b1 F6000000 		.4byte	0xf6
 5260 01b5 C1010000 		.4byte	0x1c1
 5261 01b9 09       		.uleb128 0x9
 5262 01ba EF000000 		.4byte	0xef
 5263 01be FF01     		.2byte	0x1ff
 5264 01c0 00       		.byte	0
 5265 01c1 07       		.uleb128 0x7
 5266 01c2 FB000000 		.4byte	0xfb
 5267 01c6 D1010000 		.4byte	0x1d1
 5268 01ca 08       		.uleb128 0x8
 5269 01cb EF000000 		.4byte	0xef
 5270 01cf 62       		.byte	0x62
 5271 01d0 00       		.byte	0
 5272 01d1 0A       		.uleb128 0xa
 5273 01d2 D00F     		.2byte	0xfd0
 5274 01d4 05       		.byte	0x5
 5275 01d5 21       		.byte	0x21
 5276 01d6 3B050000 		.4byte	0x53b
 5277 01da 0B       		.uleb128 0xb
 5278 01db F7150000 		.4byte	.LASF22
 5279 01df 05       		.byte	0x5
 5280 01e0 22       		.byte	0x22
 5281 01e1 F6000000 		.4byte	0xf6
 5282 01e5 00       		.byte	0
 5283 01e6 0B       		.uleb128 0xb
 5284 01e7 601E0000 		.4byte	.LASF23
 5285 01eb 05       		.byte	0x5
 5286 01ec 23       		.byte	0x23
 5287 01ed FB000000 		.4byte	0xfb
 5288 01f1 04       		.byte	0x4
 5289 01f2 0B       		.uleb128 0xb
 5290 01f3 EE080000 		.4byte	.LASF24
 5291 01f7 05       		.byte	0x5
 5292 01f8 24       		.byte	0x24
 5293 01f9 F6000000 		.4byte	0xf6
 5294 01fd 08       		.byte	0x8
 5295 01fe 0B       		.uleb128 0xb
 5296 01ff DA1C0000 		.4byte	.LASF25
 5297 0203 05       		.byte	0x5
 5298 0204 25       		.byte	0x25
 5299 0205 FB000000 		.4byte	0xfb
 5300 0209 0C       		.byte	0xc
 5301 020a 0B       		.uleb128 0xb
 5302 020b 940D0000 		.4byte	.LASF26
 5303 020f 05       		.byte	0x5
 5304 0210 26       		.byte	0x26
 5305 0211 40050000 		.4byte	0x540
 5306 0215 10       		.byte	0x10
 5307 0216 0B       		.uleb128 0xb
 5308 0217 15060000 		.4byte	.LASF27
 5309 021b 05       		.byte	0x5
 5310 021c 27       		.byte	0x27
 5311 021d F6000000 		.4byte	0xf6
 5312 0221 20       		.byte	0x20
 5313 0222 0B       		.uleb128 0xb
ARM GAS  C:\Users\49148\AppData\Local\Temp\ccVXiEAG.s 			page 122


 5314 0223 C2150000 		.4byte	.LASF28
 5315 0227 05       		.byte	0x5
 5316 0228 28       		.byte	0x28
 5317 0229 FB000000 		.4byte	0xfb
 5318 022d 24       		.byte	0x24
 5319 022e 0B       		.uleb128 0xb
 5320 022f FC080000 		.4byte	.LASF29
 5321 0233 05       		.byte	0x5
 5322 0234 29       		.byte	0x29
 5323 0235 4A050000 		.4byte	0x54a
 5324 0239 28       		.byte	0x28
 5325 023a 0B       		.uleb128 0xb
 5326 023b 2E010000 		.4byte	.LASF30
 5327 023f 05       		.byte	0x5
 5328 0240 2A       		.byte	0x2a
 5329 0241 F6000000 		.4byte	0xf6
 5330 0245 40       		.byte	0x40
 5331 0246 0B       		.uleb128 0xb
 5332 0247 600B0000 		.4byte	.LASF31
 5333 024b 05       		.byte	0x5
 5334 024c 2B       		.byte	0x2b
 5335 024d F6000000 		.4byte	0xf6
 5336 0251 44       		.byte	0x44
 5337 0252 0B       		.uleb128 0xb
 5338 0253 46070000 		.4byte	.LASF32
 5339 0257 05       		.byte	0x5
 5340 0258 2C       		.byte	0x2c
 5341 0259 F6000000 		.4byte	0xf6
 5342 025d 48       		.byte	0x48
 5343 025e 0B       		.uleb128 0xb
 5344 025f B90D0000 		.4byte	.LASF33
 5345 0263 05       		.byte	0x5
 5346 0264 2D       		.byte	0x2d
 5347 0265 FB000000 		.4byte	0xfb
 5348 0269 4C       		.byte	0x4c
 5349 026a 0B       		.uleb128 0xb
 5350 026b 0F180000 		.4byte	.LASF34
 5351 026f 05       		.byte	0x5
 5352 0270 2E       		.byte	0x2e
 5353 0271 F6000000 		.4byte	0xf6
 5354 0275 50       		.byte	0x50
 5355 0276 0B       		.uleb128 0xb
 5356 0277 A70A0000 		.4byte	.LASF35
 5357 027b 05       		.byte	0x5
 5358 027c 2F       		.byte	0x2f
 5359 027d 54050000 		.4byte	0x554
 5360 0281 54       		.byte	0x54
 5361 0282 0B       		.uleb128 0xb
 5362 0283 22280000 		.4byte	.LASF36
 5363 0287 05       		.byte	0x5
 5364 0288 30       		.byte	0x30
 5365 0289 F6000000 		.4byte	0xf6
 5366 028d 60       		.byte	0x60
 5367 028e 0B       		.uleb128 0xb
 5368 028f 94240000 		.4byte	.LASF37
 5369 0293 05       		.byte	0x5
 5370 0294 31       		.byte	0x31
ARM GAS  C:\Users\49148\AppData\Local\Temp\ccVXiEAG.s 			page 123


 5371 0295 FB000000 		.4byte	0xfb
 5372 0299 64       		.byte	0x64
 5373 029a 0B       		.uleb128 0xb
 5374 029b C80D0000 		.4byte	.LASF38
 5375 029f 05       		.byte	0x5
 5376 02a0 32       		.byte	0x32
 5377 02a1 F6000000 		.4byte	0xf6
 5378 02a5 68       		.byte	0x68
 5379 02a6 0B       		.uleb128 0xb
 5380 02a7 D30A0000 		.4byte	.LASF39
 5381 02ab 05       		.byte	0x5
 5382 02ac 33       		.byte	0x33
 5383 02ad F6000000 		.4byte	0xf6
 5384 02b1 6C       		.byte	0x6c
 5385 02b2 0B       		.uleb128 0xb
 5386 02b3 F0030000 		.4byte	.LASF40
 5387 02b7 05       		.byte	0x5
 5388 02b8 34       		.byte	0x34
 5389 02b9 F6000000 		.4byte	0xf6
 5390 02bd 70       		.byte	0x70
 5391 02be 0B       		.uleb128 0xb
 5392 02bf B10A0000 		.4byte	.LASF41
 5393 02c3 05       		.byte	0x5
 5394 02c4 35       		.byte	0x35
 5395 02c5 5E050000 		.4byte	0x55e
 5396 02c9 74       		.byte	0x74
 5397 02ca 0C       		.uleb128 0xc
 5398 02cb 2C170000 		.4byte	.LASF42
 5399 02cf 05       		.byte	0x5
 5400 02d0 36       		.byte	0x36
 5401 02d1 F6000000 		.4byte	0xf6
 5402 02d5 0002     		.2byte	0x200
 5403 02d7 0C       		.uleb128 0xc
 5404 02d8 9E1B0000 		.4byte	.LASF43
 5405 02dc 05       		.byte	0x5
 5406 02dd 37       		.byte	0x37
 5407 02de F6000000 		.4byte	0xf6
 5408 02e2 0402     		.2byte	0x204
 5409 02e4 0C       		.uleb128 0xc
 5410 02e5 001A0000 		.4byte	.LASF44
 5411 02e9 05       		.byte	0x5
 5412 02ea 38       		.byte	0x38
 5413 02eb FB000000 		.4byte	0xfb
 5414 02ef 0802     		.2byte	0x208
 5415 02f1 0C       		.uleb128 0xc
 5416 02f2 BB0A0000 		.4byte	.LASF45
 5417 02f6 05       		.byte	0x5
 5418 02f7 39       		.byte	0x39
 5419 02f8 68050000 		.4byte	0x568
 5420 02fc 0C02     		.2byte	0x20c
 5421 02fe 0C       		.uleb128 0xc
 5422 02ff 6D0B0000 		.4byte	.LASF46
 5423 0303 05       		.byte	0x5
 5424 0304 3A       		.byte	0x3a
 5425 0305 F6000000 		.4byte	0xf6
 5426 0309 4002     		.2byte	0x240
 5427 030b 0C       		.uleb128 0xc
ARM GAS  C:\Users\49148\AppData\Local\Temp\ccVXiEAG.s 			page 124


 5428 030c 39090000 		.4byte	.LASF47
 5429 0310 05       		.byte	0x5
 5430 0311 3B       		.byte	0x3b
 5431 0312 72050000 		.4byte	0x572
 5432 0316 4402     		.2byte	0x244
 5433 0318 0C       		.uleb128 0xc
 5434 0319 7C050000 		.4byte	.LASF48
 5435 031d 05       		.byte	0x5
 5436 031e 3C       		.byte	0x3c
 5437 031f F6000000 		.4byte	0xf6
 5438 0323 0003     		.2byte	0x300
 5439 0325 0C       		.uleb128 0xc
 5440 0326 A3210000 		.4byte	.LASF49
 5441 032a 05       		.byte	0x5
 5442 032b 3D       		.byte	0x3d
 5443 032c F6000000 		.4byte	0xf6
 5444 0330 0403     		.2byte	0x304
 5445 0332 0C       		.uleb128 0xc
 5446 0333 6C040000 		.4byte	.LASF50
 5447 0337 05       		.byte	0x5
 5448 0338 3E       		.byte	0x3e
 5449 0339 FB000000 		.4byte	0xfb
 5450 033d 0803     		.2byte	0x308
 5451 033f 0C       		.uleb128 0xc
 5452 0340 43090000 		.4byte	.LASF51
 5453 0344 05       		.byte	0x5
 5454 0345 3F       		.byte	0x3f
 5455 0346 FB000000 		.4byte	0xfb
 5456 034a 0C03     		.2byte	0x30c
 5457 034c 0C       		.uleb128 0xc
 5458 034d F7000000 		.4byte	.LASF52
 5459 0351 05       		.byte	0x5
 5460 0352 40       		.byte	0x40
 5461 0353 F6000000 		.4byte	0xf6
 5462 0357 1003     		.2byte	0x310
 5463 0359 0C       		.uleb128 0xc
 5464 035a 4D090000 		.4byte	.LASF53
 5465 035e 05       		.byte	0x5
 5466 035f 41       		.byte	0x41
 5467 0360 7C050000 		.4byte	0x57c
 5468 0364 1403     		.2byte	0x314
 5469 0366 0C       		.uleb128 0xc
 5470 0367 75200000 		.4byte	.LASF54
 5471 036b 05       		.byte	0x5
 5472 036c 42       		.byte	0x42
 5473 036d FB000000 		.4byte	0xfb
 5474 0371 4003     		.2byte	0x340
 5475 0373 0C       		.uleb128 0xc
 5476 0374 97250000 		.4byte	.LASF55
 5477 0378 05       		.byte	0x5
 5478 0379 43       		.byte	0x43
 5479 037a FB000000 		.4byte	0xfb
 5480 037e 4403     		.2byte	0x344
 5481 0380 0C       		.uleb128 0xc
 5482 0381 57090000 		.4byte	.LASF56
 5483 0385 05       		.byte	0x5
 5484 0386 44       		.byte	0x44
ARM GAS  C:\Users\49148\AppData\Local\Temp\ccVXiEAG.s 			page 125


 5485 0387 86050000 		.4byte	0x586
 5486 038b 4803     		.2byte	0x348
 5487 038d 0C       		.uleb128 0xc
 5488 038e 56130000 		.4byte	.LASF57
 5489 0392 05       		.byte	0x5
 5490 0393 45       		.byte	0x45
 5491 0394 8B050000 		.4byte	0x58b
 5492 0398 0004     		.2byte	0x400
 5493 039a 0C       		.uleb128 0xc
 5494 039b 61090000 		.4byte	.LASF58
 5495 039f 05       		.byte	0x5
 5496 03a0 46       		.byte	0x46
 5497 03a1 95050000 		.4byte	0x595
 5498 03a5 000C     		.2byte	0xc00
 5499 03a7 0C       		.uleb128 0xc
 5500 03a8 23010000 		.4byte	.LASF59
 5501 03ac 05       		.byte	0x5
 5502 03ad 47       		.byte	0x47
 5503 03ae FB000000 		.4byte	0xfb
 5504 03b2 000E     		.2byte	0xe00
 5505 03b4 0C       		.uleb128 0xc
 5506 03b5 F61B0000 		.4byte	.LASF60
 5507 03b9 05       		.byte	0x5
 5508 03ba 48       		.byte	0x48
 5509 03bb 9F050000 		.4byte	0x59f
 5510 03bf 040E     		.2byte	0xe04
 5511 03c1 0C       		.uleb128 0xc
 5512 03c2 6B210000 		.4byte	.LASF61
 5513 03c6 05       		.byte	0x5
 5514 03c7 49       		.byte	0x49
 5515 03c8 F6000000 		.4byte	0xf6
 5516 03cc 800E     		.2byte	0xe80
 5517 03ce 0C       		.uleb128 0xc
 5518 03cf 011C0000 		.4byte	.LASF62
 5519 03d3 05       		.byte	0x5
 5520 03d4 4A       		.byte	0x4a
 5521 03d5 FB000000 		.4byte	0xfb
 5522 03d9 840E     		.2byte	0xe84
 5523 03db 0C       		.uleb128 0xc
 5524 03dc 34170000 		.4byte	.LASF63
 5525 03e0 05       		.byte	0x5
 5526 03e1 4B       		.byte	0x4b
 5527 03e2 F6000000 		.4byte	0xf6
 5528 03e6 880E     		.2byte	0xe88
 5529 03e8 0C       		.uleb128 0xc
 5530 03e9 A21E0000 		.4byte	.LASF64
 5531 03ed 05       		.byte	0x5
 5532 03ee 4C       		.byte	0x4c
 5533 03ef FB000000 		.4byte	0xfb
 5534 03f3 8C0E     		.2byte	0xe8c
 5535 03f5 0C       		.uleb128 0xc
 5536 03f6 0C1C0000 		.4byte	.LASF65
 5537 03fa 05       		.byte	0x5
 5538 03fb 4D       		.byte	0x4d
 5539 03fc A9050000 		.4byte	0x5a9
 5540 0400 900E     		.2byte	0xe90
 5541 0402 0C       		.uleb128 0xc
ARM GAS  C:\Users\49148\AppData\Local\Temp\ccVXiEAG.s 			page 126


 5542 0403 0F1A0000 		.4byte	.LASF66
 5543 0407 05       		.byte	0x5
 5544 0408 4E       		.byte	0x4e
 5545 0409 F6000000 		.4byte	0xf6
 5546 040d C00E     		.2byte	0xec0
 5547 040f 0C       		.uleb128 0xc
 5548 0410 171C0000 		.4byte	.LASF67
 5549 0414 05       		.byte	0x5
 5550 0415 4F       		.byte	0x4f
 5551 0416 FB000000 		.4byte	0xfb
 5552 041a C40E     		.2byte	0xec4
 5553 041c 0C       		.uleb128 0xc
 5554 041d FA180000 		.4byte	.LASF68
 5555 0421 05       		.byte	0x5
 5556 0422 50       		.byte	0x50
 5557 0423 F6000000 		.4byte	0xf6
 5558 0427 C80E     		.2byte	0xec8
 5559 0429 0C       		.uleb128 0xc
 5560 042a 6B1F0000 		.4byte	.LASF69
 5561 042e 05       		.byte	0x5
 5562 042f 51       		.byte	0x51
 5563 0430 FB000000 		.4byte	0xfb
 5564 0434 CC0E     		.2byte	0xecc
 5565 0436 0C       		.uleb128 0xc
 5566 0437 221C0000 		.4byte	.LASF70
 5567 043b 05       		.byte	0x5
 5568 043c 52       		.byte	0x52
 5569 043d B3050000 		.4byte	0x5b3
 5570 0441 D00E     		.2byte	0xed0
 5571 0443 0C       		.uleb128 0xc
 5572 0444 24030000 		.4byte	.LASF71
 5573 0448 05       		.byte	0x5
 5574 0449 53       		.byte	0x53
 5575 044a F6000000 		.4byte	0xf6
 5576 044e 000F     		.2byte	0xf00
 5577 0450 0C       		.uleb128 0xc
 5578 0451 601F0000 		.4byte	.LASF72
 5579 0455 05       		.byte	0x5
 5580 0456 54       		.byte	0x54
 5581 0457 F6000000 		.4byte	0xf6
 5582 045b 040F     		.2byte	0xf04
 5583 045d 0C       		.uleb128 0xc
 5584 045e 62100000 		.4byte	.LASF73
 5585 0462 05       		.byte	0x5
 5586 0463 55       		.byte	0x55
 5587 0464 F6000000 		.4byte	0xf6
 5588 0468 080F     		.2byte	0xf08
 5589 046a 0C       		.uleb128 0xc
 5590 046b 23140000 		.4byte	.LASF74
 5591 046f 05       		.byte	0x5
 5592 0470 56       		.byte	0x56
 5593 0471 FB000000 		.4byte	0xfb
 5594 0475 0C0F     		.2byte	0xf0c
 5595 0477 0C       		.uleb128 0xc
 5596 0478 2D1C0000 		.4byte	.LASF75
 5597 047c 05       		.byte	0x5
 5598 047d 57       		.byte	0x57
ARM GAS  C:\Users\49148\AppData\Local\Temp\ccVXiEAG.s 			page 127


 5599 047e BD050000 		.4byte	0x5bd
 5600 0482 100F     		.2byte	0xf10
 5601 0484 0C       		.uleb128 0xc
 5602 0485 DD0A0000 		.4byte	.LASF76
 5603 0489 05       		.byte	0x5
 5604 048a 58       		.byte	0x58
 5605 048b F6000000 		.4byte	0xf6
 5606 048f 400F     		.2byte	0xf40
 5607 0491 0C       		.uleb128 0xc
 5608 0492 BA210000 		.4byte	.LASF77
 5609 0496 05       		.byte	0x5
 5610 0497 59       		.byte	0x59
 5611 0498 F6000000 		.4byte	0xf6
 5612 049c 440F     		.2byte	0xf44
 5613 049e 0C       		.uleb128 0xc
 5614 049f EF1E0000 		.4byte	.LASF78
 5615 04a3 05       		.byte	0x5
 5616 04a4 5A       		.byte	0x5a
 5617 04a5 F6000000 		.4byte	0xf6
 5618 04a9 480F     		.2byte	0xf48
 5619 04ab 0C       		.uleb128 0xc
 5620 04ac 85190000 		.4byte	.LASF79
 5621 04b0 05       		.byte	0x5
 5622 04b1 5B       		.byte	0x5b
 5623 04b2 FB000000 		.4byte	0xfb
 5624 04b6 4C0F     		.2byte	0xf4c
 5625 04b8 0C       		.uleb128 0xc
 5626 04b9 C0260000 		.4byte	.LASF80
 5627 04bd 05       		.byte	0x5
 5628 04be 5C       		.byte	0x5c
 5629 04bf C7050000 		.4byte	0x5c7
 5630 04c3 500F     		.2byte	0xf50
 5631 04c5 0C       		.uleb128 0xc
 5632 04c6 65060000 		.4byte	.LASF81
 5633 04ca 05       		.byte	0x5
 5634 04cb 5D       		.byte	0x5d
 5635 04cc F6000000 		.4byte	0xf6
 5636 04d0 800F     		.2byte	0xf80
 5637 04d2 0C       		.uleb128 0xc
 5638 04d3 861D0000 		.4byte	.LASF82
 5639 04d7 05       		.byte	0x5
 5640 04d8 5E       		.byte	0x5e
 5641 04d9 F6000000 		.4byte	0xf6
 5642 04dd 840F     		.2byte	0xf84
 5643 04df 0C       		.uleb128 0xc
 5644 04e0 14090000 		.4byte	.LASF83
 5645 04e4 05       		.byte	0x5
 5646 04e5 5F       		.byte	0x5f
 5647 04e6 F6000000 		.4byte	0xf6
 5648 04ea 880F     		.2byte	0xf88
 5649 04ec 0C       		.uleb128 0xc
 5650 04ed 8C060000 		.4byte	.LASF84
 5651 04f1 05       		.byte	0x5
 5652 04f2 60       		.byte	0x60
 5653 04f3 FB000000 		.4byte	0xfb
 5654 04f7 8C0F     		.2byte	0xf8c
 5655 04f9 0C       		.uleb128 0xc
ARM GAS  C:\Users\49148\AppData\Local\Temp\ccVXiEAG.s 			page 128


 5656 04fa 591C0000 		.4byte	.LASF85
 5657 04fe 05       		.byte	0x5
 5658 04ff 61       		.byte	0x61
 5659 0500 D1050000 		.4byte	0x5d1
 5660 0504 900F     		.2byte	0xf90
 5661 0506 0C       		.uleb128 0xc
 5662 0507 D7030000 		.4byte	.LASF86
 5663 050b 05       		.byte	0x5
 5664 050c 62       		.byte	0x62
 5665 050d F6000000 		.4byte	0xf6
 5666 0511 C00F     		.2byte	0xfc0
 5667 0513 0C       		.uleb128 0xc
 5668 0514 6C070000 		.4byte	.LASF87
 5669 0518 05       		.byte	0x5
 5670 0519 63       		.byte	0x63
 5671 051a F6000000 		.4byte	0xf6
 5672 051e C40F     		.2byte	0xfc4
 5673 0520 0C       		.uleb128 0xc
 5674 0521 D2040000 		.4byte	.LASF88
 5675 0525 05       		.byte	0x5
 5676 0526 64       		.byte	0x64
 5677 0527 F6000000 		.4byte	0xf6
 5678 052b C80F     		.2byte	0xfc8
 5679 052d 0C       		.uleb128 0xc
 5680 052e 8C1F0000 		.4byte	.LASF89
 5681 0532 05       		.byte	0x5
 5682 0533 65       		.byte	0x65
 5683 0534 FB000000 		.4byte	0xfb
 5684 0538 CC0F     		.2byte	0xfcc
 5685 053a 00       		.byte	0
 5686 053b 05       		.uleb128 0x5
 5687 053c 00010000 		.4byte	0x100
 5688 0540 06       		.uleb128 0x6
 5689 0541 3B050000 		.4byte	0x53b
 5690 0545 05       		.uleb128 0x5
 5691 0546 10010000 		.4byte	0x110
 5692 054a 06       		.uleb128 0x6
 5693 054b 45050000 		.4byte	0x545
 5694 054f 05       		.uleb128 0x5
 5695 0550 50010000 		.4byte	0x150
 5696 0554 06       		.uleb128 0x6
 5697 0555 4F050000 		.4byte	0x54f
 5698 0559 05       		.uleb128 0x5
 5699 055a C1010000 		.4byte	0x1c1
 5700 055e 06       		.uleb128 0x6
 5701 055f 59050000 		.4byte	0x559
 5702 0563 05       		.uleb128 0x5
 5703 0564 30010000 		.4byte	0x130
 5704 0568 06       		.uleb128 0x6
 5705 0569 63050000 		.4byte	0x563
 5706 056d 05       		.uleb128 0x5
 5707 056e 90010000 		.4byte	0x190
 5708 0572 06       		.uleb128 0x6
 5709 0573 6D050000 		.4byte	0x56d
 5710 0577 05       		.uleb128 0x5
 5711 0578 80010000 		.4byte	0x180
 5712 057c 06       		.uleb128 0x6
ARM GAS  C:\Users\49148\AppData\Local\Temp\ccVXiEAG.s 			page 129


 5713 057d 77050000 		.4byte	0x577
 5714 0581 05       		.uleb128 0x5
 5715 0582 A0010000 		.4byte	0x1a0
 5716 0586 06       		.uleb128 0x6
 5717 0587 81050000 		.4byte	0x581
 5718 058b 05       		.uleb128 0x5
 5719 058c B0010000 		.4byte	0x1b0
 5720 0590 05       		.uleb128 0x5
 5721 0591 20010000 		.4byte	0x120
 5722 0595 06       		.uleb128 0x6
 5723 0596 90050000 		.4byte	0x590
 5724 059a 05       		.uleb128 0x5
 5725 059b 40010000 		.4byte	0x140
 5726 059f 06       		.uleb128 0x6
 5727 05a0 9A050000 		.4byte	0x59a
 5728 05a4 05       		.uleb128 0x5
 5729 05a5 60010000 		.4byte	0x160
 5730 05a9 06       		.uleb128 0x6
 5731 05aa A4050000 		.4byte	0x5a4
 5732 05ae 05       		.uleb128 0x5
 5733 05af 60010000 		.4byte	0x160
 5734 05b3 06       		.uleb128 0x6
 5735 05b4 AE050000 		.4byte	0x5ae
 5736 05b8 05       		.uleb128 0x5
 5737 05b9 60010000 		.4byte	0x160
 5738 05bd 06       		.uleb128 0x6
 5739 05be B8050000 		.4byte	0x5b8
 5740 05c2 05       		.uleb128 0x5
 5741 05c3 60010000 		.4byte	0x160
 5742 05c7 06       		.uleb128 0x6
 5743 05c8 C2050000 		.4byte	0x5c2
 5744 05cc 05       		.uleb128 0x5
 5745 05cd 60010000 		.4byte	0x160
 5746 05d1 06       		.uleb128 0x6
 5747 05d2 CC050000 		.4byte	0x5cc
 5748 05d6 03       		.uleb128 0x3
 5749 05d7 641C0000 		.4byte	.LASF90
 5750 05db 05       		.byte	0x5
 5751 05dc 66       		.byte	0x66
 5752 05dd D1010000 		.4byte	0x1d1
 5753 05e1 0D       		.uleb128 0xd
 5754 05e2 DF180000 		.4byte	.LASF91
 5755 05e6 06       		.byte	0x6
 5756 05e7 4F06     		.2byte	0x64f
 5757 05e9 D6050000 		.4byte	0x5d6
 5758 05ed 02       		.uleb128 0x2
 5759 05ee 08       		.byte	0x8
 5760 05ef 04       		.byte	0x4
 5761 05f0 6E190000 		.4byte	.LASF92
 5762 05f4 0E       		.uleb128 0xe
 5763 05f5 B8       		.byte	0xb8
 5764 05f6 07       		.byte	0x7
 5765 05f7 34       		.byte	0x34
 5766 05f8 050A0000 		.4byte	0xa05
 5767 05fc 0B       		.uleb128 0xb
 5768 05fd 13130000 		.4byte	.LASF93
 5769 0601 07       		.byte	0x7
ARM GAS  C:\Users\49148\AppData\Local\Temp\ccVXiEAG.s 			page 130


 5770 0602 37       		.byte	0x37
 5771 0603 E4000000 		.4byte	0xe4
 5772 0607 00       		.byte	0
 5773 0608 0B       		.uleb128 0xb
 5774 0609 D5080000 		.4byte	.LASF94
 5775 060d 07       		.byte	0x7
 5776 060e 38       		.byte	0x38
 5777 060f E4000000 		.4byte	0xe4
 5778 0613 04       		.byte	0x4
 5779 0614 0B       		.uleb128 0xb
 5780 0615 A30E0000 		.4byte	.LASF95
 5781 0619 07       		.byte	0x7
 5782 061a 39       		.byte	0x39
 5783 061b E4000000 		.4byte	0xe4
 5784 061f 08       		.byte	0x8
 5785 0620 0B       		.uleb128 0xb
 5786 0621 3B0C0000 		.4byte	.LASF96
 5787 0625 07       		.byte	0x7
 5788 0626 3A       		.byte	0x3a
 5789 0627 E4000000 		.4byte	0xe4
 5790 062b 0C       		.byte	0xc
 5791 062c 0B       		.uleb128 0xb
 5792 062d 1D130000 		.4byte	.LASF97
 5793 0631 07       		.byte	0x7
 5794 0632 3B       		.byte	0x3b
 5795 0633 E4000000 		.4byte	0xe4
 5796 0637 10       		.byte	0x10
 5797 0638 0B       		.uleb128 0xb
 5798 0639 BE010000 		.4byte	.LASF98
 5799 063d 07       		.byte	0x7
 5800 063e 3C       		.byte	0x3c
 5801 063f E4000000 		.4byte	0xe4
 5802 0643 14       		.byte	0x14
 5803 0644 0B       		.uleb128 0xb
 5804 0645 E61E0000 		.4byte	.LASF99
 5805 0649 07       		.byte	0x7
 5806 064a 3D       		.byte	0x3d
 5807 064b E4000000 		.4byte	0xe4
 5808 064f 18       		.byte	0x18
 5809 0650 0B       		.uleb128 0xb
 5810 0651 880A0000 		.4byte	.LASF100
 5811 0655 07       		.byte	0x7
 5812 0656 3E       		.byte	0x3e
 5813 0657 E4000000 		.4byte	0xe4
 5814 065b 1C       		.byte	0x1c
 5815 065c 0B       		.uleb128 0xb
 5816 065d 8F250000 		.4byte	.LASF101
 5817 0661 07       		.byte	0x7
 5818 0662 3F       		.byte	0x3f
 5819 0663 E4000000 		.4byte	0xe4
 5820 0667 20       		.byte	0x20
 5821 0668 0B       		.uleb128 0xb
 5822 0669 5F000000 		.4byte	.LASF102
 5823 066d 07       		.byte	0x7
 5824 066e 40       		.byte	0x40
 5825 066f E4000000 		.4byte	0xe4
 5826 0673 24       		.byte	0x24
ARM GAS  C:\Users\49148\AppData\Local\Temp\ccVXiEAG.s 			page 131


 5827 0674 0B       		.uleb128 0xb
 5828 0675 99100000 		.4byte	.LASF103
 5829 0679 07       		.byte	0x7
 5830 067a 43       		.byte	0x43
 5831 067b B8000000 		.4byte	0xb8
 5832 067f 28       		.byte	0x28
 5833 0680 0B       		.uleb128 0xb
 5834 0681 6B140000 		.4byte	.LASF104
 5835 0685 07       		.byte	0x7
 5836 0686 44       		.byte	0x44
 5837 0687 B8000000 		.4byte	0xb8
 5838 068b 29       		.byte	0x29
 5839 068c 0B       		.uleb128 0xb
 5840 068d 0D0C0000 		.4byte	.LASF105
 5841 0691 07       		.byte	0x7
 5842 0692 45       		.byte	0x45
 5843 0693 B8000000 		.4byte	0xb8
 5844 0697 2A       		.byte	0x2a
 5845 0698 0B       		.uleb128 0xb
 5846 0699 5E160000 		.4byte	.LASF106
 5847 069d 07       		.byte	0x7
 5848 069e 46       		.byte	0x46
 5849 069f B8000000 		.4byte	0xb8
 5850 06a3 2B       		.byte	0x2b
 5851 06a4 0B       		.uleb128 0xb
 5852 06a5 E5220000 		.4byte	.LASF107
 5853 06a9 07       		.byte	0x7
 5854 06aa 47       		.byte	0x47
 5855 06ab B8000000 		.4byte	0xb8
 5856 06af 2C       		.byte	0x2c
 5857 06b0 0B       		.uleb128 0xb
 5858 06b1 4A280000 		.4byte	.LASF108
 5859 06b5 07       		.byte	0x7
 5860 06b6 48       		.byte	0x48
 5861 06b7 B8000000 		.4byte	0xb8
 5862 06bb 2D       		.byte	0x2d
 5863 06bc 0B       		.uleb128 0xb
 5864 06bd 26130000 		.4byte	.LASF109
 5865 06c1 07       		.byte	0x7
 5866 06c2 49       		.byte	0x49
 5867 06c3 B8000000 		.4byte	0xb8
 5868 06c7 2E       		.byte	0x2e
 5869 06c8 0B       		.uleb128 0xb
 5870 06c9 13210000 		.4byte	.LASF110
 5871 06cd 07       		.byte	0x7
 5872 06ce 4A       		.byte	0x4a
 5873 06cf B8000000 		.4byte	0xb8
 5874 06d3 2F       		.byte	0x2f
 5875 06d4 0B       		.uleb128 0xb
 5876 06d5 C8200000 		.4byte	.LASF111
 5877 06d9 07       		.byte	0x7
 5878 06da 4B       		.byte	0x4b
 5879 06db B8000000 		.4byte	0xb8
 5880 06df 30       		.byte	0x30
 5881 06e0 0B       		.uleb128 0xb
 5882 06e1 CD150000 		.4byte	.LASF112
 5883 06e5 07       		.byte	0x7
ARM GAS  C:\Users\49148\AppData\Local\Temp\ccVXiEAG.s 			page 132


 5884 06e6 4E       		.byte	0x4e
 5885 06e7 B8000000 		.4byte	0xb8
 5886 06eb 31       		.byte	0x31
 5887 06ec 0B       		.uleb128 0xb
 5888 06ed 7E1F0000 		.4byte	.LASF113
 5889 06f1 07       		.byte	0x7
 5890 06f2 4F       		.byte	0x4f
 5891 06f3 B8000000 		.4byte	0xb8
 5892 06f7 32       		.byte	0x32
 5893 06f8 0B       		.uleb128 0xb
 5894 06f9 651D0000 		.4byte	.LASF114
 5895 06fd 07       		.byte	0x7
 5896 06fe 50       		.byte	0x50
 5897 06ff B8000000 		.4byte	0xb8
 5898 0703 33       		.byte	0x33
 5899 0704 0B       		.uleb128 0xb
 5900 0705 7F0F0000 		.4byte	.LASF115
 5901 0709 07       		.byte	0x7
 5902 070a 51       		.byte	0x51
 5903 070b B8000000 		.4byte	0xb8
 5904 070f 34       		.byte	0x34
 5905 0710 0B       		.uleb128 0xb
 5906 0711 000C0000 		.4byte	.LASF116
 5907 0715 07       		.byte	0x7
 5908 0716 52       		.byte	0x52
 5909 0717 C3000000 		.4byte	0xc3
 5910 071b 36       		.byte	0x36
 5911 071c 0B       		.uleb128 0xb
 5912 071d DC100000 		.4byte	.LASF117
 5913 0721 07       		.byte	0x7
 5914 0722 53       		.byte	0x53
 5915 0723 C3000000 		.4byte	0xc3
 5916 0727 38       		.byte	0x38
 5917 0728 0B       		.uleb128 0xb
 5918 0729 7B0E0000 		.4byte	.LASF118
 5919 072d 07       		.byte	0x7
 5920 072e 54       		.byte	0x54
 5921 072f C3000000 		.4byte	0xc3
 5922 0733 3A       		.byte	0x3a
 5923 0734 0B       		.uleb128 0xb
 5924 0735 C8010000 		.4byte	.LASF119
 5925 0739 07       		.byte	0x7
 5926 073a 55       		.byte	0x55
 5927 073b B8000000 		.4byte	0xb8
 5928 073f 3C       		.byte	0x3c
 5929 0740 0B       		.uleb128 0xb
 5930 0741 1B1A0000 		.4byte	.LASF120
 5931 0745 07       		.byte	0x7
 5932 0746 56       		.byte	0x56
 5933 0747 B8000000 		.4byte	0xb8
 5934 074b 3D       		.byte	0x3d
 5935 074c 0B       		.uleb128 0xb
 5936 074d 3D030000 		.4byte	.LASF121
 5937 0751 07       		.byte	0x7
 5938 0752 57       		.byte	0x57
 5939 0753 B8000000 		.4byte	0xb8
 5940 0757 3E       		.byte	0x3e
ARM GAS  C:\Users\49148\AppData\Local\Temp\ccVXiEAG.s 			page 133


 5941 0758 0B       		.uleb128 0xb
 5942 0759 E6070000 		.4byte	.LASF122
 5943 075d 07       		.byte	0x7
 5944 075e 58       		.byte	0x58
 5945 075f B8000000 		.4byte	0xb8
 5946 0763 3F       		.byte	0x3f
 5947 0764 0B       		.uleb128 0xb
 5948 0765 E8110000 		.4byte	.LASF123
 5949 0769 07       		.byte	0x7
 5950 076a 59       		.byte	0x59
 5951 076b B8000000 		.4byte	0xb8
 5952 076f 40       		.byte	0x40
 5953 0770 0B       		.uleb128 0xb
 5954 0771 70130000 		.4byte	.LASF124
 5955 0775 07       		.byte	0x7
 5956 0776 5A       		.byte	0x5a
 5957 0777 B8000000 		.4byte	0xb8
 5958 077b 41       		.byte	0x41
 5959 077c 0B       		.uleb128 0xb
 5960 077d 11100000 		.4byte	.LASF125
 5961 0781 07       		.byte	0x7
 5962 0782 5B       		.byte	0x5b
 5963 0783 B8000000 		.4byte	0xb8
 5964 0787 42       		.byte	0x42
 5965 0788 0B       		.uleb128 0xb
 5966 0789 44240000 		.4byte	.LASF126
 5967 078d 07       		.byte	0x7
 5968 078e 5C       		.byte	0x5c
 5969 078f B8000000 		.4byte	0xb8
 5970 0793 43       		.byte	0x43
 5971 0794 0B       		.uleb128 0xb
 5972 0795 0D1F0000 		.4byte	.LASF127
 5973 0799 07       		.byte	0x7
 5974 079a 5D       		.byte	0x5d
 5975 079b B8000000 		.4byte	0xb8
 5976 079f 44       		.byte	0x44
 5977 07a0 0B       		.uleb128 0xb
 5978 07a1 FB1E0000 		.4byte	.LASF128
 5979 07a5 07       		.byte	0x7
 5980 07a6 5E       		.byte	0x5e
 5981 07a7 E4000000 		.4byte	0xe4
 5982 07ab 48       		.byte	0x48
 5983 07ac 0B       		.uleb128 0xb
 5984 07ad 6E010000 		.4byte	.LASF129
 5985 07b1 07       		.byte	0x7
 5986 07b2 5F       		.byte	0x5f
 5987 07b3 E4000000 		.4byte	0xe4
 5988 07b7 4C       		.byte	0x4c
 5989 07b8 0B       		.uleb128 0xb
 5990 07b9 C6140000 		.4byte	.LASF130
 5991 07bd 07       		.byte	0x7
 5992 07be 60       		.byte	0x60
 5993 07bf B8000000 		.4byte	0xb8
 5994 07c3 50       		.byte	0x50
 5995 07c4 0B       		.uleb128 0xb
 5996 07c5 87120000 		.4byte	.LASF131
 5997 07c9 07       		.byte	0x7
ARM GAS  C:\Users\49148\AppData\Local\Temp\ccVXiEAG.s 			page 134


 5998 07ca 61       		.byte	0x61
 5999 07cb B8000000 		.4byte	0xb8
 6000 07cf 51       		.byte	0x51
 6001 07d0 0B       		.uleb128 0xb
 6002 07d1 5D260000 		.4byte	.LASF132
 6003 07d5 07       		.byte	0x7
 6004 07d6 62       		.byte	0x62
 6005 07d7 B8000000 		.4byte	0xb8
 6006 07db 52       		.byte	0x52
 6007 07dc 0B       		.uleb128 0xb
 6008 07dd 70220000 		.4byte	.LASF133
 6009 07e1 07       		.byte	0x7
 6010 07e2 63       		.byte	0x63
 6011 07e3 B8000000 		.4byte	0xb8
 6012 07e7 53       		.byte	0x53
 6013 07e8 0B       		.uleb128 0xb
 6014 07e9 EA180000 		.4byte	.LASF134
 6015 07ed 07       		.byte	0x7
 6016 07ee 64       		.byte	0x64
 6017 07ef B8000000 		.4byte	0xb8
 6018 07f3 54       		.byte	0x54
 6019 07f4 0B       		.uleb128 0xb
 6020 07f5 36280000 		.4byte	.LASF135
 6021 07f9 07       		.byte	0x7
 6022 07fa 65       		.byte	0x65
 6023 07fb B8000000 		.4byte	0xb8
 6024 07ff 55       		.byte	0x55
 6025 0800 0B       		.uleb128 0xb
 6026 0801 7F210000 		.4byte	.LASF136
 6027 0805 07       		.byte	0x7
 6028 0806 66       		.byte	0x66
 6029 0807 B8000000 		.4byte	0xb8
 6030 080b 56       		.byte	0x56
 6031 080c 0B       		.uleb128 0xb
 6032 080d A61A0000 		.4byte	.LASF137
 6033 0811 07       		.byte	0x7
 6034 0812 67       		.byte	0x67
 6035 0813 B8000000 		.4byte	0xb8
 6036 0817 57       		.byte	0x57
 6037 0818 0B       		.uleb128 0xb
 6038 0819 D7140000 		.4byte	.LASF138
 6039 081d 07       		.byte	0x7
 6040 081e 68       		.byte	0x68
 6041 081f B8000000 		.4byte	0xb8
 6042 0823 58       		.byte	0x58
 6043 0824 0B       		.uleb128 0xb
 6044 0825 E10D0000 		.4byte	.LASF139
 6045 0829 07       		.byte	0x7
 6046 082a 69       		.byte	0x69
 6047 082b B8000000 		.4byte	0xb8
 6048 082f 59       		.byte	0x59
 6049 0830 0B       		.uleb128 0xb
 6050 0831 9B280000 		.4byte	.LASF140
 6051 0835 07       		.byte	0x7
 6052 0836 6E       		.byte	0x6e
 6053 0837 CE000000 		.4byte	0xce
 6054 083b 5A       		.byte	0x5a
ARM GAS  C:\Users\49148\AppData\Local\Temp\ccVXiEAG.s 			page 135


 6055 083c 0B       		.uleb128 0xb
 6056 083d 20110000 		.4byte	.LASF141
 6057 0841 07       		.byte	0x7
 6058 0842 6F       		.byte	0x6f
 6059 0843 CE000000 		.4byte	0xce
 6060 0847 5C       		.byte	0x5c
 6061 0848 0B       		.uleb128 0xb
 6062 0849 CF130000 		.4byte	.LASF142
 6063 084d 07       		.byte	0x7
 6064 084e 70       		.byte	0x70
 6065 084f B8000000 		.4byte	0xb8
 6066 0853 5E       		.byte	0x5e
 6067 0854 0B       		.uleb128 0xb
 6068 0855 85010000 		.4byte	.LASF143
 6069 0859 07       		.byte	0x7
 6070 085a 71       		.byte	0x71
 6071 085b B8000000 		.4byte	0xb8
 6072 085f 5F       		.byte	0x5f
 6073 0860 0B       		.uleb128 0xb
 6074 0861 DF030000 		.4byte	.LASF144
 6075 0865 07       		.byte	0x7
 6076 0866 72       		.byte	0x72
 6077 0867 B8000000 		.4byte	0xb8
 6078 086b 60       		.byte	0x60
 6079 086c 0B       		.uleb128 0xb
 6080 086d AF180000 		.4byte	.LASF145
 6081 0871 07       		.byte	0x7
 6082 0872 73       		.byte	0x73
 6083 0873 E4000000 		.4byte	0xe4
 6084 0877 64       		.byte	0x64
 6085 0878 0B       		.uleb128 0xb
 6086 0879 F3260000 		.4byte	.LASF146
 6087 087d 07       		.byte	0x7
 6088 087e 76       		.byte	0x76
 6089 087f CE000000 		.4byte	0xce
 6090 0883 68       		.byte	0x68
 6091 0884 0B       		.uleb128 0xb
 6092 0885 43060000 		.4byte	.LASF147
 6093 0889 07       		.byte	0x7
 6094 088a 77       		.byte	0x77
 6095 088b CE000000 		.4byte	0xce
 6096 088f 6A       		.byte	0x6a
 6097 0890 0B       		.uleb128 0xb
 6098 0891 750C0000 		.4byte	.LASF148
 6099 0895 07       		.byte	0x7
 6100 0896 78       		.byte	0x78
 6101 0897 CE000000 		.4byte	0xce
 6102 089b 6C       		.byte	0x6c
 6103 089c 0B       		.uleb128 0xb
 6104 089d 9B060000 		.4byte	.LASF149
 6105 08a1 07       		.byte	0x7
 6106 08a2 79       		.byte	0x79
 6107 08a3 CE000000 		.4byte	0xce
 6108 08a7 6E       		.byte	0x6e
 6109 08a8 0B       		.uleb128 0xb
 6110 08a9 671E0000 		.4byte	.LASF150
 6111 08ad 07       		.byte	0x7
ARM GAS  C:\Users\49148\AppData\Local\Temp\ccVXiEAG.s 			page 136


 6112 08ae 7B       		.byte	0x7b
 6113 08af B8000000 		.4byte	0xb8
 6114 08b3 70       		.byte	0x70
 6115 08b4 0B       		.uleb128 0xb
 6116 08b5 D30E0000 		.4byte	.LASF151
 6117 08b9 07       		.byte	0x7
 6118 08ba 7C       		.byte	0x7c
 6119 08bb B8000000 		.4byte	0xb8
 6120 08bf 71       		.byte	0x71
 6121 08c0 0B       		.uleb128 0xb
 6122 08c1 4B080000 		.4byte	.LASF152
 6123 08c5 07       		.byte	0x7
 6124 08c6 7D       		.byte	0x7d
 6125 08c7 B8000000 		.4byte	0xb8
 6126 08cb 72       		.byte	0x72
 6127 08cc 0B       		.uleb128 0xb
 6128 08cd 6D260000 		.4byte	.LASF153
 6129 08d1 07       		.byte	0x7
 6130 08d2 7E       		.byte	0x7e
 6131 08d3 B8000000 		.4byte	0xb8
 6132 08d7 73       		.byte	0x73
 6133 08d8 0B       		.uleb128 0xb
 6134 08d9 6D060000 		.4byte	.LASF154
 6135 08dd 07       		.byte	0x7
 6136 08de 80       		.byte	0x80
 6137 08df CE000000 		.4byte	0xce
 6138 08e3 74       		.byte	0x74
 6139 08e4 0B       		.uleb128 0xb
 6140 08e5 74120000 		.4byte	.LASF155
 6141 08e9 07       		.byte	0x7
 6142 08ea 81       		.byte	0x81
 6143 08eb CE000000 		.4byte	0xce
 6144 08ef 76       		.byte	0x76
 6145 08f0 0B       		.uleb128 0xb
 6146 08f1 F4140000 		.4byte	.LASF156
 6147 08f5 07       		.byte	0x7
 6148 08f6 82       		.byte	0x82
 6149 08f7 CE000000 		.4byte	0xce
 6150 08fb 78       		.byte	0x78
 6151 08fc 0B       		.uleb128 0xb
 6152 08fd 711D0000 		.4byte	.LASF157
 6153 0901 07       		.byte	0x7
 6154 0902 83       		.byte	0x83
 6155 0903 CE000000 		.4byte	0xce
 6156 0907 7A       		.byte	0x7a
 6157 0908 0B       		.uleb128 0xb
 6158 0909 B0160000 		.4byte	.LASF158
 6159 090d 07       		.byte	0x7
 6160 090e 86       		.byte	0x86
 6161 090f B8000000 		.4byte	0xb8
 6162 0913 7C       		.byte	0x7c
 6163 0914 0B       		.uleb128 0xb
 6164 0915 13030000 		.4byte	.LASF159
 6165 0919 07       		.byte	0x7
 6166 091a 87       		.byte	0x87
 6167 091b B8000000 		.4byte	0xb8
 6168 091f 7D       		.byte	0x7d
ARM GAS  C:\Users\49148\AppData\Local\Temp\ccVXiEAG.s 			page 137


 6169 0920 0B       		.uleb128 0xb
 6170 0921 900E0000 		.4byte	.LASF160
 6171 0925 07       		.byte	0x7
 6172 0926 88       		.byte	0x88
 6173 0927 B8000000 		.4byte	0xb8
 6174 092b 7E       		.byte	0x7e
 6175 092c 0B       		.uleb128 0xb
 6176 092d 57140000 		.4byte	.LASF161
 6177 0931 07       		.byte	0x7
 6178 0932 89       		.byte	0x89
 6179 0933 B8000000 		.4byte	0xb8
 6180 0937 7F       		.byte	0x7f
 6181 0938 0B       		.uleb128 0xb
 6182 0939 F1220000 		.4byte	.LASF162
 6183 093d 07       		.byte	0x7
 6184 093e 8A       		.byte	0x8a
 6185 093f B8000000 		.4byte	0xb8
 6186 0943 80       		.byte	0x80
 6187 0944 0B       		.uleb128 0xb
 6188 0945 5E0C0000 		.4byte	.LASF163
 6189 0949 07       		.byte	0x7
 6190 094a 8D       		.byte	0x8d
 6191 094b E4000000 		.4byte	0xe4
 6192 094f 84       		.byte	0x84
 6193 0950 0B       		.uleb128 0xb
 6194 0951 371D0000 		.4byte	.LASF164
 6195 0955 07       		.byte	0x7
 6196 0956 8E       		.byte	0x8e
 6197 0957 E4000000 		.4byte	0xe4
 6198 095b 88       		.byte	0x88
 6199 095c 0B       		.uleb128 0xb
 6200 095d A9250000 		.4byte	.LASF165
 6201 0961 07       		.byte	0x7
 6202 0962 8F       		.byte	0x8f
 6203 0963 E4000000 		.4byte	0xe4
 6204 0967 8C       		.byte	0x8c
 6205 0968 0B       		.uleb128 0xb
 6206 0969 6A000000 		.4byte	.LASF166
 6207 096d 07       		.byte	0x7
 6208 096e 90       		.byte	0x90
 6209 096f E4000000 		.4byte	0xe4
 6210 0973 90       		.byte	0x90
 6211 0974 0B       		.uleb128 0xb
 6212 0975 A40D0000 		.4byte	.LASF167
 6213 0979 07       		.byte	0x7
 6214 097a 91       		.byte	0x91
 6215 097b E4000000 		.4byte	0xe4
 6216 097f 94       		.byte	0x94
 6217 0980 0B       		.uleb128 0xb
 6218 0981 520A0000 		.4byte	.LASF168
 6219 0985 07       		.byte	0x7
 6220 0986 92       		.byte	0x92
 6221 0987 E4000000 		.4byte	0xe4
 6222 098b 98       		.byte	0x98
 6223 098c 0B       		.uleb128 0xb
 6224 098d 910A0000 		.4byte	.LASF169
 6225 0991 07       		.byte	0x7
ARM GAS  C:\Users\49148\AppData\Local\Temp\ccVXiEAG.s 			page 138


 6226 0992 93       		.byte	0x93
 6227 0993 E4000000 		.4byte	0xe4
 6228 0997 9C       		.byte	0x9c
 6229 0998 0B       		.uleb128 0xb
 6230 0999 99120000 		.4byte	.LASF170
 6231 099d 07       		.byte	0x7
 6232 099e 94       		.byte	0x94
 6233 099f E4000000 		.4byte	0xe4
 6234 09a3 A0       		.byte	0xa0
 6235 09a4 0B       		.uleb128 0xb
 6236 09a5 380D0000 		.4byte	.LASF171
 6237 09a9 07       		.byte	0x7
 6238 09aa 95       		.byte	0x95
 6239 09ab CE000000 		.4byte	0xce
 6240 09af A4       		.byte	0xa4
 6241 09b0 0B       		.uleb128 0xb
 6242 09b1 710D0000 		.4byte	.LASF172
 6243 09b5 07       		.byte	0x7
 6244 09b6 96       		.byte	0x96
 6245 09b7 CE000000 		.4byte	0xce
 6246 09bb A6       		.byte	0xa6
 6247 09bc 0B       		.uleb128 0xb
 6248 09bd 61080000 		.4byte	.LASF173
 6249 09c1 07       		.byte	0x7
 6250 09c2 97       		.byte	0x97
 6251 09c3 CE000000 		.4byte	0xce
 6252 09c7 A8       		.byte	0xa8
 6253 09c8 0B       		.uleb128 0xb
 6254 09c9 921D0000 		.4byte	.LASF174
 6255 09cd 07       		.byte	0x7
 6256 09ce 98       		.byte	0x98
 6257 09cf CE000000 		.4byte	0xce
 6258 09d3 AA       		.byte	0xaa
 6259 09d4 0B       		.uleb128 0xb
 6260 09d5 C5160000 		.4byte	.LASF175
 6261 09d9 07       		.byte	0x7
 6262 09da 99       		.byte	0x99
 6263 09db CE000000 		.4byte	0xce
 6264 09df AC       		.byte	0xac
 6265 09e0 0B       		.uleb128 0xb
 6266 09e1 54100000 		.4byte	.LASF176
 6267 09e5 07       		.byte	0x7
 6268 09e6 9A       		.byte	0x9a
 6269 09e7 CE000000 		.4byte	0xce
 6270 09eb AE       		.byte	0xae
 6271 09ec 0B       		.uleb128 0xb
 6272 09ed B2260000 		.4byte	.LASF177
 6273 09f1 07       		.byte	0x7
 6274 09f2 9D       		.byte	0x9d
 6275 09f3 CE000000 		.4byte	0xce
 6276 09f7 B0       		.byte	0xb0
 6277 09f8 0B       		.uleb128 0xb
 6278 09f9 950C0000 		.4byte	.LASF178
 6279 09fd 07       		.byte	0x7
 6280 09fe 9E       		.byte	0x9e
 6281 09ff E4000000 		.4byte	0xe4
 6282 0a03 B4       		.byte	0xb4
ARM GAS  C:\Users\49148\AppData\Local\Temp\ccVXiEAG.s 			page 139


 6283 0a04 00       		.byte	0
 6284 0a05 03       		.uleb128 0x3
 6285 0a06 06140000 		.4byte	.LASF179
 6286 0a0a 07       		.byte	0x7
 6287 0a0b 9F       		.byte	0x9f
 6288 0a0c F4050000 		.4byte	0x5f4
 6289 0a10 02       		.uleb128 0x2
 6290 0a11 01       		.byte	0x1
 6291 0a12 08       		.byte	0x8
 6292 0a13 C50A0000 		.4byte	.LASF180
 6293 0a17 02       		.uleb128 0x2
 6294 0a18 04       		.byte	0x4
 6295 0a19 04       		.byte	0x4
 6296 0a1a 73150000 		.4byte	.LASF181
 6297 0a1e 02       		.uleb128 0x2
 6298 0a1f 08       		.byte	0x8
 6299 0a20 04       		.byte	0x4
 6300 0a21 50140000 		.4byte	.LASF182
 6301 0a25 0D       		.uleb128 0xd
 6302 0a26 C2200000 		.4byte	.LASF183
 6303 0a2a 08       		.byte	0x8
 6304 0a2b EA03     		.2byte	0x3ea
 6305 0a2d B8000000 		.4byte	0xb8
 6306 0a31 0D       		.uleb128 0xd
 6307 0a32 31020000 		.4byte	.LASF184
 6308 0a36 08       		.byte	0x8
 6309 0a37 EC03     		.2byte	0x3ec
 6310 0a39 E4000000 		.4byte	0xe4
 6311 0a3d 0F       		.uleb128 0xf
 6312 0a3e 04       		.byte	0x4
 6313 0a3f 02       		.uleb128 0x2
 6314 0a40 01       		.byte	0x1
 6315 0a41 02       		.byte	0x2
 6316 0a42 820A0000 		.4byte	.LASF185
 6317 0a46 10       		.uleb128 0x10
 6318 0a47 01       		.byte	0x1
 6319 0a48 49000000 		.4byte	0x49
 6320 0a4c 09       		.byte	0x9
 6321 0a4d 1304     		.2byte	0x413
 6322 0a4f 6C0A0000 		.4byte	0xa6c
 6323 0a53 11       		.uleb128 0x11
 6324 0a54 88170000 		.4byte	.LASF186
 6325 0a58 00       		.byte	0
 6326 0a59 11       		.uleb128 0x11
 6327 0a5a 80200000 		.4byte	.LASF187
 6328 0a5e 01       		.byte	0x1
 6329 0a5f 11       		.uleb128 0x11
 6330 0a60 DF170000 		.4byte	.LASF188
 6331 0a64 02       		.byte	0x2
 6332 0a65 11       		.uleb128 0x11
 6333 0a66 6E100000 		.4byte	.LASF189
 6334 0a6a 03       		.byte	0x3
 6335 0a6b 00       		.byte	0
 6336 0a6c 0D       		.uleb128 0xd
 6337 0a6d 85110000 		.4byte	.LASF190
 6338 0a71 09       		.byte	0x9
 6339 0a72 1804     		.2byte	0x418
ARM GAS  C:\Users\49148\AppData\Local\Temp\ccVXiEAG.s 			page 140


 6340 0a74 460A0000 		.4byte	0xa46
 6341 0a78 12       		.uleb128 0x12
 6342 0a79 78       		.byte	0x78
 6343 0a7a 09       		.byte	0x9
 6344 0a7b 0205     		.2byte	0x502
 6345 0a7d 450B0000 		.4byte	0xb45
 6346 0a81 13       		.uleb128 0x13
 6347 0a82 FD090000 		.4byte	.LASF191
 6348 0a86 09       		.byte	0x9
 6349 0a87 0405     		.2byte	0x504
 6350 0a89 E4000000 		.4byte	0xe4
 6351 0a8d 00       		.byte	0
 6352 0a8e 13       		.uleb128 0x13
 6353 0a8f 7F1C0000 		.4byte	.LASF192
 6354 0a93 09       		.byte	0x9
 6355 0a94 0505     		.2byte	0x505
 6356 0a96 E4000000 		.4byte	0xe4
 6357 0a9a 04       		.byte	0x4
 6358 0a9b 13       		.uleb128 0x13
 6359 0a9c 16140000 		.4byte	.LASF193
 6360 0aa0 09       		.byte	0x9
 6361 0aa1 0605     		.2byte	0x506
 6362 0aa3 E4000000 		.4byte	0xe4
 6363 0aa7 08       		.byte	0x8
 6364 0aa8 13       		.uleb128 0x13
 6365 0aa9 7E160000 		.4byte	.LASF194
 6366 0aad 09       		.byte	0x9
 6367 0aae 0705     		.2byte	0x507
 6368 0ab0 E4000000 		.4byte	0xe4
 6369 0ab4 0C       		.byte	0xc
 6370 0ab5 13       		.uleb128 0x13
 6371 0ab6 8A180000 		.4byte	.LASF195
 6372 0aba 09       		.byte	0x9
 6373 0abb 0805     		.2byte	0x508
 6374 0abd E4000000 		.4byte	0xe4
 6375 0ac1 10       		.byte	0x10
 6376 0ac2 13       		.uleb128 0x13
 6377 0ac3 0B250000 		.4byte	.LASF196
 6378 0ac7 09       		.byte	0x9
 6379 0ac8 0905     		.2byte	0x509
 6380 0aca 6C0A0000 		.4byte	0xa6c
 6381 0ace 14       		.byte	0x14
 6382 0acf 13       		.uleb128 0x13
 6383 0ad0 6F0F0000 		.4byte	.LASF197
 6384 0ad4 09       		.byte	0x9
 6385 0ad5 0A05     		.2byte	0x50a
 6386 0ad7 E4000000 		.4byte	0xe4
 6387 0adb 18       		.byte	0x18
 6388 0adc 13       		.uleb128 0x13
 6389 0add 95000000 		.4byte	.LASF198
 6390 0ae1 09       		.byte	0x9
 6391 0ae2 0B05     		.2byte	0x50b
 6392 0ae4 450B0000 		.4byte	0xb45
 6393 0ae8 1C       		.byte	0x1c
 6394 0ae9 13       		.uleb128 0x13
 6395 0aea A51F0000 		.4byte	.LASF199
 6396 0aee 09       		.byte	0x9
ARM GAS  C:\Users\49148\AppData\Local\Temp\ccVXiEAG.s 			page 141


 6397 0aef 0C05     		.2byte	0x50c
 6398 0af1 E4000000 		.4byte	0xe4
 6399 0af5 5C       		.byte	0x5c
 6400 0af6 13       		.uleb128 0x13
 6401 0af7 8F090000 		.4byte	.LASF200
 6402 0afb 09       		.byte	0x9
 6403 0afc 0D05     		.2byte	0x50d
 6404 0afe E4000000 		.4byte	0xe4
 6405 0b02 60       		.byte	0x60
 6406 0b03 13       		.uleb128 0x13
 6407 0b04 25050000 		.4byte	.LASF201
 6408 0b08 09       		.byte	0x9
 6409 0b09 0E05     		.2byte	0x50e
 6410 0b0b E4000000 		.4byte	0xe4
 6411 0b0f 64       		.byte	0x64
 6412 0b10 13       		.uleb128 0x13
 6413 0b11 4F200000 		.4byte	.LASF202
 6414 0b15 09       		.byte	0x9
 6415 0b16 0F05     		.2byte	0x50f
 6416 0b18 E4000000 		.4byte	0xe4
 6417 0b1c 68       		.byte	0x68
 6418 0b1d 13       		.uleb128 0x13
 6419 0b1e 11230000 		.4byte	.LASF203
 6420 0b22 09       		.byte	0x9
 6421 0b23 1005     		.2byte	0x510
 6422 0b25 E4000000 		.4byte	0xe4
 6423 0b29 6C       		.byte	0x6c
 6424 0b2a 13       		.uleb128 0x13
 6425 0b2b F71A0000 		.4byte	.LASF204
 6426 0b2f 09       		.byte	0x9
 6427 0b30 1105     		.2byte	0x511
 6428 0b32 3F0A0000 		.4byte	0xa3f
 6429 0b36 70       		.byte	0x70
 6430 0b37 13       		.uleb128 0x13
 6431 0b38 460A0000 		.4byte	.LASF205
 6432 0b3c 09       		.byte	0x9
 6433 0b3d 1205     		.2byte	0x512
 6434 0b3f E4000000 		.4byte	0xe4
 6435 0b43 74       		.byte	0x74
 6436 0b44 00       		.byte	0
 6437 0b45 07       		.uleb128 0x7
 6438 0b46 E4000000 		.4byte	0xe4
 6439 0b4a 550B0000 		.4byte	0xb55
 6440 0b4e 08       		.uleb128 0x8
 6441 0b4f EF000000 		.4byte	0xef
 6442 0b53 0F       		.byte	0xf
 6443 0b54 00       		.byte	0
 6444 0b55 0D       		.uleb128 0xd
 6445 0b56 270C0000 		.4byte	.LASF206
 6446 0b5a 09       		.byte	0x9
 6447 0b5b 1305     		.2byte	0x513
 6448 0b5d 780A0000 		.4byte	0xa78
 6449 0b61 10       		.uleb128 0x10
 6450 0b62 04       		.byte	0x4
 6451 0b63 A6000000 		.4byte	0xa6
 6452 0b67 0A       		.byte	0xa
 6453 0b68 DF01     		.2byte	0x1df
ARM GAS  C:\Users\49148\AppData\Local\Temp\ccVXiEAG.s 			page 142


 6454 0b6a BD0B0000 		.4byte	0xbbd
 6455 0b6e 11       		.uleb128 0x11
 6456 0b6f F3130000 		.4byte	.LASF207
 6457 0b73 00       		.byte	0
 6458 0b74 14       		.uleb128 0x14
 6459 0b75 B20E0000 		.4byte	.LASF208
 6460 0b79 0120AA00 		.4byte	0xaa2001
 6461 0b7d 14       		.uleb128 0x14
 6462 0b7e 6E180000 		.4byte	.LASF209
 6463 0b82 0220AA00 		.4byte	0xaa2002
 6464 0b86 14       		.uleb128 0x14
 6465 0b87 E5210000 		.4byte	.LASF210
 6466 0b8b 0320AA00 		.4byte	0xaa2003
 6467 0b8f 14       		.uleb128 0x14
 6468 0b90 E51D0000 		.4byte	.LASF211
 6469 0b94 0420AA00 		.4byte	0xaa2004
 6470 0b98 14       		.uleb128 0x14
 6471 0b99 BD1C0000 		.4byte	.LASF212
 6472 0b9d 0520AA00 		.4byte	0xaa2005
 6473 0ba1 14       		.uleb128 0x14
 6474 0ba2 3C0F0000 		.4byte	.LASF213
 6475 0ba6 0620AA00 		.4byte	0xaa2006
 6476 0baa 14       		.uleb128 0x14
 6477 0bab 30190000 		.4byte	.LASF214
 6478 0baf 0720AA00 		.4byte	0xaa2007
 6479 0bb3 14       		.uleb128 0x14
 6480 0bb4 1E060000 		.4byte	.LASF215
 6481 0bb8 0820AA00 		.4byte	0xaa2008
 6482 0bbc 00       		.byte	0
 6483 0bbd 0D       		.uleb128 0xd
 6484 0bbe 41000000 		.4byte	.LASF216
 6485 0bc2 0A       		.byte	0xa
 6486 0bc3 1102     		.2byte	0x211
 6487 0bc5 610B0000 		.4byte	0xb61
 6488 0bc9 10       		.uleb128 0x10
 6489 0bca 01       		.byte	0x1
 6490 0bcb 49000000 		.4byte	0x49
 6491 0bcf 0A       		.byte	0xa
 6492 0bd0 1D02     		.2byte	0x21d
 6493 0bd2 E30B0000 		.4byte	0xbe3
 6494 0bd6 11       		.uleb128 0x11
 6495 0bd7 35080000 		.4byte	.LASF217
 6496 0bdb 00       		.byte	0
 6497 0bdc 11       		.uleb128 0x11
 6498 0bdd 420E0000 		.4byte	.LASF218
 6499 0be1 01       		.byte	0x1
 6500 0be2 00       		.byte	0
 6501 0be3 0D       		.uleb128 0xd
 6502 0be4 95180000 		.4byte	.LASF219
 6503 0be8 0A       		.byte	0xa
 6504 0be9 2002     		.2byte	0x220
 6505 0beb C90B0000 		.4byte	0xbc9
 6506 0bef 10       		.uleb128 0x10
 6507 0bf0 01       		.byte	0x1
 6508 0bf1 49000000 		.4byte	0x49
 6509 0bf5 0A       		.byte	0xa
 6510 0bf6 2402     		.2byte	0x224
ARM GAS  C:\Users\49148\AppData\Local\Temp\ccVXiEAG.s 			page 143


 6511 0bf8 090C0000 		.4byte	0xc09
 6512 0bfc 11       		.uleb128 0x11
 6513 0bfd D20D0000 		.4byte	.LASF220
 6514 0c01 00       		.byte	0
 6515 0c02 11       		.uleb128 0x11
 6516 0c03 75250000 		.4byte	.LASF221
 6517 0c07 01       		.byte	0x1
 6518 0c08 00       		.byte	0
 6519 0c09 0D       		.uleb128 0xd
 6520 0c0a 1D100000 		.4byte	.LASF222
 6521 0c0e 0A       		.byte	0xa
 6522 0c0f 2702     		.2byte	0x227
 6523 0c11 EF0B0000 		.4byte	0xbef
 6524 0c15 0D       		.uleb128 0xd
 6525 0c16 50180000 		.4byte	.LASF223
 6526 0c1a 0A       		.byte	0xa
 6527 0c1b 3902     		.2byte	0x239
 6528 0c1d 210C0000 		.4byte	0xc21
 6529 0c21 15       		.uleb128 0x15
 6530 0c22 04       		.byte	0x4
 6531 0c23 270C0000 		.4byte	0xc27
 6532 0c27 16       		.uleb128 0x16
 6533 0c28 320C0000 		.4byte	0xc32
 6534 0c2c 17       		.uleb128 0x17
 6535 0c2d E4000000 		.4byte	0xe4
 6536 0c31 00       		.byte	0
 6537 0c32 0D       		.uleb128 0xd
 6538 0c33 7F280000 		.4byte	.LASF224
 6539 0c37 0A       		.byte	0xa
 6540 0c38 4402     		.2byte	0x244
 6541 0c3a 3E0C0000 		.4byte	0xc3e
 6542 0c3e 15       		.uleb128 0x15
 6543 0c3f 04       		.byte	0x4
 6544 0c40 440C0000 		.4byte	0xc44
 6545 0c44 18       		.uleb128 0x18
 6546 0c45 090C0000 		.4byte	0xc09
 6547 0c49 530C0000 		.4byte	0xc53
 6548 0c4d 17       		.uleb128 0x17
 6549 0c4e E4000000 		.4byte	0xe4
 6550 0c52 00       		.byte	0
 6551 0c53 19       		.uleb128 0x19
 6552 0c54 71270000 		.4byte	.LASF248
 6553 0c58 4C       		.byte	0x4c
 6554 0c59 0A       		.byte	0xa
 6555 0c5a C302     		.2byte	0x2c3
 6556 0c5c 720D0000 		.4byte	0xd72
 6557 0c60 13       		.uleb128 0x13
 6558 0c61 1B050000 		.4byte	.LASF225
 6559 0c65 0A       		.byte	0xa
 6560 0c66 C602     		.2byte	0x2c6
 6561 0c68 3F0A0000 		.4byte	0xa3f
 6562 0c6c 00       		.byte	0
 6563 0c6d 13       		.uleb128 0x13
 6564 0c6e ED1A0000 		.4byte	.LASF226
 6565 0c72 0A       		.byte	0xa
 6566 0c73 C702     		.2byte	0x2c7
 6567 0c75 3F0A0000 		.4byte	0xa3f
ARM GAS  C:\Users\49148\AppData\Local\Temp\ccVXiEAG.s 			page 144


 6568 0c79 01       		.byte	0x1
 6569 0c7a 13       		.uleb128 0x13
 6570 0c7b F5020000 		.4byte	.LASF227
 6571 0c7f 0A       		.byte	0xa
 6572 0c80 C902     		.2byte	0x2c9
 6573 0c82 F6000000 		.4byte	0xf6
 6574 0c86 04       		.byte	0x4
 6575 0c87 13       		.uleb128 0x13
 6576 0c88 63220000 		.4byte	.LASF228
 6577 0c8c 0A       		.byte	0xa
 6578 0c8d CB02     		.2byte	0x2cb
 6579 0c8f F6000000 		.4byte	0xf6
 6580 0c93 08       		.byte	0x8
 6581 0c94 13       		.uleb128 0x13
 6582 0c95 15250000 		.4byte	.LASF229
 6583 0c99 0A       		.byte	0xa
 6584 0c9a CC02     		.2byte	0x2cc
 6585 0c9c 3F0A0000 		.4byte	0xa3f
 6586 0ca0 0C       		.byte	0xc
 6587 0ca1 13       		.uleb128 0x13
 6588 0ca2 21250000 		.4byte	.LASF230
 6589 0ca6 0A       		.byte	0xa
 6590 0ca7 CD02     		.2byte	0x2cd
 6591 0ca9 3F0A0000 		.4byte	0xa3f
 6592 0cad 0D       		.byte	0xd
 6593 0cae 13       		.uleb128 0x13
 6594 0caf 29200000 		.4byte	.LASF231
 6595 0cb3 0A       		.byte	0xa
 6596 0cb4 CF02     		.2byte	0x2cf
 6597 0cb6 720D0000 		.4byte	0xd72
 6598 0cba 10       		.byte	0x10
 6599 0cbb 13       		.uleb128 0x13
 6600 0cbc 5E0F0000 		.4byte	.LASF232
 6601 0cc0 0A       		.byte	0xa
 6602 0cc1 D002     		.2byte	0x2d0
 6603 0cc3 E4000000 		.4byte	0xe4
 6604 0cc7 14       		.byte	0x14
 6605 0cc8 13       		.uleb128 0x13
 6606 0cc9 25220000 		.4byte	.LASF233
 6607 0ccd 0A       		.byte	0xa
 6608 0cce D102     		.2byte	0x2d1
 6609 0cd0 F6000000 		.4byte	0xf6
 6610 0cd4 18       		.byte	0x18
 6611 0cd5 13       		.uleb128 0x13
 6612 0cd6 E4130000 		.4byte	.LASF234
 6613 0cda 0A       		.byte	0xa
 6614 0cdb D202     		.2byte	0x2d2
 6615 0cdd F6000000 		.4byte	0xf6
 6616 0ce1 1C       		.byte	0x1c
 6617 0ce2 13       		.uleb128 0x13
 6618 0ce3 E7100000 		.4byte	.LASF235
 6619 0ce7 0A       		.byte	0xa
 6620 0ce8 D402     		.2byte	0x2d4
 6621 0cea F6000000 		.4byte	0xf6
 6622 0cee 20       		.byte	0x20
 6623 0cef 13       		.uleb128 0x13
 6624 0cf0 170C0000 		.4byte	.LASF236
ARM GAS  C:\Users\49148\AppData\Local\Temp\ccVXiEAG.s 			page 145


 6625 0cf4 0A       		.byte	0xa
 6626 0cf5 D502     		.2byte	0x2d5
 6627 0cf7 780D0000 		.4byte	0xd78
 6628 0cfb 24       		.byte	0x24
 6629 0cfc 13       		.uleb128 0x13
 6630 0cfd 85130000 		.4byte	.LASF237
 6631 0d01 0A       		.byte	0xa
 6632 0d02 D702     		.2byte	0x2d7
 6633 0d04 720D0000 		.4byte	0xd72
 6634 0d08 28       		.byte	0x28
 6635 0d09 13       		.uleb128 0x13
 6636 0d0a E7120000 		.4byte	.LASF238
 6637 0d0e 0A       		.byte	0xa
 6638 0d0f D802     		.2byte	0x2d8
 6639 0d11 E4000000 		.4byte	0xe4
 6640 0d15 2C       		.byte	0x2c
 6641 0d16 13       		.uleb128 0x13
 6642 0d17 6D080000 		.4byte	.LASF239
 6643 0d1b 0A       		.byte	0xa
 6644 0d1c D902     		.2byte	0x2d9
 6645 0d1e F6000000 		.4byte	0xf6
 6646 0d22 30       		.byte	0x30
 6647 0d23 13       		.uleb128 0x13
 6648 0d24 840C0000 		.4byte	.LASF240
 6649 0d28 0A       		.byte	0xa
 6650 0d29 DA02     		.2byte	0x2da
 6651 0d2b F6000000 		.4byte	0xf6
 6652 0d2f 34       		.byte	0x34
 6653 0d30 13       		.uleb128 0x13
 6654 0d31 E0080000 		.4byte	.LASF241
 6655 0d35 0A       		.byte	0xa
 6656 0d36 DC02     		.2byte	0x2dc
 6657 0d38 720D0000 		.4byte	0xd72
 6658 0d3c 38       		.byte	0x38
 6659 0d3d 13       		.uleb128 0x13
 6660 0d3e 1E180000 		.4byte	.LASF242
 6661 0d42 0A       		.byte	0xa
 6662 0d43 DD02     		.2byte	0x2dd
 6663 0d45 E4000000 		.4byte	0xe4
 6664 0d49 3C       		.byte	0x3c
 6665 0d4a 13       		.uleb128 0x13
 6666 0d4b 2F260000 		.4byte	.LASF243
 6667 0d4f 0A       		.byte	0xa
 6668 0d50 DE02     		.2byte	0x2de
 6669 0d52 F6000000 		.4byte	0xf6
 6670 0d56 40       		.byte	0x40
 6671 0d57 13       		.uleb128 0x13
 6672 0d58 900F0000 		.4byte	.LASF244
 6673 0d5c 0A       		.byte	0xa
 6674 0d5d E402     		.2byte	0x2e4
 6675 0d5f 150C0000 		.4byte	0xc15
 6676 0d63 44       		.byte	0x44
 6677 0d64 13       		.uleb128 0x13
 6678 0d65 36200000 		.4byte	.LASF245
 6679 0d69 0A       		.byte	0xa
 6680 0d6a EB02     		.2byte	0x2eb
 6681 0d6c 320C0000 		.4byte	0xc32
ARM GAS  C:\Users\49148\AppData\Local\Temp\ccVXiEAG.s 			page 146


 6682 0d70 48       		.byte	0x48
 6683 0d71 00       		.byte	0
 6684 0d72 15       		.uleb128 0x15
 6685 0d73 04       		.byte	0x4
 6686 0d74 B8000000 		.4byte	0xb8
 6687 0d78 05       		.uleb128 0x5
 6688 0d79 3F0A0000 		.4byte	0xa3f
 6689 0d7d 0D       		.uleb128 0xd
 6690 0d7e 76090000 		.4byte	.LASF246
 6691 0d82 0A       		.byte	0xa
 6692 0d83 EE02     		.2byte	0x2ee
 6693 0d85 530C0000 		.4byte	0xc53
 6694 0d89 0D       		.uleb128 0xd
 6695 0d8a B2190000 		.4byte	.LASF247
 6696 0d8e 0B       		.byte	0xb
 6697 0d8f D901     		.2byte	0x1d9
 6698 0d91 210C0000 		.4byte	0xc21
 6699 0d95 19       		.uleb128 0x19
 6700 0d96 00010000 		.4byte	.LASF249
 6701 0d9a 38       		.byte	0x38
 6702 0d9b 0B       		.byte	0xb
 6703 0d9c 7502     		.2byte	0x275
 6704 0d9e 590E0000 		.4byte	0xe59
 6705 0da2 13       		.uleb128 0x13
 6706 0da3 CE020000 		.4byte	.LASF250
 6707 0da7 0B       		.byte	0xb
 6708 0da8 7802     		.2byte	0x278
 6709 0daa F6000000 		.4byte	0xf6
 6710 0dae 00       		.byte	0
 6711 0daf 13       		.uleb128 0x13
 6712 0db0 0F200000 		.4byte	.LASF251
 6713 0db4 0B       		.byte	0xb
 6714 0db5 7902     		.2byte	0x279
 6715 0db7 F6000000 		.4byte	0xf6
 6716 0dbb 04       		.byte	0x4
 6717 0dbc 13       		.uleb128 0x13
 6718 0dbd 67270000 		.4byte	.LASF252
 6719 0dc1 0B       		.byte	0xb
 6720 0dc2 7B02     		.2byte	0x27b
 6721 0dc4 3D0A0000 		.4byte	0xa3d
 6722 0dc8 08       		.byte	0x8
 6723 0dc9 13       		.uleb128 0x13
 6724 0dca D1180000 		.4byte	.LASF253
 6725 0dce 0B       		.byte	0xb
 6726 0dcf 7C02     		.2byte	0x27c
 6727 0dd1 E4000000 		.4byte	0xe4
 6728 0dd5 0C       		.byte	0xc
 6729 0dd6 13       		.uleb128 0x13
 6730 0dd7 12110000 		.4byte	.LASF254
 6731 0ddb 0B       		.byte	0xb
 6732 0ddc 7D02     		.2byte	0x27d
 6733 0dde F6000000 		.4byte	0xf6
 6734 0de2 10       		.byte	0x10
 6735 0de3 13       		.uleb128 0x13
 6736 0de4 2C270000 		.4byte	.LASF255
 6737 0de8 0B       		.byte	0xb
 6738 0de9 7E02     		.2byte	0x27e
ARM GAS  C:\Users\49148\AppData\Local\Temp\ccVXiEAG.s 			page 147


 6739 0deb F6000000 		.4byte	0xf6
 6740 0def 14       		.byte	0x14
 6741 0df0 13       		.uleb128 0x13
 6742 0df1 49010000 		.4byte	.LASF256
 6743 0df5 0B       		.byte	0xb
 6744 0df6 8002     		.2byte	0x280
 6745 0df8 3D0A0000 		.4byte	0xa3d
 6746 0dfc 18       		.byte	0x18
 6747 0dfd 13       		.uleb128 0x13
 6748 0dfe 560B0000 		.4byte	.LASF257
 6749 0e02 0B       		.byte	0xb
 6750 0e03 8102     		.2byte	0x281
 6751 0e05 E4000000 		.4byte	0xe4
 6752 0e09 1C       		.byte	0x1c
 6753 0e0a 13       		.uleb128 0x13
 6754 0e0b EB140000 		.4byte	.LASF258
 6755 0e0f 0B       		.byte	0xb
 6756 0e10 8202     		.2byte	0x282
 6757 0e12 F6000000 		.4byte	0xf6
 6758 0e16 20       		.byte	0x20
 6759 0e17 13       		.uleb128 0x13
 6760 0e18 A11C0000 		.4byte	.LASF259
 6761 0e1c 0B       		.byte	0xb
 6762 0e1d 8402     		.2byte	0x284
 6763 0e1f 3D0A0000 		.4byte	0xa3d
 6764 0e23 24       		.byte	0x24
 6765 0e24 13       		.uleb128 0x13
 6766 0e25 55050000 		.4byte	.LASF260
 6767 0e29 0B       		.byte	0xb
 6768 0e2a 8502     		.2byte	0x285
 6769 0e2c E4000000 		.4byte	0xe4
 6770 0e30 28       		.byte	0x28
 6771 0e31 13       		.uleb128 0x13
 6772 0e32 88100000 		.4byte	.LASF261
 6773 0e36 0B       		.byte	0xb
 6774 0e37 8602     		.2byte	0x286
 6775 0e39 F6000000 		.4byte	0xf6
 6776 0e3d 2C       		.byte	0x2c
 6777 0e3e 13       		.uleb128 0x13
 6778 0e3f 900F0000 		.4byte	.LASF244
 6779 0e43 0B       		.byte	0xb
 6780 0e44 8B02     		.2byte	0x28b
 6781 0e46 890D0000 		.4byte	0xd89
 6782 0e4a 30       		.byte	0x30
 6783 0e4b 13       		.uleb128 0x13
 6784 0e4c 0B210000 		.4byte	.LASF262
 6785 0e50 0B       		.byte	0xb
 6786 0e51 8E02     		.2byte	0x28e
 6787 0e53 E4000000 		.4byte	0xe4
 6788 0e57 34       		.byte	0x34
 6789 0e58 00       		.byte	0
 6790 0e59 0D       		.uleb128 0xd
 6791 0e5a 93130000 		.4byte	.LASF263
 6792 0e5e 0B       		.byte	0xb
 6793 0e5f 9102     		.2byte	0x291
 6794 0e61 950D0000 		.4byte	0xd95
 6795 0e65 1A       		.uleb128 0x1a
ARM GAS  C:\Users\49148\AppData\Local\Temp\ccVXiEAG.s 			page 148


 6796 0e66 B9110000 		.4byte	.LASF264
 6797 0e6a 4C       		.byte	0x4c
 6798 0e6b 0C       		.byte	0xc
 6799 0e6c 2F       		.byte	0x2f
 6800 0e6d 560F0000 		.4byte	0xf56
 6801 0e71 0B       		.uleb128 0xb
 6802 0e72 BE1D0000 		.4byte	.LASF265
 6803 0e76 0C       		.byte	0xc
 6804 0e77 31       		.byte	0x31
 6805 0e78 E4000000 		.4byte	0xe4
 6806 0e7c 00       		.byte	0
 6807 0e7d 0B       		.uleb128 0xb
 6808 0e7e 780B0000 		.4byte	.LASF266
 6809 0e82 0C       		.byte	0xc
 6810 0e83 33       		.byte	0x33
 6811 0e84 E4000000 		.4byte	0xe4
 6812 0e88 04       		.byte	0x4
 6813 0e89 0B       		.uleb128 0xb
 6814 0e8a 450B0000 		.4byte	.LASF267
 6815 0e8e 0C       		.byte	0xc
 6816 0e8f 34       		.byte	0x34
 6817 0e90 E4000000 		.4byte	0xe4
 6818 0e94 08       		.byte	0x8
 6819 0e95 0B       		.uleb128 0xb
 6820 0e96 B8170000 		.4byte	.LASF268
 6821 0e9a 0C       		.byte	0xc
 6822 0e9b 35       		.byte	0x35
 6823 0e9c E4000000 		.4byte	0xe4
 6824 0ea0 0C       		.byte	0xc
 6825 0ea1 0B       		.uleb128 0xb
 6826 0ea2 9F240000 		.4byte	.LASF269
 6827 0ea6 0C       		.byte	0xc
 6828 0ea7 37       		.byte	0x37
 6829 0ea8 E4000000 		.4byte	0xe4
 6830 0eac 10       		.byte	0x10
 6831 0ead 0B       		.uleb128 0xb
 6832 0eae 2B030000 		.4byte	.LASF270
 6833 0eb2 0C       		.byte	0xc
 6834 0eb3 38       		.byte	0x38
 6835 0eb4 E4000000 		.4byte	0xe4
 6836 0eb8 14       		.byte	0x14
 6837 0eb9 0B       		.uleb128 0xb
 6838 0eba 34030000 		.4byte	.LASF271
 6839 0ebe 0C       		.byte	0xc
 6840 0ebf 39       		.byte	0x39
 6841 0ec0 E4000000 		.4byte	0xe4
 6842 0ec4 18       		.byte	0x18
 6843 0ec5 0B       		.uleb128 0xb
 6844 0ec6 6C160000 		.4byte	.LASF272
 6845 0eca 0C       		.byte	0xc
 6846 0ecb 3A       		.byte	0x3a
 6847 0ecc 3F0A0000 		.4byte	0xa3f
 6848 0ed0 1C       		.byte	0x1c
 6849 0ed1 0B       		.uleb128 0xb
 6850 0ed2 AF120000 		.4byte	.LASF273
 6851 0ed6 0C       		.byte	0xc
 6852 0ed7 3C       		.byte	0x3c
ARM GAS  C:\Users\49148\AppData\Local\Temp\ccVXiEAG.s 			page 149


 6853 0ed8 E4000000 		.4byte	0xe4
 6854 0edc 20       		.byte	0x20
 6855 0edd 0B       		.uleb128 0xb
 6856 0ede 38010000 		.4byte	.LASF274
 6857 0ee2 0C       		.byte	0xc
 6858 0ee3 3D       		.byte	0x3d
 6859 0ee4 E4000000 		.4byte	0xe4
 6860 0ee8 24       		.byte	0x24
 6861 0ee9 0B       		.uleb128 0xb
 6862 0eea 1F270000 		.4byte	.LASF275
 6863 0eee 0C       		.byte	0xc
 6864 0eef 3F       		.byte	0x3f
 6865 0ef0 E4000000 		.4byte	0xe4
 6866 0ef4 28       		.byte	0x28
 6867 0ef5 0B       		.uleb128 0xb
 6868 0ef6 55060000 		.4byte	.LASF276
 6869 0efa 0C       		.byte	0xc
 6870 0efb 40       		.byte	0x40
 6871 0efc E4000000 		.4byte	0xe4
 6872 0f00 2C       		.byte	0x2c
 6873 0f01 0B       		.uleb128 0xb
 6874 0f02 13270000 		.4byte	.LASF277
 6875 0f06 0C       		.byte	0xc
 6876 0f07 42       		.byte	0x42
 6877 0f08 E4000000 		.4byte	0xe4
 6878 0f0c 30       		.byte	0x30
 6879 0f0d 0B       		.uleb128 0xb
 6880 0f0e 00200000 		.4byte	.LASF278
 6881 0f12 0C       		.byte	0xc
 6882 0f13 43       		.byte	0x43
 6883 0f14 E4000000 		.4byte	0xe4
 6884 0f18 34       		.byte	0x34
 6885 0f19 0B       		.uleb128 0xb
 6886 0f1a 2B280000 		.4byte	.LASF279
 6887 0f1e 0C       		.byte	0xc
 6888 0f1f 45       		.byte	0x45
 6889 0f20 E4000000 		.4byte	0xe4
 6890 0f24 38       		.byte	0x38
 6891 0f25 0B       		.uleb128 0xb
 6892 0f26 99140000 		.4byte	.LASF280
 6893 0f2a 0C       		.byte	0xc
 6894 0f2b 46       		.byte	0x46
 6895 0f2c E4000000 		.4byte	0xe4
 6896 0f30 3C       		.byte	0x3c
 6897 0f31 0B       		.uleb128 0xb
 6898 0f32 BE250000 		.4byte	.LASF281
 6899 0f36 0C       		.byte	0xc
 6900 0f37 48       		.byte	0x48
 6901 0f38 E4000000 		.4byte	0xe4
 6902 0f3c 40       		.byte	0x40
 6903 0f3d 0B       		.uleb128 0xb
 6904 0f3e C8030000 		.4byte	.LASF282
 6905 0f42 0C       		.byte	0xc
 6906 0f43 49       		.byte	0x49
 6907 0f44 E4000000 		.4byte	0xe4
 6908 0f48 44       		.byte	0x44
 6909 0f49 0B       		.uleb128 0xb
ARM GAS  C:\Users\49148\AppData\Local\Temp\ccVXiEAG.s 			page 150


 6910 0f4a D3160000 		.4byte	.LASF283
 6911 0f4e 0C       		.byte	0xc
 6912 0f4f 4B       		.byte	0x4b
 6913 0f50 E4000000 		.4byte	0xe4
 6914 0f54 48       		.byte	0x48
 6915 0f55 00       		.byte	0
 6916 0f56 03       		.uleb128 0x3
 6917 0f57 C2220000 		.4byte	.LASF284
 6918 0f5b 0C       		.byte	0xc
 6919 0f5c 4C       		.byte	0x4c
 6920 0f5d 650E0000 		.4byte	0xe65
 6921 0f61 15       		.uleb128 0x15
 6922 0f62 04       		.byte	0x4
 6923 0f63 100A0000 		.4byte	0xa10
 6924 0f67 15       		.uleb128 0x15
 6925 0f68 04       		.byte	0x4
 6926 0f69 6D0F0000 		.4byte	0xf6d
 6927 0f6d 06       		.uleb128 0x6
 6928 0f6e 100A0000 		.4byte	0xa10
 6929 0f72 10       		.uleb128 0x10
 6930 0f73 02       		.byte	0x2
 6931 0f74 66000000 		.4byte	0x66
 6932 0f78 0D       		.byte	0xd
 6933 0f79 5401     		.2byte	0x154
 6934 0f7b B2120000 		.4byte	0x12b2
 6935 0f7f 11       		.uleb128 0x11
 6936 0f80 30180000 		.4byte	.LASF285
 6937 0f84 00       		.byte	0
 6938 0f85 1B       		.uleb128 0x1b
 6939 0f86 AB100000 		.4byte	.LASF286
 6940 0f8a 0010     		.2byte	0x1000
 6941 0f8c 1B       		.uleb128 0x1b
 6942 0f8d 97070000 		.4byte	.LASF287
 6943 0f91 0110     		.2byte	0x1001
 6944 0f93 1B       		.uleb128 0x1b
 6945 0f94 5F050000 		.4byte	.LASF288
 6946 0f98 0210     		.2byte	0x1002
 6947 0f9a 1B       		.uleb128 0x1b
 6948 0f9b 31130000 		.4byte	.LASF289
 6949 0f9f 0310     		.2byte	0x1003
 6950 0fa1 1B       		.uleb128 0x1b
 6951 0fa2 00000000 		.4byte	.LASF290
 6952 0fa6 0410     		.2byte	0x1004
 6953 0fa8 1B       		.uleb128 0x1b
 6954 0fa9 DA260000 		.4byte	.LASF291
 6955 0fad 0510     		.2byte	0x1005
 6956 0faf 1B       		.uleb128 0x1b
 6957 0fb0 72020000 		.4byte	.LASF292
 6958 0fb4 0020     		.2byte	0x2000
 6959 0fb6 1B       		.uleb128 0x1b
 6960 0fb7 A4020000 		.4byte	.LASF293
 6961 0fbb 0120     		.2byte	0x2001
 6962 0fbd 1B       		.uleb128 0x1b
 6963 0fbe 99200000 		.4byte	.LASF294
 6964 0fc2 0220     		.2byte	0x2002
 6965 0fc4 1B       		.uleb128 0x1b
 6966 0fc5 D9200000 		.4byte	.LASF295
ARM GAS  C:\Users\49148\AppData\Local\Temp\ccVXiEAG.s 			page 151


 6967 0fc9 0320     		.2byte	0x2003
 6968 0fcb 1B       		.uleb128 0x1b
 6969 0fcc 38020000 		.4byte	.LASF296
 6970 0fd0 0420     		.2byte	0x2004
 6971 0fd2 1B       		.uleb128 0x1b
 6972 0fd3 481B0000 		.4byte	.LASF297
 6973 0fd7 0520     		.2byte	0x2005
 6974 0fd9 1B       		.uleb128 0x1b
 6975 0fda D1190000 		.4byte	.LASF298
 6976 0fde 0620     		.2byte	0x2006
 6977 0fe0 1B       		.uleb128 0x1b
 6978 0fe1 F4270000 		.4byte	.LASF299
 6979 0fe5 0720     		.2byte	0x2007
 6980 0fe7 1B       		.uleb128 0x1b
 6981 0fe8 48150000 		.4byte	.LASF300
 6982 0fec 0820     		.2byte	0x2008
 6983 0fee 1B       		.uleb128 0x1b
 6984 0fef 66240000 		.4byte	.LASF301
 6985 0ff3 0920     		.2byte	0x2009
 6986 0ff5 1B       		.uleb128 0x1b
 6987 0ff6 381C0000 		.4byte	.LASF302
 6988 0ffa 0A20     		.2byte	0x200a
 6989 0ffc 1B       		.uleb128 0x1b
 6990 0ffd A0220000 		.4byte	.LASF303
 6991 1001 0B20     		.2byte	0x200b
 6992 1003 1B       		.uleb128 0x1b
 6993 1004 35100000 		.4byte	.LASF304
 6994 1008 0C20     		.2byte	0x200c
 6995 100a 1B       		.uleb128 0x1b
 6996 100b 831A0000 		.4byte	.LASF305
 6997 100f 0D20     		.2byte	0x200d
 6998 1011 1B       		.uleb128 0x1b
 6999 1012 21070000 		.4byte	.LASF306
 7000 1016 0E20     		.2byte	0x200e
 7001 1018 1B       		.uleb128 0x1b
 7002 1019 C9270000 		.4byte	.LASF307
 7003 101d 0F20     		.2byte	0x200f
 7004 101f 1B       		.uleb128 0x1b
 7005 1020 AA070000 		.4byte	.LASF308
 7006 1024 1020     		.2byte	0x2010
 7007 1026 1B       		.uleb128 0x1b
 7008 1027 EE040000 		.4byte	.LASF309
 7009 102b 1120     		.2byte	0x2011
 7010 102d 1B       		.uleb128 0x1b
 7011 102e 97270000 		.4byte	.LASF310
 7012 1032 1220     		.2byte	0x2012
 7013 1034 1B       		.uleb128 0x1b
 7014 1035 E90A0000 		.4byte	.LASF311
 7015 1039 1320     		.2byte	0x2013
 7016 103b 1B       		.uleb128 0x1b
 7017 103c 4D0D0000 		.4byte	.LASF312
 7018 1040 1420     		.2byte	0x2014
 7019 1042 1B       		.uleb128 0x1b
 7020 1043 050B0000 		.4byte	.LASF313
 7021 1047 1520     		.2byte	0x2015
 7022 1049 1B       		.uleb128 0x1b
 7023 104a 31140000 		.4byte	.LASF314
ARM GAS  C:\Users\49148\AppData\Local\Temp\ccVXiEAG.s 			page 152


 7024 104e 1620     		.2byte	0x2016
 7025 1050 1B       		.uleb128 0x1b
 7026 1051 A8060000 		.4byte	.LASF315
 7027 1055 1720     		.2byte	0x2017
 7028 1057 1B       		.uleb128 0x1b
 7029 1058 9E030000 		.4byte	.LASF316
 7030 105c 0030     		.2byte	0x3000
 7031 105e 1B       		.uleb128 0x1b
 7032 105f 4F010000 		.4byte	.LASF317
 7033 1063 0130     		.2byte	0x3001
 7034 1065 1B       		.uleb128 0x1b
 7035 1066 CC000000 		.4byte	.LASF318
 7036 106a 0230     		.2byte	0x3002
 7037 106c 1B       		.uleb128 0x1b
 7038 106d B0240000 		.4byte	.LASF319
 7039 1071 0330     		.2byte	0x3003
 7040 1073 1B       		.uleb128 0x1b
 7041 1074 E80E0000 		.4byte	.LASF320
 7042 1078 0430     		.2byte	0x3004
 7043 107a 1B       		.uleb128 0x1b
 7044 107b 4C210000 		.4byte	.LASF321
 7045 107f 0530     		.2byte	0x3005
 7046 1081 1B       		.uleb128 0x1b
 7047 1082 48270000 		.4byte	.LASF322
 7048 1086 0630     		.2byte	0x3006
 7049 1088 1B       		.uleb128 0x1b
 7050 1089 D7010000 		.4byte	.LASF323
 7051 108d 0730     		.2byte	0x3007
 7052 108f 1B       		.uleb128 0x1b
 7053 1090 9B010000 		.4byte	.LASF324
 7054 1094 0830     		.2byte	0x3008
 7055 1096 1B       		.uleb128 0x1b
 7056 1097 51120000 		.4byte	.LASF325
 7057 109b 0930     		.2byte	0x3009
 7058 109d 1B       		.uleb128 0x1b
 7059 109e E2240000 		.4byte	.LASF326
 7060 10a2 0A30     		.2byte	0x300a
 7061 10a4 1B       		.uleb128 0x1b
 7062 10a5 711B0000 		.4byte	.LASF327
 7063 10a9 0B30     		.2byte	0x300b
 7064 10ab 1B       		.uleb128 0x1b
 7065 10ac 210B0000 		.4byte	.LASF328
 7066 10b0 0C30     		.2byte	0x300c
 7067 10b2 1B       		.uleb128 0x1b
 7068 10b3 F5110000 		.4byte	.LASF329
 7069 10b7 1130     		.2byte	0x3011
 7070 10b9 1B       		.uleb128 0x1b
 7071 10ba 29210000 		.4byte	.LASF330
 7072 10be 1230     		.2byte	0x3012
 7073 10c0 1B       		.uleb128 0x1b
 7074 10c1 40260000 		.4byte	.LASF331
 7075 10c5 1330     		.2byte	0x3013
 7076 10c7 1B       		.uleb128 0x1b
 7077 10c8 06220000 		.4byte	.LASF332
 7078 10cc 1430     		.2byte	0x3014
 7079 10ce 1B       		.uleb128 0x1b
 7080 10cf 23240000 		.4byte	.LASF333
ARM GAS  C:\Users\49148\AppData\Local\Temp\ccVXiEAG.s 			page 153


 7081 10d3 1530     		.2byte	0x3015
 7082 10d5 1B       		.uleb128 0x1b
 7083 10d6 AC050000 		.4byte	.LASF334
 7084 10da 1630     		.2byte	0x3016
 7085 10dc 1B       		.uleb128 0x1b
 7086 10dd 16150000 		.4byte	.LASF335
 7087 10e1 1730     		.2byte	0x3017
 7088 10e3 1B       		.uleb128 0x1b
 7089 10e4 120D0000 		.4byte	.LASF336
 7090 10e8 1830     		.2byte	0x3018
 7091 10ea 1B       		.uleb128 0x1b
 7092 10eb C7170000 		.4byte	.LASF337
 7093 10ef 1930     		.2byte	0x3019
 7094 10f1 1B       		.uleb128 0x1b
 7095 10f2 0B190000 		.4byte	.LASF338
 7096 10f6 0040     		.2byte	0x4000
 7097 10f8 1B       		.uleb128 0x1b
 7098 10f9 AA150000 		.4byte	.LASF339
 7099 10fd 0140     		.2byte	0x4001
 7100 10ff 1B       		.uleb128 0x1b
 7101 1100 210A0000 		.4byte	.LASF340
 7102 1104 0240     		.2byte	0x4002
 7103 1106 1B       		.uleb128 0x1b
 7104 1107 0A1B0000 		.4byte	.LASF341
 7105 110b 0340     		.2byte	0x4003
 7106 110d 1B       		.uleb128 0x1b
 7107 110e 51190000 		.4byte	.LASF342
 7108 1112 0440     		.2byte	0x4004
 7109 1114 1B       		.uleb128 0x1b
 7110 1115 B7040000 		.4byte	.LASF343
 7111 1119 0540     		.2byte	0x4005
 7112 111b 1B       		.uleb128 0x1b
 7113 111c D71F0000 		.4byte	.LASF344
 7114 1120 0640     		.2byte	0x4006
 7115 1122 1B       		.uleb128 0x1b
 7116 1123 C5210000 		.4byte	.LASF345
 7117 1127 0740     		.2byte	0x4007
 7118 1129 1B       		.uleb128 0x1b
 7119 112a 0C260000 		.4byte	.LASF346
 7120 112e 0840     		.2byte	0x4008
 7121 1130 1B       		.uleb128 0x1b
 7122 1131 D8060000 		.4byte	.LASF347
 7123 1135 0940     		.2byte	0x4009
 7124 1137 1B       		.uleb128 0x1b
 7125 1138 C31A0000 		.4byte	.LASF348
 7126 113c 0A40     		.2byte	0x400a
 7127 113e 1B       		.uleb128 0x1b
 7128 113f E20F0000 		.4byte	.LASF349
 7129 1143 0B40     		.2byte	0x400b
 7130 1145 1B       		.uleb128 0x1b
 7131 1146 5E1A0000 		.4byte	.LASF350
 7132 114a 0C40     		.2byte	0x400c
 7133 114c 1B       		.uleb128 0x1b
 7134 114d DB250000 		.4byte	.LASF351
 7135 1151 0D40     		.2byte	0x400d
 7136 1153 1B       		.uleb128 0x1b
 7137 1154 8B160000 		.4byte	.LASF352
ARM GAS  C:\Users\49148\AppData\Local\Temp\ccVXiEAG.s 			page 154


 7138 1158 0E40     		.2byte	0x400e
 7139 115a 1B       		.uleb128 0x1b
 7140 115b E80C0000 		.4byte	.LASF353
 7141 115f 0F40     		.2byte	0x400f
 7142 1161 1B       		.uleb128 0x1b
 7143 1162 910B0000 		.4byte	.LASF354
 7144 1166 1040     		.2byte	0x4010
 7145 1168 1B       		.uleb128 0x1b
 7146 1169 FE070000 		.4byte	.LASF355
 7147 116d 1140     		.2byte	0x4011
 7148 116f 1B       		.uleb128 0x1b
 7149 1170 071E0000 		.4byte	.LASF356
 7150 1174 1240     		.2byte	0x4012
 7151 1176 1B       		.uleb128 0x1b
 7152 1177 9B090000 		.4byte	.LASF357
 7153 117b 1340     		.2byte	0x4013
 7154 117d 1B       		.uleb128 0x1b
 7155 117e 57280000 		.4byte	.LASF358
 7156 1182 1440     		.2byte	0x4014
 7157 1184 1B       		.uleb128 0x1b
 7158 1185 AB1B0000 		.4byte	.LASF359
 7159 1189 1540     		.2byte	0x4015
 7160 118b 1B       		.uleb128 0x1b
 7161 118c 18040000 		.4byte	.LASF360
 7162 1190 1640     		.2byte	0x4016
 7163 1192 1B       		.uleb128 0x1b
 7164 1193 F6060000 		.4byte	.LASF361
 7165 1197 1740     		.2byte	0x4017
 7166 1199 1B       		.uleb128 0x1b
 7167 119a 91150000 		.4byte	.LASF362
 7168 119e 1840     		.2byte	0x4018
 7169 11a0 1B       		.uleb128 0x1b
 7170 11a1 84260000 		.4byte	.LASF363
 7171 11a5 1940     		.2byte	0x4019
 7172 11a7 1B       		.uleb128 0x1b
 7173 11a8 A71C0000 		.4byte	.LASF364
 7174 11ac 1A40     		.2byte	0x401a
 7175 11ae 1B       		.uleb128 0x1b
 7176 11af FB0D0000 		.4byte	.LASF365
 7177 11b3 0050     		.2byte	0x5000
 7178 11b5 1B       		.uleb128 0x1b
 7179 11b6 10170000 		.4byte	.LASF366
 7180 11ba 0150     		.2byte	0x5001
 7181 11bc 1B       		.uleb128 0x1b
 7182 11bd F3100000 		.4byte	.LASF367
 7183 11c1 0250     		.2byte	0x5002
 7184 11c3 1B       		.uleb128 0x1b
 7185 11c4 8D050000 		.4byte	.LASF368
 7186 11c8 0350     		.2byte	0x5003
 7187 11ca 1B       		.uleb128 0x1b
 7188 11cb D71B0000 		.4byte	.LASF369
 7189 11cf 0450     		.2byte	0x5004
 7190 11d1 1B       		.uleb128 0x1b
 7191 11d2 990F0000 		.4byte	.LASF370
 7192 11d6 0550     		.2byte	0x5005
 7193 11d8 1B       		.uleb128 0x1b
 7194 11d9 1F000000 		.4byte	.LASF371
ARM GAS  C:\Users\49148\AppData\Local\Temp\ccVXiEAG.s 			page 155


 7195 11dd 0650     		.2byte	0x5006
 7196 11df 1B       		.uleb128 0x1b
 7197 11e0 020A0000 		.4byte	.LASF372
 7198 11e4 0750     		.2byte	0x5007
 7199 11e6 1B       		.uleb128 0x1b
 7200 11e7 5D110000 		.4byte	.LASF373
 7201 11eb 0850     		.2byte	0x5008
 7202 11ed 1B       		.uleb128 0x1b
 7203 11ee 29110000 		.4byte	.LASF374
 7204 11f2 0950     		.2byte	0x5009
 7205 11f4 1B       		.uleb128 0x1b
 7206 11f5 C71E0000 		.4byte	.LASF375
 7207 11f9 0A50     		.2byte	0x500a
 7208 11fb 1B       		.uleb128 0x1b
 7209 11fc 5F030000 		.4byte	.LASF376
 7210 1200 0B50     		.2byte	0x500b
 7211 1202 1B       		.uleb128 0x1b
 7212 1203 FA050000 		.4byte	.LASF377
 7213 1207 0C50     		.2byte	0x500c
 7214 1209 1B       		.uleb128 0x1b
 7215 120a 430C0000 		.4byte	.LASF378
 7216 120e 0D50     		.2byte	0x500d
 7217 1210 1B       		.uleb128 0x1b
 7218 1211 93190000 		.4byte	.LASF379
 7219 1215 0E50     		.2byte	0x500e
 7220 1217 1B       		.uleb128 0x1b
 7221 1218 160E0000 		.4byte	.LASF380
 7222 121c 0F50     		.2byte	0x500f
 7223 121e 1B       		.uleb128 0x1b
 7224 121f C0120000 		.4byte	.LASF381
 7225 1223 1050     		.2byte	0x5010
 7226 1225 1B       		.uleb128 0x1b
 7227 1226 F8030000 		.4byte	.LASF382
 7228 122a 1150     		.2byte	0x5011
 7229 122c 1B       		.uleb128 0x1b
 7230 122d C60C0000 		.4byte	.LASF383
 7231 1231 1250     		.2byte	0x5012
 7232 1233 1B       		.uleb128 0x1b
 7233 1234 33050000 		.4byte	.LASF384
 7234 1238 1350     		.2byte	0x5013
 7235 123a 1B       		.uleb128 0x1b
 7236 123b A2080000 		.4byte	.LASF385
 7237 123f 1450     		.2byte	0x5014
 7238 1241 1B       		.uleb128 0x1b
 7239 1242 A7000000 		.4byte	.LASF386
 7240 1246 1550     		.2byte	0x5015
 7241 1248 1B       		.uleb128 0x1b
 7242 1249 B60B0000 		.4byte	.LASF387
 7243 124d 1650     		.2byte	0x5016
 7244 124f 1B       		.uleb128 0x1b
 7245 1250 1E1F0000 		.4byte	.LASF388
 7246 1254 1750     		.2byte	0x5017
 7247 1256 1B       		.uleb128 0x1b
 7248 1257 48040000 		.4byte	.LASF389
 7249 125b 1850     		.2byte	0x5018
 7250 125d 1B       		.uleb128 0x1b
 7251 125e D90B0000 		.4byte	.LASF390
ARM GAS  C:\Users\49148\AppData\Local\Temp\ccVXiEAG.s 			page 156


 7252 1262 0060     		.2byte	0x6000
 7253 1264 1B       		.uleb128 0x1b
 7254 1265 7B1E0000 		.4byte	.LASF391
 7255 1269 0160     		.2byte	0x6001
 7256 126b 1B       		.uleb128 0x1b
 7257 126c BF100000 		.4byte	.LASF392
 7258 1270 0260     		.2byte	0x6002
 7259 1272 1B       		.uleb128 0x1b
 7260 1273 A7140000 		.4byte	.LASF393
 7261 1277 0360     		.2byte	0x6003
 7262 1279 1B       		.uleb128 0x1b
 7263 127a 7B040000 		.4byte	.LASF394
 7264 127e 0460     		.2byte	0x6004
 7265 1280 1B       		.uleb128 0x1b
 7266 1281 261A0000 		.4byte	.LASF395
 7267 1285 0560     		.2byte	0x6005
 7268 1287 1B       		.uleb128 0x1b
 7269 1288 AD130000 		.4byte	.LASF396
 7270 128c 0660     		.2byte	0x6006
 7271 128e 1B       		.uleb128 0x1b
 7272 128f 79140000 		.4byte	.LASF397
 7273 1293 0760     		.2byte	0x6007
 7274 1295 1B       		.uleb128 0x1b
 7275 1296 7E080000 		.4byte	.LASF398
 7276 129a 0860     		.2byte	0x6008
 7277 129c 1B       		.uleb128 0x1b
 7278 129d 570E0000 		.4byte	.LASF399
 7279 12a1 0960     		.2byte	0x6009
 7280 12a3 1B       		.uleb128 0x1b
 7281 12a4 121D0000 		.4byte	.LASF400
 7282 12a8 0A60     		.2byte	0x600a
 7283 12aa 1B       		.uleb128 0x1b
 7284 12ab D7020000 		.4byte	.LASF401
 7285 12af FFFF     		.2byte	0xffff
 7286 12b1 00       		.byte	0
 7287 12b2 12       		.uleb128 0x12
 7288 12b3 02       		.byte	0x2
 7289 12b4 0E       		.byte	0xe
 7290 12b5 6401     		.2byte	0x164
 7291 12b7 D6120000 		.4byte	0x12d6
 7292 12bb 13       		.uleb128 0x13
 7293 12bc 9A040000 		.4byte	.LASF402
 7294 12c0 0E       		.byte	0xe
 7295 12c1 6E01     		.2byte	0x16e
 7296 12c3 B8000000 		.4byte	0xb8
 7297 12c7 00       		.byte	0
 7298 12c8 13       		.uleb128 0x13
 7299 12c9 0D270000 		.4byte	.LASF403
 7300 12cd 0E       		.byte	0xe
 7301 12ce 7201     		.2byte	0x172
 7302 12d0 B8000000 		.4byte	0xb8
 7303 12d4 01       		.byte	0x1
 7304 12d5 00       		.byte	0
 7305 12d6 0D       		.uleb128 0xd
 7306 12d7 AE1F0000 		.4byte	.LASF404
 7307 12db 0E       		.byte	0xe
 7308 12dc 7401     		.2byte	0x174
ARM GAS  C:\Users\49148\AppData\Local\Temp\ccVXiEAG.s 			page 157


 7309 12de B2120000 		.4byte	0x12b2
 7310 12e2 1C       		.uleb128 0x1c
 7311 12e3 01       		.byte	0x1
 7312 12e4 49000000 		.4byte	0x49
 7313 12e8 0F       		.byte	0xf
 7314 12e9 7E       		.byte	0x7e
 7315 12ea 07130000 		.4byte	0x1307
 7316 12ee 11       		.uleb128 0x11
 7317 12ef 45170000 		.4byte	.LASF405
 7318 12f3 00       		.byte	0
 7319 12f4 11       		.uleb128 0x11
 7320 12f5 78070000 		.4byte	.LASF406
 7321 12f9 01       		.byte	0x1
 7322 12fa 11       		.uleb128 0x11
 7323 12fb 46220000 		.4byte	.LASF407
 7324 12ff 02       		.byte	0x2
 7325 1300 11       		.uleb128 0x11
 7326 1301 EA1C0000 		.4byte	.LASF408
 7327 1305 03       		.byte	0x3
 7328 1306 00       		.byte	0
 7329 1307 03       		.uleb128 0x3
 7330 1308 72170000 		.4byte	.LASF409
 7331 130c 0F       		.byte	0xf
 7332 130d 83       		.byte	0x83
 7333 130e E2120000 		.4byte	0x12e2
 7334 1312 1C       		.uleb128 0x1c
 7335 1313 01       		.byte	0x1
 7336 1314 49000000 		.4byte	0x49
 7337 1318 0F       		.byte	0xf
 7338 1319 87       		.byte	0x87
 7339 131a 4F130000 		.4byte	0x134f
 7340 131e 11       		.uleb128 0x11
 7341 131f 3F160000 		.4byte	.LASF410
 7342 1323 00       		.byte	0
 7343 1324 11       		.uleb128 0x11
 7344 1325 FC150000 		.4byte	.LASF411
 7345 1329 01       		.byte	0x1
 7346 132a 11       		.uleb128 0x11
 7347 132b 59200000 		.4byte	.LASF412
 7348 132f 02       		.byte	0x2
 7349 1330 11       		.uleb128 0x11
 7350 1331 27120000 		.4byte	.LASF413
 7351 1335 03       		.byte	0x3
 7352 1336 11       		.uleb128 0x11
 7353 1337 E6160000 		.4byte	.LASF414
 7354 133b 04       		.byte	0x4
 7355 133c 11       		.uleb128 0x11
 7356 133d D3090000 		.4byte	.LASF415
 7357 1341 05       		.byte	0x5
 7358 1342 11       		.uleb128 0x11
 7359 1343 FA010000 		.4byte	.LASF416
 7360 1347 06       		.byte	0x6
 7361 1348 11       		.uleb128 0x11
 7362 1349 CF050000 		.4byte	.LASF417
 7363 134d 07       		.byte	0x7
 7364 134e 00       		.byte	0
 7365 134f 03       		.uleb128 0x3
ARM GAS  C:\Users\49148\AppData\Local\Temp\ccVXiEAG.s 			page 158


 7366 1350 8A1C0000 		.4byte	.LASF418
 7367 1354 0F       		.byte	0xf
 7368 1355 90       		.byte	0x90
 7369 1356 12130000 		.4byte	0x1312
 7370 135a 1C       		.uleb128 0x1c
 7371 135b 01       		.byte	0x1
 7372 135c 49000000 		.4byte	0x49
 7373 1360 10       		.byte	0x10
 7374 1361 29       		.byte	0x29
 7375 1362 A3130000 		.4byte	0x13a3
 7376 1366 11       		.uleb128 0x11
 7377 1367 49250000 		.4byte	.LASF419
 7378 136b 00       		.byte	0
 7379 136c 11       		.uleb128 0x11
 7380 136d 481E0000 		.4byte	.LASF420
 7381 1371 01       		.byte	0x1
 7382 1372 11       		.uleb128 0x11
 7383 1373 2F1E0000 		.4byte	.LASF421
 7384 1377 02       		.byte	0x2
 7385 1378 11       		.uleb128 0x11
 7386 1379 A0170000 		.4byte	.LASF422
 7387 137d 03       		.byte	0x3
 7388 137e 11       		.uleb128 0x11
 7389 137f 79150000 		.4byte	.LASF423
 7390 1383 04       		.byte	0x4
 7391 1384 11       		.uleb128 0x11
 7392 1385 F7170000 		.4byte	.LASF424
 7393 1389 05       		.byte	0x5
 7394 138a 11       		.uleb128 0x11
 7395 138b 34250000 		.4byte	.LASF425
 7396 138f 06       		.byte	0x6
 7397 1390 11       		.uleb128 0x11
 7398 1391 21230000 		.4byte	.LASF426
 7399 1395 07       		.byte	0x7
 7400 1396 11       		.uleb128 0x11
 7401 1397 2D160000 		.4byte	.LASF427
 7402 139b 08       		.byte	0x8
 7403 139c 11       		.uleb128 0x11
 7404 139d 7F000000 		.4byte	.LASF428
 7405 13a1 09       		.byte	0x9
 7406 13a2 00       		.byte	0
 7407 13a3 1C       		.uleb128 0x1c
 7408 13a4 01       		.byte	0x1
 7409 13a5 49000000 		.4byte	0x49
 7410 13a9 11       		.byte	0x11
 7411 13aa 31       		.byte	0x31
 7412 13ab C8130000 		.4byte	0x13c8
 7413 13af 11       		.uleb128 0x11
 7414 13b0 DF040000 		.4byte	.LASF429
 7415 13b4 00       		.byte	0
 7416 13b5 11       		.uleb128 0x11
 7417 13b6 CB260000 		.4byte	.LASF430
 7418 13ba 01       		.byte	0x1
 7419 13bb 11       		.uleb128 0x11
 7420 13bc 95020000 		.4byte	.LASF431
 7421 13c0 02       		.byte	0x2
 7422 13c1 11       		.uleb128 0x11
ARM GAS  C:\Users\49148\AppData\Local\Temp\ccVXiEAG.s 			page 159


 7423 13c2 481A0000 		.4byte	.LASF432
 7424 13c6 03       		.byte	0x3
 7425 13c7 00       		.byte	0
 7426 13c8 0E       		.uleb128 0xe
 7427 13c9 14       		.byte	0x14
 7428 13ca 12       		.byte	0x12
 7429 13cb 3B       		.byte	0x3b
 7430 13cc 0D140000 		.4byte	0x140d
 7431 13d0 0B       		.uleb128 0xb
 7432 13d1 DA070000 		.4byte	.LASF433
 7433 13d5 12       		.byte	0x12
 7434 13d6 3D       		.byte	0x3d
 7435 13d7 E4000000 		.4byte	0xe4
 7436 13db 00       		.byte	0
 7437 13dc 0B       		.uleb128 0xb
 7438 13dd 25020000 		.4byte	.LASF434
 7439 13e1 12       		.byte	0x12
 7440 13e2 3E       		.byte	0x3e
 7441 13e3 E4000000 		.4byte	0xe4
 7442 13e7 04       		.byte	0x4
 7443 13e8 0B       		.uleb128 0xb
 7444 13e9 360E0000 		.4byte	.LASF435
 7445 13ed 12       		.byte	0x12
 7446 13ee 3F       		.byte	0x3f
 7447 13ef 0D140000 		.4byte	0x140d
 7448 13f3 08       		.byte	0x8
 7449 13f4 0B       		.uleb128 0xb
 7450 13f5 F5190000 		.4byte	.LASF436
 7451 13f9 12       		.byte	0x12
 7452 13fa 40       		.byte	0x40
 7453 13fb E4000000 		.4byte	0xe4
 7454 13ff 0C       		.byte	0xc
 7455 1400 0B       		.uleb128 0xb
 7456 1401 43110000 		.4byte	.LASF437
 7457 1405 12       		.byte	0x12
 7458 1406 45       		.byte	0x45
 7459 1407 E4000000 		.4byte	0xe4
 7460 140b 10       		.byte	0x10
 7461 140c 00       		.byte	0
 7462 140d 15       		.uleb128 0x15
 7463 140e 04       		.byte	0x4
 7464 140f 13140000 		.4byte	0x1413
 7465 1413 06       		.uleb128 0x6
 7466 1414 550B0000 		.4byte	0xb55
 7467 1418 03       		.uleb128 0x3
 7468 1419 50230000 		.4byte	.LASF438
 7469 141d 12       		.byte	0x12
 7470 141e 48       		.byte	0x48
 7471 141f C8130000 		.4byte	0x13c8
 7472 1423 1D       		.uleb128 0x1d
 7473 1424 21090000 		.4byte	.LASF442
 7474 1428 01       		.byte	0x1
 7475 1429 3802     		.2byte	0x238
 7476 142b BD0B0000 		.4byte	0xbbd
 7477 142f 00000000 		.4byte	.LFB538
 7478 1433 30000000 		.4byte	.LFE538-.LFB538
 7479 1437 01       		.uleb128 0x1
ARM GAS  C:\Users\49148\AppData\Local\Temp\ccVXiEAG.s 			page 160


 7480 1438 9C       		.byte	0x9c
 7481 1439 6B140000 		.4byte	0x146b
 7482 143d 1E       		.uleb128 0x1e
 7483 143e 09100000 		.4byte	.LASF439
 7484 1442 01       		.byte	0x1
 7485 1443 3802     		.2byte	0x238
 7486 1445 E4000000 		.4byte	0xe4
 7487 1449 02       		.uleb128 0x2
 7488 144a 91       		.byte	0x91
 7489 144b 74       		.sleb128 -12
 7490 144c 1E       		.uleb128 0x1e
 7491 144d 6C150000 		.4byte	.LASF440
 7492 1451 01       		.byte	0x1
 7493 1452 3802     		.2byte	0x238
 7494 1454 E30B0000 		.4byte	0xbe3
 7495 1458 02       		.uleb128 0x2
 7496 1459 91       		.byte	0x91
 7497 145a 73       		.sleb128 -13
 7498 145b 1E       		.uleb128 0x1e
 7499 145c A3040000 		.4byte	.LASF441
 7500 1460 01       		.byte	0x1
 7501 1461 3802     		.2byte	0x238
 7502 1463 E4000000 		.4byte	0xe4
 7503 1467 02       		.uleb128 0x2
 7504 1468 91       		.byte	0x91
 7505 1469 6C       		.sleb128 -20
 7506 146a 00       		.byte	0
 7507 146b 1D       		.uleb128 0x1d
 7508 146c 4F240000 		.4byte	.LASF443
 7509 1470 01       		.byte	0x1
 7510 1471 5202     		.2byte	0x252
 7511 1473 BD0B0000 		.4byte	0xbbd
 7512 1477 00000000 		.4byte	.LFB540
 7513 147b 24000000 		.4byte	.LFE540-.LFB540
 7514 147f 01       		.uleb128 0x1
 7515 1480 9C       		.byte	0x9c
 7516 1481 95140000 		.4byte	0x1495
 7517 1485 1E       		.uleb128 0x1e
 7518 1486 A3040000 		.4byte	.LASF441
 7519 148a 01       		.byte	0x1
 7520 148b 5202     		.2byte	0x252
 7521 148d E4000000 		.4byte	0xe4
 7522 1491 02       		.uleb128 0x2
 7523 1492 91       		.byte	0x91
 7524 1493 74       		.sleb128 -12
 7525 1494 00       		.byte	0
 7526 1495 1D       		.uleb128 0x1d
 7527 1496 481F0000 		.4byte	.LASF444
 7528 149a 01       		.byte	0x1
 7529 149b 6C02     		.2byte	0x26c
 7530 149d BD0B0000 		.4byte	0xbbd
 7531 14a1 00000000 		.4byte	.LFB542
 7532 14a5 2C000000 		.4byte	.LFE542-.LFB542
 7533 14a9 01       		.uleb128 0x1
 7534 14aa 9C       		.byte	0x9c
 7535 14ab CE140000 		.4byte	0x14ce
 7536 14af 1E       		.uleb128 0x1e
ARM GAS  C:\Users\49148\AppData\Local\Temp\ccVXiEAG.s 			page 161


 7537 14b0 D4200000 		.4byte	.LASF445
 7538 14b4 01       		.byte	0x1
 7539 14b5 6C02     		.2byte	0x26c
 7540 14b7 B8000000 		.4byte	0xb8
 7541 14bb 02       		.uleb128 0x2
 7542 14bc 91       		.byte	0x91
 7543 14bd 77       		.sleb128 -9
 7544 14be 1E       		.uleb128 0x1e
 7545 14bf A3040000 		.4byte	.LASF441
 7546 14c3 01       		.byte	0x1
 7547 14c4 6C02     		.2byte	0x26c
 7548 14c6 E4000000 		.4byte	0xe4
 7549 14ca 02       		.uleb128 0x2
 7550 14cb 91       		.byte	0x91
 7551 14cc 70       		.sleb128 -16
 7552 14cd 00       		.byte	0
 7553 14ce 1F       		.uleb128 0x1f
 7554 14cf 42200000 		.4byte	.LASF453
 7555 14d3 02       		.byte	0x2
 7556 14d4 B9       		.byte	0xb9
 7557 14d5 00000000 		.4byte	.LFB627
 7558 14d9 58000000 		.4byte	.LFE627-.LFB627
 7559 14dd 01       		.uleb128 0x1
 7560 14de 9C       		.byte	0x9c
 7561 14df F2140000 		.4byte	0x14f2
 7562 14e3 20       		.uleb128 0x20
 7563 14e4 2D250000 		.4byte	.LASF450
 7564 14e8 02       		.byte	0x2
 7565 14e9 BE       		.byte	0xbe
 7566 14ea F2140000 		.4byte	0x14f2
 7567 14ee 02       		.uleb128 0x2
 7568 14ef 91       		.byte	0x91
 7569 14f0 54       		.sleb128 -44
 7570 14f1 00       		.byte	0
 7571 14f2 07       		.uleb128 0x7
 7572 14f3 250A0000 		.4byte	0xa25
 7573 14f7 02150000 		.4byte	0x1502
 7574 14fb 08       		.uleb128 0x8
 7575 14fc EF000000 		.4byte	0xef
 7576 1500 18       		.byte	0x18
 7577 1501 00       		.byte	0
 7578 1502 21       		.uleb128 0x21
 7579 1503 5E130000 		.4byte	.LASF446
 7580 1507 02       		.byte	0x2
 7581 1508 E3       		.byte	0xe3
 7582 1509 310A0000 		.4byte	0xa31
 7583 150d 00000000 		.4byte	.LFB628
 7584 1511 6E000000 		.4byte	.LFE628-.LFB628
 7585 1515 01       		.uleb128 0x1
 7586 1516 9C       		.byte	0x9c
 7587 1517 78150000 		.4byte	0x1578
 7588 151b 22       		.uleb128 0x22
 7589 151c 62756600 		.ascii	"buf\000"
 7590 1520 02       		.byte	0x2
 7591 1521 E3       		.byte	0xe3
 7592 1522 78150000 		.4byte	0x1578
 7593 1526 02       		.uleb128 0x2
ARM GAS  C:\Users\49148\AppData\Local\Temp\ccVXiEAG.s 			page 162


 7594 1527 91       		.byte	0x91
 7595 1528 6C       		.sleb128 -20
 7596 1529 23       		.uleb128 0x23
 7597 152a 051B0000 		.4byte	.LASF447
 7598 152e 02       		.byte	0x2
 7599 152f E3       		.byte	0xe3
 7600 1530 CE000000 		.4byte	0xce
 7601 1534 02       		.uleb128 0x2
 7602 1535 91       		.byte	0x91
 7603 1536 6A       		.sleb128 -22
 7604 1537 23       		.uleb128 0x23
 7605 1538 05260000 		.4byte	.LASF448
 7606 153c 02       		.byte	0x2
 7607 153d E3       		.byte	0xe3
 7608 153e B8000000 		.4byte	0xb8
 7609 1542 02       		.uleb128 0x2
 7610 1543 91       		.byte	0x91
 7611 1544 69       		.sleb128 -23
 7612 1545 23       		.uleb128 0x23
 7613 1546 7A0A0000 		.4byte	.LASF449
 7614 154a 02       		.byte	0x2
 7615 154b E3       		.byte	0xe3
 7616 154c 3F0A0000 		.4byte	0xa3f
 7617 1550 02       		.uleb128 0x2
 7618 1551 91       		.byte	0x91
 7619 1552 68       		.sleb128 -24
 7620 1553 20       		.uleb128 0x20
 7621 1554 02100000 		.4byte	.LASF451
 7622 1558 02       		.byte	0x2
 7623 1559 E5       		.byte	0xe5
 7624 155a 310A0000 		.4byte	0xa31
 7625 155e 02       		.uleb128 0x2
 7626 155f 91       		.byte	0x91
 7627 1560 74       		.sleb128 -12
 7628 1561 24       		.uleb128 0x24
 7629 1562 38000000 		.4byte	.LBB2
 7630 1566 26000000 		.4byte	.LBE2-.LBB2
 7631 156a 25       		.uleb128 0x25
 7632 156b 6900     		.ascii	"i\000"
 7633 156d 02       		.byte	0x2
 7634 156e EB       		.byte	0xeb
 7635 156f 9F000000 		.4byte	0x9f
 7636 1573 02       		.uleb128 0x2
 7637 1574 91       		.byte	0x91
 7638 1575 70       		.sleb128 -16
 7639 1576 00       		.byte	0
 7640 1577 00       		.byte	0
 7641 1578 15       		.uleb128 0x15
 7642 1579 04       		.byte	0x4
 7643 157a 250A0000 		.4byte	0xa25
 7644 157e 26       		.uleb128 0x26
 7645 157f C0180000 		.4byte	.LASF468
 7646 1583 02       		.byte	0x2
 7647 1584 F7       		.byte	0xf7
 7648 1585 00000000 		.4byte	.LFB629
 7649 1589 48010000 		.4byte	.LFE629-.LFB629
 7650 158d 01       		.uleb128 0x1
ARM GAS  C:\Users\49148\AppData\Local\Temp\ccVXiEAG.s 			page 163


 7651 158e 9C       		.byte	0x9c
 7652 158f BA150000 		.4byte	0x15ba
 7653 1593 22       		.uleb128 0x22
 7654 1594 7800     		.ascii	"x\000"
 7655 1596 02       		.byte	0x2
 7656 1597 F7       		.byte	0xf7
 7657 1598 C3000000 		.4byte	0xc3
 7658 159c 02       		.uleb128 0x2
 7659 159d 91       		.byte	0x91
 7660 159e 76       		.sleb128 -10
 7661 159f 22       		.uleb128 0x22
 7662 15a0 7900     		.ascii	"y\000"
 7663 15a2 02       		.byte	0x2
 7664 15a3 F7       		.byte	0xf7
 7665 15a4 C3000000 		.4byte	0xc3
 7666 15a8 02       		.uleb128 0x2
 7667 15a9 91       		.byte	0x91
 7668 15aa 74       		.sleb128 -12
 7669 15ab 23       		.uleb128 0x23
 7670 15ac B51E0000 		.4byte	.LASF452
 7671 15b0 02       		.byte	0x2
 7672 15b1 F7       		.byte	0xf7
 7673 15b2 CE000000 		.4byte	0xce
 7674 15b6 02       		.uleb128 0x2
 7675 15b7 91       		.byte	0x91
 7676 15b8 72       		.sleb128 -14
 7677 15b9 00       		.byte	0
 7678 15ba 27       		.uleb128 0x27
 7679 15bb C51D0000 		.4byte	.LASF542
 7680 15bf 02       		.byte	0x2
 7681 15c0 0E01     		.2byte	0x10e
 7682 15c2 00000000 		.4byte	.LFB630
 7683 15c6 54000000 		.4byte	.LFE630-.LFB630
 7684 15ca 01       		.uleb128 0x1
 7685 15cb 9C       		.byte	0x9c
 7686 15cc 28       		.uleb128 0x28
 7687 15cd FB020000 		.4byte	.LASF454
 7688 15d1 02       		.byte	0x2
 7689 15d2 1E01     		.2byte	0x11e
 7690 15d4 00000000 		.4byte	.LFB631
 7691 15d8 28000000 		.4byte	.LFE631-.LFB631
 7692 15dc 01       		.uleb128 0x1
 7693 15dd 9C       		.byte	0x9c
 7694 15de 01160000 		.4byte	0x1601
 7695 15e2 1E       		.uleb128 0x1e
 7696 15e3 8C020000 		.4byte	.LASF455
 7697 15e7 02       		.byte	0x2
 7698 15e8 1E01     		.2byte	0x11e
 7699 15ea B8000000 		.4byte	0xb8
 7700 15ee 02       		.uleb128 0x2
 7701 15ef 91       		.byte	0x91
 7702 15f0 6F       		.sleb128 -17
 7703 15f1 29       		.uleb128 0x29
 7704 15f2 2D250000 		.4byte	.LASF450
 7705 15f6 02       		.byte	0x2
 7706 15f7 2001     		.2byte	0x120
 7707 15f9 01160000 		.4byte	0x1601
ARM GAS  C:\Users\49148\AppData\Local\Temp\ccVXiEAG.s 			page 164


 7708 15fd 02       		.uleb128 0x2
 7709 15fe 91       		.byte	0x91
 7710 15ff 74       		.sleb128 -12
 7711 1600 00       		.byte	0
 7712 1601 07       		.uleb128 0x7
 7713 1602 250A0000 		.4byte	0xa25
 7714 1606 11160000 		.4byte	0x1611
 7715 160a 08       		.uleb128 0x8
 7716 160b EF000000 		.4byte	0xef
 7717 160f 01       		.byte	0x1
 7718 1610 00       		.byte	0
 7719 1611 28       		.uleb128 0x28
 7720 1612 4E110000 		.4byte	.LASF456
 7721 1616 02       		.byte	0x2
 7722 1617 2C01     		.2byte	0x12c
 7723 1619 00000000 		.4byte	.LFB632
 7724 161d 36000000 		.4byte	.LFE632-.LFB632
 7725 1621 01       		.uleb128 0x1
 7726 1622 9C       		.byte	0x9c
 7727 1623 46160000 		.4byte	0x1646
 7728 1627 1E       		.uleb128 0x1e
 7729 1628 20120000 		.4byte	.LASF457
 7730 162c 02       		.byte	0x2
 7731 162d 2C01     		.2byte	0x12c
 7732 162f B8000000 		.4byte	0xb8
 7733 1633 02       		.uleb128 0x2
 7734 1634 91       		.byte	0x91
 7735 1635 6F       		.sleb128 -17
 7736 1636 29       		.uleb128 0x29
 7737 1637 2D250000 		.4byte	.LASF450
 7738 163b 02       		.byte	0x2
 7739 163c 2E01     		.2byte	0x12e
 7740 163e 01160000 		.4byte	0x1601
 7741 1642 02       		.uleb128 0x2
 7742 1643 91       		.byte	0x91
 7743 1644 74       		.sleb128 -12
 7744 1645 00       		.byte	0
 7745 1646 28       		.uleb128 0x28
 7746 1647 88270000 		.4byte	.LASF458
 7747 164b 02       		.byte	0x2
 7748 164c 3C01     		.2byte	0x13c
 7749 164e 00000000 		.4byte	.LFB633
 7750 1652 18010000 		.4byte	.LFE633-.LFB633
 7751 1656 01       		.uleb128 0x1
 7752 1657 9C       		.byte	0x9c
 7753 1658 2D170000 		.4byte	0x172d
 7754 165c 2A       		.uleb128 0x2a
 7755 165d 70747200 		.ascii	"ptr\000"
 7756 1661 02       		.byte	0x2
 7757 1662 3E01     		.2byte	0x13e
 7758 1664 720D0000 		.4byte	0xd72
 7759 1668 02       		.uleb128 0x2
 7760 1669 91       		.byte	0x91
 7761 166a 74       		.sleb128 -12
 7762 166b 29       		.uleb128 0x29
 7763 166c 0A1D0000 		.4byte	.LASF459
 7764 1670 02       		.byte	0x2
ARM GAS  C:\Users\49148\AppData\Local\Temp\ccVXiEAG.s 			page 165


 7765 1671 3F01     		.2byte	0x13f
 7766 1673 B8000000 		.4byte	0xb8
 7767 1677 02       		.uleb128 0x2
 7768 1678 91       		.byte	0x91
 7769 1679 71       		.sleb128 -15
 7770 167a 29       		.uleb128 0x29
 7771 167b C00C0000 		.4byte	.LASF460
 7772 167f 02       		.byte	0x2
 7773 1680 4001     		.2byte	0x140
 7774 1682 B8000000 		.4byte	0xb8
 7775 1686 02       		.uleb128 0x2
 7776 1687 91       		.byte	0x91
 7777 1688 70       		.sleb128 -16
 7778 1689 29       		.uleb128 0x29
 7779 168a E6020000 		.4byte	.LASF461
 7780 168e 02       		.byte	0x2
 7781 168f 4201     		.2byte	0x142
 7782 1691 B8000000 		.4byte	0xb8
 7783 1695 02       		.uleb128 0x2
 7784 1696 91       		.byte	0x91
 7785 1697 6F       		.sleb128 -17
 7786 1698 29       		.uleb128 0x29
 7787 1699 C71F0000 		.4byte	.LASF462
 7788 169d 02       		.byte	0x2
 7789 169e 4301     		.2byte	0x143
 7790 16a0 CE000000 		.4byte	0xce
 7791 16a4 02       		.uleb128 0x2
 7792 16a5 91       		.byte	0x91
 7793 16a6 6C       		.sleb128 -20
 7794 16a7 29       		.uleb128 0x29
 7795 16a8 7A190000 		.4byte	.LASF463
 7796 16ac 02       		.byte	0x2
 7797 16ad 4701     		.2byte	0x147
 7798 16af B8000000 		.4byte	0xb8
 7799 16b3 02       		.uleb128 0x2
 7800 16b4 91       		.byte	0x91
 7801 16b5 6B       		.sleb128 -21
 7802 16b6 29       		.uleb128 0x29
 7803 16b7 18010000 		.4byte	.LASF464
 7804 16bb 02       		.byte	0x2
 7805 16bc 4801     		.2byte	0x148
 7806 16be B8000000 		.4byte	0xb8
 7807 16c2 02       		.uleb128 0x2
 7808 16c3 91       		.byte	0x91
 7809 16c4 6A       		.sleb128 -22
 7810 16c5 29       		.uleb128 0x29
 7811 16c6 7C010000 		.4byte	.LASF465
 7812 16ca 02       		.byte	0x2
 7813 16cb 4901     		.2byte	0x149
 7814 16cd B8000000 		.4byte	0xb8
 7815 16d1 02       		.uleb128 0x2
 7816 16d2 91       		.byte	0x91
 7817 16d3 69       		.sleb128 -23
 7818 16d4 24       		.uleb128 0x24
 7819 16d5 58000000 		.4byte	.LBB3
 7820 16d9 A6000000 		.4byte	.LBE3-.LBB3
 7821 16dd 2A       		.uleb128 0x2a
ARM GAS  C:\Users\49148\AppData\Local\Temp\ccVXiEAG.s 			page 166


 7822 16de 7000     		.ascii	"p\000"
 7823 16e0 02       		.byte	0x2
 7824 16e1 4B01     		.2byte	0x14b
 7825 16e3 B8000000 		.4byte	0xb8
 7826 16e7 02       		.uleb128 0x2
 7827 16e8 91       		.byte	0x91
 7828 16e9 73       		.sleb128 -13
 7829 16ea 24       		.uleb128 0x24
 7830 16eb 5E000000 		.4byte	.LBB4
 7831 16ef 92000000 		.4byte	.LBE4-.LBB4
 7832 16f3 29       		.uleb128 0x29
 7833 16f4 C3090000 		.4byte	.LASF466
 7834 16f8 02       		.byte	0x2
 7835 16f9 4D01     		.2byte	0x14d
 7836 16fb B8000000 		.4byte	0xb8
 7837 16ff 02       		.uleb128 0x2
 7838 1700 91       		.byte	0x91
 7839 1701 72       		.sleb128 -14
 7840 1702 2A       		.uleb128 0x2a
 7841 1703 636D6400 		.ascii	"cmd\000"
 7842 1707 02       		.byte	0x2
 7843 1708 5501     		.2byte	0x155
 7844 170a 70010000 		.4byte	0x170
 7845 170e 02       		.uleb128 0x2
 7846 170f 91       		.byte	0x91
 7847 1710 64       		.sleb128 -28
 7848 1711 24       		.uleb128 0x24
 7849 1712 BE000000 		.4byte	.LBB5
 7850 1716 2C000000 		.4byte	.LBE5-.LBB5
 7851 171a 29       		.uleb128 0x29
 7852 171b 95030000 		.4byte	.LASF467
 7853 171f 02       		.byte	0x2
 7854 1720 5E01     		.2byte	0x15e
 7855 1722 B8000000 		.4byte	0xb8
 7856 1726 02       		.uleb128 0x2
 7857 1727 91       		.byte	0x91
 7858 1728 68       		.sleb128 -24
 7859 1729 00       		.byte	0
 7860 172a 00       		.byte	0
 7861 172b 00       		.byte	0
 7862 172c 00       		.byte	0
 7863 172d 2B       		.uleb128 0x2b
 7864 172e DB110000 		.4byte	.LASF469
 7865 1732 02       		.byte	0x2
 7866 1733 6B01     		.2byte	0x16b
 7867 1735 00000000 		.4byte	.LFB634
 7868 1739 4C020000 		.4byte	.LFE634-.LFB634
 7869 173d 01       		.uleb128 0x1
 7870 173e 9C       		.byte	0x9c
 7871 173f 4D180000 		.4byte	0x184d
 7872 1743 2C       		.uleb128 0x2c
 7873 1744 783100   		.ascii	"x1\000"
 7874 1747 02       		.byte	0x2
 7875 1748 6B01     		.2byte	0x16b
 7876 174a C3000000 		.4byte	0xc3
 7877 174e 02       		.uleb128 0x2
 7878 174f 91       		.byte	0x91
ARM GAS  C:\Users\49148\AppData\Local\Temp\ccVXiEAG.s 			page 167


 7879 1750 4E       		.sleb128 -50
 7880 1751 2C       		.uleb128 0x2c
 7881 1752 793100   		.ascii	"y1\000"
 7882 1755 02       		.byte	0x2
 7883 1756 6B01     		.2byte	0x16b
 7884 1758 C3000000 		.4byte	0xc3
 7885 175c 02       		.uleb128 0x2
 7886 175d 91       		.byte	0x91
 7887 175e 4C       		.sleb128 -52
 7888 175f 2C       		.uleb128 0x2c
 7889 1760 783200   		.ascii	"x2\000"
 7890 1763 02       		.byte	0x2
 7891 1764 6B01     		.2byte	0x16b
 7892 1766 C3000000 		.4byte	0xc3
 7893 176a 02       		.uleb128 0x2
 7894 176b 91       		.byte	0x91
 7895 176c 4A       		.sleb128 -54
 7896 176d 2C       		.uleb128 0x2c
 7897 176e 793200   		.ascii	"y2\000"
 7898 1771 02       		.byte	0x2
 7899 1772 6B01     		.2byte	0x16b
 7900 1774 C3000000 		.4byte	0xc3
 7901 1778 02       		.uleb128 0x2
 7902 1779 91       		.byte	0x91
 7903 177a 48       		.sleb128 -56
 7904 177b 1E       		.uleb128 0x1e
 7905 177c B51E0000 		.4byte	.LASF452
 7906 1780 02       		.byte	0x2
 7907 1781 6B01     		.2byte	0x16b
 7908 1783 CE000000 		.4byte	0xce
 7909 1787 02       		.uleb128 0x2
 7910 1788 91       		.byte	0x91
 7911 1789 00       		.sleb128 0
 7912 178a 2D       		.uleb128 0x2d
 7913 178b 2C000000 		.4byte	.LBB6
 7914 178f 70010000 		.4byte	.LBE6-.LBB6
 7915 1793 06180000 		.4byte	0x1806
 7916 1797 29       		.uleb128 0x29
 7917 1798 0C030000 		.4byte	.LASF470
 7918 179c 02       		.byte	0x2
 7919 179d 6F01     		.2byte	0x16f
 7920 179f 720D0000 		.4byte	0xd72
 7921 17a3 02       		.uleb128 0x2
 7922 17a4 91       		.byte	0x91
 7923 17a5 68       		.sleb128 -24
 7924 17a6 29       		.uleb128 0x29
 7925 17a7 E40A0000 		.4byte	.LASF471
 7926 17ab 02       		.byte	0x2
 7927 17ac 7001     		.2byte	0x170
 7928 17ae 720D0000 		.4byte	0xd72
 7929 17b2 02       		.uleb128 0x2
 7930 17b3 91       		.byte	0x91
 7931 17b4 64       		.sleb128 -28
 7932 17b5 2A       		.uleb128 0x2a
 7933 17b6 70747200 		.ascii	"ptr\000"
 7934 17ba 02       		.byte	0x2
 7935 17bb 7101     		.2byte	0x171
ARM GAS  C:\Users\49148\AppData\Local\Temp\ccVXiEAG.s 			page 168


 7936 17bd 720D0000 		.4byte	0xd72
 7937 17c1 02       		.uleb128 0x2
 7938 17c2 91       		.byte	0x91
 7939 17c3 74       		.sleb128 -12
 7940 17c4 24       		.uleb128 0x24
 7941 17c5 72000000 		.4byte	.LBB7
 7942 17c9 20010000 		.4byte	.LBE7-.LBB7
 7943 17cd 29       		.uleb128 0x29
 7944 17ce 80130000 		.4byte	.LASF472
 7945 17d2 02       		.byte	0x2
 7946 17d3 7501     		.2byte	0x175
 7947 17d5 B8000000 		.4byte	0xb8
 7948 17d9 02       		.uleb128 0x2
 7949 17da 91       		.byte	0x91
 7950 17db 73       		.sleb128 -13
 7951 17dc 24       		.uleb128 0x24
 7952 17dd 7A000000 		.4byte	.LBB8
 7953 17e1 56000000 		.4byte	.LBE8-.LBB8
 7954 17e5 29       		.uleb128 0x29
 7955 17e6 E0220000 		.4byte	.LASF473
 7956 17ea 02       		.byte	0x2
 7957 17eb 7801     		.2byte	0x178
 7958 17ed B8000000 		.4byte	0xb8
 7959 17f1 02       		.uleb128 0x2
 7960 17f2 91       		.byte	0x91
 7961 17f3 63       		.sleb128 -29
 7962 17f4 29       		.uleb128 0x29
 7963 17f5 581D0000 		.4byte	.LASF474
 7964 17f9 02       		.byte	0x2
 7965 17fa 7A01     		.2byte	0x17a
 7966 17fc B8000000 		.4byte	0xb8
 7967 1800 02       		.uleb128 0x2
 7968 1801 91       		.byte	0x91
 7969 1802 72       		.sleb128 -14
 7970 1803 00       		.byte	0
 7971 1804 00       		.byte	0
 7972 1805 00       		.byte	0
 7973 1806 24       		.uleb128 0x24
 7974 1807 9E010000 		.4byte	.LBB9
 7975 180b 9C000000 		.4byte	.LBE9-.LBB9
 7976 180f 29       		.uleb128 0x29
 7977 1810 0C030000 		.4byte	.LASF470
 7978 1814 02       		.byte	0x2
 7979 1815 9601     		.2byte	0x196
 7980 1817 720D0000 		.4byte	0xd72
 7981 181b 02       		.uleb128 0x2
 7982 181c 91       		.byte	0x91
 7983 181d 5C       		.sleb128 -36
 7984 181e 29       		.uleb128 0x29
 7985 181f E40A0000 		.4byte	.LASF471
 7986 1823 02       		.byte	0x2
 7987 1824 9701     		.2byte	0x197
 7988 1826 720D0000 		.4byte	0xd72
 7989 182a 02       		.uleb128 0x2
 7990 182b 91       		.byte	0x91
 7991 182c 58       		.sleb128 -40
 7992 182d 29       		.uleb128 0x29
ARM GAS  C:\Users\49148\AppData\Local\Temp\ccVXiEAG.s 			page 169


 7993 182e CF1F0000 		.4byte	.LASF475
 7994 1832 02       		.byte	0x2
 7995 1833 9801     		.2byte	0x198
 7996 1835 B8000000 		.4byte	0xb8
 7997 1839 02       		.uleb128 0x2
 7998 183a 91       		.byte	0x91
 7999 183b 57       		.sleb128 -41
 8000 183c 2A       		.uleb128 0x2a
 8001 183d 70747200 		.ascii	"ptr\000"
 8002 1841 02       		.byte	0x2
 8003 1842 9A01     		.2byte	0x19a
 8004 1844 720D0000 		.4byte	0xd72
 8005 1848 02       		.uleb128 0x2
 8006 1849 91       		.byte	0x91
 8007 184a 6C       		.sleb128 -20
 8008 184b 00       		.byte	0
 8009 184c 00       		.byte	0
 8010 184d 2E       		.uleb128 0x2e
 8011 184e A90C0000 		.4byte	.LASF543
 8012 1852 02       		.byte	0x2
 8013 1853 AB01     		.2byte	0x1ab
 8014 1855 B8000000 		.4byte	0xb8
 8015 1859 00000000 		.4byte	.LFB635
 8016 185d A4000000 		.4byte	.LFE635-.LFB635
 8017 1861 01       		.uleb128 0x1
 8018 1862 9C       		.byte	0x9c
 8019 1863 CC180000 		.4byte	0x18cc
 8020 1867 2C       		.uleb128 0x2c
 8021 1868 6E756D00 		.ascii	"num\000"
 8022 186c 02       		.byte	0x2
 8023 186d AB01     		.2byte	0x1ab
 8024 186f CE000000 		.4byte	0xce
 8025 1873 02       		.uleb128 0x2
 8026 1874 91       		.byte	0x91
 8027 1875 66       		.sleb128 -26
 8028 1876 1E       		.uleb128 0x1e
 8029 1877 9D0D0000 		.4byte	.LASF476
 8030 187b 02       		.byte	0x2
 8031 187c AB01     		.2byte	0x1ab
 8032 187e 610F0000 		.4byte	0xf61
 8033 1882 02       		.uleb128 0x2
 8034 1883 91       		.byte	0x91
 8035 1884 60       		.sleb128 -32
 8036 1885 29       		.uleb128 0x29
 8037 1886 F0000000 		.4byte	.LASF477
 8038 188a 02       		.byte	0x2
 8039 188b AD01     		.2byte	0x1ad
 8040 188d E1180000 		.4byte	0x18e1
 8041 1891 02       		.uleb128 0x2
 8042 1892 91       		.byte	0x91
 8043 1893 68       		.sleb128 -24
 8044 1894 29       		.uleb128 0x29
 8045 1895 F50D0000 		.4byte	.LASF478
 8046 1899 02       		.byte	0x2
 8047 189a AE01     		.2byte	0x1ae
 8048 189c 100A0000 		.4byte	0xa10
 8049 18a0 02       		.uleb128 0x2
ARM GAS  C:\Users\49148\AppData\Local\Temp\ccVXiEAG.s 			page 170


 8050 18a1 91       		.byte	0x91
 8051 18a2 77       		.sleb128 -9
 8052 18a3 29       		.uleb128 0x29
 8053 18a4 F3050000 		.4byte	.LASF479
 8054 18a8 02       		.byte	0x2
 8055 18a9 AF01     		.2byte	0x1af
 8056 18ab B8000000 		.4byte	0xb8
 8057 18af 02       		.uleb128 0x2
 8058 18b0 91       		.byte	0x91
 8059 18b1 76       		.sleb128 -10
 8060 18b2 24       		.uleb128 0x24
 8061 18b3 20000000 		.4byte	.LBB10
 8062 18b7 70000000 		.4byte	.LBE10-.LBB10
 8063 18bb 2A       		.uleb128 0x2a
 8064 18bc 706F7300 		.ascii	"pos\000"
 8065 18c0 02       		.byte	0x2
 8066 18c1 B001     		.2byte	0x1b0
 8067 18c3 B8000000 		.4byte	0xb8
 8068 18c7 02       		.uleb128 0x2
 8069 18c8 91       		.byte	0x91
 8070 18c9 75       		.sleb128 -11
 8071 18ca 00       		.byte	0
 8072 18cb 00       		.byte	0
 8073 18cc 07       		.uleb128 0x7
 8074 18cd DC180000 		.4byte	0x18dc
 8075 18d1 DC180000 		.4byte	0x18dc
 8076 18d5 08       		.uleb128 0x8
 8077 18d6 EF000000 		.4byte	0xef
 8078 18da 04       		.byte	0x4
 8079 18db 00       		.byte	0
 8080 18dc 06       		.uleb128 0x6
 8081 18dd 66000000 		.4byte	0x66
 8082 18e1 06       		.uleb128 0x6
 8083 18e2 CC180000 		.4byte	0x18cc
 8084 18e6 2F       		.uleb128 0x2f
 8085 18e7 4D0B0000 		.4byte	.LASF480
 8086 18eb 02       		.byte	0x2
 8087 18ec EA01     		.2byte	0x1ea
 8088 18ee 00000000 		.4byte	.LFB636
 8089 18f2 9C000000 		.4byte	.LFE636-.LFB636
 8090 18f6 01       		.uleb128 0x1
 8091 18f7 9C       		.byte	0x9c
 8092 18f8 1B190000 		.4byte	0x191b
 8093 18fc 1E       		.uleb128 0x1e
 8094 18fd DE130000 		.4byte	.LASF481
 8095 1901 02       		.byte	0x2
 8096 1902 EA01     		.2byte	0x1ea
 8097 1904 C3000000 		.4byte	0xc3
 8098 1908 02       		.uleb128 0x2
 8099 1909 91       		.byte	0x91
 8100 190a 76       		.sleb128 -10
 8101 190b 1E       		.uleb128 0x1e
 8102 190c 78280000 		.4byte	.LASF482
 8103 1910 02       		.byte	0x2
 8104 1911 EA01     		.2byte	0x1ea
 8105 1913 C3000000 		.4byte	0xc3
 8106 1917 02       		.uleb128 0x2
ARM GAS  C:\Users\49148\AppData\Local\Temp\ccVXiEAG.s 			page 171


 8107 1918 91       		.byte	0x91
 8108 1919 74       		.sleb128 -12
 8109 191a 00       		.byte	0
 8110 191b 30       		.uleb128 0x30
 8111 191c 870B0000 		.4byte	.LASF483
 8112 1920 02       		.byte	0x2
 8113 1921 FC01     		.2byte	0x1fc
 8114 1923 C3000000 		.4byte	0xc3
 8115 1927 00000000 		.4byte	.LFB637
 8116 192b 18000000 		.4byte	.LFE637-.LFB637
 8117 192f 01       		.uleb128 0x1
 8118 1930 9C       		.byte	0x9c
 8119 1931 30       		.uleb128 0x30
 8120 1932 84250000 		.4byte	.LASF484
 8121 1936 02       		.byte	0x2
 8122 1937 0502     		.2byte	0x205
 8123 1939 C3000000 		.4byte	0xc3
 8124 193d 00000000 		.4byte	.LFB638
 8125 1941 18000000 		.4byte	.LFE638-.LFB638
 8126 1945 01       		.uleb128 0x1
 8127 1946 9C       		.byte	0x9c
 8128 1947 30       		.uleb128 0x30
 8129 1948 721C0000 		.4byte	.LASF485
 8130 194c 02       		.byte	0x2
 8131 194d 0E02     		.2byte	0x20e
 8132 194f B8000000 		.4byte	0xb8
 8133 1953 00000000 		.4byte	.LFB639
 8134 1957 18000000 		.4byte	.LFE639-.LFB639
 8135 195b 01       		.uleb128 0x1
 8136 195c 9C       		.byte	0x9c
 8137 195d 2F       		.uleb128 0x2f
 8138 195e 92220000 		.4byte	.LASF486
 8139 1962 02       		.byte	0x2
 8140 1963 1702     		.2byte	0x217
 8141 1965 00000000 		.4byte	.LFB640
 8142 1969 30000000 		.4byte	.LFE640-.LFB640
 8143 196d 01       		.uleb128 0x1
 8144 196e 9C       		.byte	0x9c
 8145 196f 8E190000 		.4byte	0x198e
 8146 1973 2C       		.uleb128 0x2c
 8147 1974 7800     		.ascii	"x\000"
 8148 1976 02       		.byte	0x2
 8149 1977 1702     		.2byte	0x217
 8150 1979 C3000000 		.4byte	0xc3
 8151 197d 02       		.uleb128 0x2
 8152 197e 91       		.byte	0x91
 8153 197f 76       		.sleb128 -10
 8154 1980 2C       		.uleb128 0x2c
 8155 1981 7900     		.ascii	"y\000"
 8156 1983 02       		.byte	0x2
 8157 1984 1702     		.2byte	0x217
 8158 1986 C3000000 		.4byte	0xc3
 8159 198a 02       		.uleb128 0x2
 8160 198b 91       		.byte	0x91
 8161 198c 74       		.sleb128 -12
 8162 198d 00       		.byte	0
 8163 198e 2F       		.uleb128 0x2f
ARM GAS  C:\Users\49148\AppData\Local\Temp\ccVXiEAG.s 			page 172


 8164 198f 93210000 		.4byte	.LASF487
 8165 1993 02       		.byte	0x2
 8166 1994 2102     		.2byte	0x221
 8167 1996 00000000 		.4byte	.LFB641
 8168 199a 2C000000 		.4byte	.LFE641-.LFB641
 8169 199e 01       		.uleb128 0x1
 8170 199f 9C       		.byte	0x9c
 8171 19a0 B4190000 		.4byte	0x19b4
 8172 19a4 1E       		.uleb128 0x1e
 8173 19a5 051B0000 		.4byte	.LASF447
 8174 19a9 02       		.byte	0x2
 8175 19aa 2102     		.2byte	0x221
 8176 19ac B8000000 		.4byte	0xb8
 8177 19b0 02       		.uleb128 0x2
 8178 19b1 91       		.byte	0x91
 8179 19b2 77       		.sleb128 -9
 8180 19b3 00       		.byte	0
 8181 19b4 2F       		.uleb128 0x2f
 8182 19b5 C4080000 		.4byte	.LASF488
 8183 19b9 02       		.byte	0x2
 8184 19ba 2A02     		.2byte	0x22a
 8185 19bc 00000000 		.4byte	.LFB642
 8186 19c0 2C000000 		.4byte	.LFE642-.LFB642
 8187 19c4 01       		.uleb128 0x1
 8188 19c5 9C       		.byte	0x9c
 8189 19c6 DA190000 		.4byte	0x19da
 8190 19ca 1E       		.uleb128 0x1e
 8191 19cb B51E0000 		.4byte	.LASF452
 8192 19cf 02       		.byte	0x2
 8193 19d0 2A02     		.2byte	0x22a
 8194 19d2 CE000000 		.4byte	0xce
 8195 19d6 02       		.uleb128 0x2
 8196 19d7 91       		.byte	0x91
 8197 19d8 76       		.sleb128 -10
 8198 19d9 00       		.byte	0
 8199 19da 2F       		.uleb128 0x2f
 8200 19db FD200000 		.4byte	.LASF489
 8201 19df 02       		.byte	0x2
 8202 19e0 3502     		.2byte	0x235
 8203 19e2 00000000 		.4byte	.LFB643
 8204 19e6 20000000 		.4byte	.LFE643-.LFB643
 8205 19ea 01       		.uleb128 0x1
 8206 19eb 9C       		.byte	0x9c
 8207 19ec 001A0000 		.4byte	0x1a00
 8208 19f0 1E       		.uleb128 0x1e
 8209 19f1 B51E0000 		.4byte	.LASF452
 8210 19f5 02       		.byte	0x2
 8211 19f6 3502     		.2byte	0x235
 8212 19f8 CE000000 		.4byte	0xce
 8213 19fc 02       		.uleb128 0x2
 8214 19fd 91       		.byte	0x91
 8215 19fe 76       		.sleb128 -10
 8216 19ff 00       		.byte	0
 8217 1a00 2F       		.uleb128 0x2f
 8218 1a01 82220000 		.4byte	.LASF490
 8219 1a05 02       		.byte	0x2
 8220 1a06 3E02     		.2byte	0x23e
ARM GAS  C:\Users\49148\AppData\Local\Temp\ccVXiEAG.s 			page 173


 8221 1a08 00000000 		.4byte	.LFB644
 8222 1a0c 20000000 		.4byte	.LFE644-.LFB644
 8223 1a10 01       		.uleb128 0x1
 8224 1a11 9C       		.byte	0x9c
 8225 1a12 241A0000 		.4byte	0x1a24
 8226 1a16 2C       		.uleb128 0x2c
 8227 1a17 7700     		.ascii	"w\000"
 8228 1a19 02       		.byte	0x2
 8229 1a1a 3E02     		.2byte	0x23e
 8230 1a1c 250A0000 		.4byte	0xa25
 8231 1a20 02       		.uleb128 0x2
 8232 1a21 91       		.byte	0x91
 8233 1a22 77       		.sleb128 -9
 8234 1a23 00       		.byte	0
 8235 1a24 2F       		.uleb128 0x2f
 8236 1a25 38150000 		.4byte	.LASF491
 8237 1a29 02       		.byte	0x2
 8238 1a2a 4702     		.2byte	0x247
 8239 1a2c 00000000 		.4byte	.LFB645
 8240 1a30 80000000 		.4byte	.LFE645-.LFB645
 8241 1a34 01       		.uleb128 0x1
 8242 1a35 9C       		.byte	0x9c
 8243 1a36 481A0000 		.4byte	0x1a48
 8244 1a3a 2C       		.uleb128 0x2c
 8245 1a3b 7800     		.ascii	"x\000"
 8246 1a3d 02       		.byte	0x2
 8247 1a3e 4702     		.2byte	0x247
 8248 1a40 B8000000 		.4byte	0xb8
 8249 1a44 02       		.uleb128 0x2
 8250 1a45 91       		.byte	0x91
 8251 1a46 77       		.sleb128 -9
 8252 1a47 00       		.byte	0
 8253 1a48 2B       		.uleb128 0x2b
 8254 1a49 5E170000 		.4byte	.LASF492
 8255 1a4d 02       		.byte	0x2
 8256 1a4e 5D02     		.2byte	0x25d
 8257 1a50 00000000 		.4byte	.LFB646
 8258 1a54 C4000000 		.4byte	.LFE646-.LFB646
 8259 1a58 01       		.uleb128 0x1
 8260 1a59 9C       		.byte	0x9c
 8261 1a5a 891A0000 		.4byte	0x1a89
 8262 1a5e 2C       		.uleb128 0x2c
 8263 1a5f 707800   		.ascii	"px\000"
 8264 1a62 02       		.byte	0x2
 8265 1a63 5D02     		.2byte	0x25d
 8266 1a65 891A0000 		.4byte	0x1a89
 8267 1a69 02       		.uleb128 0x2
 8268 1a6a 91       		.byte	0x91
 8269 1a6b 6C       		.sleb128 -20
 8270 1a6c 2C       		.uleb128 0x2c
 8271 1a6d 707900   		.ascii	"py\000"
 8272 1a70 02       		.byte	0x2
 8273 1a71 5D02     		.2byte	0x25d
 8274 1a73 891A0000 		.4byte	0x1a89
 8275 1a77 02       		.uleb128 0x2
 8276 1a78 91       		.byte	0x91
 8277 1a79 68       		.sleb128 -24
ARM GAS  C:\Users\49148\AppData\Local\Temp\ccVXiEAG.s 			page 174


 8278 1a7a 2A       		.uleb128 0x2a
 8279 1a7b 793000   		.ascii	"y0\000"
 8280 1a7e 02       		.byte	0x2
 8281 1a7f 5F02     		.2byte	0x25f
 8282 1a81 C3000000 		.4byte	0xc3
 8283 1a85 02       		.uleb128 0x2
 8284 1a86 91       		.byte	0x91
 8285 1a87 76       		.sleb128 -10
 8286 1a88 00       		.byte	0
 8287 1a89 15       		.uleb128 0x15
 8288 1a8a 04       		.byte	0x4
 8289 1a8b C3000000 		.4byte	0xc3
 8290 1a8f 28       		.uleb128 0x28
 8291 1a90 15240000 		.4byte	.LASF493
 8292 1a94 02       		.byte	0x2
 8293 1a95 7602     		.2byte	0x276
 8294 1a97 00000000 		.4byte	.LFB647
 8295 1a9b 6C000000 		.4byte	.LFE647-.LFB647
 8296 1a9f 01       		.uleb128 0x1
 8297 1aa0 9C       		.byte	0x9c
 8298 1aa1 CF1A0000 		.4byte	0x1acf
 8299 1aa5 2C       		.uleb128 0x2c
 8300 1aa6 7800     		.ascii	"x\000"
 8301 1aa8 02       		.byte	0x2
 8302 1aa9 7602     		.2byte	0x276
 8303 1aab C3000000 		.4byte	0xc3
 8304 1aaf 02       		.uleb128 0x2
 8305 1ab0 91       		.byte	0x91
 8306 1ab1 76       		.sleb128 -10
 8307 1ab2 2C       		.uleb128 0x2c
 8308 1ab3 7900     		.ascii	"y\000"
 8309 1ab5 02       		.byte	0x2
 8310 1ab6 7602     		.2byte	0x276
 8311 1ab8 C3000000 		.4byte	0xc3
 8312 1abc 02       		.uleb128 0x2
 8313 1abd 91       		.byte	0x91
 8314 1abe 74       		.sleb128 -12
 8315 1abf 1E       		.uleb128 0x1e
 8316 1ac0 B51E0000 		.4byte	.LASF452
 8317 1ac4 02       		.byte	0x2
 8318 1ac5 7602     		.2byte	0x276
 8319 1ac7 CE000000 		.4byte	0xce
 8320 1acb 02       		.uleb128 0x2
 8321 1acc 91       		.byte	0x91
 8322 1acd 72       		.sleb128 -14
 8323 1ace 00       		.byte	0
 8324 1acf 31       		.uleb128 0x31
 8325 1ad0 6B090000 		.4byte	.LASF494
 8326 1ad4 02       		.byte	0x2
 8327 1ad5 8602     		.2byte	0x286
 8328 1ad7 00000000 		.4byte	.LFB648
 8329 1adb AC010000 		.4byte	.LFE648-.LFB648
 8330 1adf 01       		.uleb128 0x1
 8331 1ae0 9C       		.byte	0x9c
 8332 1ae1 441B0000 		.4byte	0x1b44
 8333 1ae5 2C       		.uleb128 0x2c
 8334 1ae6 783100   		.ascii	"x1\000"
ARM GAS  C:\Users\49148\AppData\Local\Temp\ccVXiEAG.s 			page 175


 8335 1ae9 02       		.byte	0x2
 8336 1aea 8602     		.2byte	0x286
 8337 1aec C3000000 		.4byte	0xc3
 8338 1af0 02       		.uleb128 0x2
 8339 1af1 91       		.byte	0x91
 8340 1af2 66       		.sleb128 -26
 8341 1af3 2C       		.uleb128 0x2c
 8342 1af4 793100   		.ascii	"y1\000"
 8343 1af7 02       		.byte	0x2
 8344 1af8 8602     		.2byte	0x286
 8345 1afa C3000000 		.4byte	0xc3
 8346 1afe 02       		.uleb128 0x2
 8347 1aff 91       		.byte	0x91
 8348 1b00 64       		.sleb128 -28
 8349 1b01 2C       		.uleb128 0x2c
 8350 1b02 783200   		.ascii	"x2\000"
 8351 1b05 02       		.byte	0x2
 8352 1b06 8602     		.2byte	0x286
 8353 1b08 C3000000 		.4byte	0xc3
 8354 1b0c 02       		.uleb128 0x2
 8355 1b0d 91       		.byte	0x91
 8356 1b0e 62       		.sleb128 -30
 8357 1b0f 2C       		.uleb128 0x2c
 8358 1b10 793200   		.ascii	"y2\000"
 8359 1b13 02       		.byte	0x2
 8360 1b14 8602     		.2byte	0x286
 8361 1b16 C3000000 		.4byte	0xc3
 8362 1b1a 02       		.uleb128 0x2
 8363 1b1b 91       		.byte	0x91
 8364 1b1c 60       		.sleb128 -32
 8365 1b1d 1E       		.uleb128 0x1e
 8366 1b1e B51E0000 		.4byte	.LASF452
 8367 1b22 02       		.byte	0x2
 8368 1b23 8602     		.2byte	0x286
 8369 1b25 CE000000 		.4byte	0xce
 8370 1b29 02       		.uleb128 0x2
 8371 1b2a 91       		.byte	0x91
 8372 1b2b 00       		.sleb128 0
 8373 1b2c 24       		.uleb128 0x24
 8374 1b2d 50010000 		.4byte	.LBB11
 8375 1b31 1C000000 		.4byte	.LBE11-.LBB11
 8376 1b35 2A       		.uleb128 0x2a
 8377 1b36 7400     		.ascii	"t\000"
 8378 1b38 02       		.byte	0x2
 8379 1b39 A002     		.2byte	0x2a0
 8380 1b3b C3000000 		.4byte	0xc3
 8381 1b3f 02       		.uleb128 0x2
 8382 1b40 91       		.byte	0x91
 8383 1b41 6E       		.sleb128 -18
 8384 1b42 00       		.byte	0
 8385 1b43 00       		.byte	0
 8386 1b44 28       		.uleb128 0x28
 8387 1b45 43180000 		.4byte	.LASF495
 8388 1b49 02       		.byte	0x2
 8389 1b4a AC02     		.2byte	0x2ac
 8390 1b4c 00000000 		.4byte	.LFB649
 8391 1b50 74010000 		.4byte	.LFE649-.LFB649
ARM GAS  C:\Users\49148\AppData\Local\Temp\ccVXiEAG.s 			page 176


 8392 1b54 01       		.uleb128 0x1
 8393 1b55 9C       		.byte	0x9c
 8394 1b56 F81B0000 		.4byte	0x1bf8
 8395 1b5a 2C       		.uleb128 0x2c
 8396 1b5b 783000   		.ascii	"x0\000"
 8397 1b5e 02       		.byte	0x2
 8398 1b5f AC02     		.2byte	0x2ac
 8399 1b61 C3000000 		.4byte	0xc3
 8400 1b65 02       		.uleb128 0x2
 8401 1b66 91       		.byte	0x91
 8402 1b67 5E       		.sleb128 -34
 8403 1b68 2C       		.uleb128 0x2c
 8404 1b69 793000   		.ascii	"y0\000"
 8405 1b6c 02       		.byte	0x2
 8406 1b6d AC02     		.2byte	0x2ac
 8407 1b6f C3000000 		.4byte	0xc3
 8408 1b73 02       		.uleb128 0x2
 8409 1b74 91       		.byte	0x91
 8410 1b75 5C       		.sleb128 -36
 8411 1b76 2C       		.uleb128 0x2c
 8412 1b77 783100   		.ascii	"x1\000"
 8413 1b7a 02       		.byte	0x2
 8414 1b7b AC02     		.2byte	0x2ac
 8415 1b7d C3000000 		.4byte	0xc3
 8416 1b81 02       		.uleb128 0x2
 8417 1b82 91       		.byte	0x91
 8418 1b83 5A       		.sleb128 -38
 8419 1b84 2C       		.uleb128 0x2c
 8420 1b85 793100   		.ascii	"y1\000"
 8421 1b88 02       		.byte	0x2
 8422 1b89 AC02     		.2byte	0x2ac
 8423 1b8b C3000000 		.4byte	0xc3
 8424 1b8f 02       		.uleb128 0x2
 8425 1b90 91       		.byte	0x91
 8426 1b91 58       		.sleb128 -40
 8427 1b92 1E       		.uleb128 0x1e
 8428 1b93 B51E0000 		.4byte	.LASF452
 8429 1b97 02       		.byte	0x2
 8430 1b98 AC02     		.2byte	0x2ac
 8431 1b9a CE000000 		.4byte	0xce
 8432 1b9e 02       		.uleb128 0x2
 8433 1b9f 91       		.byte	0x91
 8434 1ba0 00       		.sleb128 0
 8435 1ba1 2A       		.uleb128 0x2a
 8436 1ba2 7400     		.ascii	"t\000"
 8437 1ba4 02       		.byte	0x2
 8438 1ba5 B402     		.2byte	0x2b4
 8439 1ba7 C3000000 		.4byte	0xc3
 8440 1bab 02       		.uleb128 0x2
 8441 1bac 91       		.byte	0x91
 8442 1bad 68       		.sleb128 -24
 8443 1bae 29       		.uleb128 0x29
 8444 1baf AC0E0000 		.4byte	.LASF496
 8445 1bb3 02       		.byte	0x2
 8446 1bb4 B602     		.2byte	0x2b6
 8447 1bb6 C3000000 		.4byte	0xc3
 8448 1bba 02       		.uleb128 0x2
ARM GAS  C:\Users\49148\AppData\Local\Temp\ccVXiEAG.s 			page 177


 8449 1bbb 91       		.byte	0x91
 8450 1bbc 6A       		.sleb128 -22
 8451 1bbd 2A       		.uleb128 0x2a
 8452 1bbe 647800   		.ascii	"dx\000"
 8453 1bc1 02       		.byte	0x2
 8454 1bc2 BF02     		.2byte	0x2bf
 8455 1bc4 C3000000 		.4byte	0xc3
 8456 1bc8 02       		.uleb128 0x2
 8457 1bc9 91       		.byte	0x91
 8458 1bca 66       		.sleb128 -26
 8459 1bcb 2A       		.uleb128 0x2a
 8460 1bcc 647900   		.ascii	"dy\000"
 8461 1bcf 02       		.byte	0x2
 8462 1bd0 BF02     		.2byte	0x2bf
 8463 1bd2 C3000000 		.4byte	0xc3
 8464 1bd6 02       		.uleb128 0x2
 8465 1bd7 91       		.byte	0x91
 8466 1bd8 64       		.sleb128 -28
 8467 1bd9 2A       		.uleb128 0x2a
 8468 1bda 65727200 		.ascii	"err\000"
 8469 1bde 02       		.byte	0x2
 8470 1bdf C202     		.2byte	0x2c2
 8471 1be1 C3000000 		.4byte	0xc3
 8472 1be5 02       		.uleb128 0x2
 8473 1be6 91       		.byte	0x91
 8474 1be7 6E       		.sleb128 -18
 8475 1be8 29       		.uleb128 0x29
 8476 1be9 4A230000 		.4byte	.LASF497
 8477 1bed 02       		.byte	0x2
 8478 1bee C302     		.2byte	0x2c3
 8479 1bf0 C3000000 		.4byte	0xc3
 8480 1bf4 02       		.uleb128 0x2
 8481 1bf5 91       		.byte	0x91
 8482 1bf6 6C       		.sleb128 -20
 8483 1bf7 00       		.byte	0
 8484 1bf8 28       		.uleb128 0x28
 8485 1bf9 28080000 		.4byte	.LASF498
 8486 1bfd 02       		.byte	0x2
 8487 1bfe DC02     		.2byte	0x2dc
 8488 1c00 00000000 		.4byte	.LFB650
 8489 1c04 E2000000 		.4byte	.LFE650-.LFB650
 8490 1c08 01       		.uleb128 0x1
 8491 1c09 9C       		.byte	0x9c
 8492 1c0a 521C0000 		.4byte	0x1c52
 8493 1c0e 2C       		.uleb128 0x2c
 8494 1c0f 7800     		.ascii	"x\000"
 8495 1c11 02       		.byte	0x2
 8496 1c12 DC02     		.2byte	0x2dc
 8497 1c14 C3000000 		.4byte	0xc3
 8498 1c18 02       		.uleb128 0x2
 8499 1c19 91       		.byte	0x91
 8500 1c1a 6E       		.sleb128 -18
 8501 1c1b 2C       		.uleb128 0x2c
 8502 1c1c 7900     		.ascii	"y\000"
 8503 1c1e 02       		.byte	0x2
 8504 1c1f DC02     		.2byte	0x2dc
 8505 1c21 C3000000 		.4byte	0xc3
ARM GAS  C:\Users\49148\AppData\Local\Temp\ccVXiEAG.s 			page 178


 8506 1c25 02       		.uleb128 0x2
 8507 1c26 91       		.byte	0x91
 8508 1c27 6C       		.sleb128 -20
 8509 1c28 2C       		.uleb128 0x2c
 8510 1c29 7700     		.ascii	"w\000"
 8511 1c2b 02       		.byte	0x2
 8512 1c2c DC02     		.2byte	0x2dc
 8513 1c2e C3000000 		.4byte	0xc3
 8514 1c32 02       		.uleb128 0x2
 8515 1c33 91       		.byte	0x91
 8516 1c34 6A       		.sleb128 -22
 8517 1c35 2C       		.uleb128 0x2c
 8518 1c36 6800     		.ascii	"h\000"
 8519 1c38 02       		.byte	0x2
 8520 1c39 DC02     		.2byte	0x2dc
 8521 1c3b C3000000 		.4byte	0xc3
 8522 1c3f 02       		.uleb128 0x2
 8523 1c40 91       		.byte	0x91
 8524 1c41 68       		.sleb128 -24
 8525 1c42 1E       		.uleb128 0x1e
 8526 1c43 B51E0000 		.4byte	.LASF452
 8527 1c47 02       		.byte	0x2
 8528 1c48 DC02     		.2byte	0x2dc
 8529 1c4a CE000000 		.4byte	0xce
 8530 1c4e 02       		.uleb128 0x2
 8531 1c4f 91       		.byte	0x91
 8532 1c50 00       		.sleb128 0
 8533 1c51 00       		.byte	0
 8534 1c52 28       		.uleb128 0x28
 8535 1c53 F9120000 		.4byte	.LASF499
 8536 1c57 02       		.byte	0x2
 8537 1c58 E902     		.2byte	0x2e9
 8538 1c5a 00000000 		.4byte	.LFB651
 8539 1c5e C8000000 		.4byte	.LFE651-.LFB651
 8540 1c62 01       		.uleb128 0x1
 8541 1c63 9C       		.byte	0x9c
 8542 1c64 B91C0000 		.4byte	0x1cb9
 8543 1c68 2C       		.uleb128 0x2c
 8544 1c69 7800     		.ascii	"x\000"
 8545 1c6b 02       		.byte	0x2
 8546 1c6c E902     		.2byte	0x2e9
 8547 1c6e C3000000 		.4byte	0xc3
 8548 1c72 02       		.uleb128 0x2
 8549 1c73 91       		.byte	0x91
 8550 1c74 66       		.sleb128 -26
 8551 1c75 2C       		.uleb128 0x2c
 8552 1c76 7900     		.ascii	"y\000"
 8553 1c78 02       		.byte	0x2
 8554 1c79 E902     		.2byte	0x2e9
 8555 1c7b C3000000 		.4byte	0xc3
 8556 1c7f 02       		.uleb128 0x2
 8557 1c80 91       		.byte	0x91
 8558 1c81 64       		.sleb128 -28
 8559 1c82 2C       		.uleb128 0x2c
 8560 1c83 7700     		.ascii	"w\000"
 8561 1c85 02       		.byte	0x2
 8562 1c86 E902     		.2byte	0x2e9
ARM GAS  C:\Users\49148\AppData\Local\Temp\ccVXiEAG.s 			page 179


 8563 1c88 C3000000 		.4byte	0xc3
 8564 1c8c 02       		.uleb128 0x2
 8565 1c8d 91       		.byte	0x91
 8566 1c8e 62       		.sleb128 -30
 8567 1c8f 2C       		.uleb128 0x2c
 8568 1c90 6800     		.ascii	"h\000"
 8569 1c92 02       		.byte	0x2
 8570 1c93 E902     		.2byte	0x2e9
 8571 1c95 C3000000 		.4byte	0xc3
 8572 1c99 02       		.uleb128 0x2
 8573 1c9a 91       		.byte	0x91
 8574 1c9b 60       		.sleb128 -32
 8575 1c9c 1E       		.uleb128 0x1e
 8576 1c9d B51E0000 		.4byte	.LASF452
 8577 1ca1 02       		.byte	0x2
 8578 1ca2 E902     		.2byte	0x2e9
 8579 1ca4 CE000000 		.4byte	0xce
 8580 1ca8 02       		.uleb128 0x2
 8581 1ca9 91       		.byte	0x91
 8582 1caa 00       		.sleb128 0
 8583 1cab 2A       		.uleb128 0x2a
 8584 1cac 6900     		.ascii	"i\000"
 8585 1cae 02       		.byte	0x2
 8586 1caf EA02     		.2byte	0x2ea
 8587 1cb1 C3000000 		.4byte	0xc3
 8588 1cb5 02       		.uleb128 0x2
 8589 1cb6 91       		.byte	0x91
 8590 1cb7 6E       		.sleb128 -18
 8591 1cb8 00       		.byte	0
 8592 1cb9 28       		.uleb128 0x28
 8593 1cba D30F0000 		.4byte	.LASF500
 8594 1cbe 02       		.byte	0x2
 8595 1cbf FB02     		.2byte	0x2fb
 8596 1cc1 00000000 		.4byte	.LFB652
 8597 1cc5 D6010000 		.4byte	.LFE652-.LFB652
 8598 1cc9 01       		.uleb128 0x1
 8599 1cca 9C       		.byte	0x9c
 8600 1ccb 4D1D0000 		.4byte	0x1d4d
 8601 1ccf 2C       		.uleb128 0x2c
 8602 1cd0 783000   		.ascii	"x0\000"
 8603 1cd3 02       		.byte	0x2
 8604 1cd4 FB02     		.2byte	0x2fb
 8605 1cd6 C3000000 		.4byte	0xc3
 8606 1cda 02       		.uleb128 0x2
 8607 1cdb 91       		.byte	0x91
 8608 1cdc 5E       		.sleb128 -34
 8609 1cdd 2C       		.uleb128 0x2c
 8610 1cde 793000   		.ascii	"y0\000"
 8611 1ce1 02       		.byte	0x2
 8612 1ce2 FB02     		.2byte	0x2fb
 8613 1ce4 C3000000 		.4byte	0xc3
 8614 1ce8 02       		.uleb128 0x2
 8615 1ce9 91       		.byte	0x91
 8616 1cea 5C       		.sleb128 -36
 8617 1ceb 2C       		.uleb128 0x2c
 8618 1cec 7200     		.ascii	"r\000"
 8619 1cee 02       		.byte	0x2
ARM GAS  C:\Users\49148\AppData\Local\Temp\ccVXiEAG.s 			page 180


 8620 1cef FB02     		.2byte	0x2fb
 8621 1cf1 C3000000 		.4byte	0xc3
 8622 1cf5 02       		.uleb128 0x2
 8623 1cf6 91       		.byte	0x91
 8624 1cf7 5A       		.sleb128 -38
 8625 1cf8 1E       		.uleb128 0x1e
 8626 1cf9 B51E0000 		.4byte	.LASF452
 8627 1cfd 02       		.byte	0x2
 8628 1cfe FB02     		.2byte	0x2fb
 8629 1d00 CE000000 		.4byte	0xce
 8630 1d04 02       		.uleb128 0x2
 8631 1d05 91       		.byte	0x91
 8632 1d06 58       		.sleb128 -40
 8633 1d07 2A       		.uleb128 0x2a
 8634 1d08 6600     		.ascii	"f\000"
 8635 1d0a 02       		.byte	0x2
 8636 1d0b FD02     		.2byte	0x2fd
 8637 1d0d C3000000 		.4byte	0xc3
 8638 1d11 02       		.uleb128 0x2
 8639 1d12 91       		.byte	0x91
 8640 1d13 6E       		.sleb128 -18
 8641 1d14 29       		.uleb128 0x29
 8642 1d15 05230000 		.4byte	.LASF501
 8643 1d19 02       		.byte	0x2
 8644 1d1a FE02     		.2byte	0x2fe
 8645 1d1c C3000000 		.4byte	0xc3
 8646 1d20 02       		.uleb128 0x2
 8647 1d21 91       		.byte	0x91
 8648 1d22 6C       		.sleb128 -20
 8649 1d23 29       		.uleb128 0x29
 8650 1d24 0B230000 		.4byte	.LASF502
 8651 1d28 02       		.byte	0x2
 8652 1d29 FF02     		.2byte	0x2ff
 8653 1d2b C3000000 		.4byte	0xc3
 8654 1d2f 02       		.uleb128 0x2
 8655 1d30 91       		.byte	0x91
 8656 1d31 6A       		.sleb128 -22
 8657 1d32 2A       		.uleb128 0x2a
 8658 1d33 7800     		.ascii	"x\000"
 8659 1d35 02       		.byte	0x2
 8660 1d36 0003     		.2byte	0x300
 8661 1d38 C3000000 		.4byte	0xc3
 8662 1d3c 02       		.uleb128 0x2
 8663 1d3d 91       		.byte	0x91
 8664 1d3e 68       		.sleb128 -24
 8665 1d3f 2A       		.uleb128 0x2a
 8666 1d40 7900     		.ascii	"y\000"
 8667 1d42 02       		.byte	0x2
 8668 1d43 0103     		.2byte	0x301
 8669 1d45 C3000000 		.4byte	0xc3
 8670 1d49 02       		.uleb128 0x2
 8671 1d4a 91       		.byte	0x91
 8672 1d4b 66       		.sleb128 -26
 8673 1d4c 00       		.byte	0
 8674 1d4d 28       		.uleb128 0x28
 8675 1d4e A8110000 		.4byte	.LASF503
 8676 1d52 02       		.byte	0x2
ARM GAS  C:\Users\49148\AppData\Local\Temp\ccVXiEAG.s 			page 181


 8677 1d53 1F03     		.2byte	0x31f
 8678 1d55 00000000 		.4byte	.LFB653
 8679 1d59 74000000 		.4byte	.LFE653-.LFB653
 8680 1d5d 01       		.uleb128 0x1
 8681 1d5e 9C       		.byte	0x9c
 8682 1d5f C71D0000 		.4byte	0x1dc7
 8683 1d63 2C       		.uleb128 0x2c
 8684 1d64 783000   		.ascii	"x0\000"
 8685 1d67 02       		.byte	0x2
 8686 1d68 1F03     		.2byte	0x31f
 8687 1d6a C3000000 		.4byte	0xc3
 8688 1d6e 02       		.uleb128 0x2
 8689 1d6f 91       		.byte	0x91
 8690 1d70 6E       		.sleb128 -18
 8691 1d71 2C       		.uleb128 0x2c
 8692 1d72 793000   		.ascii	"y0\000"
 8693 1d75 02       		.byte	0x2
 8694 1d76 1F03     		.2byte	0x31f
 8695 1d78 C3000000 		.4byte	0xc3
 8696 1d7c 02       		.uleb128 0x2
 8697 1d7d 91       		.byte	0x91
 8698 1d7e 6C       		.sleb128 -20
 8699 1d7f 2C       		.uleb128 0x2c
 8700 1d80 783100   		.ascii	"x1\000"
 8701 1d83 02       		.byte	0x2
 8702 1d84 1F03     		.2byte	0x31f
 8703 1d86 C3000000 		.4byte	0xc3
 8704 1d8a 02       		.uleb128 0x2
 8705 1d8b 91       		.byte	0x91
 8706 1d8c 6A       		.sleb128 -22
 8707 1d8d 2C       		.uleb128 0x2c
 8708 1d8e 793100   		.ascii	"y1\000"
 8709 1d91 02       		.byte	0x2
 8710 1d92 1F03     		.2byte	0x31f
 8711 1d94 C3000000 		.4byte	0xc3
 8712 1d98 02       		.uleb128 0x2
 8713 1d99 91       		.byte	0x91
 8714 1d9a 68       		.sleb128 -24
 8715 1d9b 2C       		.uleb128 0x2c
 8716 1d9c 783200   		.ascii	"x2\000"
 8717 1d9f 02       		.byte	0x2
 8718 1da0 1F03     		.2byte	0x31f
 8719 1da2 C3000000 		.4byte	0xc3
 8720 1da6 02       		.uleb128 0x2
 8721 1da7 91       		.byte	0x91
 8722 1da8 00       		.sleb128 0
 8723 1da9 2C       		.uleb128 0x2c
 8724 1daa 793200   		.ascii	"y2\000"
 8725 1dad 02       		.byte	0x2
 8726 1dae 1F03     		.2byte	0x31f
 8727 1db0 C3000000 		.4byte	0xc3
 8728 1db4 02       		.uleb128 0x2
 8729 1db5 91       		.byte	0x91
 8730 1db6 04       		.sleb128 4
 8731 1db7 1E       		.uleb128 0x1e
 8732 1db8 B51E0000 		.4byte	.LASF452
 8733 1dbc 02       		.byte	0x2
ARM GAS  C:\Users\49148\AppData\Local\Temp\ccVXiEAG.s 			page 182


 8734 1dbd 1F03     		.2byte	0x31f
 8735 1dbf CE000000 		.4byte	0xce
 8736 1dc3 02       		.uleb128 0x2
 8737 1dc4 91       		.byte	0x91
 8738 1dc5 08       		.sleb128 8
 8739 1dc6 00       		.byte	0
 8740 1dc7 28       		.uleb128 0x28
 8741 1dc8 7F060000 		.4byte	.LASF504
 8742 1dcc 02       		.byte	0x2
 8743 1dcd 2C03     		.2byte	0x32c
 8744 1dcf 00000000 		.4byte	.LFB654
 8745 1dd3 F0010000 		.4byte	.LFE654-.LFB654
 8746 1dd7 01       		.uleb128 0x1
 8747 1dd8 9C       		.byte	0x9c
 8748 1dd9 641E0000 		.4byte	0x1e64
 8749 1ddd 2C       		.uleb128 0x2c
 8750 1dde 7800     		.ascii	"x\000"
 8751 1de0 02       		.byte	0x2
 8752 1de1 2C03     		.2byte	0x32c
 8753 1de3 C3000000 		.4byte	0xc3
 8754 1de7 02       		.uleb128 0x2
 8755 1de8 91       		.byte	0x91
 8756 1de9 66       		.sleb128 -26
 8757 1dea 2C       		.uleb128 0x2c
 8758 1deb 7900     		.ascii	"y\000"
 8759 1ded 02       		.byte	0x2
 8760 1dee 2C03     		.2byte	0x32c
 8761 1df0 C3000000 		.4byte	0xc3
 8762 1df4 02       		.uleb128 0x2
 8763 1df5 91       		.byte	0x91
 8764 1df6 64       		.sleb128 -28
 8765 1df7 2C       		.uleb128 0x2c
 8766 1df8 6300     		.ascii	"c\000"
 8767 1dfa 02       		.byte	0x2
 8768 1dfb 2C03     		.2byte	0x32c
 8769 1dfd 49000000 		.4byte	0x49
 8770 1e01 02       		.uleb128 0x2
 8771 1e02 91       		.byte	0x91
 8772 1e03 63       		.sleb128 -29
 8773 1e04 1E       		.uleb128 0x1e
 8774 1e05 B51E0000 		.4byte	.LASF452
 8775 1e09 02       		.byte	0x2
 8776 1e0a 2C03     		.2byte	0x32c
 8777 1e0c CE000000 		.4byte	0xce
 8778 1e10 02       		.uleb128 0x2
 8779 1e11 91       		.byte	0x91
 8780 1e12 60       		.sleb128 -32
 8781 1e13 2C       		.uleb128 0x2c
 8782 1e14 626700   		.ascii	"bg\000"
 8783 1e17 02       		.byte	0x2
 8784 1e18 2C03     		.2byte	0x32c
 8785 1e1a CE000000 		.4byte	0xce
 8786 1e1e 02       		.uleb128 0x2
 8787 1e1f 91       		.byte	0x91
 8788 1e20 00       		.sleb128 0
 8789 1e21 1E       		.uleb128 0x1e
 8790 1e22 051B0000 		.4byte	.LASF447
ARM GAS  C:\Users\49148\AppData\Local\Temp\ccVXiEAG.s 			page 183


 8791 1e26 02       		.byte	0x2
 8792 1e27 2C03     		.2byte	0x32c
 8793 1e29 B8000000 		.4byte	0xb8
 8794 1e2d 02       		.uleb128 0x2
 8795 1e2e 91       		.byte	0x91
 8796 1e2f 04       		.sleb128 4
 8797 1e30 2A       		.uleb128 0x2a
 8798 1e31 6900     		.ascii	"i\000"
 8799 1e33 02       		.byte	0x2
 8800 1e34 3303     		.2byte	0x333
 8801 1e36 AD000000 		.4byte	0xad
 8802 1e3a 02       		.uleb128 0x2
 8803 1e3b 91       		.byte	0x91
 8804 1e3c 6F       		.sleb128 -17
 8805 1e3d 24       		.uleb128 0x24
 8806 1e3e 76000000 		.4byte	.LBB12
 8807 1e42 4C010000 		.4byte	.LBE12-.LBB12
 8808 1e46 29       		.uleb128 0x29
 8809 1e47 A6100000 		.4byte	.LASF505
 8810 1e4b 02       		.byte	0x2
 8811 1e4c 3503     		.2byte	0x335
 8812 1e4e B8000000 		.4byte	0xb8
 8813 1e52 02       		.uleb128 0x2
 8814 1e53 91       		.byte	0x91
 8815 1e54 6E       		.sleb128 -18
 8816 1e55 2A       		.uleb128 0x2a
 8817 1e56 6A00     		.ascii	"j\000"
 8818 1e58 02       		.byte	0x2
 8819 1e59 3A03     		.2byte	0x33a
 8820 1e5b AD000000 		.4byte	0xad
 8821 1e5f 02       		.uleb128 0x2
 8822 1e60 91       		.byte	0x91
 8823 1e61 6D       		.sleb128 -19
 8824 1e62 00       		.byte	0
 8825 1e63 00       		.byte	0
 8826 1e64 28       		.uleb128 0x28
 8827 1e65 B0210000 		.4byte	.LASF506
 8828 1e69 02       		.byte	0x2
 8829 1e6a 5303     		.2byte	0x353
 8830 1e6c 00000000 		.4byte	.LFB655
 8831 1e70 F4000000 		.4byte	.LFE655-.LFB655
 8832 1e74 01       		.uleb128 0x1
 8833 1e75 9C       		.byte	0x9c
 8834 1e76 891E0000 		.4byte	0x1e89
 8835 1e7a 2C       		.uleb128 0x2c
 8836 1e7b 636800   		.ascii	"ch\000"
 8837 1e7e 02       		.byte	0x2
 8838 1e7f 5303     		.2byte	0x353
 8839 1e81 B8000000 		.4byte	0xb8
 8840 1e85 02       		.uleb128 0x2
 8841 1e86 91       		.byte	0x91
 8842 1e87 6F       		.sleb128 -17
 8843 1e88 00       		.byte	0
 8844 1e89 28       		.uleb128 0x28
 8845 1e8a A01D0000 		.4byte	.LASF507
 8846 1e8e 02       		.byte	0x2
 8847 1e8f 6803     		.2byte	0x368
ARM GAS  C:\Users\49148\AppData\Local\Temp\ccVXiEAG.s 			page 184


 8848 1e91 00000000 		.4byte	.LFB656
 8849 1e95 3E000000 		.4byte	.LFE656-.LFB656
 8850 1e99 01       		.uleb128 0x1
 8851 1e9a 9C       		.byte	0x9c
 8852 1e9b C91E0000 		.4byte	0x1ec9
 8853 1e9f 2C       		.uleb128 0x2c
 8854 1ea0 7300     		.ascii	"s\000"
 8855 1ea2 02       		.byte	0x2
 8856 1ea3 6803     		.2byte	0x368
 8857 1ea5 670F0000 		.4byte	0xf67
 8858 1ea9 02       		.uleb128 0x2
 8859 1eaa 91       		.byte	0x91
 8860 1eab 6C       		.sleb128 -20
 8861 1eac 2A       		.uleb128 0x2a
 8862 1ead 6C656E00 		.ascii	"len\000"
 8863 1eb1 02       		.byte	0x2
 8864 1eb2 6A03     		.2byte	0x36a
 8865 1eb4 A6000000 		.4byte	0xa6
 8866 1eb8 02       		.uleb128 0x2
 8867 1eb9 91       		.byte	0x91
 8868 1eba 70       		.sleb128 -16
 8869 1ebb 2A       		.uleb128 0x2a
 8870 1ebc 6900     		.ascii	"i\000"
 8871 1ebe 02       		.byte	0x2
 8872 1ebf 6B03     		.2byte	0x36b
 8873 1ec1 A6000000 		.4byte	0xa6
 8874 1ec5 02       		.uleb128 0x2
 8875 1ec6 91       		.byte	0x91
 8876 1ec7 74       		.sleb128 -12
 8877 1ec8 00       		.byte	0
 8878 1ec9 28       		.uleb128 0x28
 8879 1eca C70E0000 		.4byte	.LASF508
 8880 1ece 02       		.byte	0x2
 8881 1ecf 7603     		.2byte	0x376
 8882 1ed1 00000000 		.4byte	.LFB657
 8883 1ed5 1C000000 		.4byte	.LFE657-.LFB657
 8884 1ed9 01       		.uleb128 0x1
 8885 1eda 9C       		.byte	0x9c
 8886 1edb ED1E0000 		.4byte	0x1eed
 8887 1edf 2C       		.uleb128 0x2c
 8888 1ee0 7300     		.ascii	"s\000"
 8889 1ee2 02       		.byte	0x2
 8890 1ee3 7603     		.2byte	0x376
 8891 1ee5 670F0000 		.4byte	0xf67
 8892 1ee9 02       		.uleb128 0x2
 8893 1eea 91       		.byte	0x91
 8894 1eeb 74       		.sleb128 -12
 8895 1eec 00       		.byte	0
 8896 1eed 07       		.uleb128 0x7
 8897 1eee FE1E0000 		.4byte	0x1efe
 8898 1ef2 FE1E0000 		.4byte	0x1efe
 8899 1ef6 09       		.uleb128 0x9
 8900 1ef7 EF000000 		.4byte	0xef
 8901 1efb FA04     		.2byte	0x4fa
 8902 1efd 00       		.byte	0
 8903 1efe 06       		.uleb128 0x6
 8904 1eff 49000000 		.4byte	0x49
ARM GAS  C:\Users\49148\AppData\Local\Temp\ccVXiEAG.s 			page 185


 8905 1f03 20       		.uleb128 0x20
 8906 1f04 3D200000 		.4byte	.LASF509
 8907 1f08 13       		.byte	0x13
 8908 1f09 05       		.byte	0x5
 8909 1f0a 141F0000 		.4byte	0x1f14
 8910 1f0e 05       		.uleb128 0x5
 8911 1f0f 03       		.byte	0x3
 8912 1f10 00000000 		.4byte	font
 8913 1f14 06       		.uleb128 0x6
 8914 1f15 ED1E0000 		.4byte	0x1eed
 8915 1f19 07       		.uleb128 0x7
 8916 1f1a B8000000 		.4byte	0xb8
 8917 1f1e 2A1F0000 		.4byte	0x1f2a
 8918 1f22 09       		.uleb128 0x9
 8919 1f23 EF000000 		.4byte	0xef
 8920 1f27 0004     		.2byte	0x400
 8921 1f29 00       		.byte	0
 8922 1f2a 20       		.uleb128 0x20
 8923 1f2b 3A270000 		.4byte	.LASF510
 8924 1f2f 02       		.byte	0x2
 8925 1f30 78       		.byte	0x78
 8926 1f31 191F0000 		.4byte	0x1f19
 8927 1f35 05       		.uleb128 0x5
 8928 1f36 03       		.byte	0x3
 8929 1f37 00000000 		.4byte	SH110X_buffer
 8930 1f3b 20       		.uleb128 0x20
 8931 1f3c BB1E0000 		.4byte	.LASF511
 8932 1f40 02       		.byte	0x2
 8933 1f41 7A       		.byte	0x7a
 8934 1f42 720D0000 		.4byte	0xd72
 8935 1f46 05       		.uleb128 0x5
 8936 1f47 03       		.byte	0x3
 8937 1f48 04040000 		.4byte	_displaybuf
 8938 1f4c 20       		.uleb128 0x20
 8939 1f4d 18200000 		.4byte	.LASF512
 8940 1f51 02       		.byte	0x2
 8941 1f52 7B       		.byte	0x7b
 8942 1f53 CE000000 		.4byte	0xce
 8943 1f57 05       		.uleb128 0x5
 8944 1f58 03       		.byte	0x3
 8945 1f59 08040000 		.4byte	_displaybuf_size
 8946 1f5d 20       		.uleb128 0x20
 8947 1f5e E0120000 		.4byte	.LASF513
 8948 1f62 02       		.byte	0x2
 8949 1f63 7E       		.byte	0x7e
 8950 1f64 C3000000 		.4byte	0xc3
 8951 1f68 05       		.uleb128 0x5
 8952 1f69 03       		.byte	0x3
 8953 1f6a 00000000 		.4byte	_width
 8954 1f6e 20       		.uleb128 0x20
 8955 1f6f DE160000 		.4byte	.LASF514
 8956 1f73 02       		.byte	0x2
 8957 1f74 7E       		.byte	0x7e
 8958 1f75 C3000000 		.4byte	0xc3
 8959 1f79 05       		.uleb128 0x5
 8960 1f7a 03       		.byte	0x3
 8961 1f7b 02000000 		.4byte	_height
ARM GAS  C:\Users\49148\AppData\Local\Temp\ccVXiEAG.s 			page 186


 8962 1f7f 20       		.uleb128 0x20
 8963 1f80 D8150000 		.4byte	.LASF515
 8964 1f84 02       		.byte	0x2
 8965 1f85 80       		.byte	0x80
 8966 1f86 C3000000 		.4byte	0xc3
 8967 1f8a 05       		.uleb128 0x5
 8968 1f8b 03       		.byte	0x3
 8969 1f8c 04000000 		.4byte	cursor_x
 8970 1f90 20       		.uleb128 0x20
 8971 1f91 E1150000 		.4byte	.LASF516
 8972 1f95 02       		.byte	0x2
 8973 1f96 80       		.byte	0x80
 8974 1f97 C3000000 		.4byte	0xc3
 8975 1f9b 05       		.uleb128 0x5
 8976 1f9c 03       		.byte	0x3
 8977 1f9d 06000000 		.4byte	cursor_y
 8978 1fa1 20       		.uleb128 0x20
 8979 1fa2 4E1D0000 		.4byte	.LASF517
 8980 1fa6 02       		.byte	0x2
 8981 1fa7 82       		.byte	0x82
 8982 1fa8 CE000000 		.4byte	0xce
 8983 1fac 05       		.uleb128 0x5
 8984 1fad 03       		.byte	0x3
 8985 1fae 08000000 		.4byte	textcolor
 8986 1fb2 20       		.uleb128 0x20
 8987 1fb3 89030000 		.4byte	.LASF518
 8988 1fb7 02       		.byte	0x2
 8989 1fb8 82       		.byte	0x82
 8990 1fb9 CE000000 		.4byte	0xce
 8991 1fbd 05       		.uleb128 0x5
 8992 1fbe 03       		.byte	0x3
 8993 1fbf 0A000000 		.4byte	textbgcolor
 8994 1fc3 20       		.uleb128 0x20
 8995 1fc4 CA0A0000 		.4byte	.LASF519
 8996 1fc8 02       		.byte	0x2
 8997 1fc9 83       		.byte	0x83
 8998 1fca B8000000 		.4byte	0xb8
 8999 1fce 05       		.uleb128 0x5
 9000 1fcf 03       		.byte	0x3
 9001 1fd0 0C000000 		.4byte	textsize
 9002 1fd4 32       		.uleb128 0x32
 9003 1fd5 09150000 		.4byte	.LASF520
 9004 1fd9 14       		.byte	0x14
 9005 1fda F907     		.2byte	0x7f9
 9006 1fdc E01F0000 		.4byte	0x1fe0
 9007 1fe0 05       		.uleb128 0x5
 9008 1fe1 D9000000 		.4byte	0xd9
 9009 1fe5 33       		.uleb128 0x33
 9010 1fe6 9B1F0000 		.4byte	.LASF521
 9011 1fea 07       		.byte	0x7
 9012 1feb A7       		.byte	0xa7
 9013 1fec F01F0000 		.4byte	0x1ff0
 9014 1ff0 15       		.uleb128 0x15
 9015 1ff1 04       		.byte	0x4
 9016 1ff2 F61F0000 		.4byte	0x1ff6
 9017 1ff6 06       		.uleb128 0x6
 9018 1ff7 050A0000 		.4byte	0xa05
ARM GAS  C:\Users\49148\AppData\Local\Temp\ccVXiEAG.s 			page 187


 9019 1ffb 32       		.uleb128 0x32
 9020 1ffc 3A230000 		.4byte	.LASF522
 9021 2000 0F       		.byte	0xf
 9022 2001 2202     		.2byte	0x222
 9023 2003 07130000 		.4byte	0x1307
 9024 2007 07       		.uleb128 0x7
 9025 2008 D6120000 		.4byte	0x12d6
 9026 200c 17200000 		.4byte	0x2017
 9027 2010 08       		.uleb128 0x8
 9028 2011 EF000000 		.4byte	0xef
 9029 2015 00       		.byte	0
 9030 2016 00       		.byte	0
 9031 2017 32       		.uleb128 0x32
 9032 2018 680A0000 		.4byte	.LASF523
 9033 201c 0F       		.byte	0xf
 9034 201d 2C02     		.2byte	0x22c
 9035 201f 07200000 		.4byte	0x2007
 9036 2023 07       		.uleb128 0x7
 9037 2024 4F130000 		.4byte	0x134f
 9038 2028 33200000 		.4byte	0x2033
 9039 202c 08       		.uleb128 0x8
 9040 202d EF000000 		.4byte	0xef
 9041 2031 00       		.byte	0
 9042 2032 00       		.byte	0
 9043 2033 32       		.uleb128 0x32
 9044 2034 35220000 		.4byte	.LASF524
 9045 2038 0F       		.byte	0xf
 9046 2039 2D02     		.2byte	0x22d
 9047 203b 23200000 		.4byte	0x2023
 9048 203f 32       		.uleb128 0x32
 9049 2040 53070000 		.4byte	.LASF525
 9050 2044 0F       		.byte	0xf
 9051 2045 5202     		.2byte	0x252
 9052 2047 B8000000 		.4byte	0xb8
 9053 204b 33       		.uleb128 0x33
 9054 204c 84240000 		.4byte	.LASF526
 9055 2050 01       		.byte	0x1
 9056 2051 7F       		.byte	0x7f
 9057 2052 7D0D0000 		.4byte	0xd7d
 9058 2056 33       		.uleb128 0x33
 9059 2057 06130000 		.4byte	.LASF527
 9060 205b 15       		.byte	0x15
 9061 205c 1F       		.byte	0x1f
 9062 205d 61200000 		.4byte	0x2061
 9063 2061 06       		.uleb128 0x6
 9064 2062 560F0000 		.4byte	0xf56
 9065 2066 33       		.uleb128 0x33
 9066 2067 AA1D0000 		.4byte	.LASF528
 9067 206b 16       		.byte	0x16
 9068 206c 87       		.byte	0x87
 9069 206d 590E0000 		.4byte	0xe59
 9070 2071 32       		.uleb128 0x32
 9071 2072 D31D0000 		.4byte	.LASF529
 9072 2076 12       		.byte	0x12
 9073 2077 6001     		.2byte	0x160
 9074 2079 E4000000 		.4byte	0xe4
 9075 207d 07       		.uleb128 0x7
ARM GAS  C:\Users\49148\AppData\Local\Temp\ccVXiEAG.s 			page 188


 9076 207e 8D200000 		.4byte	0x208d
 9077 2082 8D200000 		.4byte	0x208d
 9078 2086 08       		.uleb128 0x8
 9079 2087 EF000000 		.4byte	0xef
 9080 208b 00       		.byte	0
 9081 208c 00       		.byte	0
 9082 208d 06       		.uleb128 0x6
 9083 208e 18140000 		.4byte	0x1418
 9084 2092 32       		.uleb128 0x32
 9085 2093 66250000 		.4byte	.LASF530
 9086 2097 12       		.byte	0x12
 9087 2098 6401     		.2byte	0x164
 9088 209a 9E200000 		.4byte	0x209e
 9089 209e 06       		.uleb128 0x6
 9090 209f 7D200000 		.4byte	0x207d
 9091 20a3 34       		.uleb128 0x34
 9092 20a4 5E020000 		.4byte	.LASF531
 9093 20a8 02       		.byte	0x2
 9094 20a9 8F       		.byte	0x8f
 9095 20aa C3000000 		.4byte	0xc3
 9096 20ae 05       		.uleb128 0x5
 9097 20af 03       		.byte	0x3
 9098 20b0 00000000 		.4byte	window_x1
 9099 20b4 34       		.uleb128 0x34
 9100 20b5 4B030000 		.4byte	.LASF532
 9101 20b9 02       		.byte	0x2
 9102 20ba 91       		.byte	0x91
 9103 20bb C3000000 		.4byte	0xc3
 9104 20bf 05       		.uleb128 0x5
 9105 20c0 03       		.byte	0x3
 9106 20c1 00000000 		.4byte	window_y1
 9107 20c5 34       		.uleb128 0x34
 9108 20c6 68020000 		.4byte	.LASF533
 9109 20ca 02       		.byte	0x2
 9110 20cb 93       		.byte	0x93
 9111 20cc C3000000 		.4byte	0xc3
 9112 20d0 05       		.uleb128 0x5
 9113 20d1 03       		.byte	0x3
 9114 20d2 00000000 		.4byte	window_x2
 9115 20d6 34       		.uleb128 0x34
 9116 20d7 55030000 		.4byte	.LASF534
 9117 20db 02       		.byte	0x2
 9118 20dc 95       		.byte	0x95
 9119 20dd C3000000 		.4byte	0xc3
 9120 20e1 05       		.uleb128 0x5
 9121 20e2 03       		.byte	0x3
 9122 20e3 00000000 		.4byte	window_y2
 9123 20e7 34       		.uleb128 0x34
 9124 20e8 D5110000 		.4byte	.LASF535
 9125 20ec 02       		.byte	0x2
 9126 20ed 98       		.byte	0x98
 9127 20ee C3000000 		.4byte	0xc3
 9128 20f2 05       		.uleb128 0x5
 9129 20f3 03       		.byte	0x3
 9130 20f4 00000000 		.4byte	WIDTH
 9131 20f8 34       		.uleb128 0x34
 9132 20f9 A0000000 		.4byte	.LASF536
ARM GAS  C:\Users\49148\AppData\Local\Temp\ccVXiEAG.s 			page 189


 9133 20fd 02       		.byte	0x2
 9134 20fe 98       		.byte	0x98
 9135 20ff C3000000 		.4byte	0xc3
 9136 2103 05       		.uleb128 0x5
 9137 2104 03       		.byte	0x3
 9138 2105 00000000 		.4byte	HEIGHT
 9139 2109 34       		.uleb128 0x34
 9140 210a 951B0000 		.4byte	.LASF537
 9141 210e 02       		.byte	0x2
 9142 210f 9A       		.byte	0x9a
 9143 2110 B8000000 		.4byte	0xb8
 9144 2114 05       		.uleb128 0x5
 9145 2115 03       		.byte	0x3
 9146 2116 00000000 		.4byte	rotation
 9147 211a 34       		.uleb128 0x34
 9148 211b D21B0000 		.4byte	.LASF538
 9149 211f 02       		.byte	0x2
 9150 2120 9C       		.byte	0x9c
 9151 2121 B8000000 		.4byte	0xb8
 9152 2125 05       		.uleb128 0x5
 9153 2126 03       		.byte	0x3
 9154 2127 00000000 		.4byte	wrap
 9155 212b 00       		.byte	0
 9156              		.section	.debug_abbrev,"",%progbits
 9157              	.Ldebug_abbrev0:
 9158 0000 01       		.uleb128 0x1
 9159 0001 11       		.uleb128 0x11
 9160 0002 01       		.byte	0x1
 9161 0003 25       		.uleb128 0x25
 9162 0004 0E       		.uleb128 0xe
 9163 0005 13       		.uleb128 0x13
 9164 0006 0B       		.uleb128 0xb
 9165 0007 03       		.uleb128 0x3
 9166 0008 0E       		.uleb128 0xe
 9167 0009 1B       		.uleb128 0x1b
 9168 000a 0E       		.uleb128 0xe
 9169 000b 55       		.uleb128 0x55
 9170 000c 17       		.uleb128 0x17
 9171 000d 11       		.uleb128 0x11
 9172 000e 01       		.uleb128 0x1
 9173 000f 10       		.uleb128 0x10
 9174 0010 17       		.uleb128 0x17
 9175 0011 00       		.byte	0
 9176 0012 00       		.byte	0
 9177 0013 02       		.uleb128 0x2
 9178 0014 24       		.uleb128 0x24
 9179 0015 00       		.byte	0
 9180 0016 0B       		.uleb128 0xb
 9181 0017 0B       		.uleb128 0xb
 9182 0018 3E       		.uleb128 0x3e
 9183 0019 0B       		.uleb128 0xb
 9184 001a 03       		.uleb128 0x3
 9185 001b 0E       		.uleb128 0xe
 9186 001c 00       		.byte	0
 9187 001d 00       		.byte	0
 9188 001e 03       		.uleb128 0x3
 9189 001f 16       		.uleb128 0x16
ARM GAS  C:\Users\49148\AppData\Local\Temp\ccVXiEAG.s 			page 190


 9190 0020 00       		.byte	0
 9191 0021 03       		.uleb128 0x3
 9192 0022 0E       		.uleb128 0xe
 9193 0023 3A       		.uleb128 0x3a
 9194 0024 0B       		.uleb128 0xb
 9195 0025 3B       		.uleb128 0x3b
 9196 0026 0B       		.uleb128 0xb
 9197 0027 49       		.uleb128 0x49
 9198 0028 13       		.uleb128 0x13
 9199 0029 00       		.byte	0
 9200 002a 00       		.byte	0
 9201 002b 04       		.uleb128 0x4
 9202 002c 24       		.uleb128 0x24
 9203 002d 00       		.byte	0
 9204 002e 0B       		.uleb128 0xb
 9205 002f 0B       		.uleb128 0xb
 9206 0030 3E       		.uleb128 0x3e
 9207 0031 0B       		.uleb128 0xb
 9208 0032 03       		.uleb128 0x3
 9209 0033 08       		.uleb128 0x8
 9210 0034 00       		.byte	0
 9211 0035 00       		.byte	0
 9212 0036 05       		.uleb128 0x5
 9213 0037 35       		.uleb128 0x35
 9214 0038 00       		.byte	0
 9215 0039 49       		.uleb128 0x49
 9216 003a 13       		.uleb128 0x13
 9217 003b 00       		.byte	0
 9218 003c 00       		.byte	0
 9219 003d 06       		.uleb128 0x6
 9220 003e 26       		.uleb128 0x26
 9221 003f 00       		.byte	0
 9222 0040 49       		.uleb128 0x49
 9223 0041 13       		.uleb128 0x13
 9224 0042 00       		.byte	0
 9225 0043 00       		.byte	0
 9226 0044 07       		.uleb128 0x7
 9227 0045 01       		.uleb128 0x1
 9228 0046 01       		.byte	0x1
 9229 0047 49       		.uleb128 0x49
 9230 0048 13       		.uleb128 0x13
 9231 0049 01       		.uleb128 0x1
 9232 004a 13       		.uleb128 0x13
 9233 004b 00       		.byte	0
 9234 004c 00       		.byte	0
 9235 004d 08       		.uleb128 0x8
 9236 004e 21       		.uleb128 0x21
 9237 004f 00       		.byte	0
 9238 0050 49       		.uleb128 0x49
 9239 0051 13       		.uleb128 0x13
 9240 0052 2F       		.uleb128 0x2f
 9241 0053 0B       		.uleb128 0xb
 9242 0054 00       		.byte	0
 9243 0055 00       		.byte	0
 9244 0056 09       		.uleb128 0x9
 9245 0057 21       		.uleb128 0x21
 9246 0058 00       		.byte	0
ARM GAS  C:\Users\49148\AppData\Local\Temp\ccVXiEAG.s 			page 191


 9247 0059 49       		.uleb128 0x49
 9248 005a 13       		.uleb128 0x13
 9249 005b 2F       		.uleb128 0x2f
 9250 005c 05       		.uleb128 0x5
 9251 005d 00       		.byte	0
 9252 005e 00       		.byte	0
 9253 005f 0A       		.uleb128 0xa
 9254 0060 13       		.uleb128 0x13
 9255 0061 01       		.byte	0x1
 9256 0062 0B       		.uleb128 0xb
 9257 0063 05       		.uleb128 0x5
 9258 0064 3A       		.uleb128 0x3a
 9259 0065 0B       		.uleb128 0xb
 9260 0066 3B       		.uleb128 0x3b
 9261 0067 0B       		.uleb128 0xb
 9262 0068 01       		.uleb128 0x1
 9263 0069 13       		.uleb128 0x13
 9264 006a 00       		.byte	0
 9265 006b 00       		.byte	0
 9266 006c 0B       		.uleb128 0xb
 9267 006d 0D       		.uleb128 0xd
 9268 006e 00       		.byte	0
 9269 006f 03       		.uleb128 0x3
 9270 0070 0E       		.uleb128 0xe
 9271 0071 3A       		.uleb128 0x3a
 9272 0072 0B       		.uleb128 0xb
 9273 0073 3B       		.uleb128 0x3b
 9274 0074 0B       		.uleb128 0xb
 9275 0075 49       		.uleb128 0x49
 9276 0076 13       		.uleb128 0x13
 9277 0077 38       		.uleb128 0x38
 9278 0078 0B       		.uleb128 0xb
 9279 0079 00       		.byte	0
 9280 007a 00       		.byte	0
 9281 007b 0C       		.uleb128 0xc
 9282 007c 0D       		.uleb128 0xd
 9283 007d 00       		.byte	0
 9284 007e 03       		.uleb128 0x3
 9285 007f 0E       		.uleb128 0xe
 9286 0080 3A       		.uleb128 0x3a
 9287 0081 0B       		.uleb128 0xb
 9288 0082 3B       		.uleb128 0x3b
 9289 0083 0B       		.uleb128 0xb
 9290 0084 49       		.uleb128 0x49
 9291 0085 13       		.uleb128 0x13
 9292 0086 38       		.uleb128 0x38
 9293 0087 05       		.uleb128 0x5
 9294 0088 00       		.byte	0
 9295 0089 00       		.byte	0
 9296 008a 0D       		.uleb128 0xd
 9297 008b 16       		.uleb128 0x16
 9298 008c 00       		.byte	0
 9299 008d 03       		.uleb128 0x3
 9300 008e 0E       		.uleb128 0xe
 9301 008f 3A       		.uleb128 0x3a
 9302 0090 0B       		.uleb128 0xb
 9303 0091 3B       		.uleb128 0x3b
ARM GAS  C:\Users\49148\AppData\Local\Temp\ccVXiEAG.s 			page 192


 9304 0092 05       		.uleb128 0x5
 9305 0093 49       		.uleb128 0x49
 9306 0094 13       		.uleb128 0x13
 9307 0095 00       		.byte	0
 9308 0096 00       		.byte	0
 9309 0097 0E       		.uleb128 0xe
 9310 0098 13       		.uleb128 0x13
 9311 0099 01       		.byte	0x1
 9312 009a 0B       		.uleb128 0xb
 9313 009b 0B       		.uleb128 0xb
 9314 009c 3A       		.uleb128 0x3a
 9315 009d 0B       		.uleb128 0xb
 9316 009e 3B       		.uleb128 0x3b
 9317 009f 0B       		.uleb128 0xb
 9318 00a0 01       		.uleb128 0x1
 9319 00a1 13       		.uleb128 0x13
 9320 00a2 00       		.byte	0
 9321 00a3 00       		.byte	0
 9322 00a4 0F       		.uleb128 0xf
 9323 00a5 0F       		.uleb128 0xf
 9324 00a6 00       		.byte	0
 9325 00a7 0B       		.uleb128 0xb
 9326 00a8 0B       		.uleb128 0xb
 9327 00a9 00       		.byte	0
 9328 00aa 00       		.byte	0
 9329 00ab 10       		.uleb128 0x10
 9330 00ac 04       		.uleb128 0x4
 9331 00ad 01       		.byte	0x1
 9332 00ae 0B       		.uleb128 0xb
 9333 00af 0B       		.uleb128 0xb
 9334 00b0 49       		.uleb128 0x49
 9335 00b1 13       		.uleb128 0x13
 9336 00b2 3A       		.uleb128 0x3a
 9337 00b3 0B       		.uleb128 0xb
 9338 00b4 3B       		.uleb128 0x3b
 9339 00b5 05       		.uleb128 0x5
 9340 00b6 01       		.uleb128 0x1
 9341 00b7 13       		.uleb128 0x13
 9342 00b8 00       		.byte	0
 9343 00b9 00       		.byte	0
 9344 00ba 11       		.uleb128 0x11
 9345 00bb 28       		.uleb128 0x28
 9346 00bc 00       		.byte	0
 9347 00bd 03       		.uleb128 0x3
 9348 00be 0E       		.uleb128 0xe
 9349 00bf 1C       		.uleb128 0x1c
 9350 00c0 0B       		.uleb128 0xb
 9351 00c1 00       		.byte	0
 9352 00c2 00       		.byte	0
 9353 00c3 12       		.uleb128 0x12
 9354 00c4 13       		.uleb128 0x13
 9355 00c5 01       		.byte	0x1
 9356 00c6 0B       		.uleb128 0xb
 9357 00c7 0B       		.uleb128 0xb
 9358 00c8 3A       		.uleb128 0x3a
 9359 00c9 0B       		.uleb128 0xb
 9360 00ca 3B       		.uleb128 0x3b
ARM GAS  C:\Users\49148\AppData\Local\Temp\ccVXiEAG.s 			page 193


 9361 00cb 05       		.uleb128 0x5
 9362 00cc 01       		.uleb128 0x1
 9363 00cd 13       		.uleb128 0x13
 9364 00ce 00       		.byte	0
 9365 00cf 00       		.byte	0
 9366 00d0 13       		.uleb128 0x13
 9367 00d1 0D       		.uleb128 0xd
 9368 00d2 00       		.byte	0
 9369 00d3 03       		.uleb128 0x3
 9370 00d4 0E       		.uleb128 0xe
 9371 00d5 3A       		.uleb128 0x3a
 9372 00d6 0B       		.uleb128 0xb
 9373 00d7 3B       		.uleb128 0x3b
 9374 00d8 05       		.uleb128 0x5
 9375 00d9 49       		.uleb128 0x49
 9376 00da 13       		.uleb128 0x13
 9377 00db 38       		.uleb128 0x38
 9378 00dc 0B       		.uleb128 0xb
 9379 00dd 00       		.byte	0
 9380 00de 00       		.byte	0
 9381 00df 14       		.uleb128 0x14
 9382 00e0 28       		.uleb128 0x28
 9383 00e1 00       		.byte	0
 9384 00e2 03       		.uleb128 0x3
 9385 00e3 0E       		.uleb128 0xe
 9386 00e4 1C       		.uleb128 0x1c
 9387 00e5 06       		.uleb128 0x6
 9388 00e6 00       		.byte	0
 9389 00e7 00       		.byte	0
 9390 00e8 15       		.uleb128 0x15
 9391 00e9 0F       		.uleb128 0xf
 9392 00ea 00       		.byte	0
 9393 00eb 0B       		.uleb128 0xb
 9394 00ec 0B       		.uleb128 0xb
 9395 00ed 49       		.uleb128 0x49
 9396 00ee 13       		.uleb128 0x13
 9397 00ef 00       		.byte	0
 9398 00f0 00       		.byte	0
 9399 00f1 16       		.uleb128 0x16
 9400 00f2 15       		.uleb128 0x15
 9401 00f3 01       		.byte	0x1
 9402 00f4 27       		.uleb128 0x27
 9403 00f5 19       		.uleb128 0x19
 9404 00f6 01       		.uleb128 0x1
 9405 00f7 13       		.uleb128 0x13
 9406 00f8 00       		.byte	0
 9407 00f9 00       		.byte	0
 9408 00fa 17       		.uleb128 0x17
 9409 00fb 05       		.uleb128 0x5
 9410 00fc 00       		.byte	0
 9411 00fd 49       		.uleb128 0x49
 9412 00fe 13       		.uleb128 0x13
 9413 00ff 00       		.byte	0
 9414 0100 00       		.byte	0
 9415 0101 18       		.uleb128 0x18
 9416 0102 15       		.uleb128 0x15
 9417 0103 01       		.byte	0x1
ARM GAS  C:\Users\49148\AppData\Local\Temp\ccVXiEAG.s 			page 194


 9418 0104 27       		.uleb128 0x27
 9419 0105 19       		.uleb128 0x19
 9420 0106 49       		.uleb128 0x49
 9421 0107 13       		.uleb128 0x13
 9422 0108 01       		.uleb128 0x1
 9423 0109 13       		.uleb128 0x13
 9424 010a 00       		.byte	0
 9425 010b 00       		.byte	0
 9426 010c 19       		.uleb128 0x19
 9427 010d 13       		.uleb128 0x13
 9428 010e 01       		.byte	0x1
 9429 010f 03       		.uleb128 0x3
 9430 0110 0E       		.uleb128 0xe
 9431 0111 0B       		.uleb128 0xb
 9432 0112 0B       		.uleb128 0xb
 9433 0113 3A       		.uleb128 0x3a
 9434 0114 0B       		.uleb128 0xb
 9435 0115 3B       		.uleb128 0x3b
 9436 0116 05       		.uleb128 0x5
 9437 0117 01       		.uleb128 0x1
 9438 0118 13       		.uleb128 0x13
 9439 0119 00       		.byte	0
 9440 011a 00       		.byte	0
 9441 011b 1A       		.uleb128 0x1a
 9442 011c 13       		.uleb128 0x13
 9443 011d 01       		.byte	0x1
 9444 011e 03       		.uleb128 0x3
 9445 011f 0E       		.uleb128 0xe
 9446 0120 0B       		.uleb128 0xb
 9447 0121 0B       		.uleb128 0xb
 9448 0122 3A       		.uleb128 0x3a
 9449 0123 0B       		.uleb128 0xb
 9450 0124 3B       		.uleb128 0x3b
 9451 0125 0B       		.uleb128 0xb
 9452 0126 01       		.uleb128 0x1
 9453 0127 13       		.uleb128 0x13
 9454 0128 00       		.byte	0
 9455 0129 00       		.byte	0
 9456 012a 1B       		.uleb128 0x1b
 9457 012b 28       		.uleb128 0x28
 9458 012c 00       		.byte	0
 9459 012d 03       		.uleb128 0x3
 9460 012e 0E       		.uleb128 0xe
 9461 012f 1C       		.uleb128 0x1c
 9462 0130 05       		.uleb128 0x5
 9463 0131 00       		.byte	0
 9464 0132 00       		.byte	0
 9465 0133 1C       		.uleb128 0x1c
 9466 0134 04       		.uleb128 0x4
 9467 0135 01       		.byte	0x1
 9468 0136 0B       		.uleb128 0xb
 9469 0137 0B       		.uleb128 0xb
 9470 0138 49       		.uleb128 0x49
 9471 0139 13       		.uleb128 0x13
 9472 013a 3A       		.uleb128 0x3a
 9473 013b 0B       		.uleb128 0xb
 9474 013c 3B       		.uleb128 0x3b
ARM GAS  C:\Users\49148\AppData\Local\Temp\ccVXiEAG.s 			page 195


 9475 013d 0B       		.uleb128 0xb
 9476 013e 01       		.uleb128 0x1
 9477 013f 13       		.uleb128 0x13
 9478 0140 00       		.byte	0
 9479 0141 00       		.byte	0
 9480 0142 1D       		.uleb128 0x1d
 9481 0143 2E       		.uleb128 0x2e
 9482 0144 01       		.byte	0x1
 9483 0145 03       		.uleb128 0x3
 9484 0146 0E       		.uleb128 0xe
 9485 0147 3A       		.uleb128 0x3a
 9486 0148 0B       		.uleb128 0xb
 9487 0149 3B       		.uleb128 0x3b
 9488 014a 05       		.uleb128 0x5
 9489 014b 27       		.uleb128 0x27
 9490 014c 19       		.uleb128 0x19
 9491 014d 49       		.uleb128 0x49
 9492 014e 13       		.uleb128 0x13
 9493 014f 11       		.uleb128 0x11
 9494 0150 01       		.uleb128 0x1
 9495 0151 12       		.uleb128 0x12
 9496 0152 06       		.uleb128 0x6
 9497 0153 40       		.uleb128 0x40
 9498 0154 18       		.uleb128 0x18
 9499 0155 9642     		.uleb128 0x2116
 9500 0157 19       		.uleb128 0x19
 9501 0158 01       		.uleb128 0x1
 9502 0159 13       		.uleb128 0x13
 9503 015a 00       		.byte	0
 9504 015b 00       		.byte	0
 9505 015c 1E       		.uleb128 0x1e
 9506 015d 05       		.uleb128 0x5
 9507 015e 00       		.byte	0
 9508 015f 03       		.uleb128 0x3
 9509 0160 0E       		.uleb128 0xe
 9510 0161 3A       		.uleb128 0x3a
 9511 0162 0B       		.uleb128 0xb
 9512 0163 3B       		.uleb128 0x3b
 9513 0164 05       		.uleb128 0x5
 9514 0165 49       		.uleb128 0x49
 9515 0166 13       		.uleb128 0x13
 9516 0167 02       		.uleb128 0x2
 9517 0168 18       		.uleb128 0x18
 9518 0169 00       		.byte	0
 9519 016a 00       		.byte	0
 9520 016b 1F       		.uleb128 0x1f
 9521 016c 2E       		.uleb128 0x2e
 9522 016d 01       		.byte	0x1
 9523 016e 3F       		.uleb128 0x3f
 9524 016f 19       		.uleb128 0x19
 9525 0170 03       		.uleb128 0x3
 9526 0171 0E       		.uleb128 0xe
 9527 0172 3A       		.uleb128 0x3a
 9528 0173 0B       		.uleb128 0xb
 9529 0174 3B       		.uleb128 0x3b
 9530 0175 0B       		.uleb128 0xb
 9531 0176 27       		.uleb128 0x27
ARM GAS  C:\Users\49148\AppData\Local\Temp\ccVXiEAG.s 			page 196


 9532 0177 19       		.uleb128 0x19
 9533 0178 11       		.uleb128 0x11
 9534 0179 01       		.uleb128 0x1
 9535 017a 12       		.uleb128 0x12
 9536 017b 06       		.uleb128 0x6
 9537 017c 40       		.uleb128 0x40
 9538 017d 18       		.uleb128 0x18
 9539 017e 9642     		.uleb128 0x2116
 9540 0180 19       		.uleb128 0x19
 9541 0181 01       		.uleb128 0x1
 9542 0182 13       		.uleb128 0x13
 9543 0183 00       		.byte	0
 9544 0184 00       		.byte	0
 9545 0185 20       		.uleb128 0x20
 9546 0186 34       		.uleb128 0x34
 9547 0187 00       		.byte	0
 9548 0188 03       		.uleb128 0x3
 9549 0189 0E       		.uleb128 0xe
 9550 018a 3A       		.uleb128 0x3a
 9551 018b 0B       		.uleb128 0xb
 9552 018c 3B       		.uleb128 0x3b
 9553 018d 0B       		.uleb128 0xb
 9554 018e 49       		.uleb128 0x49
 9555 018f 13       		.uleb128 0x13
 9556 0190 02       		.uleb128 0x2
 9557 0191 18       		.uleb128 0x18
 9558 0192 00       		.byte	0
 9559 0193 00       		.byte	0
 9560 0194 21       		.uleb128 0x21
 9561 0195 2E       		.uleb128 0x2e
 9562 0196 01       		.byte	0x1
 9563 0197 03       		.uleb128 0x3
 9564 0198 0E       		.uleb128 0xe
 9565 0199 3A       		.uleb128 0x3a
 9566 019a 0B       		.uleb128 0xb
 9567 019b 3B       		.uleb128 0x3b
 9568 019c 0B       		.uleb128 0xb
 9569 019d 27       		.uleb128 0x27
 9570 019e 19       		.uleb128 0x19
 9571 019f 49       		.uleb128 0x49
 9572 01a0 13       		.uleb128 0x13
 9573 01a1 11       		.uleb128 0x11
 9574 01a2 01       		.uleb128 0x1
 9575 01a3 12       		.uleb128 0x12
 9576 01a4 06       		.uleb128 0x6
 9577 01a5 40       		.uleb128 0x40
 9578 01a6 18       		.uleb128 0x18
 9579 01a7 9642     		.uleb128 0x2116
 9580 01a9 19       		.uleb128 0x19
 9581 01aa 01       		.uleb128 0x1
 9582 01ab 13       		.uleb128 0x13
 9583 01ac 00       		.byte	0
 9584 01ad 00       		.byte	0
 9585 01ae 22       		.uleb128 0x22
 9586 01af 05       		.uleb128 0x5
 9587 01b0 00       		.byte	0
 9588 01b1 03       		.uleb128 0x3
ARM GAS  C:\Users\49148\AppData\Local\Temp\ccVXiEAG.s 			page 197


 9589 01b2 08       		.uleb128 0x8
 9590 01b3 3A       		.uleb128 0x3a
 9591 01b4 0B       		.uleb128 0xb
 9592 01b5 3B       		.uleb128 0x3b
 9593 01b6 0B       		.uleb128 0xb
 9594 01b7 49       		.uleb128 0x49
 9595 01b8 13       		.uleb128 0x13
 9596 01b9 02       		.uleb128 0x2
 9597 01ba 18       		.uleb128 0x18
 9598 01bb 00       		.byte	0
 9599 01bc 00       		.byte	0
 9600 01bd 23       		.uleb128 0x23
 9601 01be 05       		.uleb128 0x5
 9602 01bf 00       		.byte	0
 9603 01c0 03       		.uleb128 0x3
 9604 01c1 0E       		.uleb128 0xe
 9605 01c2 3A       		.uleb128 0x3a
 9606 01c3 0B       		.uleb128 0xb
 9607 01c4 3B       		.uleb128 0x3b
 9608 01c5 0B       		.uleb128 0xb
 9609 01c6 49       		.uleb128 0x49
 9610 01c7 13       		.uleb128 0x13
 9611 01c8 02       		.uleb128 0x2
 9612 01c9 18       		.uleb128 0x18
 9613 01ca 00       		.byte	0
 9614 01cb 00       		.byte	0
 9615 01cc 24       		.uleb128 0x24
 9616 01cd 0B       		.uleb128 0xb
 9617 01ce 01       		.byte	0x1
 9618 01cf 11       		.uleb128 0x11
 9619 01d0 01       		.uleb128 0x1
 9620 01d1 12       		.uleb128 0x12
 9621 01d2 06       		.uleb128 0x6
 9622 01d3 00       		.byte	0
 9623 01d4 00       		.byte	0
 9624 01d5 25       		.uleb128 0x25
 9625 01d6 34       		.uleb128 0x34
 9626 01d7 00       		.byte	0
 9627 01d8 03       		.uleb128 0x3
 9628 01d9 08       		.uleb128 0x8
 9629 01da 3A       		.uleb128 0x3a
 9630 01db 0B       		.uleb128 0xb
 9631 01dc 3B       		.uleb128 0x3b
 9632 01dd 0B       		.uleb128 0xb
 9633 01de 49       		.uleb128 0x49
 9634 01df 13       		.uleb128 0x13
 9635 01e0 02       		.uleb128 0x2
 9636 01e1 18       		.uleb128 0x18
 9637 01e2 00       		.byte	0
 9638 01e3 00       		.byte	0
 9639 01e4 26       		.uleb128 0x26
 9640 01e5 2E       		.uleb128 0x2e
 9641 01e6 01       		.byte	0x1
 9642 01e7 03       		.uleb128 0x3
 9643 01e8 0E       		.uleb128 0xe
 9644 01e9 3A       		.uleb128 0x3a
 9645 01ea 0B       		.uleb128 0xb
ARM GAS  C:\Users\49148\AppData\Local\Temp\ccVXiEAG.s 			page 198


 9646 01eb 3B       		.uleb128 0x3b
 9647 01ec 0B       		.uleb128 0xb
 9648 01ed 27       		.uleb128 0x27
 9649 01ee 19       		.uleb128 0x19
 9650 01ef 11       		.uleb128 0x11
 9651 01f0 01       		.uleb128 0x1
 9652 01f1 12       		.uleb128 0x12
 9653 01f2 06       		.uleb128 0x6
 9654 01f3 40       		.uleb128 0x40
 9655 01f4 18       		.uleb128 0x18
 9656 01f5 9742     		.uleb128 0x2117
 9657 01f7 19       		.uleb128 0x19
 9658 01f8 01       		.uleb128 0x1
 9659 01f9 13       		.uleb128 0x13
 9660 01fa 00       		.byte	0
 9661 01fb 00       		.byte	0
 9662 01fc 27       		.uleb128 0x27
 9663 01fd 2E       		.uleb128 0x2e
 9664 01fe 00       		.byte	0
 9665 01ff 3F       		.uleb128 0x3f
 9666 0200 19       		.uleb128 0x19
 9667 0201 03       		.uleb128 0x3
 9668 0202 0E       		.uleb128 0xe
 9669 0203 3A       		.uleb128 0x3a
 9670 0204 0B       		.uleb128 0xb
 9671 0205 3B       		.uleb128 0x3b
 9672 0206 05       		.uleb128 0x5
 9673 0207 27       		.uleb128 0x27
 9674 0208 19       		.uleb128 0x19
 9675 0209 11       		.uleb128 0x11
 9676 020a 01       		.uleb128 0x1
 9677 020b 12       		.uleb128 0x12
 9678 020c 06       		.uleb128 0x6
 9679 020d 40       		.uleb128 0x40
 9680 020e 18       		.uleb128 0x18
 9681 020f 9642     		.uleb128 0x2116
 9682 0211 19       		.uleb128 0x19
 9683 0212 00       		.byte	0
 9684 0213 00       		.byte	0
 9685 0214 28       		.uleb128 0x28
 9686 0215 2E       		.uleb128 0x2e
 9687 0216 01       		.byte	0x1
 9688 0217 3F       		.uleb128 0x3f
 9689 0218 19       		.uleb128 0x19
 9690 0219 03       		.uleb128 0x3
 9691 021a 0E       		.uleb128 0xe
 9692 021b 3A       		.uleb128 0x3a
 9693 021c 0B       		.uleb128 0xb
 9694 021d 3B       		.uleb128 0x3b
 9695 021e 05       		.uleb128 0x5
 9696 021f 27       		.uleb128 0x27
 9697 0220 19       		.uleb128 0x19
 9698 0221 11       		.uleb128 0x11
 9699 0222 01       		.uleb128 0x1
 9700 0223 12       		.uleb128 0x12
 9701 0224 06       		.uleb128 0x6
 9702 0225 40       		.uleb128 0x40
ARM GAS  C:\Users\49148\AppData\Local\Temp\ccVXiEAG.s 			page 199


 9703 0226 18       		.uleb128 0x18
 9704 0227 9642     		.uleb128 0x2116
 9705 0229 19       		.uleb128 0x19
 9706 022a 01       		.uleb128 0x1
 9707 022b 13       		.uleb128 0x13
 9708 022c 00       		.byte	0
 9709 022d 00       		.byte	0
 9710 022e 29       		.uleb128 0x29
 9711 022f 34       		.uleb128 0x34
 9712 0230 00       		.byte	0
 9713 0231 03       		.uleb128 0x3
 9714 0232 0E       		.uleb128 0xe
 9715 0233 3A       		.uleb128 0x3a
 9716 0234 0B       		.uleb128 0xb
 9717 0235 3B       		.uleb128 0x3b
 9718 0236 05       		.uleb128 0x5
 9719 0237 49       		.uleb128 0x49
 9720 0238 13       		.uleb128 0x13
 9721 0239 02       		.uleb128 0x2
 9722 023a 18       		.uleb128 0x18
 9723 023b 00       		.byte	0
 9724 023c 00       		.byte	0
 9725 023d 2A       		.uleb128 0x2a
 9726 023e 34       		.uleb128 0x34
 9727 023f 00       		.byte	0
 9728 0240 03       		.uleb128 0x3
 9729 0241 08       		.uleb128 0x8
 9730 0242 3A       		.uleb128 0x3a
 9731 0243 0B       		.uleb128 0xb
 9732 0244 3B       		.uleb128 0x3b
 9733 0245 05       		.uleb128 0x5
 9734 0246 49       		.uleb128 0x49
 9735 0247 13       		.uleb128 0x13
 9736 0248 02       		.uleb128 0x2
 9737 0249 18       		.uleb128 0x18
 9738 024a 00       		.byte	0
 9739 024b 00       		.byte	0
 9740 024c 2B       		.uleb128 0x2b
 9741 024d 2E       		.uleb128 0x2e
 9742 024e 01       		.byte	0x1
 9743 024f 03       		.uleb128 0x3
 9744 0250 0E       		.uleb128 0xe
 9745 0251 3A       		.uleb128 0x3a
 9746 0252 0B       		.uleb128 0xb
 9747 0253 3B       		.uleb128 0x3b
 9748 0254 05       		.uleb128 0x5
 9749 0255 27       		.uleb128 0x27
 9750 0256 19       		.uleb128 0x19
 9751 0257 11       		.uleb128 0x11
 9752 0258 01       		.uleb128 0x1
 9753 0259 12       		.uleb128 0x12
 9754 025a 06       		.uleb128 0x6
 9755 025b 40       		.uleb128 0x40
 9756 025c 18       		.uleb128 0x18
 9757 025d 9742     		.uleb128 0x2117
 9758 025f 19       		.uleb128 0x19
 9759 0260 01       		.uleb128 0x1
ARM GAS  C:\Users\49148\AppData\Local\Temp\ccVXiEAG.s 			page 200


 9760 0261 13       		.uleb128 0x13
 9761 0262 00       		.byte	0
 9762 0263 00       		.byte	0
 9763 0264 2C       		.uleb128 0x2c
 9764 0265 05       		.uleb128 0x5
 9765 0266 00       		.byte	0
 9766 0267 03       		.uleb128 0x3
 9767 0268 08       		.uleb128 0x8
 9768 0269 3A       		.uleb128 0x3a
 9769 026a 0B       		.uleb128 0xb
 9770 026b 3B       		.uleb128 0x3b
 9771 026c 05       		.uleb128 0x5
 9772 026d 49       		.uleb128 0x49
 9773 026e 13       		.uleb128 0x13
 9774 026f 02       		.uleb128 0x2
 9775 0270 18       		.uleb128 0x18
 9776 0271 00       		.byte	0
 9777 0272 00       		.byte	0
 9778 0273 2D       		.uleb128 0x2d
 9779 0274 0B       		.uleb128 0xb
 9780 0275 01       		.byte	0x1
 9781 0276 11       		.uleb128 0x11
 9782 0277 01       		.uleb128 0x1
 9783 0278 12       		.uleb128 0x12
 9784 0279 06       		.uleb128 0x6
 9785 027a 01       		.uleb128 0x1
 9786 027b 13       		.uleb128 0x13
 9787 027c 00       		.byte	0
 9788 027d 00       		.byte	0
 9789 027e 2E       		.uleb128 0x2e
 9790 027f 2E       		.uleb128 0x2e
 9791 0280 01       		.byte	0x1
 9792 0281 3F       		.uleb128 0x3f
 9793 0282 19       		.uleb128 0x19
 9794 0283 03       		.uleb128 0x3
 9795 0284 0E       		.uleb128 0xe
 9796 0285 3A       		.uleb128 0x3a
 9797 0286 0B       		.uleb128 0xb
 9798 0287 3B       		.uleb128 0x3b
 9799 0288 05       		.uleb128 0x5
 9800 0289 27       		.uleb128 0x27
 9801 028a 19       		.uleb128 0x19
 9802 028b 49       		.uleb128 0x49
 9803 028c 13       		.uleb128 0x13
 9804 028d 11       		.uleb128 0x11
 9805 028e 01       		.uleb128 0x1
 9806 028f 12       		.uleb128 0x12
 9807 0290 06       		.uleb128 0x6
 9808 0291 40       		.uleb128 0x40
 9809 0292 18       		.uleb128 0x18
 9810 0293 9742     		.uleb128 0x2117
 9811 0295 19       		.uleb128 0x19
 9812 0296 01       		.uleb128 0x1
 9813 0297 13       		.uleb128 0x13
 9814 0298 00       		.byte	0
 9815 0299 00       		.byte	0
 9816 029a 2F       		.uleb128 0x2f
ARM GAS  C:\Users\49148\AppData\Local\Temp\ccVXiEAG.s 			page 201


 9817 029b 2E       		.uleb128 0x2e
 9818 029c 01       		.byte	0x1
 9819 029d 3F       		.uleb128 0x3f
 9820 029e 19       		.uleb128 0x19
 9821 029f 03       		.uleb128 0x3
 9822 02a0 0E       		.uleb128 0xe
 9823 02a1 3A       		.uleb128 0x3a
 9824 02a2 0B       		.uleb128 0xb
 9825 02a3 3B       		.uleb128 0x3b
 9826 02a4 05       		.uleb128 0x5
 9827 02a5 27       		.uleb128 0x27
 9828 02a6 19       		.uleb128 0x19
 9829 02a7 11       		.uleb128 0x11
 9830 02a8 01       		.uleb128 0x1
 9831 02a9 12       		.uleb128 0x12
 9832 02aa 06       		.uleb128 0x6
 9833 02ab 40       		.uleb128 0x40
 9834 02ac 18       		.uleb128 0x18
 9835 02ad 9742     		.uleb128 0x2117
 9836 02af 19       		.uleb128 0x19
 9837 02b0 01       		.uleb128 0x1
 9838 02b1 13       		.uleb128 0x13
 9839 02b2 00       		.byte	0
 9840 02b3 00       		.byte	0
 9841 02b4 30       		.uleb128 0x30
 9842 02b5 2E       		.uleb128 0x2e
 9843 02b6 00       		.byte	0
 9844 02b7 3F       		.uleb128 0x3f
 9845 02b8 19       		.uleb128 0x19
 9846 02b9 03       		.uleb128 0x3
 9847 02ba 0E       		.uleb128 0xe
 9848 02bb 3A       		.uleb128 0x3a
 9849 02bc 0B       		.uleb128 0xb
 9850 02bd 3B       		.uleb128 0x3b
 9851 02be 05       		.uleb128 0x5
 9852 02bf 27       		.uleb128 0x27
 9853 02c0 19       		.uleb128 0x19
 9854 02c1 49       		.uleb128 0x49
 9855 02c2 13       		.uleb128 0x13
 9856 02c3 11       		.uleb128 0x11
 9857 02c4 01       		.uleb128 0x1
 9858 02c5 12       		.uleb128 0x12
 9859 02c6 06       		.uleb128 0x6
 9860 02c7 40       		.uleb128 0x40
 9861 02c8 18       		.uleb128 0x18
 9862 02c9 9742     		.uleb128 0x2117
 9863 02cb 19       		.uleb128 0x19
 9864 02cc 00       		.byte	0
 9865 02cd 00       		.byte	0
 9866 02ce 31       		.uleb128 0x31
 9867 02cf 2E       		.uleb128 0x2e
 9868 02d0 01       		.byte	0x1
 9869 02d1 03       		.uleb128 0x3
 9870 02d2 0E       		.uleb128 0xe
 9871 02d3 3A       		.uleb128 0x3a
 9872 02d4 0B       		.uleb128 0xb
 9873 02d5 3B       		.uleb128 0x3b
ARM GAS  C:\Users\49148\AppData\Local\Temp\ccVXiEAG.s 			page 202


 9874 02d6 05       		.uleb128 0x5
 9875 02d7 27       		.uleb128 0x27
 9876 02d8 19       		.uleb128 0x19
 9877 02d9 11       		.uleb128 0x11
 9878 02da 01       		.uleb128 0x1
 9879 02db 12       		.uleb128 0x12
 9880 02dc 06       		.uleb128 0x6
 9881 02dd 40       		.uleb128 0x40
 9882 02de 18       		.uleb128 0x18
 9883 02df 9642     		.uleb128 0x2116
 9884 02e1 19       		.uleb128 0x19
 9885 02e2 01       		.uleb128 0x1
 9886 02e3 13       		.uleb128 0x13
 9887 02e4 00       		.byte	0
 9888 02e5 00       		.byte	0
 9889 02e6 32       		.uleb128 0x32
 9890 02e7 34       		.uleb128 0x34
 9891 02e8 00       		.byte	0
 9892 02e9 03       		.uleb128 0x3
 9893 02ea 0E       		.uleb128 0xe
 9894 02eb 3A       		.uleb128 0x3a
 9895 02ec 0B       		.uleb128 0xb
 9896 02ed 3B       		.uleb128 0x3b
 9897 02ee 05       		.uleb128 0x5
 9898 02ef 49       		.uleb128 0x49
 9899 02f0 13       		.uleb128 0x13
 9900 02f1 3F       		.uleb128 0x3f
 9901 02f2 19       		.uleb128 0x19
 9902 02f3 3C       		.uleb128 0x3c
 9903 02f4 19       		.uleb128 0x19
 9904 02f5 00       		.byte	0
 9905 02f6 00       		.byte	0
 9906 02f7 33       		.uleb128 0x33
 9907 02f8 34       		.uleb128 0x34
 9908 02f9 00       		.byte	0
 9909 02fa 03       		.uleb128 0x3
 9910 02fb 0E       		.uleb128 0xe
 9911 02fc 3A       		.uleb128 0x3a
 9912 02fd 0B       		.uleb128 0xb
 9913 02fe 3B       		.uleb128 0x3b
 9914 02ff 0B       		.uleb128 0xb
 9915 0300 49       		.uleb128 0x49
 9916 0301 13       		.uleb128 0x13
 9917 0302 3F       		.uleb128 0x3f
 9918 0303 19       		.uleb128 0x19
 9919 0304 3C       		.uleb128 0x3c
 9920 0305 19       		.uleb128 0x19
 9921 0306 00       		.byte	0
 9922 0307 00       		.byte	0
 9923 0308 34       		.uleb128 0x34
 9924 0309 34       		.uleb128 0x34
 9925 030a 00       		.byte	0
 9926 030b 03       		.uleb128 0x3
 9927 030c 0E       		.uleb128 0xe
 9928 030d 3A       		.uleb128 0x3a
 9929 030e 0B       		.uleb128 0xb
 9930 030f 3B       		.uleb128 0x3b
ARM GAS  C:\Users\49148\AppData\Local\Temp\ccVXiEAG.s 			page 203


 9931 0310 0B       		.uleb128 0xb
 9932 0311 49       		.uleb128 0x49
 9933 0312 13       		.uleb128 0x13
 9934 0313 3F       		.uleb128 0x3f
 9935 0314 19       		.uleb128 0x19
 9936 0315 02       		.uleb128 0x2
 9937 0316 18       		.uleb128 0x18
 9938 0317 00       		.byte	0
 9939 0318 00       		.byte	0
 9940 0319 00       		.byte	0
 9941              		.section	.debug_aranges,"",%progbits
 9942 0000 24010000 		.4byte	0x124
 9943 0004 0200     		.2byte	0x2
 9944 0006 00000000 		.4byte	.Ldebug_info0
 9945 000a 04       		.byte	0x4
 9946 000b 00       		.byte	0
 9947 000c 0000     		.2byte	0
 9948 000e 0000     		.2byte	0
 9949 0010 00000000 		.4byte	.LFB538
 9950 0014 30000000 		.4byte	.LFE538-.LFB538
 9951 0018 00000000 		.4byte	.LFB540
 9952 001c 24000000 		.4byte	.LFE540-.LFB540
 9953 0020 00000000 		.4byte	.LFB542
 9954 0024 2C000000 		.4byte	.LFE542-.LFB542
 9955 0028 00000000 		.4byte	.LFB627
 9956 002c 58000000 		.4byte	.LFE627-.LFB627
 9957 0030 00000000 		.4byte	.LFB628
 9958 0034 6E000000 		.4byte	.LFE628-.LFB628
 9959 0038 00000000 		.4byte	.LFB629
 9960 003c 48010000 		.4byte	.LFE629-.LFB629
 9961 0040 00000000 		.4byte	.LFB630
 9962 0044 54000000 		.4byte	.LFE630-.LFB630
 9963 0048 00000000 		.4byte	.LFB631
 9964 004c 28000000 		.4byte	.LFE631-.LFB631
 9965 0050 00000000 		.4byte	.LFB632
 9966 0054 36000000 		.4byte	.LFE632-.LFB632
 9967 0058 00000000 		.4byte	.LFB633
 9968 005c 18010000 		.4byte	.LFE633-.LFB633
 9969 0060 00000000 		.4byte	.LFB634
 9970 0064 4C020000 		.4byte	.LFE634-.LFB634
 9971 0068 00000000 		.4byte	.LFB635
 9972 006c A4000000 		.4byte	.LFE635-.LFB635
 9973 0070 00000000 		.4byte	.LFB636
 9974 0074 9C000000 		.4byte	.LFE636-.LFB636
 9975 0078 00000000 		.4byte	.LFB637
 9976 007c 18000000 		.4byte	.LFE637-.LFB637
 9977 0080 00000000 		.4byte	.LFB638
 9978 0084 18000000 		.4byte	.LFE638-.LFB638
 9979 0088 00000000 		.4byte	.LFB639
 9980 008c 18000000 		.4byte	.LFE639-.LFB639
 9981 0090 00000000 		.4byte	.LFB640
 9982 0094 30000000 		.4byte	.LFE640-.LFB640
 9983 0098 00000000 		.4byte	.LFB641
 9984 009c 2C000000 		.4byte	.LFE641-.LFB641
 9985 00a0 00000000 		.4byte	.LFB642
 9986 00a4 2C000000 		.4byte	.LFE642-.LFB642
 9987 00a8 00000000 		.4byte	.LFB643
ARM GAS  C:\Users\49148\AppData\Local\Temp\ccVXiEAG.s 			page 204


 9988 00ac 20000000 		.4byte	.LFE643-.LFB643
 9989 00b0 00000000 		.4byte	.LFB644
 9990 00b4 20000000 		.4byte	.LFE644-.LFB644
 9991 00b8 00000000 		.4byte	.LFB645
 9992 00bc 80000000 		.4byte	.LFE645-.LFB645
 9993 00c0 00000000 		.4byte	.LFB646
 9994 00c4 C4000000 		.4byte	.LFE646-.LFB646
 9995 00c8 00000000 		.4byte	.LFB647
 9996 00cc 6C000000 		.4byte	.LFE647-.LFB647
 9997 00d0 00000000 		.4byte	.LFB648
 9998 00d4 AC010000 		.4byte	.LFE648-.LFB648
 9999 00d8 00000000 		.4byte	.LFB649
 10000 00dc 74010000 		.4byte	.LFE649-.LFB649
 10001 00e0 00000000 		.4byte	.LFB650
 10002 00e4 E2000000 		.4byte	.LFE650-.LFB650
 10003 00e8 00000000 		.4byte	.LFB651
 10004 00ec C8000000 		.4byte	.LFE651-.LFB651
 10005 00f0 00000000 		.4byte	.LFB652
 10006 00f4 D6010000 		.4byte	.LFE652-.LFB652
 10007 00f8 00000000 		.4byte	.LFB653
 10008 00fc 74000000 		.4byte	.LFE653-.LFB653
 10009 0100 00000000 		.4byte	.LFB654
 10010 0104 F0010000 		.4byte	.LFE654-.LFB654
 10011 0108 00000000 		.4byte	.LFB655
 10012 010c F4000000 		.4byte	.LFE655-.LFB655
 10013 0110 00000000 		.4byte	.LFB656
 10014 0114 3E000000 		.4byte	.LFE656-.LFB656
 10015 0118 00000000 		.4byte	.LFB657
 10016 011c 1C000000 		.4byte	.LFE657-.LFB657
 10017 0120 00000000 		.4byte	0
 10018 0124 00000000 		.4byte	0
 10019              		.section	.debug_ranges,"",%progbits
 10020              	.Ldebug_ranges0:
 10021 0000 00000000 		.4byte	.LFB538
 10022 0004 30000000 		.4byte	.LFE538
 10023 0008 00000000 		.4byte	.LFB540
 10024 000c 24000000 		.4byte	.LFE540
 10025 0010 00000000 		.4byte	.LFB542
 10026 0014 2C000000 		.4byte	.LFE542
 10027 0018 00000000 		.4byte	.LFB627
 10028 001c 58000000 		.4byte	.LFE627
 10029 0020 00000000 		.4byte	.LFB628
 10030 0024 6E000000 		.4byte	.LFE628
 10031 0028 00000000 		.4byte	.LFB629
 10032 002c 48010000 		.4byte	.LFE629
 10033 0030 00000000 		.4byte	.LFB630
 10034 0034 54000000 		.4byte	.LFE630
 10035 0038 00000000 		.4byte	.LFB631
 10036 003c 28000000 		.4byte	.LFE631
 10037 0040 00000000 		.4byte	.LFB632
 10038 0044 36000000 		.4byte	.LFE632
 10039 0048 00000000 		.4byte	.LFB633
 10040 004c 18010000 		.4byte	.LFE633
 10041 0050 00000000 		.4byte	.LFB634
 10042 0054 4C020000 		.4byte	.LFE634
 10043 0058 00000000 		.4byte	.LFB635
 10044 005c A4000000 		.4byte	.LFE635
ARM GAS  C:\Users\49148\AppData\Local\Temp\ccVXiEAG.s 			page 205


 10045 0060 00000000 		.4byte	.LFB636
 10046 0064 9C000000 		.4byte	.LFE636
 10047 0068 00000000 		.4byte	.LFB637
 10048 006c 18000000 		.4byte	.LFE637
 10049 0070 00000000 		.4byte	.LFB638
 10050 0074 18000000 		.4byte	.LFE638
 10051 0078 00000000 		.4byte	.LFB639
 10052 007c 18000000 		.4byte	.LFE639
 10053 0080 00000000 		.4byte	.LFB640
 10054 0084 30000000 		.4byte	.LFE640
 10055 0088 00000000 		.4byte	.LFB641
 10056 008c 2C000000 		.4byte	.LFE641
 10057 0090 00000000 		.4byte	.LFB642
 10058 0094 2C000000 		.4byte	.LFE642
 10059 0098 00000000 		.4byte	.LFB643
 10060 009c 20000000 		.4byte	.LFE643
 10061 00a0 00000000 		.4byte	.LFB644
 10062 00a4 20000000 		.4byte	.LFE644
 10063 00a8 00000000 		.4byte	.LFB645
 10064 00ac 80000000 		.4byte	.LFE645
 10065 00b0 00000000 		.4byte	.LFB646
 10066 00b4 C4000000 		.4byte	.LFE646
 10067 00b8 00000000 		.4byte	.LFB647
 10068 00bc 6C000000 		.4byte	.LFE647
 10069 00c0 00000000 		.4byte	.LFB648
 10070 00c4 AC010000 		.4byte	.LFE648
 10071 00c8 00000000 		.4byte	.LFB649
 10072 00cc 74010000 		.4byte	.LFE649
 10073 00d0 00000000 		.4byte	.LFB650
 10074 00d4 E2000000 		.4byte	.LFE650
 10075 00d8 00000000 		.4byte	.LFB651
 10076 00dc C8000000 		.4byte	.LFE651
 10077 00e0 00000000 		.4byte	.LFB652
 10078 00e4 D6010000 		.4byte	.LFE652
 10079 00e8 00000000 		.4byte	.LFB653
 10080 00ec 74000000 		.4byte	.LFE653
 10081 00f0 00000000 		.4byte	.LFB654
 10082 00f4 F0010000 		.4byte	.LFE654
 10083 00f8 00000000 		.4byte	.LFB655
 10084 00fc F4000000 		.4byte	.LFE655
 10085 0100 00000000 		.4byte	.LFB656
 10086 0104 3E000000 		.4byte	.LFE656
 10087 0108 00000000 		.4byte	.LFB657
 10088 010c 1C000000 		.4byte	.LFE657
 10089 0110 00000000 		.4byte	0
 10090 0114 00000000 		.4byte	0
 10091              		.section	.debug_line,"",%progbits
 10092              	.Ldebug_line0:
 10093 0000 4E090000 		.section	.debug_str,"MS",%progbits,1
 10093      0200FE03 
 10093      00000201 
 10093      FB0E0D00 
 10093      01010101 
 10094              	.LASF290:
 10095 0000 43595F42 		.ascii	"CY_BLE_EVT_PENDING_FLASH_WRITE\000"
 10095      4C455F45 
 10095      56545F50 
ARM GAS  C:\Users\49148\AppData\Local\Temp\ccVXiEAG.s 			page 206


 10095      454E4449 
 10095      4E475F46 
 10096              	.LASF371:
 10097 001f 43595F42 		.ascii	"CY_BLE_EVT_GATTC_READ_BY_TYPE_RSP\000"
 10097      4C455F45 
 10097      56545F47 
 10097      41545443 
 10097      5F524541 
 10098              	.LASF216:
 10099 0041 63795F65 		.ascii	"cy_en_scb_i2c_status_t\000"
 10099      6E5F7363 
 10099      625F6932 
 10099      635F7374 
 10099      61747573 
 10100              	.LASF15:
 10101 0058 696E7438 		.ascii	"int8_t\000"
 10101      5F7400
 10102              	.LASF102:
 10103 005f 63727970 		.ascii	"cryptoBase\000"
 10103      746F4261 
 10103      736500
 10104              	.LASF166:
 10105 006a 63707573 		.ascii	"cpussCm0StatusOffset\000"
 10105      73436D30 
 10105      53746174 
 10105      75734F66 
 10105      66736574 
 10106              	.LASF428:
 10107 007f 43595F42 		.ascii	"CY_BLE_DIS_CHAR_COUNT\000"
 10107      4C455F44 
 10107      49535F43 
 10107      4841525F 
 10107      434F554E 
 10108              	.LASF198:
 10109 0095 6368616E 		.ascii	"chanConfig\000"
 10109      436F6E66 
 10109      696700
 10110              	.LASF536:
 10111 00a0 48454947 		.ascii	"HEIGHT\000"
 10111      485400
 10112              	.LASF386:
 10113 00a7 43595F42 		.ascii	"CY_BLE_EVT_GATTS_DATA_SIGNED_CMD_REQ\000"
 10113      4C455F45 
 10113      56545F47 
 10113      41545453 
 10113      5F444154 
 10114              	.LASF318:
 10115 00cc 43595F42 		.ascii	"CY_BLE_EVT_SET_DEVICE_ADDR_COMPLETE\000"
 10115      4C455F45 
 10115      56545F53 
 10115      45545F44 
 10115      45564943 
 10116              	.LASF477:
 10117 00f0 706F7765 		.ascii	"powers\000"
 10117      727300
 10118              	.LASF52:
 10119 00f7 52585F4D 		.ascii	"RX_MATCH\000"
ARM GAS  C:\Users\49148\AppData\Local\Temp\ccVXiEAG.s 			page 207


 10119      41544348 
 10119      00
 10120              	.LASF249:
 10121 0100 63795F73 		.ascii	"cy_stc_scb_uart_context\000"
 10121      74635F73 
 10121      63625F75 
 10121      6172745F 
 10121      636F6E74 
 10122              	.LASF464:
 10123 0118 70616765 		.ascii	"page_start\000"
 10123      5F737461 
 10123      727400
 10124              	.LASF59:
 10125 0123 494E5452 		.ascii	"INTR_CAUSE\000"
 10125      5F434155 
 10125      534500
 10126              	.LASF30:
 10127 012e 55415254 		.ascii	"UART_CTRL\000"
 10127      5F435452 
 10127      4C00
 10128              	.LASF274:
 10129 0138 63617074 		.ascii	"captureInputMode\000"
 10129      75726549 
 10129      6E707574 
 10129      4D6F6465 
 10129      00
 10130              	.LASF256:
 10131 0149 72784275 		.ascii	"rxBuf\000"
 10131      6600
 10132              	.LASF317:
 10133 014f 43595F42 		.ascii	"CY_BLE_EVT_SOFT_RESET_COMPLETE\000"
 10133      4C455F45 
 10133      56545F53 
 10133      4F46545F 
 10133      52455345 
 10134              	.LASF129:
 10135 016e 63727970 		.ascii	"cryptoMemSize\000"
 10135      746F4D65 
 10135      6D53697A 
 10135      6500
 10136              	.LASF465:
 10137 017c 70616765 		.ascii	"page_end\000"
 10137      5F656E64 
 10137      00
 10138              	.LASF143:
 10139 0185 64774368 		.ascii	"dwChCtlPreemptablePos\000"
 10139      43746C50 
 10139      7265656D 
 10139      70746162 
 10139      6C65506F 
 10140              	.LASF324:
 10141 019b 43595F42 		.ascii	"CY_BLE_EVT_SET_CLK_CONFIG_COMPLETE\000"
 10141      4C455F45 
 10141      56545F53 
 10141      45545F43 
 10141      4C4B5F43 
 10142              	.LASF98:
ARM GAS  C:\Users\49148\AppData\Local\Temp\ccVXiEAG.s 			page 208


 10143 01be 6873696F 		.ascii	"hsiomBase\000"
 10143      6D426173 
 10143      6500
 10144              	.LASF119:
 10145 01c8 73727373 		.ascii	"srssNumClkpath\000"
 10145      4E756D43 
 10145      6C6B7061 
 10145      746800
 10146              	.LASF323:
 10147 01d7 43595F42 		.ascii	"CY_BLE_EVT_GET_CLK_CONFIG_COMPLETE\000"
 10147      4C455F45 
 10147      56545F47 
 10147      45545F43 
 10147      4C4B5F43 
 10148              	.LASF416:
 10149 01fa 43595F42 		.ascii	"CY_BLE_CONN_STATE_CLIENT_DESCR_DISCOVERING\000"
 10149      4C455F43 
 10149      4F4E4E5F 
 10149      53544154 
 10149      455F434C 
 10150              	.LASF434:
 10151 0225 6E756D43 		.ascii	"numChannels\000"
 10151      68616E6E 
 10151      656C7300 
 10152              	.LASF184:
 10153 0231 75696E74 		.ascii	"uint32\000"
 10153      333200
 10154              	.LASF296:
 10155 0238 43595F42 		.ascii	"CY_BLE_EVT_LE_SET_EVENT_MASK_COMPLETE\000"
 10155      4C455F45 
 10155      56545F4C 
 10155      455F5345 
 10155      545F4556 
 10156              	.LASF531:
 10157 025e 77696E64 		.ascii	"window_x1\000"
 10157      6F775F78 
 10157      3100
 10158              	.LASF533:
 10159 0268 77696E64 		.ascii	"window_x2\000"
 10159      6F775F78 
 10159      3200
 10160              	.LASF292:
 10161 0272 43595F42 		.ascii	"CY_BLE_EVT_HARDWARE_ERROR\000"
 10161      4C455F45 
 10161      56545F48 
 10161      41524457 
 10161      4152455F 
 10162              	.LASF455:
 10163 028c 636F6E74 		.ascii	"contrast\000"
 10163      72617374 
 10163      00
 10164              	.LASF431:
 10165 0295 43595F42 		.ascii	"CY_BLE_HRS_CPT\000"
 10165      4C455F48 
 10165      52535F43 
 10165      505400
 10166              	.LASF293:
ARM GAS  C:\Users\49148\AppData\Local\Temp\ccVXiEAG.s 			page 209


 10167 02a4 43595F42 		.ascii	"CY_BLE_EVT_WRITE_AUTH_PAYLOAD_TO_COMPLETE\000"
 10167      4C455F45 
 10167      56545F57 
 10167      52495445 
 10167      5F415554 
 10168              	.LASF250:
 10169 02ce 74785374 		.ascii	"txStatus\000"
 10169      61747573 
 10169      00
 10170              	.LASF401:
 10171 02d7 43595F42 		.ascii	"CY_BLE_EVT_MAX\000"
 10171      4C455F45 
 10171      56545F4D 
 10171      415800
 10172              	.LASF461:
 10173 02e6 62797465 		.ascii	"bytes_per_page\000"
 10173      735F7065 
 10173      725F7061 
 10173      676500
 10174              	.LASF227:
 10175 02f5 73746174 		.ascii	"state\000"
 10175      6500
 10176              	.LASF454:
 10177 02fb 64697370 		.ascii	"display_contrast\000"
 10177      6C61795F 
 10177      636F6E74 
 10177      72617374 
 10177      00
 10178              	.LASF470:
 10179 030c 70737461 		.ascii	"pstart\000"
 10179      727400
 10180              	.LASF159:
 10181 0313 6770696F 		.ascii	"gpioPrtCfgOffset\000"
 10181      50727443 
 10181      66674F66 
 10181      66736574 
 10181      00
 10182              	.LASF71:
 10183 0324 494E5452 		.ascii	"INTR_M\000"
 10183      5F4D00
 10184              	.LASF270:
 10185 032b 636F6D70 		.ascii	"compare0\000"
 10185      61726530 
 10185      00
 10186              	.LASF271:
 10187 0334 636F6D70 		.ascii	"compare1\000"
 10187      61726531 
 10187      00
 10188              	.LASF121:
 10189 033d 73727373 		.ascii	"srssNumHfroot\000"
 10189      4E756D48 
 10189      66726F6F 
 10189      7400
 10190              	.LASF532:
 10191 034b 77696E64 		.ascii	"window_y1\000"
 10191      6F775F79 
 10191      3100
ARM GAS  C:\Users\49148\AppData\Local\Temp\ccVXiEAG.s 			page 210


 10192              	.LASF534:
 10193 0355 77696E64 		.ascii	"window_y2\000"
 10193      6F775F79 
 10193      3200
 10194              	.LASF376:
 10195 035f 43595F42 		.ascii	"CY_BLE_EVT_GATTC_READ_MULTI_RSP\000"
 10195      4C455F45 
 10195      56545F47 
 10195      41545443 
 10195      5F524541 
 10196              	.LASF5:
 10197 037f 5F5F696E 		.ascii	"__int16_t\000"
 10197      7431365F 
 10197      7400
 10198              	.LASF518:
 10199 0389 74657874 		.ascii	"textbgcolor\000"
 10199      6267636F 
 10199      6C6F7200 
 10200              	.LASF467:
 10201 0395 746F5F77 		.ascii	"to_write\000"
 10201      72697465 
 10201      00
 10202              	.LASF316:
 10203 039e 43595F42 		.ascii	"CY_BLE_EVT_LL_CNTRL_PROC_PENDING_COMPLETE\000"
 10203      4C455F45 
 10203      56545F4C 
 10203      4C5F434E 
 10203      54524C5F 
 10204              	.LASF282:
 10205 03c8 636F756E 		.ascii	"countInputMode\000"
 10205      74496E70 
 10205      75744D6F 
 10205      646500
 10206              	.LASF86:
 10207 03d7 494E5452 		.ascii	"INTR_RX\000"
 10207      5F525800 
 10208              	.LASF144:
 10209 03df 64775374 		.ascii	"dwStatusChIdxPos\000"
 10209      61747573 
 10209      43684964 
 10209      78506F73 
 10209      00
 10210              	.LASF40:
 10211 03f0 4932435F 		.ascii	"I2C_CFG\000"
 10211      43464700 
 10212              	.LASF382:
 10213 03f8 43595F42 		.ascii	"CY_BLE_EVT_GATTC_EXEC_WRITE_RSP\000"
 10213      4C455F45 
 10213      56545F47 
 10213      41545443 
 10213      5F455845 
 10214              	.LASF360:
 10215 0418 43595F42 		.ascii	"CY_BLE_EVT_GAP_GEN_SET_LOCAL_P256_KEYS_COMPLETE\000"
 10215      4C455F45 
 10215      56545F47 
 10215      41505F47 
 10215      454E5F53 
ARM GAS  C:\Users\49148\AppData\Local\Temp\ccVXiEAG.s 			page 211


 10216              	.LASF389:
 10217 0448 43595F42 		.ascii	"CY_BLE_EVT_GATTC_LONG_PROCEDURE_END\000"
 10217      4C455F45 
 10217      56545F47 
 10217      41545443 
 10217      5F4C4F4E 
 10218              	.LASF50:
 10219 046c 52585F46 		.ascii	"RX_FIFO_STATUS\000"
 10219      49464F5F 
 10219      53544154 
 10219      555300
 10220              	.LASF394:
 10221 047b 43595F42 		.ascii	"CY_BLE_EVT_L2CAP_CBFC_CONN_CNF\000"
 10221      4C455F45 
 10221      56545F4C 
 10221      32434150 
 10221      5F434246 
 10222              	.LASF402:
 10223 049a 62644861 		.ascii	"bdHandle\000"
 10223      6E646C65 
 10223      00
 10224              	.LASF441:
 10225 04a3 74696D65 		.ascii	"timeoutMs\000"
 10225      6F75744D 
 10225      7300
 10226              	.LASF3:
 10227 04ad 5F5F7569 		.ascii	"__uint8_t\000"
 10227      6E74385F 
 10227      7400
 10228              	.LASF343:
 10229 04b7 43595F42 		.ascii	"CY_BLE_EVT_GAP_AUTH_FAILED\000"
 10229      4C455F45 
 10229      56545F47 
 10229      41505F41 
 10229      5554485F 
 10230              	.LASF88:
 10231 04d2 494E5452 		.ascii	"INTR_RX_MASK\000"
 10231      5F52585F 
 10231      4D41534B 
 10231      00
 10232              	.LASF429:
 10233 04df 43595F42 		.ascii	"CY_BLE_HRS_HRM\000"
 10233      4C455F48 
 10233      52535F48 
 10233      524D00
 10234              	.LASF309:
 10235 04ee 43595F42 		.ascii	"CY_BLE_EVT_ADD_DEVICE_TO_WHITE_LIST_COMPLETE\000"
 10235      4C455F45 
 10235      56545F41 
 10235      44445F44 
 10235      45564943 
 10236              	.LASF225:
 10237 051b 75736552 		.ascii	"useRxFifo\000"
 10237      78466966 
 10237      6F00
 10238              	.LASF201:
 10239 0525 72616E67 		.ascii	"rangeIntrMask\000"
ARM GAS  C:\Users\49148\AppData\Local\Temp\ccVXiEAG.s 			page 212


 10239      65496E74 
 10239      724D6173 
 10239      6B00
 10240              	.LASF384:
 10241 0533 43595F42 		.ascii	"CY_BLE_EVT_GATTC_HANDLE_VALUE_IND\000"
 10241      4C455F45 
 10241      56545F47 
 10241      41545443 
 10241      5F48414E 
 10242              	.LASF260:
 10243 0555 74784275 		.ascii	"txBufSize\000"
 10243      6653697A 
 10243      6500
 10244              	.LASF288:
 10245 055f 43595F42 		.ascii	"CY_BLE_EVT_STACK_BUSY_STATUS\000"
 10245      4C455F45 
 10245      56545F53 
 10245      5441434B 
 10245      5F425553 
 10246              	.LASF48:
 10247 057c 52585F43 		.ascii	"RX_CTRL\000"
 10247      54524C00 
 10248              	.LASF9:
 10249 0584 6C6F6E67 		.ascii	"long int\000"
 10249      20696E74 
 10249      00
 10250              	.LASF368:
 10251 058d 43595F42 		.ascii	"CY_BLE_EVT_GATTS_XCNHG_MTU_REQ\000"
 10251      4C455F45 
 10251      56545F47 
 10251      41545453 
 10251      5F58434E 
 10252              	.LASF334:
 10253 05ac 43595F42 		.ascii	"CY_BLE_EVT_SET_EVENT_MASK_COMPLETE\000"
 10253      4C455F45 
 10253      56545F53 
 10253      45545F45 
 10253      56454E54 
 10254              	.LASF417:
 10255 05cf 43595F42 		.ascii	"CY_BLE_CONN_STATE_CLIENT_DISCOVERED\000"
 10255      4C455F43 
 10255      4F4E4E5F 
 10255      53544154 
 10255      455F434C 
 10256              	.LASF479:
 10257 05f3 64696769 		.ascii	"digits\000"
 10257      747300
 10258              	.LASF377:
 10259 05fa 43595F42 		.ascii	"CY_BLE_EVT_GATTS_WRITE_REQ\000"
 10259      4C455F45 
 10259      56545F47 
 10259      41545453 
 10259      5F575249 
 10260              	.LASF27:
 10261 0615 5350495F 		.ascii	"SPI_CTRL\000"
 10261      4354524C 
 10261      00
ARM GAS  C:\Users\49148\AppData\Local\Temp\ccVXiEAG.s 			page 213


 10262              	.LASF215:
 10263 061e 43595F53 		.ascii	"CY_SCB_I2C_MASTER_MANUAL_ABORT_START\000"
 10263      43425F49 
 10263      32435F4D 
 10263      41535445 
 10263      525F4D41 
 10264              	.LASF147:
 10265 0643 70657269 		.ascii	"periTrCmdGrSelMsk\000"
 10265      5472436D 
 10265      64477253 
 10265      656C4D73 
 10265      6B00
 10266              	.LASF276:
 10267 0655 72656C6F 		.ascii	"reloadInputMode\000"
 10267      6164496E 
 10267      7075744D 
 10267      6F646500 
 10268              	.LASF81:
 10269 0665 494E5452 		.ascii	"INTR_TX\000"
 10269      5F545800 
 10270              	.LASF154:
 10271 066d 70657269 		.ascii	"periDiv8CtlOffset\000"
 10271      44697638 
 10271      43746C4F 
 10271      66667365 
 10271      7400
 10272              	.LASF504:
 10273 067f 6766785F 		.ascii	"gfx_drawChar\000"
 10273      64726177 
 10273      43686172 
 10273      00
 10274              	.LASF84:
 10275 068c 494E5452 		.ascii	"INTR_TX_MASKED\000"
 10275      5F54585F 
 10275      4D41534B 
 10275      454400
 10276              	.LASF149:
 10277 069b 70657269 		.ascii	"periTrGrSize\000"
 10277      54724772 
 10277      53697A65 
 10277      00
 10278              	.LASF315:
 10279 06a8 43595F42 		.ascii	"CY_BLE_EVT_SET_PRIVACY_MODE_COMPLETE\000"
 10279      4C455F45 
 10279      56545F53 
 10279      45545F50 
 10279      52495641 
 10280              	.LASF6:
 10281 06cd 5F5F7569 		.ascii	"__uint16_t\000"
 10281      6E743136 
 10281      5F7400
 10282              	.LASF347:
 10283 06d8 43595F42 		.ascii	"CY_BLE_EVT_GAP_ENCRYPT_CHANGE\000"
 10283      4C455F45 
 10283      56545F47 
 10283      41505F45 
 10283      4E435259 
ARM GAS  C:\Users\49148\AppData\Local\Temp\ccVXiEAG.s 			page 214


 10284              	.LASF361:
 10285 06f6 43595F42 		.ascii	"CY_BLE_EVT_GAP_CREATE_CONN_CANCEL_COMPLETE\000"
 10285      4C455F45 
 10285      56545F47 
 10285      41505F43 
 10285      52454154 
 10286              	.LASF306:
 10287 0721 43595F42 		.ascii	"CY_BLE_EVT_SET_HOST_CHANNEL_COMPLETE\000"
 10287      4C455F45 
 10287      56545F53 
 10287      45545F48 
 10287      4F53545F 
 10288              	.LASF32:
 10289 0746 55415254 		.ascii	"UART_RX_CTRL\000"
 10289      5F52585F 
 10289      4354524C 
 10289      00
 10290              	.LASF525:
 10291 0753 63795F62 		.ascii	"cy_ble_pendingFlashWrite\000"
 10291      6C655F70 
 10291      656E6469 
 10291      6E67466C 
 10291      61736857 
 10292              	.LASF87:
 10293 076c 494E5452 		.ascii	"INTR_RX_SET\000"
 10293      5F52585F 
 10293      53455400 
 10294              	.LASF406:
 10295 0778 43595F42 		.ascii	"CY_BLE_ADV_STATE_ADV_INITIATED\000"
 10295      4C455F41 
 10295      44565F53 
 10295      54415445 
 10295      5F414456 
 10296              	.LASF287:
 10297 0797 43595F42 		.ascii	"CY_BLE_EVT_TIMEOUT\000"
 10297      4C455F45 
 10297      56545F54 
 10297      494D454F 
 10297      555400
 10298              	.LASF308:
 10299 07aa 43595F42 		.ascii	"CY_BLE_EVT_REMOVE_DEVICE_FROM_RPA_LIST_COMPLETE\000"
 10299      4C455F45 
 10299      56545F52 
 10299      454D4F56 
 10299      455F4445 
 10300              	.LASF433:
 10301 07da 6368616E 		.ascii	"channelBase\000"
 10301      6E656C42 
 10301      61736500 
 10302              	.LASF122:
 10303 07e6 70657269 		.ascii	"periClockNr\000"
 10303      436C6F63 
 10303      6B4E7200 
 10304              	.LASF1:
 10305 07f2 7369676E 		.ascii	"signed char\000"
 10305      65642063 
 10305      68617200 
ARM GAS  C:\Users\49148\AppData\Local\Temp\ccVXiEAG.s 			page 215


 10306              	.LASF355:
 10307 07fe 43595F42 		.ascii	"CY_BLE_EVT_GAPC_DIRECT_ADV_REPORT\000"
 10307      4C455F45 
 10307      56545F47 
 10307      4150435F 
 10307      44495245 
 10308              	.LASF16:
 10309 0820 75696E74 		.ascii	"uint8_t\000"
 10309      385F7400 
 10310              	.LASF498:
 10311 0828 6766785F 		.ascii	"gfx_drawRect\000"
 10311      64726177 
 10311      52656374 
 10311      00
 10312              	.LASF217:
 10313 0835 43595F53 		.ascii	"CY_SCB_I2C_WRITE_XFER\000"
 10313      43425F49 
 10313      32435F57 
 10313      52495445 
 10313      5F584645 
 10314              	.LASF152:
 10315 084b 70657269 		.ascii	"periDivCmdPaDivSelPos\000"
 10315      44697643 
 10315      6D645061 
 10315      44697653 
 10315      656C506F 
 10316              	.LASF173:
 10317 0861 63707573 		.ascii	"cpussRomCtl\000"
 10317      73526F6D 
 10317      43746C00 
 10318              	.LASF239:
 10319 086d 736C6176 		.ascii	"slaveTxBufferIdx\000"
 10319      65547842 
 10319      75666665 
 10319      72496478 
 10319      00
 10320              	.LASF398:
 10321 087e 43595F42 		.ascii	"CY_BLE_EVT_L2CAP_CBFC_RX_CREDIT_IND\000"
 10321      4C455F45 
 10321      56545F4C 
 10321      32434150 
 10321      5F434246 
 10322              	.LASF385:
 10323 08a2 43595F42 		.ascii	"CY_BLE_EVT_GATTS_HANDLE_VALUE_CNF\000"
 10323      4C455F45 
 10323      56545F47 
 10323      41545453 
 10323      5F48414E 
 10324              	.LASF488:
 10325 08c4 6766785F 		.ascii	"gfx_setTextColor\000"
 10325      73657454 
 10325      65787443 
 10325      6F6C6F72 
 10325      00
 10326              	.LASF94:
 10327 08d5 666C6173 		.ascii	"flashcBase\000"
 10327      68634261 
ARM GAS  C:\Users\49148\AppData\Local\Temp\ccVXiEAG.s 			page 216


 10327      736500
 10328              	.LASF241:
 10329 08e0 736C6176 		.ascii	"slaveRxBuffer\000"
 10329      65527842 
 10329      75666665 
 10329      7200
 10330              	.LASF24:
 10331 08ee 434D445F 		.ascii	"CMD_RESP_CTRL\000"
 10331      52455350 
 10331      5F435452 
 10331      4C00
 10332              	.LASF29:
 10333 08fc 52455345 		.ascii	"RESERVED1\000"
 10333      52564544 
 10333      3100
 10334              	.LASF4:
 10335 0906 756E7369 		.ascii	"unsigned char\000"
 10335      676E6564 
 10335      20636861 
 10335      7200
 10336              	.LASF83:
 10337 0914 494E5452 		.ascii	"INTR_TX_MASK\000"
 10337      5F54585F 
 10337      4D41534B 
 10337      00
 10338              	.LASF442:
 10339 0921 4932435F 		.ascii	"I2C_BUS_MasterSendStart\000"
 10339      4255535F 
 10339      4D617374 
 10339      65725365 
 10339      6E645374 
 10340              	.LASF47:
 10341 0939 52455345 		.ascii	"RESERVED5\000"
 10341      52564544 
 10341      3500
 10342              	.LASF51:
 10343 0943 52455345 		.ascii	"RESERVED6\000"
 10343      52564544 
 10343      3600
 10344              	.LASF53:
 10345 094d 52455345 		.ascii	"RESERVED7\000"
 10345      52564544 
 10345      3700
 10346              	.LASF56:
 10347 0957 52455345 		.ascii	"RESERVED8\000"
 10347      52564544 
 10347      3800
 10348              	.LASF58:
 10349 0961 52455345 		.ascii	"RESERVED9\000"
 10349      52564544 
 10349      3900
 10350              	.LASF494:
 10351 096b 6766785F 		.ascii	"gfx_hvLine\000"
 10351      68764C69 
 10351      6E6500
 10352              	.LASF246:
 10353 0976 63795F73 		.ascii	"cy_stc_scb_i2c_context_t\000"
ARM GAS  C:\Users\49148\AppData\Local\Temp\ccVXiEAG.s 			page 217


 10353      74635F73 
 10353      63625F69 
 10353      32635F63 
 10353      6F6E7465 
 10354              	.LASF200:
 10355 098f 73617449 		.ascii	"satIntrMask\000"
 10355      6E74724D 
 10355      61736B00 
 10356              	.LASF357:
 10357 099b 43595F42 		.ascii	"CY_BLE_EVT_GAP_DEVICE_ADDR_GEN_COMPLETE\000"
 10357      4C455F45 
 10357      56545F47 
 10357      41505F44 
 10357      45564943 
 10358              	.LASF466:
 10359 09c3 62797465 		.ascii	"bytes_remaining\000"
 10359      735F7265 
 10359      6D61696E 
 10359      696E6700 
 10360              	.LASF415:
 10361 09d3 43595F42 		.ascii	"CY_BLE_CONN_STATE_CLIENT_CHAR_DISCOVERING\000"
 10361      4C455F43 
 10361      4F4E4E5F 
 10361      53544154 
 10361      455F434C 
 10362              	.LASF191:
 10363 09fd 6374726C 		.ascii	"ctrl\000"
 10363      00
 10364              	.LASF372:
 10365 0a02 43595F42 		.ascii	"CY_BLE_EVT_GATTC_FIND_INFO_RSP\000"
 10365      4C455F45 
 10365      56545F47 
 10365      41545443 
 10365      5F46494E 
 10366              	.LASF340:
 10367 0a21 43595F42 		.ascii	"CY_BLE_EVT_GAP_PASSKEY_ENTRY_REQUEST\000"
 10367      4C455F45 
 10367      56545F47 
 10367      41505F50 
 10367      4153534B 
 10368              	.LASF205:
 10369 0a46 76726566 		.ascii	"vrefMvValue\000"
 10369      4D765661 
 10369      6C756500 
 10370              	.LASF168:
 10371 0a52 63707573 		.ascii	"cpussTrimRamCtlOffset\000"
 10371      73547269 
 10371      6D52616D 
 10371      43746C4F 
 10371      66667365 
 10372              	.LASF523:
 10373 0a68 63795F62 		.ascii	"cy_ble_connHandle\000"
 10373      6C655F63 
 10373      6F6E6E48 
 10373      616E646C 
 10373      6500
 10374              	.LASF449:
ARM GAS  C:\Users\49148\AppData\Local\Temp\ccVXiEAG.s 			page 218


 10375 0a7a 73656E64 		.ascii	"send_dc\000"
 10375      5F646300 
 10376              	.LASF185:
 10377 0a82 5F426F6F 		.ascii	"_Bool\000"
 10377      6C00
 10378              	.LASF100:
 10379 0a88 70617373 		.ascii	"passBase\000"
 10379      42617365 
 10379      00
 10380              	.LASF169:
 10381 0a91 63707573 		.ascii	"cpussTrimRomCtlOffset\000"
 10381      73547269 
 10381      6D526F6D 
 10381      43746C4F 
 10381      66667365 
 10382              	.LASF35:
 10383 0aa7 52455345 		.ascii	"RESERVED2\000"
 10383      52564544 
 10383      3200
 10384              	.LASF41:
 10385 0ab1 52455345 		.ascii	"RESERVED3\000"
 10385      52564544 
 10385      3300
 10386              	.LASF45:
 10387 0abb 52455345 		.ascii	"RESERVED4\000"
 10387      52564544 
 10387      3400
 10388              	.LASF180:
 10389 0ac5 63686172 		.ascii	"char\000"
 10389      00
 10390              	.LASF519:
 10391 0aca 74657874 		.ascii	"textsize\000"
 10391      73697A65 
 10391      00
 10392              	.LASF39:
 10393 0ad3 4932435F 		.ascii	"I2C_S_CMD\000"
 10393      535F434D 
 10393      4400
 10394              	.LASF76:
 10395 0add 494E5452 		.ascii	"INTR_S\000"
 10395      5F5300
 10396              	.LASF471:
 10397 0ae4 70656E64 		.ascii	"pend\000"
 10397      00
 10398              	.LASF311:
 10399 0ae9 43595F42 		.ascii	"CY_BLE_EVT_GET_PHY_COMPLETE\000"
 10399      4C455F45 
 10399      56545F47 
 10399      45545F50 
 10399      48595F43 
 10400              	.LASF313:
 10401 0b05 43595F42 		.ascii	"CY_BLE_EVT_SET_PHY_COMPLETE\000"
 10401      4C455F45 
 10401      56545F53 
 10401      45545F50 
 10401      48595F43 
 10402              	.LASF328:
ARM GAS  C:\Users\49148\AppData\Local\Temp\ccVXiEAG.s 			page 219


 10403 0b21 43595F42 		.ascii	"CY_BLE_EVT_AES_CCM_DECRYPT_COMPLETE\000"
 10403      4C455F45 
 10403      56545F41 
 10403      45535F43 
 10403      434D5F44 
 10404              	.LASF267:
 10405 0b45 72756E4D 		.ascii	"runMode\000"
 10405      6F646500 
 10406              	.LASF480:
 10407 0b4d 6766785F 		.ascii	"gfx_init\000"
 10407      696E6974 
 10407      00
 10408              	.LASF257:
 10409 0b56 72784275 		.ascii	"rxBufSize\000"
 10409      6653697A 
 10409      6500
 10410              	.LASF31:
 10411 0b60 55415254 		.ascii	"UART_TX_CTRL\000"
 10411      5F54585F 
 10411      4354524C 
 10411      00
 10412              	.LASF46:
 10413 0b6d 54585F46 		.ascii	"TX_FIFO_WR\000"
 10413      49464F5F 
 10413      575200
 10414              	.LASF266:
 10415 0b78 636C6F63 		.ascii	"clockPrescaler\000"
 10415      6B507265 
 10415      7363616C 
 10415      657200
 10416              	.LASF483:
 10417 0b87 6766785F 		.ascii	"gfx_width\000"
 10417      77696474 
 10417      6800
 10418              	.LASF354:
 10419 0b91 43595F42 		.ascii	"CY_BLE_EVT_GAP_ENHANCE_CONN_COMPLETE\000"
 10419      4C455F45 
 10419      56545F47 
 10419      41505F45 
 10419      4E48414E 
 10420              	.LASF387:
 10421 0bb6 43595F42 		.ascii	"CY_BLE_EVT_GATTC_STOP_CMD_COMPLETE\000"
 10421      4C455F45 
 10421      56545F47 
 10421      41545443 
 10421      5F53544F 
 10422              	.LASF390:
 10423 0bd9 43595F42 		.ascii	"CY_BLE_EVT_L2CAP_CONN_PARAM_UPDATE_REQ\000"
 10423      4C455F45 
 10423      56545F4C 
 10423      32434150 
 10423      5F434F4E 
 10424              	.LASF116:
 10425 0c00 63707573 		.ascii	"cpussIpc0Irq\000"
 10425      73497063 
 10425      30497271 
 10425      00
ARM GAS  C:\Users\49148\AppData\Local\Temp\ccVXiEAG.s 			page 220


 10426              	.LASF105:
 10427 0c0d 64775665 		.ascii	"dwVersion\000"
 10427      7273696F 
 10427      6E00
 10428              	.LASF236:
 10429 0c17 736C6176 		.ascii	"slaveRdBufEmpty\000"
 10429      65526442 
 10429      7566456D 
 10429      70747900 
 10430              	.LASF206:
 10431 0c27 63795F73 		.ascii	"cy_stc_sar_config_t\000"
 10431      74635F73 
 10431      61725F63 
 10431      6F6E6669 
 10431      675F7400 
 10432              	.LASF96:
 10433 0c3b 75646242 		.ascii	"udbBase\000"
 10433      61736500 
 10434              	.LASF378:
 10435 0c43 43595F42 		.ascii	"CY_BLE_EVT_GATTC_WRITE_RSP\000"
 10435      4C455F45 
 10435      56545F47 
 10435      41545443 
 10435      5F575249 
 10436              	.LASF163:
 10437 0c5e 63707573 		.ascii	"cpussCm0ClockCtlOffset\000"
 10437      73436D30 
 10437      436C6F63 
 10437      6B43746C 
 10437      4F666673 
 10438              	.LASF148:
 10439 0c75 70657269 		.ascii	"periTrGrOffset\000"
 10439      54724772 
 10439      4F666673 
 10439      657400
 10440              	.LASF240:
 10441 0c84 736C6176 		.ascii	"slaveTxBufferCnt\000"
 10441      65547842 
 10441      75666665 
 10441      72436E74 
 10441      00
 10442              	.LASF178:
 10443 0c95 6970634C 		.ascii	"ipcLockStatusOffset\000"
 10443      6F636B53 
 10443      74617475 
 10443      734F6666 
 10443      73657400 
 10444              	.LASF543:
 10445 0ca9 64697370 		.ascii	"display_usint2decascii\000"
 10445      6C61795F 
 10445      7573696E 
 10445      74326465 
 10445      63617363 
 10446              	.LASF460:
 10447 0cc0 70616765 		.ascii	"pages\000"
 10447      7300
 10448              	.LASF383:
ARM GAS  C:\Users\49148\AppData\Local\Temp\ccVXiEAG.s 			page 221


 10449 0cc6 43595F42 		.ascii	"CY_BLE_EVT_GATTC_HANDLE_VALUE_NTF\000"
 10449      4C455F45 
 10449      56545F47 
 10449      41545443 
 10449      5F48414E 
 10450              	.LASF353:
 10451 0ce8 43595F42 		.ascii	"CY_BLE_EVT_GAP_OOB_GENERATED_NOTIFICATION\000"
 10451      4C455F45 
 10451      56545F47 
 10451      41505F4F 
 10451      4F425F47 
 10452              	.LASF336:
 10453 0d12 43595F42 		.ascii	"CY_BLE_EVT_SET_CONN_PRIORITY_COMPLETE\000"
 10453      4C455F45 
 10453      56545F53 
 10453      45545F43 
 10453      4F4E4E5F 
 10454              	.LASF171:
 10455 0d38 63707573 		.ascii	"cpussCm0NmiCtlOffset\000"
 10455      73436D30 
 10455      4E6D6943 
 10455      746C4F66 
 10455      66736574 
 10456              	.LASF312:
 10457 0d4d 43595F42 		.ascii	"CY_BLE_EVT_SET_DEFAULT_PHY_COMPLETE\000"
 10457      4C455F45 
 10457      56545F53 
 10457      45545F44 
 10457      45464155 
 10458              	.LASF172:
 10459 0d71 63707573 		.ascii	"cpussCm4NmiCtlOffset\000"
 10459      73436D34 
 10459      4E6D6943 
 10459      746C4F66 
 10459      66736574 
 10460              	.LASF540:
 10461 0d86 6F6C6564 		.ascii	"oled_driver.c\000"
 10461      5F647269 
 10461      7665722E 
 10461      6300
 10462              	.LASF26:
 10463 0d94 52455345 		.ascii	"RESERVED\000"
 10463      52564544 
 10463      00
 10464              	.LASF476:
 10465 0d9d 62756666 		.ascii	"buffer\000"
 10465      657200
 10466              	.LASF167:
 10467 0da4 63707573 		.ascii	"cpussCm4PwrCtlOffset\000"
 10467      73436D34 
 10467      50777243 
 10467      746C4F66 
 10467      66736574 
 10468              	.LASF33:
 10469 0db9 55415254 		.ascii	"UART_RX_STATUS\000"
 10469      5F52585F 
 10469      53544154 
ARM GAS  C:\Users\49148\AppData\Local\Temp\ccVXiEAG.s 			page 222


 10469      555300
 10470              	.LASF38:
 10471 0dc8 4932435F 		.ascii	"I2C_M_CMD\000"
 10471      4D5F434D 
 10471      4400
 10472              	.LASF220:
 10473 0dd2 43595F53 		.ascii	"CY_SCB_I2C_ACK\000"
 10473      43425F49 
 10473      32435F41 
 10473      434B00
 10474              	.LASF139:
 10475 0de1 666C6173 		.ascii	"flashCtlMainWs4Freq\000"
 10475      6843746C 
 10475      4D61696E 
 10475      57733446 
 10475      72657100 
 10476              	.LASF478:
 10477 0df5 64696769 		.ascii	"digit\000"
 10477      7400
 10478              	.LASF365:
 10479 0dfb 43595F42 		.ascii	"CY_BLE_EVT_GATTC_ERROR_RSP\000"
 10479      4C455F45 
 10479      56545F47 
 10479      41545443 
 10479      5F455252 
 10480              	.LASF380:
 10481 0e16 43595F42 		.ascii	"CY_BLE_EVT_GATTS_PREP_WRITE_REQ\000"
 10481      4C455F45 
 10481      56545F47 
 10481      41545453 
 10481      5F505245 
 10482              	.LASF435:
 10483 0e36 6877436F 		.ascii	"hwConfigStc\000"
 10483      6E666967 
 10483      53746300 
 10484              	.LASF218:
 10485 0e42 43595F53 		.ascii	"CY_SCB_I2C_READ_XFER\000"
 10485      43425F49 
 10485      32435F52 
 10485      4541445F 
 10485      58464552 
 10486              	.LASF399:
 10487 0e57 43595F42 		.ascii	"CY_BLE_EVT_L2CAP_CBFC_TX_CREDIT_IND\000"
 10487      4C455F45 
 10487      56545F4C 
 10487      32434150 
 10487      5F434246 
 10488              	.LASF118:
 10489 0e7b 63707573 		.ascii	"cpussNotConnectedIrq\000"
 10489      734E6F74 
 10489      436F6E6E 
 10489      65637465 
 10489      64497271 
 10490              	.LASF160:
 10491 0e90 6770696F 		.ascii	"gpioPrtCfgInOffset\000"
 10491      50727443 
 10491      6667496E 
ARM GAS  C:\Users\49148\AppData\Local\Temp\ccVXiEAG.s 			page 223


 10491      4F666673 
 10491      657400
 10492              	.LASF95:
 10493 0ea3 70657269 		.ascii	"periBase\000"
 10493      42617365 
 10493      00
 10494              	.LASF496:
 10495 0eac 73746565 		.ascii	"steep\000"
 10495      7000
 10496              	.LASF208:
 10497 0eb2 43595F53 		.ascii	"CY_SCB_I2C_BAD_PARAM\000"
 10497      43425F49 
 10497      32435F42 
 10497      41445F50 
 10497      4152414D 
 10498              	.LASF508:
 10499 0ec7 6766785F 		.ascii	"gfx_println\000"
 10499      7072696E 
 10499      746C6E00 
 10500              	.LASF151:
 10501 0ed3 70657269 		.ascii	"periDivCmdTypeSelPos\000"
 10501      44697643 
 10501      6D645479 
 10501      70655365 
 10501      6C506F73 
 10502              	.LASF320:
 10503 0ee8 43595F42 		.ascii	"CY_BLE_EVT_GET_RSSI_COMPLETE\000"
 10503      4C455F45 
 10503      56545F47 
 10503      45545F52 
 10503      5353495F 
 10504              	.LASF541:
 10505 0f05 443A5C50 		.ascii	"D:\\PSOC_Jingyi\\LAB6_2\\Lab6\\PSOC_Project\\PSOC_P"
 10505      534F435F 
 10505      4A696E67 
 10505      79695C4C 
 10505      4142365F 
 10506 0f33 50472E63 		.ascii	"PG.cydsn\000"
 10506      7964736E 
 10506      00
 10507              	.LASF213:
 10508 0f3c 43595F53 		.ascii	"CY_SCB_I2C_MASTER_MANUAL_ARB_LOST\000"
 10508      43425F49 
 10508      32435F4D 
 10508      41535445 
 10508      525F4D41 
 10509              	.LASF232:
 10510 0f5e 6D617374 		.ascii	"masterBufferSize\000"
 10510      65724275 
 10510      66666572 
 10510      53697A65 
 10510      00
 10511              	.LASF197:
 10512 0f6f 6368616E 		.ascii	"chanEn\000"
 10512      456E00
 10513              	.LASF21:
 10514 0f76 73697A65 		.ascii	"sizetype\000"
ARM GAS  C:\Users\49148\AppData\Local\Temp\ccVXiEAG.s 			page 224


 10514      74797065 
 10514      00
 10515              	.LASF115:
 10516 0f7f 63707573 		.ascii	"cpussFlashPaSize\000"
 10516      73466C61 
 10516      73685061 
 10516      53697A65 
 10516      00
 10517              	.LASF244:
 10518 0f90 63624576 		.ascii	"cbEvents\000"
 10518      656E7473 
 10518      00
 10519              	.LASF370:
 10520 0f99 43595F42 		.ascii	"CY_BLE_EVT_GATTC_READ_BY_GROUP_TYPE_RSP\000"
 10520      4C455F45 
 10520      56545F47 
 10520      41545443 
 10520      5F524541 
 10521              	.LASF11:
 10522 0fc1 6C6F6E67 		.ascii	"long unsigned int\000"
 10522      20756E73 
 10522      69676E65 
 10522      6420696E 
 10522      7400
 10523              	.LASF500:
 10524 0fd3 6766785F 		.ascii	"gfx_drawCircle\000"
 10524      64726177 
 10524      43697263 
 10524      6C6500
 10525              	.LASF349:
 10526 0fe2 43595F42 		.ascii	"CY_BLE_EVT_GAPC_SCAN_START_STOP\000"
 10526      4C455F45 
 10526      56545F47 
 10526      4150435F 
 10526      5343414E 
 10527              	.LASF451:
 10528 1002 73746174 		.ascii	"status\000"
 10528      757300
 10529              	.LASF439:
 10530 1009 61646472 		.ascii	"address\000"
 10530      65737300 
 10531              	.LASF125:
 10532 1011 65704D6F 		.ascii	"epMonitorNr\000"
 10532      6E69746F 
 10532      724E7200 
 10533              	.LASF222:
 10534 101d 63795F65 		.ascii	"cy_en_scb_i2c_command_t\000"
 10534      6E5F7363 
 10534      625F6932 
 10534      635F636F 
 10534      6D6D616E 
 10535              	.LASF304:
 10536 1035 43595F42 		.ascii	"CY_BLE_EVT_SET_RPA_TO_COMPLETE\000"
 10536      4C455F45 
 10536      56545F53 
 10536      45545F52 
 10536      50415F54 
ARM GAS  C:\Users\49148\AppData\Local\Temp\ccVXiEAG.s 			page 225


 10537              	.LASF176:
 10538 1054 63707573 		.ascii	"cpussRam2Ctl0\000"
 10538      7352616D 
 10538      3243746C 
 10538      3000
 10539              	.LASF73:
 10540 1062 494E5452 		.ascii	"INTR_M_MASK\000"
 10540      5F4D5F4D 
 10540      41534B00 
 10541              	.LASF189:
 10542 106e 43595F53 		.ascii	"CY_SAR_RANGE_COND_OUTSIDE\000"
 10542      41525F52 
 10542      414E4745 
 10542      5F434F4E 
 10542      445F4F55 
 10543              	.LASF261:
 10544 1088 74784C65 		.ascii	"txLeftToTransmit\000"
 10544      6674546F 
 10544      5472616E 
 10544      736D6974 
 10544      00
 10545              	.LASF103:
 10546 1099 63707573 		.ascii	"cpussVersion\000"
 10546      73566572 
 10546      73696F6E 
 10546      00
 10547              	.LASF505:
 10548 10a6 6C696E65 		.ascii	"line\000"
 10548      00
 10549              	.LASF286:
 10550 10ab 43595F42 		.ascii	"CY_BLE_EVT_STACK_ON\000"
 10550      4C455F45 
 10550      56545F53 
 10550      5441434B 
 10550      5F4F4E00 
 10551              	.LASF392:
 10552 10bf 43595F42 		.ascii	"CY_BLE_EVT_L2CAP_COMMAND_REJ\000"
 10552      4C455F45 
 10552      56545F4C 
 10552      32434150 
 10552      5F434F4D 
 10553              	.LASF117:
 10554 10dc 63707573 		.ascii	"cpussFmIrq\000"
 10554      73466D49 
 10554      727100
 10555              	.LASF235:
 10556 10e7 736C6176 		.ascii	"slaveStatus\000"
 10556      65537461 
 10556      74757300 
 10557              	.LASF367:
 10558 10f3 43595F42 		.ascii	"CY_BLE_EVT_GATT_DISCONNECT_IND\000"
 10558      4C455F45 
 10558      56545F47 
 10558      4154545F 
 10558      44495343 
 10559              	.LASF254:
 10560 1112 72785269 		.ascii	"rxRingBufHead\000"
ARM GAS  C:\Users\49148\AppData\Local\Temp\ccVXiEAG.s 			page 226


 10560      6E674275 
 10560      66486561 
 10560      6400
 10561              	.LASF141:
 10562 1120 64774368 		.ascii	"dwChSize\000"
 10562      53697A65 
 10562      00
 10563              	.LASF374:
 10564 1129 43595F42 		.ascii	"CY_BLE_EVT_GATTC_READ_RSP\000"
 10564      4C455F45 
 10564      56545F47 
 10564      41545443 
 10564      5F524541 
 10565              	.LASF437:
 10566 1143 636C6B44 		.ascii	"clkDivider\000"
 10566      69766964 
 10566      657200
 10567              	.LASF456:
 10568 114e 64697370 		.ascii	"display_invert\000"
 10568      6C61795F 
 10568      696E7665 
 10568      727400
 10569              	.LASF373:
 10570 115d 43595F42 		.ascii	"CY_BLE_EVT_GATTC_FIND_BY_TYPE_VALUE_RSP\000"
 10570      4C455F45 
 10570      56545F47 
 10570      41545443 
 10570      5F46494E 
 10571              	.LASF190:
 10572 1185 63795F65 		.ascii	"cy_en_sar_range_detect_condition_t\000"
 10572      6E5F7361 
 10572      725F7261 
 10572      6E67655F 
 10572      64657465 
 10573              	.LASF503:
 10574 11a8 6766785F 		.ascii	"gfx_drawTriangle\000"
 10574      64726177 
 10574      54726961 
 10574      6E676C65 
 10574      00
 10575              	.LASF264:
 10576 11b9 63795F73 		.ascii	"cy_stc_tcpwm_counter_config\000"
 10576      74635F74 
 10576      6370776D 
 10576      5F636F75 
 10576      6E746572 
 10577              	.LASF535:
 10578 11d5 57494454 		.ascii	"WIDTH\000"
 10578      4800
 10579              	.LASF469:
 10580 11db 64697370 		.ascii	"display_line\000"
 10580      6C61795F 
 10580      6C696E65 
 10580      00
 10581              	.LASF123:
 10582 11e8 736D6966 		.ascii	"smifDeviceNr\000"
 10582      44657669 
ARM GAS  C:\Users\49148\AppData\Local\Temp\ccVXiEAG.s 			page 227


 10582      63654E72 
 10582      00
 10583              	.LASF329:
 10584 11f5 43595F42 		.ascii	"CY_BLE_EVT_SET_SLAVE_LATENCY_MODE_COMPLETE\000"
 10584      4C455F45 
 10584      56545F53 
 10584      45545F53 
 10584      4C415645 
 10585              	.LASF457:
 10586 1220 696E7665 		.ascii	"invert\000"
 10586      727400
 10587              	.LASF413:
 10588 1227 43595F42 		.ascii	"CY_BLE_CONN_STATE_CLIENT_SRVC_DISCOVERING\000"
 10588      4C455F43 
 10588      4F4E4E5F 
 10588      53544154 
 10588      455F434C 
 10589              	.LASF325:
 10590 1251 43595F42 		.ascii	"CY_BLE_EVT_RANDOM_NUM_GEN_COMPLETE\000"
 10590      4C455F45 
 10590      56545F52 
 10590      414E444F 
 10590      4D5F4E55 
 10591              	.LASF155:
 10592 1274 70657269 		.ascii	"periDiv16CtlOffset\000"
 10592      44697631 
 10592      3643746C 
 10592      4F666673 
 10592      657400
 10593              	.LASF131:
 10594 1287 666C6173 		.ascii	"flashPipeRequired\000"
 10594      68506970 
 10594      65526571 
 10594      75697265 
 10594      6400
 10595              	.LASF170:
 10596 1299 63707573 		.ascii	"cpussSysTickCtlOffset\000"
 10596      73537973 
 10596      5469636B 
 10596      43746C4F 
 10596      66667365 
 10597              	.LASF273:
 10598 12af 696E7465 		.ascii	"interruptSources\000"
 10598      72727570 
 10598      74536F75 
 10598      72636573 
 10598      00
 10599              	.LASF381:
 10600 12c0 43595F42 		.ascii	"CY_BLE_EVT_GATTS_EXEC_WRITE_REQ\000"
 10600      4C455F45 
 10600      56545F47 
 10600      41545453 
 10600      5F455845 
 10601              	.LASF513:
 10602 12e0 5F776964 		.ascii	"_width\000"
 10602      746800
 10603              	.LASF238:
ARM GAS  C:\Users\49148\AppData\Local\Temp\ccVXiEAG.s 			page 228


 10604 12e7 736C6176 		.ascii	"slaveTxBufferSize\000"
 10604      65547842 
 10604      75666665 
 10604      7253697A 
 10604      6500
 10605              	.LASF499:
 10606 12f9 6766785F 		.ascii	"gfx_fillRect\000"
 10606      66696C6C 
 10606      52656374 
 10606      00
 10607              	.LASF527:
 10608 1306 54696D65 		.ascii	"Timer_config\000"
 10608      725F636F 
 10608      6E666967 
 10608      00
 10609              	.LASF93:
 10610 1313 63707573 		.ascii	"cpussBase\000"
 10610      73426173 
 10610      6500
 10611              	.LASF97:
 10612 131d 70726F74 		.ascii	"protBase\000"
 10612      42617365 
 10612      00
 10613              	.LASF109:
 10614 1326 69706356 		.ascii	"ipcVersion\000"
 10614      65727369 
 10614      6F6E00
 10615              	.LASF289:
 10616 1331 43595F42 		.ascii	"CY_BLE_EVT_MEMORY_REQUEST\000"
 10616      4C455F45 
 10616      56545F4D 
 10616      454D4F52 
 10616      595F5245 
 10617              	.LASF10:
 10618 134b 5F5F7569 		.ascii	"__uint32_t\000"
 10618      6E743332 
 10618      5F7400
 10619              	.LASF57:
 10620 1356 455A5F44 		.ascii	"EZ_DATA\000"
 10620      41544100 
 10621              	.LASF446:
 10622 135e 64697370 		.ascii	"display_write_buf\000"
 10622      6C61795F 
 10622      77726974 
 10622      655F6275 
 10622      6600
 10623              	.LASF124:
 10624 1370 70617373 		.ascii	"passSarChannels\000"
 10624      53617243 
 10624      68616E6E 
 10624      656C7300 
 10625              	.LASF472:
 10626 1380 6D61736B 		.ascii	"mask\000"
 10626      00
 10627              	.LASF237:
 10628 1385 736C6176 		.ascii	"slaveTxBuffer\000"
 10628      65547842 
ARM GAS  C:\Users\49148\AppData\Local\Temp\ccVXiEAG.s 			page 229


 10628      75666665 
 10628      7200
 10629              	.LASF263:
 10630 1393 63795F73 		.ascii	"cy_stc_scb_uart_context_t\000"
 10630      74635F73 
 10630      63625F75 
 10630      6172745F 
 10630      636F6E74 
 10631              	.LASF396:
 10632 13ad 43595F42 		.ascii	"CY_BLE_EVT_L2CAP_CBFC_DISCONN_CNF\000"
 10632      4C455F45 
 10632      56545F4C 
 10632      32434150 
 10632      5F434246 
 10633              	.LASF142:
 10634 13cf 64774368 		.ascii	"dwChCtlPrioPos\000"
 10634      43746C50 
 10634      72696F50 
 10634      6F7300
 10635              	.LASF481:
 10636 13de 77696474 		.ascii	"width\000"
 10636      6800
 10637              	.LASF234:
 10638 13e4 6D617374 		.ascii	"masterNumBytes\000"
 10638      65724E75 
 10638      6D427974 
 10638      657300
 10639              	.LASF207:
 10640 13f3 43595F53 		.ascii	"CY_SCB_I2C_SUCCESS\000"
 10640      43425F49 
 10640      32435F53 
 10640      55434345 
 10640      535300
 10641              	.LASF179:
 10642 1406 63795F73 		.ascii	"cy_stc_device_t\000"
 10642      74635F64 
 10642      65766963 
 10642      655F7400 
 10643              	.LASF193:
 10644 1416 73616D70 		.ascii	"sampleTime01\000"
 10644      6C655469 
 10644      6D653031 
 10644      00
 10645              	.LASF74:
 10646 1423 494E5452 		.ascii	"INTR_M_MASKED\000"
 10646      5F4D5F4D 
 10646      41534B45 
 10646      4400
 10647              	.LASF314:
 10648 1431 43595F42 		.ascii	"CY_BLE_EVT_PHY_UPDATE_COMPLETE\000"
 10648      4C455F45 
 10648      56545F50 
 10648      48595F55 
 10648      50444154 
 10649              	.LASF182:
 10650 1450 646F7562 		.ascii	"double\000"
 10650      6C6500
ARM GAS  C:\Users\49148\AppData\Local\Temp\ccVXiEAG.s 			page 230


 10651              	.LASF161:
 10652 1457 6770696F 		.ascii	"gpioPrtCfgOutOffset\000"
 10652      50727443 
 10652      66674F75 
 10652      744F6666 
 10652      73657400 
 10653              	.LASF104:
 10654 146b 63727970 		.ascii	"cryptoVersion\000"
 10654      746F5665 
 10654      7273696F 
 10654      6E00
 10655              	.LASF397:
 10656 1479 43595F42 		.ascii	"CY_BLE_EVT_L2CAP_CBFC_DATA_READ\000"
 10656      4C455F45 
 10656      56545F4C 
 10656      32434150 
 10656      5F434246 
 10657              	.LASF280:
 10658 1499 73746F70 		.ascii	"stopInputMode\000"
 10658      496E7075 
 10658      744D6F64 
 10658      6500
 10659              	.LASF393:
 10660 14a7 43595F42 		.ascii	"CY_BLE_EVT_L2CAP_CBFC_CONN_IND\000"
 10660      4C455F45 
 10660      56545F4C 
 10660      32434150 
 10660      5F434246 
 10661              	.LASF130:
 10662 14c6 666C6173 		.ascii	"flashRwwRequired\000"
 10662      68527777 
 10662      52657175 
 10662      69726564 
 10662      00
 10663              	.LASF138:
 10664 14d7 666C6173 		.ascii	"flashCtlMainWs3Freq\000"
 10664      6843746C 
 10664      4D61696E 
 10664      57733346 
 10664      72657100 
 10665              	.LASF258:
 10666 14eb 72784275 		.ascii	"rxBufIdx\000"
 10666      66496478 
 10666      00
 10667              	.LASF156:
 10668 14f4 70657269 		.ascii	"periDiv16_5CtlOffset\000"
 10668      44697631 
 10668      365F3543 
 10668      746C4F66 
 10668      66736574 
 10669              	.LASF520:
 10670 1509 49544D5F 		.ascii	"ITM_RxBuffer\000"
 10670      52784275 
 10670      66666572 
 10670      00
 10671              	.LASF335:
 10672 1516 43595F42 		.ascii	"CY_BLE_EVT_SET_CE_LENGTH_COMPLETE\000"
ARM GAS  C:\Users\49148\AppData\Local\Temp\ccVXiEAG.s 			page 231


 10672      4C455F45 
 10672      56545F53 
 10672      45545F43 
 10672      455F4C45 
 10673              	.LASF491:
 10674 1538 6766785F 		.ascii	"gfx_setRotation\000"
 10674      73657452 
 10674      6F746174 
 10674      696F6E00 
 10675              	.LASF300:
 10676 1548 43595F42 		.ascii	"CY_BLE_EVT_GET_DATA_LENGTH_COMPLETE\000"
 10676      4C455F45 
 10676      56545F47 
 10676      45545F44 
 10676      4154415F 
 10677              	.LASF440:
 10678 156c 62697452 		.ascii	"bitRnW\000"
 10678      6E5700
 10679              	.LASF181:
 10680 1573 666C6F61 		.ascii	"float\000"
 10680      7400
 10681              	.LASF423:
 10682 1579 43595F42 		.ascii	"CY_BLE_DIS_FIRMWARE_REV\000"
 10682      4C455F44 
 10682      49535F46 
 10682      49524D57 
 10682      4152455F 
 10683              	.LASF362:
 10684 1591 43595F42 		.ascii	"CY_BLE_EVT_GAP_CONN_ESTB\000"
 10684      4C455F45 
 10684      56545F47 
 10684      41505F43 
 10684      4F4E4E5F 
 10685              	.LASF339:
 10686 15aa 43595F42 		.ascii	"CY_BLE_EVT_GAP_AUTH_REQ\000"
 10686      4C455F45 
 10686      56545F47 
 10686      41505F41 
 10686      5554485F 
 10687              	.LASF28:
 10688 15c2 5350495F 		.ascii	"SPI_STATUS\000"
 10688      53544154 
 10688      555300
 10689              	.LASF112:
 10690 15cd 63707573 		.ascii	"cpussIpcNr\000"
 10690      73497063 
 10690      4E7200
 10691              	.LASF515:
 10692 15d8 63757273 		.ascii	"cursor_x\000"
 10692      6F725F78 
 10692      00
 10693              	.LASF516:
 10694 15e1 63757273 		.ascii	"cursor_y\000"
 10694      6F725F79 
 10694      00
 10695              	.LASF14:
 10696 15ea 756E7369 		.ascii	"unsigned int\000"
ARM GAS  C:\Users\49148\AppData\Local\Temp\ccVXiEAG.s 			page 232


 10696      676E6564 
 10696      20696E74 
 10696      00
 10697              	.LASF22:
 10698 15f7 4354524C 		.ascii	"CTRL\000"
 10698      00
 10699              	.LASF411:
 10700 15fc 43595F42 		.ascii	"CY_BLE_CONN_STATE_CLIENT_DISCONNECTED_DISCOVERED\000"
 10700      4C455F43 
 10700      4F4E4E5F 
 10700      53544154 
 10700      455F434C 
 10701              	.LASF427:
 10702 162d 43595F42 		.ascii	"CY_BLE_DIS_PNP_ID\000"
 10702      4C455F44 
 10702      49535F50 
 10702      4E505F49 
 10702      4400
 10703              	.LASF410:
 10704 163f 43595F42 		.ascii	"CY_BLE_CONN_STATE_DISCONNECTED\000"
 10704      4C455F43 
 10704      4F4E4E5F 
 10704      53544154 
 10704      455F4449 
 10705              	.LASF106:
 10706 165e 666C6173 		.ascii	"flashcVersion\000"
 10706      68635665 
 10706      7273696F 
 10706      6E00
 10707              	.LASF272:
 10708 166c 656E6162 		.ascii	"enableCompareSwap\000"
 10708      6C65436F 
 10708      6D706172 
 10708      65537761 
 10708      7000
 10709              	.LASF194:
 10710 167e 73616D70 		.ascii	"sampleTime23\000"
 10710      6C655469 
 10710      6D653233 
 10710      00
 10711              	.LASF352:
 10712 168b 43595F42 		.ascii	"CY_BLE_EVT_GAP_KEYPRESS_NOTIFICATION\000"
 10712      4C455F45 
 10712      56545F47 
 10712      41505F4B 
 10712      45595052 
 10713              	.LASF158:
 10714 16b0 6770696F 		.ascii	"gpioPrtIntrCfgOffset\000"
 10714      50727449 
 10714      6E747243 
 10714      66674F66 
 10714      66736574 
 10715              	.LASF175:
 10716 16c5 63707573 		.ascii	"cpussRam1Ctl0\000"
 10716      7352616D 
 10716      3143746C 
 10716      3000
ARM GAS  C:\Users\49148\AppData\Local\Temp\ccVXiEAG.s 			page 233


 10717              	.LASF283:
 10718 16d3 636F756E 		.ascii	"countInput\000"
 10718      74496E70 
 10718      757400
 10719              	.LASF514:
 10720 16de 5F686569 		.ascii	"_height\000"
 10720      67687400 
 10721              	.LASF414:
 10722 16e6 43595F42 		.ascii	"CY_BLE_CONN_STATE_CLIENT_INCL_DISCOVERING\000"
 10722      4C455F43 
 10722      4F4E4E5F 
 10722      53544154 
 10722      455F434C 
 10723              	.LASF366:
 10724 1710 43595F42 		.ascii	"CY_BLE_EVT_GATT_CONNECT_IND\000"
 10724      4C455F45 
 10724      56545F47 
 10724      4154545F 
 10724      434F4E4E 
 10725              	.LASF42:
 10726 172c 54585F43 		.ascii	"TX_CTRL\000"
 10726      54524C00 
 10727              	.LASF63:
 10728 1734 494E5452 		.ascii	"INTR_I2C_EC_MASK\000"
 10728      5F493243 
 10728      5F45435F 
 10728      4D41534B 
 10728      00
 10729              	.LASF405:
 10730 1745 43595F42 		.ascii	"CY_BLE_ADV_STATE_STOPPED\000"
 10730      4C455F41 
 10730      44565F53 
 10730      54415445 
 10730      5F53544F 
 10731              	.LASF492:
 10732 175e 6766785F 		.ascii	"gfx_rotation_adjust\000"
 10732      726F7461 
 10732      74696F6E 
 10732      5F61646A 
 10732      75737400 
 10733              	.LASF409:
 10734 1772 63795F65 		.ascii	"cy_en_ble_adv_state_t\000"
 10734      6E5F626C 
 10734      655F6164 
 10734      765F7374 
 10734      6174655F 
 10735              	.LASF186:
 10736 1788 43595F53 		.ascii	"CY_SAR_RANGE_COND_BELOW\000"
 10736      41525F52 
 10736      414E4745 
 10736      5F434F4E 
 10736      445F4245 
 10737              	.LASF422:
 10738 17a0 43595F42 		.ascii	"CY_BLE_DIS_HARDWARE_REV\000"
 10738      4C455F44 
 10738      49535F48 
 10738      41524457 
ARM GAS  C:\Users\49148\AppData\Local\Temp\ccVXiEAG.s 			page 234


 10738      4152455F 
 10739              	.LASF268:
 10740 17b8 636F756E 		.ascii	"countDirection\000"
 10740      74446972 
 10740      65637469 
 10740      6F6E00
 10741              	.LASF337:
 10742 17c7 43595F42 		.ascii	"CY_BLE_EVT_HCI_PKT_RCVD\000"
 10742      4C455F45 
 10742      56545F48 
 10742      43495F50 
 10742      4B545F52 
 10743              	.LASF188:
 10744 17df 43595F53 		.ascii	"CY_SAR_RANGE_COND_ABOVE\000"
 10744      41525F52 
 10744      414E4745 
 10744      5F434F4E 
 10744      445F4142 
 10745              	.LASF424:
 10746 17f7 43595F42 		.ascii	"CY_BLE_DIS_SOFTWARE_REV\000"
 10746      4C455F44 
 10746      49535F53 
 10746      4F465457 
 10746      4152455F 
 10747              	.LASF34:
 10748 180f 55415254 		.ascii	"UART_FLOW_CTRL\000"
 10748      5F464C4F 
 10748      575F4354 
 10748      524C00
 10749              	.LASF242:
 10750 181e 736C6176 		.ascii	"slaveRxBufferSize\000"
 10750      65527842 
 10750      75666665 
 10750      7253697A 
 10750      6500
 10751              	.LASF285:
 10752 1830 43595F42 		.ascii	"CY_BLE_EVT_INVALID\000"
 10752      4C455F45 
 10752      56545F49 
 10752      4E56414C 
 10752      494400
 10753              	.LASF495:
 10754 1843 6766785F 		.ascii	"gfx_drawLine\000"
 10754      64726177 
 10754      4C696E65 
 10754      00
 10755              	.LASF223:
 10756 1850 63795F63 		.ascii	"cy_cb_scb_i2c_handle_events_t\000"
 10756      625F7363 
 10756      625F6932 
 10756      635F6861 
 10756      6E646C65 
 10757              	.LASF209:
 10758 186e 43595F53 		.ascii	"CY_SCB_I2C_MASTER_NOT_READY\000"
 10758      43425F49 
 10758      32435F4D 
 10758      41535445 
ARM GAS  C:\Users\49148\AppData\Local\Temp\ccVXiEAG.s 			page 235


 10758      525F4E4F 
 10759              	.LASF195:
 10760 188a 72616E67 		.ascii	"rangeThres\000"
 10760      65546872 
 10760      657300
 10761              	.LASF219:
 10762 1895 63795F65 		.ascii	"cy_en_scb_i2c_direction_t\000"
 10762      6E5F7363 
 10762      625F6932 
 10762      635F6469 
 10762      72656374 
 10763              	.LASF145:
 10764 18af 64775374 		.ascii	"dwStatusChIdxMsk\000"
 10764      61747573 
 10764      43684964 
 10764      784D736B 
 10764      00
 10765              	.LASF468:
 10766 18c0 64697370 		.ascii	"display_setPixel\000"
 10766      6C61795F 
 10766      73657450 
 10766      6978656C 
 10766      00
 10767              	.LASF253:
 10768 18d1 72785269 		.ascii	"rxRingBufSize\000"
 10768      6E674275 
 10768      6653697A 
 10768      6500
 10769              	.LASF91:
 10770 18df 43795343 		.ascii	"CySCB_Type\000"
 10770      425F5479 
 10770      706500
 10771              	.LASF134:
 10772 18ea 666C6173 		.ascii	"flashEraseDelay\000"
 10772      68457261 
 10772      73654465 
 10772      6C617900 
 10773              	.LASF68:
 10774 18fa 494E5452 		.ascii	"INTR_SPI_EC_MASK\000"
 10774      5F535049 
 10774      5F45435F 
 10774      4D41534B 
 10774      00
 10775              	.LASF338:
 10776 190b 43595F42 		.ascii	"CY_BLE_EVT_GAPC_SCAN_PROGRESS_RESULT\000"
 10776      4C455F45 
 10776      56545F47 
 10776      4150435F 
 10776      5343414E 
 10777              	.LASF214:
 10778 1930 43595F53 		.ascii	"CY_SCB_I2C_MASTER_MANUAL_BUS_ERR\000"
 10778      43425F49 
 10778      32435F4D 
 10778      41535445 
 10778      525F4D41 
 10779              	.LASF342:
 10780 1951 43595F42 		.ascii	"CY_BLE_EVT_GAP_AUTH_COMPLETE\000"
ARM GAS  C:\Users\49148\AppData\Local\Temp\ccVXiEAG.s 			page 236


 10780      4C455F45 
 10780      56545F47 
 10780      41505F41 
 10780      5554485F 
 10781              	.LASF92:
 10782 196e 6C6F6E67 		.ascii	"long double\000"
 10782      20646F75 
 10782      626C6500 
 10783              	.LASF463:
 10784 197a 66697273 		.ascii	"first_page\000"
 10784      745F7061 
 10784      676500
 10785              	.LASF79:
 10786 1985 494E5452 		.ascii	"INTR_S_MASKED\000"
 10786      5F535F4D 
 10786      41534B45 
 10786      4400
 10787              	.LASF379:
 10788 1993 43595F42 		.ascii	"CY_BLE_EVT_GATTS_WRITE_CMD_REQ\000"
 10788      4C455F45 
 10788      56545F47 
 10788      41545453 
 10788      5F575249 
 10789              	.LASF247:
 10790 19b2 63795F63 		.ascii	"cy_cb_scb_uart_handle_events_t\000"
 10790      625F7363 
 10790      625F7561 
 10790      72745F68 
 10790      616E646C 
 10791              	.LASF298:
 10792 19d1 43595F42 		.ascii	"CY_BLE_EVT_SET_DATA_LENGTH_COMPLETE\000"
 10792      4C455F45 
 10792      56545F53 
 10792      45545F44 
 10792      4154415F 
 10793              	.LASF436:
 10794 19f5 6D697363 		.ascii	"miscConfig\000"
 10794      436F6E66 
 10794      696700
 10795              	.LASF44:
 10796 1a00 54585F46 		.ascii	"TX_FIFO_STATUS\000"
 10796      49464F5F 
 10796      53544154 
 10796      555300
 10797              	.LASF66:
 10798 1a0f 494E5452 		.ascii	"INTR_SPI_EC\000"
 10798      5F535049 
 10798      5F454300 
 10799              	.LASF120:
 10800 1a1b 73727373 		.ascii	"srssNumPll\000"
 10800      4E756D50 
 10800      6C6C00
 10801              	.LASF395:
 10802 1a26 43595F42 		.ascii	"CY_BLE_EVT_L2CAP_CBFC_DISCONN_IND\000"
 10802      4C455F45 
 10802      56545F4C 
 10802      32434150 
ARM GAS  C:\Users\49148\AppData\Local\Temp\ccVXiEAG.s 			page 237


 10802      5F434246 
 10803              	.LASF432:
 10804 1a48 43595F42 		.ascii	"CY_BLE_HRS_CHAR_COUNT\000"
 10804      4C455F48 
 10804      52535F43 
 10804      4841525F 
 10804      434F554E 
 10805              	.LASF350:
 10806 1a5e 43595F42 		.ascii	"CY_BLE_EVT_GAP_KEYINFO_EXCHNGE_CMPLT\000"
 10806      4C455F45 
 10806      56545F47 
 10806      41505F4B 
 10806      4559494E 
 10807              	.LASF305:
 10808 1a83 43595F42 		.ascii	"CY_BLE_EVT_SET_RPA_ENABLE_COMPLETE\000"
 10808      4C455F45 
 10808      56545F53 
 10808      45545F52 
 10808      50415F45 
 10809              	.LASF137:
 10810 1aa6 666C6173 		.ascii	"flashCtlMainWs2Freq\000"
 10810      6843746C 
 10810      4D61696E 
 10810      57733246 
 10810      72657100 
 10811              	.LASF2:
 10812 1aba 5F5F696E 		.ascii	"__int8_t\000"
 10812      74385F74 
 10812      00
 10813              	.LASF348:
 10814 1ac3 43595F42 		.ascii	"CY_BLE_EVT_GAP_CONNECTION_UPDATE_COMPLETE\000"
 10814      4C455F45 
 10814      56545F47 
 10814      41505F43 
 10814      4F4E4E45 
 10815              	.LASF226:
 10816 1aed 75736554 		.ascii	"useTxFifo\000"
 10816      78466966 
 10816      6F00
 10817              	.LASF204:
 10818 1af7 636F6E66 		.ascii	"configRouting\000"
 10818      6967526F 
 10818      7574696E 
 10818      6700
 10819              	.LASF447:
 10820 1b05 73697A65 		.ascii	"size\000"
 10820      00
 10821              	.LASF341:
 10822 1b0a 43595F42 		.ascii	"CY_BLE_EVT_GAP_PASSKEY_DISPLAY_REQUEST\000"
 10822      4C455F45 
 10822      56545F47 
 10822      41505F50 
 10822      4153534B 
 10823              	.LASF13:
 10824 1b31 6C6F6E67 		.ascii	"long long unsigned int\000"
 10824      206C6F6E 
 10824      6720756E 
ARM GAS  C:\Users\49148\AppData\Local\Temp\ccVXiEAG.s 			page 238


 10824      7369676E 
 10824      65642069 
 10825              	.LASF297:
 10826 1b48 43595F42 		.ascii	"CY_BLE_EVT_LE_PING_AUTH_TIMEOUT\000"
 10826      4C455F45 
 10826      56545F4C 
 10826      455F5049 
 10826      4E475F41 
 10827              	.LASF18:
 10828 1b68 75696E74 		.ascii	"uint16_t\000"
 10828      31365F74 
 10828      00
 10829              	.LASF327:
 10830 1b71 43595F42 		.ascii	"CY_BLE_EVT_AES_CCM_ENCRYPT_COMPLETE\000"
 10830      4C455F45 
 10830      56545F41 
 10830      45535F43 
 10830      434D5F45 
 10831              	.LASF537:
 10832 1b95 726F7461 		.ascii	"rotation\000"
 10832      74696F6E 
 10832      00
 10833              	.LASF43:
 10834 1b9e 54585F46 		.ascii	"TX_FIFO_CTRL\000"
 10834      49464F5F 
 10834      4354524C 
 10834      00
 10835              	.LASF359:
 10836 1bab 43595F42 		.ascii	"CY_BLE_EVT_GAP_RESOLVE_DEVICE_COMPLETE\000"
 10836      4C455F45 
 10836      56545F47 
 10836      41505F52 
 10836      45534F4C 
 10837              	.LASF538:
 10838 1bd2 77726170 		.ascii	"wrap\000"
 10838      00
 10839              	.LASF369:
 10840 1bd7 43595F42 		.ascii	"CY_BLE_EVT_GATTC_XCHNG_MTU_RSP\000"
 10840      4C455F45 
 10840      56545F47 
 10840      41545443 
 10840      5F584348 
 10841              	.LASF60:
 10842 1bf6 52455345 		.ascii	"RESERVED10\000"
 10842      52564544 
 10842      313000
 10843              	.LASF62:
 10844 1c01 52455345 		.ascii	"RESERVED11\000"
 10844      52564544 
 10844      313100
 10845              	.LASF65:
 10846 1c0c 52455345 		.ascii	"RESERVED12\000"
 10846      52564544 
 10846      313200
 10847              	.LASF67:
 10848 1c17 52455345 		.ascii	"RESERVED13\000"
 10848      52564544 
ARM GAS  C:\Users\49148\AppData\Local\Temp\ccVXiEAG.s 			page 239


 10848      313300
 10849              	.LASF70:
 10850 1c22 52455345 		.ascii	"RESERVED14\000"
 10850      52564544 
 10850      313400
 10851              	.LASF75:
 10852 1c2d 52455345 		.ascii	"RESERVED15\000"
 10852      52564544 
 10852      313500
 10853              	.LASF302:
 10854 1c38 43595F42 		.ascii	"CY_BLE_EVT_GET_PEER_RPA_COMPLETE\000"
 10854      4C455F45 
 10854      56545F47 
 10854      45545F50 
 10854      4545525F 
 10855              	.LASF85:
 10856 1c59 52455345 		.ascii	"RESERVED17\000"
 10856      52564544 
 10856      313700
 10857              	.LASF90:
 10858 1c64 43795343 		.ascii	"CySCB_V1_Type\000"
 10858      425F5631 
 10858      5F547970 
 10858      6500
 10859              	.LASF485:
 10860 1c72 6766785F 		.ascii	"gfx_rotation\000"
 10860      726F7461 
 10860      74696F6E 
 10860      00
 10861              	.LASF192:
 10862 1c7f 73616D70 		.ascii	"sampleCtrl\000"
 10862      6C654374 
 10862      726C00
 10863              	.LASF418:
 10864 1c8a 63795F65 		.ascii	"cy_en_ble_conn_state_t\000"
 10864      6E5F626C 
 10864      655F636F 
 10864      6E6E5F73 
 10864      74617465 
 10865              	.LASF259:
 10866 1ca1 74784275 		.ascii	"txBuf\000"
 10866      6600
 10867              	.LASF364:
 10868 1ca7 43595F42 		.ascii	"CY_BLE_EVT_GAP_ADV_TX\000"
 10868      4C455F45 
 10868      56545F47 
 10868      41505F41 
 10868      44565F54 
 10869              	.LASF212:
 10870 1cbd 43595F53 		.ascii	"CY_SCB_I2C_MASTER_MANUAL_NAK\000"
 10870      43425F49 
 10870      32435F4D 
 10870      41535445 
 10870      525F4D41 
 10871              	.LASF25:
 10872 1cda 434D445F 		.ascii	"CMD_RESP_STATUS\000"
 10872      52455350 
ARM GAS  C:\Users\49148\AppData\Local\Temp\ccVXiEAG.s 			page 240


 10872      5F535441 
 10872      54555300 
 10873              	.LASF408:
 10874 1cea 43595F42 		.ascii	"CY_BLE_ADV_STATE_STOP_INITIATED\000"
 10874      4C455F41 
 10874      44565F53 
 10874      54415445 
 10874      5F53544F 
 10875              	.LASF459:
 10876 1d0a 64635F62 		.ascii	"dc_byte\000"
 10876      79746500 
 10877              	.LASF400:
 10878 1d12 43595F42 		.ascii	"CY_BLE_EVT_L2CAP_CBFC_DATA_WRITE_IND\000"
 10878      4C455F45 
 10878      56545F4C 
 10878      32434150 
 10878      5F434246 
 10879              	.LASF164:
 10880 1d37 63707573 		.ascii	"cpussCm4ClockCtlOffset\000"
 10880      73436D34 
 10880      436C6F63 
 10880      6B43746C 
 10880      4F666673 
 10881              	.LASF517:
 10882 1d4e 74657874 		.ascii	"textcolor\000"
 10882      636F6C6F 
 10882      7200
 10883              	.LASF474:
 10884 1d58 75626974 		.ascii	"ubit\000"
 10884      00
 10885              	.LASF19:
 10886 1d5d 696E7433 		.ascii	"int32_t\000"
 10886      325F7400 
 10887              	.LASF114:
 10888 1d65 63707573 		.ascii	"cpussDwChNr\000"
 10888      73447743 
 10888      684E7200 
 10889              	.LASF157:
 10890 1d71 70657269 		.ascii	"periDiv24_5CtlOffset\000"
 10890      44697632 
 10890      345F3543 
 10890      746C4F66 
 10890      66736574 
 10891              	.LASF82:
 10892 1d86 494E5452 		.ascii	"INTR_TX_SET\000"
 10892      5F54585F 
 10892      53455400 
 10893              	.LASF174:
 10894 1d92 63707573 		.ascii	"cpussRam0Ctl0\000"
 10894      7352616D 
 10894      3043746C 
 10894      3000
 10895              	.LASF507:
 10896 1da0 6766785F 		.ascii	"gfx_print\000"
 10896      7072696E 
 10896      7400
 10897              	.LASF528:
ARM GAS  C:\Users\49148\AppData\Local\Temp\ccVXiEAG.s 			page 241


 10898 1daa 55617274 		.ascii	"Uart_Printf_context\000"
 10898      5F507269 
 10898      6E74665F 
 10898      636F6E74 
 10898      65787400 
 10899              	.LASF265:
 10900 1dbe 70657269 		.ascii	"period\000"
 10900      6F6400
 10901              	.LASF542:
 10902 1dc5 64697370 		.ascii	"display_clear\000"
 10902      6C61795F 
 10902      636C6561 
 10902      7200
 10903              	.LASF529:
 10904 1dd3 4144435F 		.ascii	"ADC_currentConfig\000"
 10904      63757272 
 10904      656E7443 
 10904      6F6E6669 
 10904      6700
 10905              	.LASF211:
 10906 1de5 43595F53 		.ascii	"CY_SCB_I2C_MASTER_MANUAL_ADDR_NAK\000"
 10906      43425F49 
 10906      32435F4D 
 10906      41535445 
 10906      525F4D41 
 10907              	.LASF356:
 10908 1e07 43595F42 		.ascii	"CY_BLE_EVT_GAP_SMP_NEGOTIATED_AUTH_INFO\000"
 10908      4C455F45 
 10908      56545F47 
 10908      41505F53 
 10908      4D505F4E 
 10909              	.LASF421:
 10910 1e2f 43595F42 		.ascii	"CY_BLE_DIS_SERIAL_NUMBER\000"
 10910      4C455F44 
 10910      49535F53 
 10910      45524941 
 10910      4C5F4E55 
 10911              	.LASF420:
 10912 1e48 43595F42 		.ascii	"CY_BLE_DIS_MODEL_NUMBER\000"
 10912      4C455F44 
 10912      49535F4D 
 10912      4F44454C 
 10912      5F4E554D 
 10913              	.LASF23:
 10914 1e60 53544154 		.ascii	"STATUS\000"
 10914      555300
 10915              	.LASF150:
 10916 1e67 70657269 		.ascii	"periDivCmdDivSelMsk\000"
 10916      44697643 
 10916      6D644469 
 10916      7653656C 
 10916      4D736B00 
 10917              	.LASF391:
 10918 1e7b 43595F42 		.ascii	"CY_BLE_EVT_L2CAP_CONN_PARAM_UPDATE_RSP\000"
 10918      4C455F45 
 10918      56545F4C 
 10918      32434150 
ARM GAS  C:\Users\49148\AppData\Local\Temp\ccVXiEAG.s 			page 242


 10918      5F434F4E 
 10919              	.LASF64:
 10920 1ea2 494E5452 		.ascii	"INTR_I2C_EC_MASKED\000"
 10920      5F493243 
 10920      5F45435F 
 10920      4D41534B 
 10920      454400
 10921              	.LASF452:
 10922 1eb5 636F6C6F 		.ascii	"color\000"
 10922      7200
 10923              	.LASF511:
 10924 1ebb 5F646973 		.ascii	"_displaybuf\000"
 10924      706C6179 
 10924      62756600 
 10925              	.LASF375:
 10926 1ec7 43595F42 		.ascii	"CY_BLE_EVT_GATTC_READ_BLOB_RSP\000"
 10926      4C455F45 
 10926      56545F47 
 10926      41545443 
 10926      5F524541 
 10927              	.LASF99:
 10928 1ee6 6770696F 		.ascii	"gpioBase\000"
 10928      42617365 
 10928      00
 10929              	.LASF78:
 10930 1eef 494E5452 		.ascii	"INTR_S_MASK\000"
 10930      5F535F4D 
 10930      41534B00 
 10931              	.LASF128:
 10932 1efb 70726F74 		.ascii	"protBusMasterMask\000"
 10932      4275734D 
 10932      61737465 
 10932      724D6173 
 10932      6B00
 10933              	.LASF127:
 10934 1f0d 73797350 		.ascii	"sysPmSimoPresent\000"
 10934      6D53696D 
 10934      6F507265 
 10934      73656E74 
 10934      00
 10935              	.LASF388:
 10936 1f1e 43595F42 		.ascii	"CY_BLE_EVT_GATTS_READ_CHAR_VAL_ACCESS_REQ\000"
 10936      4C455F45 
 10936      56545F47 
 10936      41545453 
 10936      5F524541 
 10937              	.LASF444:
 10938 1f48 4932435F 		.ascii	"I2C_BUS_MasterWriteByte\000"
 10938      4255535F 
 10938      4D617374 
 10938      65725772 
 10938      69746542 
 10939              	.LASF72:
 10940 1f60 494E5452 		.ascii	"INTR_M_SET\000"
 10940      5F4D5F53 
 10940      455400
 10941              	.LASF69:
ARM GAS  C:\Users\49148\AppData\Local\Temp\ccVXiEAG.s 			page 243


 10942 1f6b 494E5452 		.ascii	"INTR_SPI_EC_MASKED\000"
 10942      5F535049 
 10942      5F45435F 
 10942      4D41534B 
 10942      454400
 10943              	.LASF113:
 10944 1f7e 63707573 		.ascii	"cpussIpcIrqNr\000"
 10944      73497063 
 10944      4972714E 
 10944      7200
 10945              	.LASF89:
 10946 1f8c 494E5452 		.ascii	"INTR_RX_MASKED\000"
 10946      5F52585F 
 10946      4D41534B 
 10946      454400
 10947              	.LASF521:
 10948 1f9b 63795F64 		.ascii	"cy_device\000"
 10948      65766963 
 10948      6500
 10949              	.LASF199:
 10950 1fa5 696E7472 		.ascii	"intrMask\000"
 10950      4D61736B 
 10950      00
 10951              	.LASF404:
 10952 1fae 63795F73 		.ascii	"cy_stc_ble_conn_handle_t\000"
 10952      74635F62 
 10952      6C655F63 
 10952      6F6E6E5F 
 10952      68616E64 
 10953              	.LASF462:
 10954 1fc7 6D617862 		.ascii	"maxbuff\000"
 10954      75666600 
 10955              	.LASF475:
 10956 1fcf 7069786D 		.ascii	"pixmask\000"
 10956      61736B00 
 10957              	.LASF344:
 10958 1fd7 43595F42 		.ascii	"CY_BLE_EVT_GAPP_ADVERTISEMENT_START_STOP\000"
 10958      4C455F45 
 10958      56545F47 
 10958      4150505F 
 10958      41445645 
 10959              	.LASF278:
 10960 2000 73746172 		.ascii	"startInputMode\000"
 10960      74496E70 
 10960      75744D6F 
 10960      646500
 10961              	.LASF251:
 10962 200f 72785374 		.ascii	"rxStatus\000"
 10962      61747573 
 10962      00
 10963              	.LASF512:
 10964 2018 5F646973 		.ascii	"_displaybuf_size\000"
 10964      706C6179 
 10964      6275665F 
 10964      73697A65 
 10964      00
 10965              	.LASF231:
ARM GAS  C:\Users\49148\AppData\Local\Temp\ccVXiEAG.s 			page 244


 10966 2029 6D617374 		.ascii	"masterBuffer\000"
 10966      65724275 
 10966      66666572 
 10966      00
 10967              	.LASF245:
 10968 2036 63624164 		.ascii	"cbAddr\000"
 10968      647200
 10969              	.LASF509:
 10970 203d 666F6E74 		.ascii	"font\000"
 10970      00
 10971              	.LASF453:
 10972 2042 64697370 		.ascii	"display_init\000"
 10972      6C61795F 
 10972      696E6974 
 10972      00
 10973              	.LASF202:
 10974 204f 6D757853 		.ascii	"muxSwitch\000"
 10974      77697463 
 10974      6800
 10975              	.LASF412:
 10976 2059 43595F42 		.ascii	"CY_BLE_CONN_STATE_CONNECTED\000"
 10976      4C455F43 
 10976      4F4E4E5F 
 10976      53544154 
 10976      455F434F 
 10977              	.LASF54:
 10978 2075 52585F46 		.ascii	"RX_FIFO_RD\000"
 10978      49464F5F 
 10978      524400
 10979              	.LASF187:
 10980 2080 43595F53 		.ascii	"CY_SAR_RANGE_COND_INSIDE\000"
 10980      41525F52 
 10980      414E4745 
 10980      5F434F4E 
 10980      445F494E 
 10981              	.LASF294:
 10982 2099 43595F42 		.ascii	"CY_BLE_EVT_READ_AUTH_PAYLOAD_TO_COMPLETE\000"
 10982      4C455F45 
 10982      56545F52 
 10982      4541445F 
 10982      41555448 
 10983              	.LASF183:
 10984 20c2 75696E74 		.ascii	"uint8\000"
 10984      3800
 10985              	.LASF111:
 10986 20c8 70726F74 		.ascii	"protVersion\000"
 10986      56657273 
 10986      696F6E00 
 10987              	.LASF445:
 10988 20d4 62797465 		.ascii	"byte\000"
 10988      00
 10989              	.LASF295:
 10990 20d9 43595F42 		.ascii	"CY_BLE_EVT_GET_CHANNEL_MAP_COMPLETE\000"
 10990      4C455F45 
 10990      56545F47 
 10990      45545F43 
 10990      48414E4E 
ARM GAS  C:\Users\49148\AppData\Local\Temp\ccVXiEAG.s 			page 245


 10991              	.LASF489:
 10992 20fd 6766785F 		.ascii	"gfx_setTextBg\000"
 10992      73657454 
 10992      65787442 
 10992      6700
 10993              	.LASF262:
 10994 210b 696E6974 		.ascii	"initKey\000"
 10994      4B657900 
 10995              	.LASF110:
 10996 2113 70657269 		.ascii	"periVersion\000"
 10996      56657273 
 10996      696F6E00 
 10997              	.LASF0:
 10998 211f 73686F72 		.ascii	"short int\000"
 10998      7420696E 
 10998      7400
 10999              	.LASF330:
 11000 2129 43595F42 		.ascii	"CY_BLE_EVT_STACK_SHUTDOWN_COMPLETE\000"
 11000      4C455F45 
 11000      56545F53 
 11000      5441434B 
 11000      5F534855 
 11001              	.LASF321:
 11002 214c 43595F42 		.ascii	"CY_BLE_EVT_GET_TX_PWR_COMPLETE\000"
 11002      4C455F45 
 11002      56545F47 
 11002      45545F54 
 11002      585F5057 
 11003              	.LASF61:
 11004 216b 494E5452 		.ascii	"INTR_I2C_EC\000"
 11004      5F493243 
 11004      5F454300 
 11005              	.LASF17:
 11006 2177 696E7431 		.ascii	"int16_t\000"
 11006      365F7400 
 11007              	.LASF136:
 11008 217f 666C6173 		.ascii	"flashCtlMainWs1Freq\000"
 11008      6843746C 
 11008      4D61696E 
 11008      57733146 
 11008      72657100 
 11009              	.LASF487:
 11010 2193 6766785F 		.ascii	"gfx_setTextSize\000"
 11010      73657454 
 11010      65787453 
 11010      697A6500 
 11011              	.LASF49:
 11012 21a3 52585F46 		.ascii	"RX_FIFO_CTRL\000"
 11012      49464F5F 
 11012      4354524C 
 11012      00
 11013              	.LASF506:
 11014 21b0 6766785F 		.ascii	"gfx_write\000"
 11014      77726974 
 11014      6500
 11015              	.LASF77:
 11016 21ba 494E5452 		.ascii	"INTR_S_SET\000"
ARM GAS  C:\Users\49148\AppData\Local\Temp\ccVXiEAG.s 			page 246


 11016      5F535F53 
 11016      455400
 11017              	.LASF345:
 11018 21c5 43595F42 		.ascii	"CY_BLE_EVT_GAP_DEVICE_CONNECTED\000"
 11018      4C455F45 
 11018      56545F47 
 11018      41505F44 
 11018      45564943 
 11019              	.LASF210:
 11020 21e5 43595F53 		.ascii	"CY_SCB_I2C_MASTER_MANUAL_TIMEOUT\000"
 11020      43425F49 
 11020      32435F4D 
 11020      41535445 
 11020      525F4D41 
 11021              	.LASF332:
 11022 2206 43595F42 		.ascii	"CY_BLE_EVT_RADIO_VOLTAGE_LEVEL\000"
 11022      4C455F45 
 11022      56545F52 
 11022      4144494F 
 11022      5F564F4C 
 11023              	.LASF233:
 11024 2225 6D617374 		.ascii	"masterBufferIdx\000"
 11024      65724275 
 11024      66666572 
 11024      49647800 
 11025              	.LASF524:
 11026 2235 63795F62 		.ascii	"cy_ble_connState\000"
 11026      6C655F63 
 11026      6F6E6E53 
 11026      74617465 
 11026      00
 11027              	.LASF407:
 11028 2246 43595F42 		.ascii	"CY_BLE_ADV_STATE_ADVERTISING\000"
 11028      4C455F41 
 11028      44565F53 
 11028      54415445 
 11028      5F414456 
 11029              	.LASF228:
 11030 2263 6D617374 		.ascii	"masterStatus\000"
 11030      65725374 
 11030      61747573 
 11030      00
 11031              	.LASF133:
 11032 2270 666C6173 		.ascii	"flashProgramDelay\000"
 11032      6850726F 
 11032      6772616D 
 11032      44656C61 
 11032      7900
 11033              	.LASF490:
 11034 2282 6766785F 		.ascii	"gfx_setTextWrap\000"
 11034      73657454 
 11034      65787457 
 11034      72617000 
 11035              	.LASF486:
 11036 2292 6766785F 		.ascii	"gfx_setCursor\000"
 11036      73657443 
 11036      7572736F 
ARM GAS  C:\Users\49148\AppData\Local\Temp\ccVXiEAG.s 			page 247


 11036      7200
 11037              	.LASF303:
 11038 22a0 43595F42 		.ascii	"CY_BLE_EVT_GET_LOCAL_RPA_COMPLETE\000"
 11038      4C455F45 
 11038      56545F47 
 11038      45545F4C 
 11038      4F43414C 
 11039              	.LASF284:
 11040 22c2 63795F73 		.ascii	"cy_stc_tcpwm_counter_config_t\000"
 11040      74635F74 
 11040      6370776D 
 11040      5F636F75 
 11040      6E746572 
 11041              	.LASF473:
 11042 22e0 6C626974 		.ascii	"lbit\000"
 11042      00
 11043              	.LASF107:
 11044 22e5 6770696F 		.ascii	"gpioVersion\000"
 11044      56657273 
 11044      696F6E00 
 11045              	.LASF162:
 11046 22f1 6770696F 		.ascii	"gpioPrtCfgSioOffset\000"
 11046      50727443 
 11046      66675369 
 11046      6F4F6666 
 11046      73657400 
 11047              	.LASF501:
 11048 2305 6464465F 		.ascii	"ddF_x\000"
 11048      7800
 11049              	.LASF502:
 11050 230b 6464465F 		.ascii	"ddF_y\000"
 11050      7900
 11051              	.LASF203:
 11052 2311 6D757853 		.ascii	"muxSwitchSqCtrl\000"
 11052      77697463 
 11052      68537143 
 11052      74726C00 
 11053              	.LASF426:
 11054 2321 43595F42 		.ascii	"CY_BLE_DIS_REG_CERT_DATA\000"
 11054      4C455F44 
 11054      49535F52 
 11054      45475F43 
 11054      4552545F 
 11055              	.LASF522:
 11056 233a 63795F62 		.ascii	"cy_ble_advState\000"
 11056      6C655F61 
 11056      64765374 
 11056      61746500 
 11057              	.LASF497:
 11058 234a 79737465 		.ascii	"ystep\000"
 11058      7000
 11059              	.LASF438:
 11060 2350 4144435F 		.ascii	"ADC_CONFIG_STRUCT\000"
 11060      434F4E46 
 11060      49475F53 
 11060      54525543 
 11060      5400
ARM GAS  C:\Users\49148\AppData\Local\Temp\ccVXiEAG.s 			page 248


 11061              	.LASF539:
 11062 2362 474E5520 		.ascii	"GNU C11 5.4.1 20160609 (release) [ARM/embedded-5-br"
 11062      43313120 
 11062      352E342E 
 11062      31203230 
 11062      31363036 
 11063 2395 616E6368 		.ascii	"anch revision 237715] -mcpu=cortex-m4 -mfloat-abi=s"
 11063      20726576 
 11063      6973696F 
 11063      6E203233 
 11063      37373135 
 11064 23c8 6F667466 		.ascii	"oftfp -mfpu=fpv4-sp-d16 -mthumb -g -O0 -ffunction-s"
 11064      70202D6D 
 11064      6670753D 
 11064      66707634 
 11064      2D73702D 
 11065 23fb 65637469 		.ascii	"ections -ffat-lto-objects\000"
 11065      6F6E7320 
 11065      2D666661 
 11065      742D6C74 
 11065      6F2D6F62 
 11066              	.LASF493:
 11067 2415 6766785F 		.ascii	"gfx_drawPixel\000"
 11067      64726177 
 11067      50697865 
 11067      6C00
 11068              	.LASF333:
 11069 2423 43595F42 		.ascii	"CY_BLE_EVT_AES_CMAC_GEN_COMPLETE\000"
 11069      4C455F45 
 11069      56545F41 
 11069      45535F43 
 11069      4D41435F 
 11070              	.LASF126:
 11071 2444 75646250 		.ascii	"udbPresent\000"
 11071      72657365 
 11071      6E7400
 11072              	.LASF443:
 11073 244f 4932435F 		.ascii	"I2C_BUS_MasterSendStop\000"
 11073      4255535F 
 11073      4D617374 
 11073      65725365 
 11073      6E645374 
 11074              	.LASF301:
 11075 2466 43595F42 		.ascii	"CY_BLE_EVT_DATA_LENGTH_CHANGE\000"
 11075      4C455F45 
 11075      56545F44 
 11075      4154415F 
 11075      4C454E47 
 11076              	.LASF526:
 11077 2484 4932435F 		.ascii	"I2C_BUS_context\000"
 11077      4255535F 
 11077      636F6E74 
 11077      65787400 
 11078              	.LASF37:
 11079 2494 4932435F 		.ascii	"I2C_STATUS\000"
 11079      53544154 
 11079      555300
ARM GAS  C:\Users\49148\AppData\Local\Temp\ccVXiEAG.s 			page 249


 11080              	.LASF269:
 11081 249f 636F6D70 		.ascii	"compareOrCapture\000"
 11081      6172654F 
 11081      72436170 
 11081      74757265 
 11081      00
 11082              	.LASF319:
 11083 24b0 43595F42 		.ascii	"CY_BLE_EVT_GET_DEVICE_ADDR_COMPLETE\000"
 11083      4C455F45 
 11083      56545F47 
 11083      45545F44 
 11083      45564943 
 11084              	.LASF12:
 11085 24d4 6C6F6E67 		.ascii	"long long int\000"
 11085      206C6F6E 
 11085      6720696E 
 11085      7400
 11086              	.LASF326:
 11087 24e2 43595F42 		.ascii	"CY_BLE_EVT_AES_ENCRYPT_COMPLETE\000"
 11087      4C455F45 
 11087      56545F41 
 11087      45535F45 
 11087      4E435259 
 11088              	.LASF20:
 11089 2502 75696E74 		.ascii	"uint32_t\000"
 11089      33325F74 
 11089      00
 11090              	.LASF196:
 11091 250b 72616E67 		.ascii	"rangeCond\000"
 11091      65436F6E 
 11091      6400
 11092              	.LASF229:
 11093 2515 6D617374 		.ascii	"masterPause\000"
 11093      65725061 
 11093      75736500 
 11094              	.LASF230:
 11095 2521 6D617374 		.ascii	"masterRdDir\000"
 11095      65725264 
 11095      44697200 
 11096              	.LASF450:
 11097 252d 636D6462 		.ascii	"cmdbuf\000"
 11097      756600
 11098              	.LASF425:
 11099 2534 43595F42 		.ascii	"CY_BLE_DIS_SYSTEM_ID\000"
 11099      4C455F44 
 11099      49535F53 
 11099      59535445 
 11099      4D5F4944 
 11100              	.LASF419:
 11101 2549 43595F42 		.ascii	"CY_BLE_DIS_MANUFACTURER_NAME\000"
 11101      4C455F44 
 11101      49535F4D 
 11101      414E5546 
 11101      41435455 
 11102              	.LASF530:
 11103 2566 4144435F 		.ascii	"ADC_allConfigs\000"
 11103      616C6C43 
ARM GAS  C:\Users\49148\AppData\Local\Temp\ccVXiEAG.s 			page 250


 11103      6F6E6669 
 11103      677300
 11104              	.LASF221:
 11105 2575 43595F53 		.ascii	"CY_SCB_I2C_NAK\000"
 11105      43425F49 
 11105      32435F4E 
 11105      414B00
 11106              	.LASF484:
 11107 2584 6766785F 		.ascii	"gfx_height\000"
 11107      68656967 
 11107      687400
 11108              	.LASF101:
 11109 258f 69706342 		.ascii	"ipcBase\000"
 11109      61736500 
 11110              	.LASF55:
 11111 2597 52585F46 		.ascii	"RX_FIFO_RD_SILENT\000"
 11111      49464F5F 
 11111      52445F53 
 11111      494C454E 
 11111      5400
 11112              	.LASF165:
 11113 25a9 63707573 		.ascii	"cpussCm4StatusOffset\000"
 11113      73436D34 
 11113      53746174 
 11113      75734F66 
 11113      66736574 
 11114              	.LASF281:
 11115 25be 73746F70 		.ascii	"stopInput\000"
 11115      496E7075 
 11115      7400
 11116              	.LASF7:
 11117 25c8 73686F72 		.ascii	"short unsigned int\000"
 11117      7420756E 
 11117      7369676E 
 11117      65642069 
 11117      6E7400
 11118              	.LASF351:
 11119 25db 43595F42 		.ascii	"CY_BLE_EVT_GAP_NUMERIC_COMPARISON_REQUEST\000"
 11119      4C455F45 
 11119      56545F47 
 11119      41505F4E 
 11119      554D4552 
 11120              	.LASF448:
 11121 2605 64635F76 		.ascii	"dc_val\000"
 11121      616C00
 11122              	.LASF346:
 11123 260c 43595F42 		.ascii	"CY_BLE_EVT_GAP_DEVICE_DISCONNECTED\000"
 11123      4C455F45 
 11123      56545F47 
 11123      41505F44 
 11123      45564943 
 11124              	.LASF243:
 11125 262f 736C6176 		.ascii	"slaveRxBufferIdx\000"
 11125      65527842 
 11125      75666665 
 11125      72496478 
 11125      00
ARM GAS  C:\Users\49148\AppData\Local\Temp\ccVXiEAG.s 			page 251


 11126              	.LASF331:
 11127 2640 43595F42 		.ascii	"CY_BLE_EVT_RADIO_TEMPERATURE\000"
 11127      4C455F45 
 11127      56545F52 
 11127      4144494F 
 11127      5F54454D 
 11128              	.LASF132:
 11129 265d 666C6173 		.ascii	"flashWriteDelay\000"
 11129      68577269 
 11129      74654465 
 11129      6C617900 
 11130              	.LASF153:
 11131 266d 70657269 		.ascii	"periDivCmdPaTypeSelPos\000"
 11131      44697643 
 11131      6D645061 
 11131      54797065 
 11131      53656C50 
 11132              	.LASF363:
 11133 2684 43595F42 		.ascii	"CY_BLE_EVT_GAPP_UPDATE_ADV_SCAN_DATA_COMPLETE\000"
 11133      4C455F45 
 11133      56545F47 
 11133      4150505F 
 11133      55504441 
 11134              	.LASF177:
 11135 26b2 69706353 		.ascii	"ipcStructSize\000"
 11135      74727563 
 11135      7453697A 
 11135      6500
 11136              	.LASF80:
 11137 26c0 52455345 		.ascii	"RESERVED16\000"
 11137      52564544 
 11137      313600
 11138              	.LASF430:
 11139 26cb 43595F42 		.ascii	"CY_BLE_HRS_BSL\000"
 11139      4C455F48 
 11139      52535F42 
 11139      534C00
 11140              	.LASF291:
 11141 26da 43595F42 		.ascii	"CY_BLE_EVT_FLASH_CORRUPT\000"
 11141      4C455F45 
 11141      56545F46 
 11141      4C415348 
 11141      5F434F52 
 11142              	.LASF146:
 11143 26f3 70657269 		.ascii	"periTrCmdOffset\000"
 11143      5472436D 
 11143      644F6666 
 11143      73657400 
 11144              	.LASF8:
 11145 2703 5F5F696E 		.ascii	"__int32_t\000"
 11145      7433325F 
 11145      7400
 11146              	.LASF403:
 11147 270d 61747449 		.ascii	"attId\000"
 11147      6400
 11148              	.LASF277:
 11149 2713 72656C6F 		.ascii	"reloadInput\000"
ARM GAS  C:\Users\49148\AppData\Local\Temp\ccVXiEAG.s 			page 252


 11149      6164496E 
 11149      70757400 
 11150              	.LASF275:
 11151 271f 63617074 		.ascii	"captureInput\000"
 11151      75726549 
 11151      6E707574 
 11151      00
 11152              	.LASF255:
 11153 272c 72785269 		.ascii	"rxRingBufTail\000"
 11153      6E674275 
 11153      66546169 
 11153      6C00
 11154              	.LASF510:
 11155 273a 53483131 		.ascii	"SH110X_buffer\000"
 11155      30585F62 
 11155      75666665 
 11155      7200
 11156              	.LASF322:
 11157 2748 43595F42 		.ascii	"CY_BLE_EVT_SET_TX_PWR_COMPLETE\000"
 11157      4C455F45 
 11157      56545F53 
 11157      45545F54 
 11157      585F5057 
 11158              	.LASF252:
 11159 2767 72785269 		.ascii	"rxRingBuf\000"
 11159      6E674275 
 11159      6600
 11160              	.LASF248:
 11161 2771 63795F73 		.ascii	"cy_stc_scb_i2c_context\000"
 11161      74635F73 
 11161      63625F69 
 11161      32635F63 
 11161      6F6E7465 
 11162              	.LASF458:
 11163 2788 64697370 		.ascii	"display_update\000"
 11163      6C61795F 
 11163      75706461 
 11163      746500
 11164              	.LASF310:
 11165 2797 43595F42 		.ascii	"CY_BLE_EVT_REMOVE_DEVICE_FROM_WHITE_LIST_COMPLETE\000"
 11165      4C455F45 
 11165      56545F52 
 11165      454D4F56 
 11165      455F4445 
 11166              	.LASF307:
 11167 27c9 43595F42 		.ascii	"CY_BLE_EVT_ADD_DEVICE_TO_RPA_LIST_COMPLETE\000"
 11167      4C455F45 
 11167      56545F41 
 11167      44445F44 
 11167      45564943 
 11168              	.LASF299:
 11169 27f4 43595F42 		.ascii	"CY_BLE_EVT_SET_SUGGESTED_DATA_LENGTH_COMPLETE\000"
 11169      4C455F45 
 11169      56545F53 
 11169      45545F53 
 11169      55474745 
 11170              	.LASF36:
ARM GAS  C:\Users\49148\AppData\Local\Temp\ccVXiEAG.s 			page 253


 11171 2822 4932435F 		.ascii	"I2C_CTRL\000"
 11171      4354524C 
 11171      00
 11172              	.LASF279:
 11173 282b 73746172 		.ascii	"startInput\000"
 11173      74496E70 
 11173      757400
 11174              	.LASF135:
 11175 2836 666C6173 		.ascii	"flashCtlMainWs0Freq\000"
 11175      6843746C 
 11175      4D61696E 
 11175      57733046 
 11175      72657100 
 11176              	.LASF108:
 11177 284a 6873696F 		.ascii	"hsiomVersion\000"
 11177      6D566572 
 11177      73696F6E 
 11177      00
 11178              	.LASF358:
 11179 2857 43595F42 		.ascii	"CY_BLE_EVT_GAP_KEYS_GEN_COMPLETE\000"
 11179      4C455F45 
 11179      56545F47 
 11179      41505F4B 
 11179      4559535F 
 11180              	.LASF482:
 11181 2878 68656967 		.ascii	"height\000"
 11181      687400
 11182              	.LASF224:
 11183 287f 63795F63 		.ascii	"cy_cb_scb_i2c_handle_addr_t\000"
 11183      625F7363 
 11183      625F6932 
 11183      635F6861 
 11183      6E646C65 
 11184              	.LASF140:
 11185 289b 64774368 		.ascii	"dwChOffset\000"
 11185      4F666673 
 11185      657400
 11186              		.ident	"GCC: (GNU Tools for ARM Embedded Processors) 5.4.1 20160609 (release) [ARM/embedded-5-bran
