ARM GAS  C:\Users\49148\AppData\Local\Temp\ccVXiEAG.s 			page 1


   1              		.syntax unified
   2              		.cpu cortex-m4
   3              		.eabi_attribute 27, 1
   4              		.fpu fpv4-sp-d16
   5              		.eabi_attribute 20, 1
   6              		.eabi_attribute 21, 1
   7              		.eabi_attribute 23, 3
   8              		.eabi_attribute 24, 1
   9              		.eabi_attribute 25, 1
  10              		.eabi_attribute 26, 1
  11              		.eabi_attribute 30, 6
  12              		.eabi_attribute 34, 1
  13              		.eabi_attribute 18, 4
  14              		.thumb
  15              		.syntax unified
  16              		.file	"oled_driver.c"
  17              		.text
  18              	.Ltext0:
  19              		.cfi_sections	.debug_frame
  20              		.section	.text.I2C_BUS_MasterSendStart,"ax",%progbits
  21              		.align	2
  22              		.thumb
  23              		.thumb_func
  24              		.type	I2C_BUS_MasterSendStart, %function
  25              	I2C_BUS_MasterSendStart:
  26              	.LFB538:
  27              		.file 1 "Generated_Source\\PSoC6/I2C_BUS.h"
   1:Generated_Source\PSoC6/I2C_BUS.h **** /***************************************************************************//**
   2:Generated_Source\PSoC6/I2C_BUS.h **** * \file I2C_BUS.c
   3:Generated_Source\PSoC6/I2C_BUS.h **** * \version 2.0
   4:Generated_Source\PSoC6/I2C_BUS.h **** *
   5:Generated_Source\PSoC6/I2C_BUS.h **** *  This file provides constants and parameter values for the I2C component.
   6:Generated_Source\PSoC6/I2C_BUS.h **** *
   7:Generated_Source\PSoC6/I2C_BUS.h **** ********************************************************************************
   8:Generated_Source\PSoC6/I2C_BUS.h **** * \copyright
   9:Generated_Source\PSoC6/I2C_BUS.h **** * Copyright 2016-2017, Cypress Semiconductor Corporation. All rights reserved.
  10:Generated_Source\PSoC6/I2C_BUS.h **** * You may use this file only in accordance with the license, terms, conditions,
  11:Generated_Source\PSoC6/I2C_BUS.h **** * disclaimers, and limitations in the end user license agreement accompanying
  12:Generated_Source\PSoC6/I2C_BUS.h **** * the software package with which this file was provided.
  13:Generated_Source\PSoC6/I2C_BUS.h **** *******************************************************************************/
  14:Generated_Source\PSoC6/I2C_BUS.h **** 
  15:Generated_Source\PSoC6/I2C_BUS.h **** #if !defined(I2C_BUS_CY_SCB_I2C_PDL_H)
  16:Generated_Source\PSoC6/I2C_BUS.h **** #define I2C_BUS_CY_SCB_I2C_PDL_H
  17:Generated_Source\PSoC6/I2C_BUS.h **** 
  18:Generated_Source\PSoC6/I2C_BUS.h **** #include "cyfitter.h"
  19:Generated_Source\PSoC6/I2C_BUS.h **** #include "scb/cy_scb_i2c.h"
  20:Generated_Source\PSoC6/I2C_BUS.h **** 
  21:Generated_Source\PSoC6/I2C_BUS.h **** #if defined(__cplusplus)
  22:Generated_Source\PSoC6/I2C_BUS.h **** extern "C" {
  23:Generated_Source\PSoC6/I2C_BUS.h **** #endif
  24:Generated_Source\PSoC6/I2C_BUS.h **** 
  25:Generated_Source\PSoC6/I2C_BUS.h **** /***************************************
  26:Generated_Source\PSoC6/I2C_BUS.h **** *   Initial Parameter Constants
  27:Generated_Source\PSoC6/I2C_BUS.h **** ****************************************/
  28:Generated_Source\PSoC6/I2C_BUS.h **** 
  29:Generated_Source\PSoC6/I2C_BUS.h **** #define I2C_BUS_MODE               (0x2U)
  30:Generated_Source\PSoC6/I2C_BUS.h **** #define I2C_BUS_MODE_SLAVE_MASK    (0x1U)
ARM GAS  C:\Users\49148\AppData\Local\Temp\ccVXiEAG.s 			page 2


  31:Generated_Source\PSoC6/I2C_BUS.h **** #define I2C_BUS_MODE_MASTER_MASK   (0x2U)
  32:Generated_Source\PSoC6/I2C_BUS.h **** 
  33:Generated_Source\PSoC6/I2C_BUS.h **** #define I2C_BUS_ENABLE_SLAVE       (0UL != (I2C_BUS_MODE & I2C_BUS_MODE_SLAVE_MASK))
  34:Generated_Source\PSoC6/I2C_BUS.h **** #define I2C_BUS_ENABLE_MASTER      (0UL != (I2C_BUS_MODE & I2C_BUS_MODE_MASTER_MASK))
  35:Generated_Source\PSoC6/I2C_BUS.h **** #define I2C_BUS_MANUAL_SCL_CONTROL (0U)
  36:Generated_Source\PSoC6/I2C_BUS.h **** 
  37:Generated_Source\PSoC6/I2C_BUS.h **** 
  38:Generated_Source\PSoC6/I2C_BUS.h **** /***************************************
  39:Generated_Source\PSoC6/I2C_BUS.h **** *        Function Prototypes
  40:Generated_Source\PSoC6/I2C_BUS.h **** ***************************************/
  41:Generated_Source\PSoC6/I2C_BUS.h **** /**
  42:Generated_Source\PSoC6/I2C_BUS.h **** * \addtogroup group_general
  43:Generated_Source\PSoC6/I2C_BUS.h **** * @{
  44:Generated_Source\PSoC6/I2C_BUS.h **** */
  45:Generated_Source\PSoC6/I2C_BUS.h **** /* Component only APIs. */
  46:Generated_Source\PSoC6/I2C_BUS.h **** void I2C_BUS_Start(void);
  47:Generated_Source\PSoC6/I2C_BUS.h **** 
  48:Generated_Source\PSoC6/I2C_BUS.h **** /* Basic functions. */
  49:Generated_Source\PSoC6/I2C_BUS.h **** __STATIC_INLINE cy_en_scb_i2c_status_t I2C_BUS_Init(cy_stc_scb_i2c_config_t const *config);
  50:Generated_Source\PSoC6/I2C_BUS.h **** __STATIC_INLINE void I2C_BUS_DeInit (void);
  51:Generated_Source\PSoC6/I2C_BUS.h **** __STATIC_INLINE void I2C_BUS_Enable (void);
  52:Generated_Source\PSoC6/I2C_BUS.h **** __STATIC_INLINE void I2C_BUS_Disable(void);
  53:Generated_Source\PSoC6/I2C_BUS.h **** 
  54:Generated_Source\PSoC6/I2C_BUS.h **** /* Data rate configuration functions. */
  55:Generated_Source\PSoC6/I2C_BUS.h **** __STATIC_INLINE uint32_t I2C_BUS_SetDataRate(uint32_t dataRateHz, uint32_t scbClockHz);
  56:Generated_Source\PSoC6/I2C_BUS.h **** __STATIC_INLINE uint32_t I2C_BUS_GetDataRate(uint32_t scbClockHz);
  57:Generated_Source\PSoC6/I2C_BUS.h **** 
  58:Generated_Source\PSoC6/I2C_BUS.h **** /* Register callbacks. */
  59:Generated_Source\PSoC6/I2C_BUS.h **** __STATIC_INLINE void I2C_BUS_RegisterEventCallback(cy_cb_scb_i2c_handle_events_t callback);
  60:Generated_Source\PSoC6/I2C_BUS.h **** #if (I2C_BUS_ENABLE_SLAVE)
  61:Generated_Source\PSoC6/I2C_BUS.h **** __STATIC_INLINE void I2C_BUS_RegisterAddrCallback (cy_cb_scb_i2c_handle_addr_t callback);
  62:Generated_Source\PSoC6/I2C_BUS.h **** #endif /* (I2C_BUS_ENABLE_SLAVE) */
  63:Generated_Source\PSoC6/I2C_BUS.h **** 
  64:Generated_Source\PSoC6/I2C_BUS.h **** /* Configuration functions. */
  65:Generated_Source\PSoC6/I2C_BUS.h **** #if (I2C_BUS_ENABLE_SLAVE)
  66:Generated_Source\PSoC6/I2C_BUS.h **** __STATIC_INLINE void     I2C_BUS_SlaveSetAddress(uint8_t addr);
  67:Generated_Source\PSoC6/I2C_BUS.h **** __STATIC_INLINE uint32_t I2C_BUS_SlaveGetAddress(void);
  68:Generated_Source\PSoC6/I2C_BUS.h **** __STATIC_INLINE void     I2C_BUS_SlaveSetAddressMask(uint8_t addrMask);
  69:Generated_Source\PSoC6/I2C_BUS.h **** __STATIC_INLINE uint32_t I2C_BUS_SlaveGetAddressMask(void);
  70:Generated_Source\PSoC6/I2C_BUS.h **** #endif /* (I2C_BUS_ENABLE_SLAVE) */
  71:Generated_Source\PSoC6/I2C_BUS.h **** 
  72:Generated_Source\PSoC6/I2C_BUS.h **** #if (I2C_BUS_ENABLE_MASTER)
  73:Generated_Source\PSoC6/I2C_BUS.h **** __STATIC_INLINE void I2C_BUS_MasterSetLowPhaseDutyCycle (uint32_t clockCycles);
  74:Generated_Source\PSoC6/I2C_BUS.h **** __STATIC_INLINE void I2C_BUS_MasterSetHighPhaseDutyCycle(uint32_t clockCycles);
  75:Generated_Source\PSoC6/I2C_BUS.h **** #endif /* (I2C_BUS_ENABLE_MASTER) */
  76:Generated_Source\PSoC6/I2C_BUS.h **** 
  77:Generated_Source\PSoC6/I2C_BUS.h **** /* Bus status. */
  78:Generated_Source\PSoC6/I2C_BUS.h **** __STATIC_INLINE bool     I2C_BUS_IsBusBusy(void);
  79:Generated_Source\PSoC6/I2C_BUS.h **** 
  80:Generated_Source\PSoC6/I2C_BUS.h **** /* Slave functions. */
  81:Generated_Source\PSoC6/I2C_BUS.h **** #if (I2C_BUS_ENABLE_SLAVE)
  82:Generated_Source\PSoC6/I2C_BUS.h **** __STATIC_INLINE uint32_t I2C_BUS_SlaveGetStatus(void);
  83:Generated_Source\PSoC6/I2C_BUS.h **** 
  84:Generated_Source\PSoC6/I2C_BUS.h **** __STATIC_INLINE void     I2C_BUS_SlaveConfigReadBuf(uint8_t *buffer, uint32_t size);
  85:Generated_Source\PSoC6/I2C_BUS.h **** __STATIC_INLINE void     I2C_BUS_SlaveAbortRead(void);
  86:Generated_Source\PSoC6/I2C_BUS.h **** __STATIC_INLINE uint32_t I2C_BUS_SlaveGetReadTransferCount(void);
  87:Generated_Source\PSoC6/I2C_BUS.h **** __STATIC_INLINE uint32_t I2C_BUS_SlaveClearReadStatus(void);
ARM GAS  C:\Users\49148\AppData\Local\Temp\ccVXiEAG.s 			page 3


  88:Generated_Source\PSoC6/I2C_BUS.h **** 
  89:Generated_Source\PSoC6/I2C_BUS.h **** __STATIC_INLINE void     I2C_BUS_SlaveConfigWriteBuf(uint8_t *buffer, uint32_t size);
  90:Generated_Source\PSoC6/I2C_BUS.h **** __STATIC_INLINE void     I2C_BUS_SlaveAbortWrite(void);
  91:Generated_Source\PSoC6/I2C_BUS.h **** __STATIC_INLINE uint32_t I2C_BUS_SlaveGetWriteTransferCount(void);
  92:Generated_Source\PSoC6/I2C_BUS.h **** __STATIC_INLINE uint32_t I2C_BUS_SlaveClearWriteStatus(void);
  93:Generated_Source\PSoC6/I2C_BUS.h **** #endif /* (I2C_BUS_ENABLE_SLAVE) */
  94:Generated_Source\PSoC6/I2C_BUS.h **** 
  95:Generated_Source\PSoC6/I2C_BUS.h **** /* Master interrupt processing functions. */
  96:Generated_Source\PSoC6/I2C_BUS.h **** #if (I2C_BUS_ENABLE_MASTER)
  97:Generated_Source\PSoC6/I2C_BUS.h **** __STATIC_INLINE uint32_t I2C_BUS_MasterGetStatus(void);
  98:Generated_Source\PSoC6/I2C_BUS.h **** 
  99:Generated_Source\PSoC6/I2C_BUS.h **** __STATIC_INLINE cy_en_scb_i2c_status_t I2C_BUS_MasterRead(cy_stc_scb_i2c_master_xfer_config_t *xfer
 100:Generated_Source\PSoC6/I2C_BUS.h **** __STATIC_INLINE void I2C_BUS_MasterAbortRead(void);
 101:Generated_Source\PSoC6/I2C_BUS.h **** __STATIC_INLINE cy_en_scb_i2c_status_t I2C_BUS_MasterWrite(cy_stc_scb_i2c_master_xfer_config_t *xfe
 102:Generated_Source\PSoC6/I2C_BUS.h **** __STATIC_INLINE void I2C_BUS_MasterAbortWrite(void);
 103:Generated_Source\PSoC6/I2C_BUS.h **** __STATIC_INLINE uint32_t I2C_BUS_MasterGetTransferCount(void);
 104:Generated_Source\PSoC6/I2C_BUS.h **** 
 105:Generated_Source\PSoC6/I2C_BUS.h **** /* Master manual processing functions. */
 106:Generated_Source\PSoC6/I2C_BUS.h **** __STATIC_INLINE cy_en_scb_i2c_status_t I2C_BUS_MasterSendStart(uint32_t address, cy_en_scb_i2c_dire
 107:Generated_Source\PSoC6/I2C_BUS.h **** __STATIC_INLINE cy_en_scb_i2c_status_t I2C_BUS_MasterSendReStart(uint32_t address, cy_en_scb_i2c_di
 108:Generated_Source\PSoC6/I2C_BUS.h **** __STATIC_INLINE cy_en_scb_i2c_status_t I2C_BUS_MasterSendStop(uint32_t timeoutMs);
 109:Generated_Source\PSoC6/I2C_BUS.h **** __STATIC_INLINE cy_en_scb_i2c_status_t I2C_BUS_MasterReadByte(cy_en_scb_i2c_command_t ackNack, uint
 110:Generated_Source\PSoC6/I2C_BUS.h **** __STATIC_INLINE cy_en_scb_i2c_status_t I2C_BUS_MasterWriteByte(uint8_t byte, uint32_t timeoutMs);
 111:Generated_Source\PSoC6/I2C_BUS.h **** #endif /* (I2C_BUS_ENABLE_MASTER) */
 112:Generated_Source\PSoC6/I2C_BUS.h **** 
 113:Generated_Source\PSoC6/I2C_BUS.h **** /* Interrupt handler. */
 114:Generated_Source\PSoC6/I2C_BUS.h **** __STATIC_INLINE void I2C_BUS_Interrupt(void);
 115:Generated_Source\PSoC6/I2C_BUS.h **** /** @} group_general */
 116:Generated_Source\PSoC6/I2C_BUS.h **** 
 117:Generated_Source\PSoC6/I2C_BUS.h **** 
 118:Generated_Source\PSoC6/I2C_BUS.h **** /***************************************
 119:Generated_Source\PSoC6/I2C_BUS.h **** *    Variables with External Linkage
 120:Generated_Source\PSoC6/I2C_BUS.h **** ***************************************/
 121:Generated_Source\PSoC6/I2C_BUS.h **** /**
 122:Generated_Source\PSoC6/I2C_BUS.h **** * \addtogroup group_globals
 123:Generated_Source\PSoC6/I2C_BUS.h **** * @{
 124:Generated_Source\PSoC6/I2C_BUS.h **** */
 125:Generated_Source\PSoC6/I2C_BUS.h **** extern uint8_t I2C_BUS_initVar;
 126:Generated_Source\PSoC6/I2C_BUS.h **** extern cy_stc_scb_i2c_config_t const I2C_BUS_config;
 127:Generated_Source\PSoC6/I2C_BUS.h **** extern cy_stc_scb_i2c_context_t I2C_BUS_context;
 128:Generated_Source\PSoC6/I2C_BUS.h **** /** @} group_globals */
 129:Generated_Source\PSoC6/I2C_BUS.h **** 
 130:Generated_Source\PSoC6/I2C_BUS.h **** 
 131:Generated_Source\PSoC6/I2C_BUS.h **** /***************************************
 132:Generated_Source\PSoC6/I2C_BUS.h **** *         Preprocessor Macros
 133:Generated_Source\PSoC6/I2C_BUS.h **** ***************************************/
 134:Generated_Source\PSoC6/I2C_BUS.h **** /**
 135:Generated_Source\PSoC6/I2C_BUS.h **** * \addtogroup group_macros
 136:Generated_Source\PSoC6/I2C_BUS.h **** * @{
 137:Generated_Source\PSoC6/I2C_BUS.h **** */
 138:Generated_Source\PSoC6/I2C_BUS.h **** /** The pointer to the base address of the SCB instance */
 139:Generated_Source\PSoC6/I2C_BUS.h **** #define I2C_BUS_HW     ((CySCB_Type *) I2C_BUS_SCB__HW)
 140:Generated_Source\PSoC6/I2C_BUS.h **** 
 141:Generated_Source\PSoC6/I2C_BUS.h **** /** The desired data rate in Hz */
 142:Generated_Source\PSoC6/I2C_BUS.h **** #define I2C_BUS_DATA_RATE_HZ      (100000U)
 143:Generated_Source\PSoC6/I2C_BUS.h **** 
 144:Generated_Source\PSoC6/I2C_BUS.h **** /** The frequency of the clock used by the Component in Hz */
ARM GAS  C:\Users\49148\AppData\Local\Temp\ccVXiEAG.s 			page 4


 145:Generated_Source\PSoC6/I2C_BUS.h **** #define I2C_BUS_CLK_FREQ_HZ       (1562500U)
 146:Generated_Source\PSoC6/I2C_BUS.h **** 
 147:Generated_Source\PSoC6/I2C_BUS.h **** /** The number of Component clocks used by the master to generate the SCL
 148:Generated_Source\PSoC6/I2C_BUS.h **** * low phase. This number is calculated by GUI based on the selected data rate.
 149:Generated_Source\PSoC6/I2C_BUS.h **** */
 150:Generated_Source\PSoC6/I2C_BUS.h **** #define I2C_BUS_LOW_PHASE_DUTY_CYCLE   (8U)
 151:Generated_Source\PSoC6/I2C_BUS.h **** 
 152:Generated_Source\PSoC6/I2C_BUS.h **** /** The number of Component clocks used by the master to generate the SCL
 153:Generated_Source\PSoC6/I2C_BUS.h **** * high phase. This number is calculated by GUI based on the selected data rate.
 154:Generated_Source\PSoC6/I2C_BUS.h **** */
 155:Generated_Source\PSoC6/I2C_BUS.h **** #define I2C_BUS_HIGH_PHASE_DUTY_CYCLE  (8U)
 156:Generated_Source\PSoC6/I2C_BUS.h **** /** @} group_macros */
 157:Generated_Source\PSoC6/I2C_BUS.h **** 
 158:Generated_Source\PSoC6/I2C_BUS.h **** 
 159:Generated_Source\PSoC6/I2C_BUS.h **** /***************************************
 160:Generated_Source\PSoC6/I2C_BUS.h **** *    In-line Function Implementation
 161:Generated_Source\PSoC6/I2C_BUS.h **** ***************************************/
 162:Generated_Source\PSoC6/I2C_BUS.h **** 
 163:Generated_Source\PSoC6/I2C_BUS.h **** /*******************************************************************************
 164:Generated_Source\PSoC6/I2C_BUS.h **** * Function Name: I2C_BUS_Init
 165:Generated_Source\PSoC6/I2C_BUS.h **** ****************************************************************************//**
 166:Generated_Source\PSoC6/I2C_BUS.h **** *
 167:Generated_Source\PSoC6/I2C_BUS.h **** * Invokes the Cy_SCB_I2C_Init() PDL driver function.
 168:Generated_Source\PSoC6/I2C_BUS.h **** *
 169:Generated_Source\PSoC6/I2C_BUS.h **** *******************************************************************************/
 170:Generated_Source\PSoC6/I2C_BUS.h **** __STATIC_INLINE cy_en_scb_i2c_status_t I2C_BUS_Init(cy_stc_scb_i2c_config_t const *config)
 171:Generated_Source\PSoC6/I2C_BUS.h **** {
 172:Generated_Source\PSoC6/I2C_BUS.h ****     return Cy_SCB_I2C_Init(I2C_BUS_HW, config, &I2C_BUS_context);
 173:Generated_Source\PSoC6/I2C_BUS.h **** }
 174:Generated_Source\PSoC6/I2C_BUS.h **** 
 175:Generated_Source\PSoC6/I2C_BUS.h **** 
 176:Generated_Source\PSoC6/I2C_BUS.h **** /*******************************************************************************
 177:Generated_Source\PSoC6/I2C_BUS.h **** *  Function Name: I2C_BUS_DeInit
 178:Generated_Source\PSoC6/I2C_BUS.h **** ****************************************************************************//**
 179:Generated_Source\PSoC6/I2C_BUS.h **** *
 180:Generated_Source\PSoC6/I2C_BUS.h **** * Invokes the Cy_SCB_I2C_DeInit() PDL driver function.
 181:Generated_Source\PSoC6/I2C_BUS.h **** *
 182:Generated_Source\PSoC6/I2C_BUS.h **** *******************************************************************************/
 183:Generated_Source\PSoC6/I2C_BUS.h **** __STATIC_INLINE void I2C_BUS_DeInit(void)
 184:Generated_Source\PSoC6/I2C_BUS.h **** {
 185:Generated_Source\PSoC6/I2C_BUS.h ****     Cy_SCB_I2C_DeInit(I2C_BUS_HW);
 186:Generated_Source\PSoC6/I2C_BUS.h **** }
 187:Generated_Source\PSoC6/I2C_BUS.h **** 
 188:Generated_Source\PSoC6/I2C_BUS.h **** 
 189:Generated_Source\PSoC6/I2C_BUS.h **** /*******************************************************************************
 190:Generated_Source\PSoC6/I2C_BUS.h **** * Function Name: I2C_BUS_Enable
 191:Generated_Source\PSoC6/I2C_BUS.h **** ****************************************************************************//**
 192:Generated_Source\PSoC6/I2C_BUS.h **** *
 193:Generated_Source\PSoC6/I2C_BUS.h **** * Invokes the Cy_SCB_I2C_Enable() PDL driver function.
 194:Generated_Source\PSoC6/I2C_BUS.h **** *
 195:Generated_Source\PSoC6/I2C_BUS.h **** *******************************************************************************/
 196:Generated_Source\PSoC6/I2C_BUS.h **** __STATIC_INLINE void I2C_BUS_Enable(void)
 197:Generated_Source\PSoC6/I2C_BUS.h **** {
 198:Generated_Source\PSoC6/I2C_BUS.h ****     Cy_SCB_I2C_Enable(I2C_BUS_HW);
 199:Generated_Source\PSoC6/I2C_BUS.h **** }
 200:Generated_Source\PSoC6/I2C_BUS.h **** 
 201:Generated_Source\PSoC6/I2C_BUS.h **** 
ARM GAS  C:\Users\49148\AppData\Local\Temp\ccVXiEAG.s 			page 5


 202:Generated_Source\PSoC6/I2C_BUS.h **** /*******************************************************************************
 203:Generated_Source\PSoC6/I2C_BUS.h **** * Function Name: I2C_BUS_Disable
 204:Generated_Source\PSoC6/I2C_BUS.h **** ****************************************************************************//**
 205:Generated_Source\PSoC6/I2C_BUS.h **** *
 206:Generated_Source\PSoC6/I2C_BUS.h **** * Invokes the Cy_SCB_I2C_Disable() PDL driver function.
 207:Generated_Source\PSoC6/I2C_BUS.h **** *
 208:Generated_Source\PSoC6/I2C_BUS.h **** *******************************************************************************/
 209:Generated_Source\PSoC6/I2C_BUS.h **** __STATIC_INLINE void I2C_BUS_Disable(void)
 210:Generated_Source\PSoC6/I2C_BUS.h **** {
 211:Generated_Source\PSoC6/I2C_BUS.h ****     Cy_SCB_I2C_Disable(I2C_BUS_HW, &I2C_BUS_context);
 212:Generated_Source\PSoC6/I2C_BUS.h **** }
 213:Generated_Source\PSoC6/I2C_BUS.h **** 
 214:Generated_Source\PSoC6/I2C_BUS.h **** 
 215:Generated_Source\PSoC6/I2C_BUS.h **** /*******************************************************************************
 216:Generated_Source\PSoC6/I2C_BUS.h **** * Function Name: I2C_BUS_SetDataRate
 217:Generated_Source\PSoC6/I2C_BUS.h **** ****************************************************************************//**
 218:Generated_Source\PSoC6/I2C_BUS.h **** *
 219:Generated_Source\PSoC6/I2C_BUS.h **** * Invokes the Cy_SCB_I2C_SetDataRate() PDL driver function.
 220:Generated_Source\PSoC6/I2C_BUS.h **** *
 221:Generated_Source\PSoC6/I2C_BUS.h **** *******************************************************************************/
 222:Generated_Source\PSoC6/I2C_BUS.h **** __STATIC_INLINE uint32_t I2C_BUS_SetDataRate(uint32_t dataRateHz, uint32_t scbClockHz)
 223:Generated_Source\PSoC6/I2C_BUS.h **** {
 224:Generated_Source\PSoC6/I2C_BUS.h ****     return Cy_SCB_I2C_SetDataRate(I2C_BUS_HW, dataRateHz, scbClockHz);
 225:Generated_Source\PSoC6/I2C_BUS.h **** }
 226:Generated_Source\PSoC6/I2C_BUS.h **** 
 227:Generated_Source\PSoC6/I2C_BUS.h **** 
 228:Generated_Source\PSoC6/I2C_BUS.h **** /*******************************************************************************
 229:Generated_Source\PSoC6/I2C_BUS.h **** * Function Name: I2C_BUS_GetDataRate
 230:Generated_Source\PSoC6/I2C_BUS.h **** ****************************************************************************//**
 231:Generated_Source\PSoC6/I2C_BUS.h **** *
 232:Generated_Source\PSoC6/I2C_BUS.h **** * Invokes the Cy_SCB_I2C_GetDataRate() PDL driver function.
 233:Generated_Source\PSoC6/I2C_BUS.h **** *
 234:Generated_Source\PSoC6/I2C_BUS.h **** *******************************************************************************/
 235:Generated_Source\PSoC6/I2C_BUS.h **** __STATIC_INLINE uint32_t I2C_BUS_GetDataRate(uint32_t scbClockHz)
 236:Generated_Source\PSoC6/I2C_BUS.h **** {
 237:Generated_Source\PSoC6/I2C_BUS.h ****     return Cy_SCB_I2C_GetDataRate(I2C_BUS_HW, scbClockHz);
 238:Generated_Source\PSoC6/I2C_BUS.h **** }
 239:Generated_Source\PSoC6/I2C_BUS.h **** 
 240:Generated_Source\PSoC6/I2C_BUS.h **** 
 241:Generated_Source\PSoC6/I2C_BUS.h **** /*******************************************************************************
 242:Generated_Source\PSoC6/I2C_BUS.h **** * Function Name: I2C_BUS_RegisterEventCallback
 243:Generated_Source\PSoC6/I2C_BUS.h **** ****************************************************************************//**
 244:Generated_Source\PSoC6/I2C_BUS.h **** *
 245:Generated_Source\PSoC6/I2C_BUS.h **** * Invokes the Cy_SCB_I2C_RegisterEventCallback() PDL driver function.
 246:Generated_Source\PSoC6/I2C_BUS.h **** *
 247:Generated_Source\PSoC6/I2C_BUS.h **** *******************************************************************************/
 248:Generated_Source\PSoC6/I2C_BUS.h **** __STATIC_INLINE void I2C_BUS_RegisterEventCallback(cy_cb_scb_i2c_handle_events_t callback)
 249:Generated_Source\PSoC6/I2C_BUS.h **** {
 250:Generated_Source\PSoC6/I2C_BUS.h ****     Cy_SCB_I2C_RegisterEventCallback(I2C_BUS_HW, callback, &I2C_BUS_context);
 251:Generated_Source\PSoC6/I2C_BUS.h **** }
 252:Generated_Source\PSoC6/I2C_BUS.h **** 
 253:Generated_Source\PSoC6/I2C_BUS.h **** 
 254:Generated_Source\PSoC6/I2C_BUS.h **** #if (I2C_BUS_ENABLE_SLAVE)
 255:Generated_Source\PSoC6/I2C_BUS.h **** /*******************************************************************************
 256:Generated_Source\PSoC6/I2C_BUS.h **** * Function Name: I2C_BUS_RegisterAddrCallback
 257:Generated_Source\PSoC6/I2C_BUS.h **** ****************************************************************************//**
 258:Generated_Source\PSoC6/I2C_BUS.h **** *
ARM GAS  C:\Users\49148\AppData\Local\Temp\ccVXiEAG.s 			page 6


 259:Generated_Source\PSoC6/I2C_BUS.h **** * Invokes the Cy_SCB_I2C_RegisterAddrCallback() PDL driver function.
 260:Generated_Source\PSoC6/I2C_BUS.h **** *
 261:Generated_Source\PSoC6/I2C_BUS.h **** *******************************************************************************/
 262:Generated_Source\PSoC6/I2C_BUS.h **** __STATIC_INLINE void I2C_BUS_RegisterAddrCallback(cy_cb_scb_i2c_handle_addr_t callback)
 263:Generated_Source\PSoC6/I2C_BUS.h **** {
 264:Generated_Source\PSoC6/I2C_BUS.h ****     Cy_SCB_I2C_RegisterAddrCallback(I2C_BUS_HW, callback, &I2C_BUS_context);
 265:Generated_Source\PSoC6/I2C_BUS.h **** }
 266:Generated_Source\PSoC6/I2C_BUS.h **** #endif /* (I2C_BUS_ENABLE_SLAVE) */
 267:Generated_Source\PSoC6/I2C_BUS.h **** 
 268:Generated_Source\PSoC6/I2C_BUS.h **** 
 269:Generated_Source\PSoC6/I2C_BUS.h **** /*******************************************************************************
 270:Generated_Source\PSoC6/I2C_BUS.h **** * Function Name: I2C_BUS_IsBusBusy
 271:Generated_Source\PSoC6/I2C_BUS.h **** ****************************************************************************//**
 272:Generated_Source\PSoC6/I2C_BUS.h **** *
 273:Generated_Source\PSoC6/I2C_BUS.h **** * Invokes the Cy_SCB_I2C_IsBusBusy() PDL driver function.
 274:Generated_Source\PSoC6/I2C_BUS.h **** *
 275:Generated_Source\PSoC6/I2C_BUS.h **** *******************************************************************************/
 276:Generated_Source\PSoC6/I2C_BUS.h **** __STATIC_INLINE bool I2C_BUS_IsBusBusy(void)
 277:Generated_Source\PSoC6/I2C_BUS.h **** {
 278:Generated_Source\PSoC6/I2C_BUS.h ****     return Cy_SCB_I2C_IsBusBusy(I2C_BUS_HW);
 279:Generated_Source\PSoC6/I2C_BUS.h **** }
 280:Generated_Source\PSoC6/I2C_BUS.h **** 
 281:Generated_Source\PSoC6/I2C_BUS.h **** 
 282:Generated_Source\PSoC6/I2C_BUS.h **** #if (I2C_BUS_ENABLE_SLAVE)
 283:Generated_Source\PSoC6/I2C_BUS.h **** /*******************************************************************************
 284:Generated_Source\PSoC6/I2C_BUS.h **** * Function Name: I2C_BUS_SlaveSetAddress
 285:Generated_Source\PSoC6/I2C_BUS.h **** ****************************************************************************//**
 286:Generated_Source\PSoC6/I2C_BUS.h **** *
 287:Generated_Source\PSoC6/I2C_BUS.h **** * Invokes the Cy_SCB_I2C_SlaveGetAddress() PDL driver function.
 288:Generated_Source\PSoC6/I2C_BUS.h **** *
 289:Generated_Source\PSoC6/I2C_BUS.h **** *******************************************************************************/
 290:Generated_Source\PSoC6/I2C_BUS.h **** __STATIC_INLINE void I2C_BUS_SlaveSetAddress(uint8_t addr)
 291:Generated_Source\PSoC6/I2C_BUS.h **** {
 292:Generated_Source\PSoC6/I2C_BUS.h ****     Cy_SCB_I2C_SlaveSetAddress(I2C_BUS_HW, addr);
 293:Generated_Source\PSoC6/I2C_BUS.h **** }
 294:Generated_Source\PSoC6/I2C_BUS.h **** 
 295:Generated_Source\PSoC6/I2C_BUS.h **** 
 296:Generated_Source\PSoC6/I2C_BUS.h **** /*******************************************************************************
 297:Generated_Source\PSoC6/I2C_BUS.h **** * Function Name: I2C_BUS_SlaveGetAddress
 298:Generated_Source\PSoC6/I2C_BUS.h **** ****************************************************************************//**
 299:Generated_Source\PSoC6/I2C_BUS.h **** *
 300:Generated_Source\PSoC6/I2C_BUS.h **** * Invokes the Cy_SCB_I2C_SlaveGetAddress() PDL driver function.
 301:Generated_Source\PSoC6/I2C_BUS.h **** *
 302:Generated_Source\PSoC6/I2C_BUS.h **** *******************************************************************************/
 303:Generated_Source\PSoC6/I2C_BUS.h **** __STATIC_INLINE uint32_t I2C_BUS_SlaveGetAddress(void)
 304:Generated_Source\PSoC6/I2C_BUS.h **** {
 305:Generated_Source\PSoC6/I2C_BUS.h ****     return Cy_SCB_I2C_SlaveGetAddress(I2C_BUS_HW);
 306:Generated_Source\PSoC6/I2C_BUS.h **** }
 307:Generated_Source\PSoC6/I2C_BUS.h **** 
 308:Generated_Source\PSoC6/I2C_BUS.h **** 
 309:Generated_Source\PSoC6/I2C_BUS.h **** /*******************************************************************************
 310:Generated_Source\PSoC6/I2C_BUS.h **** * Function Name: I2C_BUS_SlaveSetAddressMask
 311:Generated_Source\PSoC6/I2C_BUS.h **** ****************************************************************************//**
 312:Generated_Source\PSoC6/I2C_BUS.h **** *
 313:Generated_Source\PSoC6/I2C_BUS.h **** * Invokes the Cy_SCB_I2C_SlaveSetAddressMask() PDL driver function.
 314:Generated_Source\PSoC6/I2C_BUS.h **** *
 315:Generated_Source\PSoC6/I2C_BUS.h **** *******************************************************************************/
ARM GAS  C:\Users\49148\AppData\Local\Temp\ccVXiEAG.s 			page 7


 316:Generated_Source\PSoC6/I2C_BUS.h **** __STATIC_INLINE void I2C_BUS_SlaveSetAddressMask(uint8_t addrMask)
 317:Generated_Source\PSoC6/I2C_BUS.h **** {
 318:Generated_Source\PSoC6/I2C_BUS.h ****     Cy_SCB_I2C_SlaveSetAddressMask(I2C_BUS_HW, addrMask);
 319:Generated_Source\PSoC6/I2C_BUS.h **** }
 320:Generated_Source\PSoC6/I2C_BUS.h **** 
 321:Generated_Source\PSoC6/I2C_BUS.h **** 
 322:Generated_Source\PSoC6/I2C_BUS.h **** /*******************************************************************************
 323:Generated_Source\PSoC6/I2C_BUS.h **** * Function Name: I2C_BUS_SlaveGetAddressMask
 324:Generated_Source\PSoC6/I2C_BUS.h **** ****************************************************************************//**
 325:Generated_Source\PSoC6/I2C_BUS.h **** *
 326:Generated_Source\PSoC6/I2C_BUS.h **** * Invokes the Cy_SCB_I2C_SlaveGetAddressMask() PDL driver function.
 327:Generated_Source\PSoC6/I2C_BUS.h **** *
 328:Generated_Source\PSoC6/I2C_BUS.h **** *******************************************************************************/
 329:Generated_Source\PSoC6/I2C_BUS.h **** __STATIC_INLINE uint32_t I2C_BUS_SlaveGetAddressMask(void)
 330:Generated_Source\PSoC6/I2C_BUS.h **** {
 331:Generated_Source\PSoC6/I2C_BUS.h ****     return Cy_SCB_I2C_SlaveGetAddressMask(I2C_BUS_HW);
 332:Generated_Source\PSoC6/I2C_BUS.h **** }
 333:Generated_Source\PSoC6/I2C_BUS.h **** #endif /* (I2C_BUS_ENABLE_SLAVE) */
 334:Generated_Source\PSoC6/I2C_BUS.h **** 
 335:Generated_Source\PSoC6/I2C_BUS.h **** #if (I2C_BUS_ENABLE_MASTER)
 336:Generated_Source\PSoC6/I2C_BUS.h **** /*******************************************************************************
 337:Generated_Source\PSoC6/I2C_BUS.h **** * Function Name: I2C_BUS_MasterSetLowPhaseDutyCycle
 338:Generated_Source\PSoC6/I2C_BUS.h **** ****************************************************************************//**
 339:Generated_Source\PSoC6/I2C_BUS.h **** *
 340:Generated_Source\PSoC6/I2C_BUS.h **** * Invokes the Cy_SCB_I2C_MasterSetLowPhaseDutyCycle() PDL driver function.
 341:Generated_Source\PSoC6/I2C_BUS.h **** *
 342:Generated_Source\PSoC6/I2C_BUS.h **** *******************************************************************************/
 343:Generated_Source\PSoC6/I2C_BUS.h **** __STATIC_INLINE void I2C_BUS_MasterSetLowPhaseDutyCycle(uint32_t clockCycles)
 344:Generated_Source\PSoC6/I2C_BUS.h **** {
 345:Generated_Source\PSoC6/I2C_BUS.h ****     Cy_SCB_I2C_MasterSetLowPhaseDutyCycle(I2C_BUS_HW, clockCycles);
 346:Generated_Source\PSoC6/I2C_BUS.h **** }
 347:Generated_Source\PSoC6/I2C_BUS.h **** 
 348:Generated_Source\PSoC6/I2C_BUS.h **** 
 349:Generated_Source\PSoC6/I2C_BUS.h **** /*******************************************************************************
 350:Generated_Source\PSoC6/I2C_BUS.h **** * Function Name: I2C_BUS_MasterSetHighPhaseDutyCycle
 351:Generated_Source\PSoC6/I2C_BUS.h **** ****************************************************************************//**
 352:Generated_Source\PSoC6/I2C_BUS.h **** *
 353:Generated_Source\PSoC6/I2C_BUS.h **** * Invokes the Cy_SCB_I2C_MasterSetHighPhaseDutyCycle() PDL driver function.
 354:Generated_Source\PSoC6/I2C_BUS.h **** *
 355:Generated_Source\PSoC6/I2C_BUS.h **** *******************************************************************************/
 356:Generated_Source\PSoC6/I2C_BUS.h **** __STATIC_INLINE void I2C_BUS_MasterSetHighPhaseDutyCycle(uint32_t clockCycles)
 357:Generated_Source\PSoC6/I2C_BUS.h **** {
 358:Generated_Source\PSoC6/I2C_BUS.h ****     Cy_SCB_I2C_MasterSetHighPhaseDutyCycle(I2C_BUS_HW, clockCycles);
 359:Generated_Source\PSoC6/I2C_BUS.h **** }
 360:Generated_Source\PSoC6/I2C_BUS.h **** #endif /* (I2C_BUS_ENABLE_MASTER) */
 361:Generated_Source\PSoC6/I2C_BUS.h **** 
 362:Generated_Source\PSoC6/I2C_BUS.h **** 
 363:Generated_Source\PSoC6/I2C_BUS.h **** #if (I2C_BUS_ENABLE_SLAVE)
 364:Generated_Source\PSoC6/I2C_BUS.h **** /*******************************************************************************
 365:Generated_Source\PSoC6/I2C_BUS.h **** * Function Name: I2C_BUS_SlaveGetStatus
 366:Generated_Source\PSoC6/I2C_BUS.h **** ****************************************************************************//**
 367:Generated_Source\PSoC6/I2C_BUS.h **** *
 368:Generated_Source\PSoC6/I2C_BUS.h **** * Invokes the Cy_SCB_I2C_SlaveGetStatus() PDL driver function.
 369:Generated_Source\PSoC6/I2C_BUS.h **** *
 370:Generated_Source\PSoC6/I2C_BUS.h **** *******************************************************************************/
 371:Generated_Source\PSoC6/I2C_BUS.h **** __STATIC_INLINE uint32_t I2C_BUS_SlaveGetStatus(void)
 372:Generated_Source\PSoC6/I2C_BUS.h **** {
ARM GAS  C:\Users\49148\AppData\Local\Temp\ccVXiEAG.s 			page 8


 373:Generated_Source\PSoC6/I2C_BUS.h ****     return Cy_SCB_I2C_SlaveGetStatus(I2C_BUS_HW, &I2C_BUS_context);
 374:Generated_Source\PSoC6/I2C_BUS.h **** }
 375:Generated_Source\PSoC6/I2C_BUS.h **** 
 376:Generated_Source\PSoC6/I2C_BUS.h **** 
 377:Generated_Source\PSoC6/I2C_BUS.h **** /*******************************************************************************
 378:Generated_Source\PSoC6/I2C_BUS.h **** * Function Name: I2C_BUS_SlaveConfigReadBuf
 379:Generated_Source\PSoC6/I2C_BUS.h **** ****************************************************************************//**
 380:Generated_Source\PSoC6/I2C_BUS.h **** *
 381:Generated_Source\PSoC6/I2C_BUS.h **** * Invokes the Cy_SCB_I2C_SlaveConfigReadBuf() PDL driver function.
 382:Generated_Source\PSoC6/I2C_BUS.h **** *
 383:Generated_Source\PSoC6/I2C_BUS.h **** *******************************************************************************/
 384:Generated_Source\PSoC6/I2C_BUS.h **** __STATIC_INLINE void I2C_BUS_SlaveConfigReadBuf(uint8_t *buffer, uint32_t size)
 385:Generated_Source\PSoC6/I2C_BUS.h **** {
 386:Generated_Source\PSoC6/I2C_BUS.h ****     Cy_SCB_I2C_SlaveConfigReadBuf(I2C_BUS_HW, buffer, size, &I2C_BUS_context);
 387:Generated_Source\PSoC6/I2C_BUS.h **** }
 388:Generated_Source\PSoC6/I2C_BUS.h **** 
 389:Generated_Source\PSoC6/I2C_BUS.h **** 
 390:Generated_Source\PSoC6/I2C_BUS.h **** /*******************************************************************************
 391:Generated_Source\PSoC6/I2C_BUS.h **** * Function Name: I2C_BUS_SlaveAbortRead
 392:Generated_Source\PSoC6/I2C_BUS.h **** ****************************************************************************//**
 393:Generated_Source\PSoC6/I2C_BUS.h **** *
 394:Generated_Source\PSoC6/I2C_BUS.h **** * Invokes the Cy_SCB_I2C_SlaveAbortRead() PDL driver function.
 395:Generated_Source\PSoC6/I2C_BUS.h **** *
 396:Generated_Source\PSoC6/I2C_BUS.h **** *******************************************************************************/
 397:Generated_Source\PSoC6/I2C_BUS.h **** __STATIC_INLINE void I2C_BUS_SlaveAbortRead(void)
 398:Generated_Source\PSoC6/I2C_BUS.h **** {
 399:Generated_Source\PSoC6/I2C_BUS.h ****     Cy_SCB_I2C_SlaveAbortRead(I2C_BUS_HW, &I2C_BUS_context);
 400:Generated_Source\PSoC6/I2C_BUS.h **** }
 401:Generated_Source\PSoC6/I2C_BUS.h **** 
 402:Generated_Source\PSoC6/I2C_BUS.h **** 
 403:Generated_Source\PSoC6/I2C_BUS.h **** /*******************************************************************************
 404:Generated_Source\PSoC6/I2C_BUS.h **** * Function Name: I2C_BUS_SlaveGetReadTransferCount
 405:Generated_Source\PSoC6/I2C_BUS.h **** ****************************************************************************//**
 406:Generated_Source\PSoC6/I2C_BUS.h **** *
 407:Generated_Source\PSoC6/I2C_BUS.h **** * Invokes the Cy_SCB_I2C_SlaveGetReadTransferCount() PDL driver function.
 408:Generated_Source\PSoC6/I2C_BUS.h **** *
 409:Generated_Source\PSoC6/I2C_BUS.h **** *******************************************************************************/
 410:Generated_Source\PSoC6/I2C_BUS.h **** __STATIC_INLINE uint32_t I2C_BUS_SlaveGetReadTransferCount(void)
 411:Generated_Source\PSoC6/I2C_BUS.h **** {
 412:Generated_Source\PSoC6/I2C_BUS.h ****     return Cy_SCB_I2C_SlaveGetReadTransferCount(I2C_BUS_HW, &I2C_BUS_context);
 413:Generated_Source\PSoC6/I2C_BUS.h **** }
 414:Generated_Source\PSoC6/I2C_BUS.h **** 
 415:Generated_Source\PSoC6/I2C_BUS.h **** 
 416:Generated_Source\PSoC6/I2C_BUS.h **** /*******************************************************************************
 417:Generated_Source\PSoC6/I2C_BUS.h **** * Function Name: I2C_BUS_SlaveClearReadStatus
 418:Generated_Source\PSoC6/I2C_BUS.h **** ****************************************************************************//**
 419:Generated_Source\PSoC6/I2C_BUS.h **** *
 420:Generated_Source\PSoC6/I2C_BUS.h **** * Invokes the Cy_SCB_I2C_SlaveClearReadStatus() PDL driver function.
 421:Generated_Source\PSoC6/I2C_BUS.h **** *
 422:Generated_Source\PSoC6/I2C_BUS.h **** *******************************************************************************/
 423:Generated_Source\PSoC6/I2C_BUS.h **** __STATIC_INLINE uint32_t I2C_BUS_SlaveClearReadStatus(void)
 424:Generated_Source\PSoC6/I2C_BUS.h **** {
 425:Generated_Source\PSoC6/I2C_BUS.h ****     return Cy_SCB_I2C_SlaveClearReadStatus(I2C_BUS_HW, &I2C_BUS_context);
 426:Generated_Source\PSoC6/I2C_BUS.h **** }
 427:Generated_Source\PSoC6/I2C_BUS.h **** 
 428:Generated_Source\PSoC6/I2C_BUS.h **** 
 429:Generated_Source\PSoC6/I2C_BUS.h **** /*******************************************************************************
ARM GAS  C:\Users\49148\AppData\Local\Temp\ccVXiEAG.s 			page 9


 430:Generated_Source\PSoC6/I2C_BUS.h **** * Function Name: I2C_BUS_SlaveConfigWriteBuf
 431:Generated_Source\PSoC6/I2C_BUS.h **** ****************************************************************************//**
 432:Generated_Source\PSoC6/I2C_BUS.h **** *
 433:Generated_Source\PSoC6/I2C_BUS.h **** * Invokes the Cy_SCB_I2C_SlaveConfigWriteBuf() PDL driver function.
 434:Generated_Source\PSoC6/I2C_BUS.h **** *
 435:Generated_Source\PSoC6/I2C_BUS.h **** *******************************************************************************/
 436:Generated_Source\PSoC6/I2C_BUS.h **** __STATIC_INLINE void I2C_BUS_SlaveConfigWriteBuf(uint8_t *buffer, uint32_t size)
 437:Generated_Source\PSoC6/I2C_BUS.h **** {
 438:Generated_Source\PSoC6/I2C_BUS.h ****     Cy_SCB_I2C_SlaveConfigWriteBuf(I2C_BUS_HW, buffer, size, &I2C_BUS_context);
 439:Generated_Source\PSoC6/I2C_BUS.h **** }
 440:Generated_Source\PSoC6/I2C_BUS.h **** 
 441:Generated_Source\PSoC6/I2C_BUS.h **** 
 442:Generated_Source\PSoC6/I2C_BUS.h **** /*******************************************************************************
 443:Generated_Source\PSoC6/I2C_BUS.h **** * Function Name: I2C_BUS_SlaveAbortWrite
 444:Generated_Source\PSoC6/I2C_BUS.h **** ****************************************************************************//**
 445:Generated_Source\PSoC6/I2C_BUS.h **** *
 446:Generated_Source\PSoC6/I2C_BUS.h **** * Invokes the Cy_SCB_I2C_SlaveAbortWrite() PDL driver function.
 447:Generated_Source\PSoC6/I2C_BUS.h **** *
 448:Generated_Source\PSoC6/I2C_BUS.h **** *******************************************************************************/
 449:Generated_Source\PSoC6/I2C_BUS.h **** __STATIC_INLINE void I2C_BUS_SlaveAbortWrite(void)
 450:Generated_Source\PSoC6/I2C_BUS.h **** {
 451:Generated_Source\PSoC6/I2C_BUS.h ****     Cy_SCB_I2C_SlaveAbortWrite(I2C_BUS_HW, &I2C_BUS_context);
 452:Generated_Source\PSoC6/I2C_BUS.h **** }
 453:Generated_Source\PSoC6/I2C_BUS.h **** 
 454:Generated_Source\PSoC6/I2C_BUS.h **** 
 455:Generated_Source\PSoC6/I2C_BUS.h **** /*******************************************************************************
 456:Generated_Source\PSoC6/I2C_BUS.h **** * Function Name: I2C_BUS_SlaveGetWriteTransferCount
 457:Generated_Source\PSoC6/I2C_BUS.h **** ****************************************************************************//**
 458:Generated_Source\PSoC6/I2C_BUS.h **** *
 459:Generated_Source\PSoC6/I2C_BUS.h **** * Invokes the Cy_SCB_I2C_SlaveGetWriteTransferCount() PDL driver function.
 460:Generated_Source\PSoC6/I2C_BUS.h **** *
 461:Generated_Source\PSoC6/I2C_BUS.h **** *******************************************************************************/
 462:Generated_Source\PSoC6/I2C_BUS.h **** __STATIC_INLINE uint32_t I2C_BUS_SlaveGetWriteTransferCount(void)
 463:Generated_Source\PSoC6/I2C_BUS.h **** {
 464:Generated_Source\PSoC6/I2C_BUS.h ****     return Cy_SCB_I2C_SlaveGetWriteTransferCount(I2C_BUS_HW, &I2C_BUS_context);
 465:Generated_Source\PSoC6/I2C_BUS.h **** }
 466:Generated_Source\PSoC6/I2C_BUS.h **** 
 467:Generated_Source\PSoC6/I2C_BUS.h **** 
 468:Generated_Source\PSoC6/I2C_BUS.h **** /*******************************************************************************
 469:Generated_Source\PSoC6/I2C_BUS.h **** * Function Name: I2C_BUS_SlaveClearWriteStatus
 470:Generated_Source\PSoC6/I2C_BUS.h **** ****************************************************************************//**
 471:Generated_Source\PSoC6/I2C_BUS.h **** *
 472:Generated_Source\PSoC6/I2C_BUS.h **** * Invokes the Cy_SCB_I2C_SlaveClearWriteStatus() PDL driver function.
 473:Generated_Source\PSoC6/I2C_BUS.h **** *
 474:Generated_Source\PSoC6/I2C_BUS.h **** *******************************************************************************/
 475:Generated_Source\PSoC6/I2C_BUS.h **** __STATIC_INLINE uint32_t I2C_BUS_SlaveClearWriteStatus(void)
 476:Generated_Source\PSoC6/I2C_BUS.h **** {
 477:Generated_Source\PSoC6/I2C_BUS.h ****     return Cy_SCB_I2C_SlaveClearWriteStatus(I2C_BUS_HW, &I2C_BUS_context);
 478:Generated_Source\PSoC6/I2C_BUS.h **** }
 479:Generated_Source\PSoC6/I2C_BUS.h **** #endif /* (I2C_BUS_ENABLE_SLAVE) */
 480:Generated_Source\PSoC6/I2C_BUS.h **** 
 481:Generated_Source\PSoC6/I2C_BUS.h **** 
 482:Generated_Source\PSoC6/I2C_BUS.h **** #if (I2C_BUS_ENABLE_MASTER)
 483:Generated_Source\PSoC6/I2C_BUS.h **** /*******************************************************************************
 484:Generated_Source\PSoC6/I2C_BUS.h **** * Function Name: I2C_BUS_MasterGetStatus
 485:Generated_Source\PSoC6/I2C_BUS.h **** ****************************************************************************//**
 486:Generated_Source\PSoC6/I2C_BUS.h **** *
ARM GAS  C:\Users\49148\AppData\Local\Temp\ccVXiEAG.s 			page 10


 487:Generated_Source\PSoC6/I2C_BUS.h **** * Invokes the Cy_SCB_I2C_MasterGetStatus() PDL driver function.
 488:Generated_Source\PSoC6/I2C_BUS.h **** *
 489:Generated_Source\PSoC6/I2C_BUS.h **** *******************************************************************************/
 490:Generated_Source\PSoC6/I2C_BUS.h **** __STATIC_INLINE uint32_t I2C_BUS_MasterGetStatus(void)
 491:Generated_Source\PSoC6/I2C_BUS.h **** {
 492:Generated_Source\PSoC6/I2C_BUS.h ****     return Cy_SCB_I2C_MasterGetStatus(I2C_BUS_HW, &I2C_BUS_context);
 493:Generated_Source\PSoC6/I2C_BUS.h **** }
 494:Generated_Source\PSoC6/I2C_BUS.h **** 
 495:Generated_Source\PSoC6/I2C_BUS.h **** 
 496:Generated_Source\PSoC6/I2C_BUS.h **** /*******************************************************************************
 497:Generated_Source\PSoC6/I2C_BUS.h **** * Function Name: I2C_BUS_MasterRead
 498:Generated_Source\PSoC6/I2C_BUS.h **** ****************************************************************************//**
 499:Generated_Source\PSoC6/I2C_BUS.h **** *
 500:Generated_Source\PSoC6/I2C_BUS.h **** * Invokes the Cy_SCB_I2C_MasterRead() PDL driver function.
 501:Generated_Source\PSoC6/I2C_BUS.h **** *
 502:Generated_Source\PSoC6/I2C_BUS.h **** *******************************************************************************/
 503:Generated_Source\PSoC6/I2C_BUS.h **** __STATIC_INLINE cy_en_scb_i2c_status_t I2C_BUS_MasterRead(cy_stc_scb_i2c_master_xfer_config_t *xfer
 504:Generated_Source\PSoC6/I2C_BUS.h **** {
 505:Generated_Source\PSoC6/I2C_BUS.h ****     return Cy_SCB_I2C_MasterRead(I2C_BUS_HW, xferConfig, &I2C_BUS_context);
 506:Generated_Source\PSoC6/I2C_BUS.h **** }
 507:Generated_Source\PSoC6/I2C_BUS.h **** 
 508:Generated_Source\PSoC6/I2C_BUS.h **** 
 509:Generated_Source\PSoC6/I2C_BUS.h **** /*******************************************************************************
 510:Generated_Source\PSoC6/I2C_BUS.h **** * Function Name: I2C_BUS_MasterAbortRead
 511:Generated_Source\PSoC6/I2C_BUS.h **** ****************************************************************************//**
 512:Generated_Source\PSoC6/I2C_BUS.h **** *
 513:Generated_Source\PSoC6/I2C_BUS.h **** * Invokes the Cy_SCB_I2C_MasterAbortRead() PDL driver function.
 514:Generated_Source\PSoC6/I2C_BUS.h **** *
 515:Generated_Source\PSoC6/I2C_BUS.h **** ******************************************************************************/
 516:Generated_Source\PSoC6/I2C_BUS.h **** __STATIC_INLINE void I2C_BUS_MasterAbortRead(void)
 517:Generated_Source\PSoC6/I2C_BUS.h **** {
 518:Generated_Source\PSoC6/I2C_BUS.h ****     Cy_SCB_I2C_MasterAbortRead(I2C_BUS_HW, &I2C_BUS_context);
 519:Generated_Source\PSoC6/I2C_BUS.h **** }
 520:Generated_Source\PSoC6/I2C_BUS.h **** 
 521:Generated_Source\PSoC6/I2C_BUS.h **** 
 522:Generated_Source\PSoC6/I2C_BUS.h **** /*******************************************************************************
 523:Generated_Source\PSoC6/I2C_BUS.h **** * Function Name: I2C_BUS_MasterWrite
 524:Generated_Source\PSoC6/I2C_BUS.h **** ****************************************************************************//**
 525:Generated_Source\PSoC6/I2C_BUS.h **** *
 526:Generated_Source\PSoC6/I2C_BUS.h **** * Invokes the Cy_SCB_I2C_MasterWrite() PDL driver function.
 527:Generated_Source\PSoC6/I2C_BUS.h **** *
 528:Generated_Source\PSoC6/I2C_BUS.h **** *******************************************************************************/
 529:Generated_Source\PSoC6/I2C_BUS.h **** __STATIC_INLINE cy_en_scb_i2c_status_t I2C_BUS_MasterWrite(cy_stc_scb_i2c_master_xfer_config_t *xfe
 530:Generated_Source\PSoC6/I2C_BUS.h **** {
 531:Generated_Source\PSoC6/I2C_BUS.h ****     return Cy_SCB_I2C_MasterWrite(I2C_BUS_HW, xferConfig, &I2C_BUS_context);
 532:Generated_Source\PSoC6/I2C_BUS.h **** }
 533:Generated_Source\PSoC6/I2C_BUS.h **** 
 534:Generated_Source\PSoC6/I2C_BUS.h **** 
 535:Generated_Source\PSoC6/I2C_BUS.h **** /*******************************************************************************
 536:Generated_Source\PSoC6/I2C_BUS.h **** * Function Name: I2C_BUS_MasterAbortWrite
 537:Generated_Source\PSoC6/I2C_BUS.h **** ****************************************************************************//**
 538:Generated_Source\PSoC6/I2C_BUS.h **** *
 539:Generated_Source\PSoC6/I2C_BUS.h **** * Invokes the Cy_SCB_I2C_MasterAbortWrite() PDL driver function.
 540:Generated_Source\PSoC6/I2C_BUS.h **** *
 541:Generated_Source\PSoC6/I2C_BUS.h **** *******************************************************************************/
 542:Generated_Source\PSoC6/I2C_BUS.h **** __STATIC_INLINE void I2C_BUS_MasterAbortWrite(void)
 543:Generated_Source\PSoC6/I2C_BUS.h **** {
ARM GAS  C:\Users\49148\AppData\Local\Temp\ccVXiEAG.s 			page 11


 544:Generated_Source\PSoC6/I2C_BUS.h ****     Cy_SCB_I2C_MasterAbortWrite(I2C_BUS_HW, &I2C_BUS_context);
 545:Generated_Source\PSoC6/I2C_BUS.h **** }
 546:Generated_Source\PSoC6/I2C_BUS.h **** 
 547:Generated_Source\PSoC6/I2C_BUS.h **** 
 548:Generated_Source\PSoC6/I2C_BUS.h **** /*******************************************************************************
 549:Generated_Source\PSoC6/I2C_BUS.h **** * Function Name: I2C_BUS_MasterGetTransferCount
 550:Generated_Source\PSoC6/I2C_BUS.h **** ****************************************************************************//**
 551:Generated_Source\PSoC6/I2C_BUS.h **** *
 552:Generated_Source\PSoC6/I2C_BUS.h **** * Invokes the Cy_SCB_I2C_MasterGetTransferCount() PDL driver function.
 553:Generated_Source\PSoC6/I2C_BUS.h **** *
 554:Generated_Source\PSoC6/I2C_BUS.h **** *******************************************************************************/
 555:Generated_Source\PSoC6/I2C_BUS.h **** __STATIC_INLINE uint32_t I2C_BUS_MasterGetTransferCount(void)
 556:Generated_Source\PSoC6/I2C_BUS.h **** {
 557:Generated_Source\PSoC6/I2C_BUS.h ****     return Cy_SCB_I2C_MasterGetTransferCount(I2C_BUS_HW, &I2C_BUS_context);
 558:Generated_Source\PSoC6/I2C_BUS.h **** }
 559:Generated_Source\PSoC6/I2C_BUS.h **** 
 560:Generated_Source\PSoC6/I2C_BUS.h **** 
 561:Generated_Source\PSoC6/I2C_BUS.h **** /*******************************************************************************
 562:Generated_Source\PSoC6/I2C_BUS.h **** * Function Name: I2C_BUS_MasterSendStart
 563:Generated_Source\PSoC6/I2C_BUS.h **** ****************************************************************************//**
 564:Generated_Source\PSoC6/I2C_BUS.h **** *
 565:Generated_Source\PSoC6/I2C_BUS.h **** * Invokes the Cy_SCB_I2C_MasterSendStart() PDL driver function.
 566:Generated_Source\PSoC6/I2C_BUS.h **** *
 567:Generated_Source\PSoC6/I2C_BUS.h **** *******************************************************************************/
 568:Generated_Source\PSoC6/I2C_BUS.h **** __STATIC_INLINE cy_en_scb_i2c_status_t I2C_BUS_MasterSendStart(uint32_t address, cy_en_scb_i2c_dire
 569:Generated_Source\PSoC6/I2C_BUS.h **** {
  28              		.loc 1 569 0
  29              		.cfi_startproc
  30              		@ args = 0, pretend = 0, frame = 16
  31              		@ frame_needed = 1, uses_anonymous_args = 0
  32 0000 80B5     		push	{r7, lr}
  33              		.cfi_def_cfa_offset 8
  34              		.cfi_offset 7, -8
  35              		.cfi_offset 14, -4
  36 0002 86B0     		sub	sp, sp, #24
  37              		.cfi_def_cfa_offset 32
  38 0004 02AF     		add	r7, sp, #8
  39              		.cfi_def_cfa 7, 24
  40 0006 F860     		str	r0, [r7, #12]
  41 0008 0B46     		mov	r3, r1
  42 000a 7A60     		str	r2, [r7, #4]
  43 000c FB72     		strb	r3, [r7, #11]
 570:Generated_Source\PSoC6/I2C_BUS.h ****     return Cy_SCB_I2C_MasterSendStart(I2C_BUS_HW, address, bitRnW, timeoutMs, &I2C_BUS_context);
  44              		.loc 1 570 0
  45 000e FA7A     		ldrb	r2, [r7, #11]	@ zero_extendqisi2
  46 0010 054B     		ldr	r3, .L3
  47 0012 0093     		str	r3, [sp]
  48 0014 7B68     		ldr	r3, [r7, #4]
  49 0016 F968     		ldr	r1, [r7, #12]
  50 0018 0448     		ldr	r0, .L3+4
  51 001a FFF7FEFF 		bl	Cy_SCB_I2C_MasterSendStart
  52 001e 0346     		mov	r3, r0
 571:Generated_Source\PSoC6/I2C_BUS.h **** }
  53              		.loc 1 571 0
  54 0020 1846     		mov	r0, r3
  55 0022 1037     		adds	r7, r7, #16
  56              		.cfi_def_cfa_offset 8
ARM GAS  C:\Users\49148\AppData\Local\Temp\ccVXiEAG.s 			page 12


  57 0024 BD46     		mov	sp, r7
  58              		.cfi_def_cfa_register 13
  59              		@ sp needed
  60 0026 80BD     		pop	{r7, pc}
  61              	.L4:
  62              		.align	2
  63              	.L3:
  64 0028 00000000 		.word	I2C_BUS_context
  65 002c 00006740 		.word	1080492032
  66              		.cfi_endproc
  67              	.LFE538:
  68              		.size	I2C_BUS_MasterSendStart, .-I2C_BUS_MasterSendStart
  69              		.section	.text.I2C_BUS_MasterSendStop,"ax",%progbits
  70              		.align	2
  71              		.thumb
  72              		.thumb_func
  73              		.type	I2C_BUS_MasterSendStop, %function
  74              	I2C_BUS_MasterSendStop:
  75              	.LFB540:
 572:Generated_Source\PSoC6/I2C_BUS.h **** 
 573:Generated_Source\PSoC6/I2C_BUS.h **** 
 574:Generated_Source\PSoC6/I2C_BUS.h **** /*******************************************************************************
 575:Generated_Source\PSoC6/I2C_BUS.h **** * Function Name: I2C_BUS_MasterSendReStart
 576:Generated_Source\PSoC6/I2C_BUS.h **** ****************************************************************************//**
 577:Generated_Source\PSoC6/I2C_BUS.h **** *
 578:Generated_Source\PSoC6/I2C_BUS.h **** * Invokes the Cy_SCB_I2C_MasterSendReStart() PDL driver function.
 579:Generated_Source\PSoC6/I2C_BUS.h **** *
 580:Generated_Source\PSoC6/I2C_BUS.h **** *******************************************************************************/
 581:Generated_Source\PSoC6/I2C_BUS.h **** __STATIC_INLINE cy_en_scb_i2c_status_t I2C_BUS_MasterSendReStart(uint32_t address, cy_en_scb_i2c_di
 582:Generated_Source\PSoC6/I2C_BUS.h **** {
 583:Generated_Source\PSoC6/I2C_BUS.h ****     return Cy_SCB_I2C_MasterSendReStart(I2C_BUS_HW, address, bitRnW, timeoutMs, &I2C_BUS_context);
 584:Generated_Source\PSoC6/I2C_BUS.h **** }
 585:Generated_Source\PSoC6/I2C_BUS.h **** 
 586:Generated_Source\PSoC6/I2C_BUS.h **** 
 587:Generated_Source\PSoC6/I2C_BUS.h **** /*******************************************************************************
 588:Generated_Source\PSoC6/I2C_BUS.h **** * Function Name: I2C_BUS_MasterSendStop
 589:Generated_Source\PSoC6/I2C_BUS.h **** ****************************************************************************//**
 590:Generated_Source\PSoC6/I2C_BUS.h **** *
 591:Generated_Source\PSoC6/I2C_BUS.h **** * Invokes the Cy_SCB_I2C_MasterSendStop() PDL driver function.
 592:Generated_Source\PSoC6/I2C_BUS.h **** *
 593:Generated_Source\PSoC6/I2C_BUS.h **** *******************************************************************************/
 594:Generated_Source\PSoC6/I2C_BUS.h **** __STATIC_INLINE cy_en_scb_i2c_status_t I2C_BUS_MasterSendStop(uint32_t timeoutMs)
 595:Generated_Source\PSoC6/I2C_BUS.h **** {
  76              		.loc 1 595 0
  77              		.cfi_startproc
  78              		@ args = 0, pretend = 0, frame = 8
  79              		@ frame_needed = 1, uses_anonymous_args = 0
  80 0000 80B5     		push	{r7, lr}
  81              		.cfi_def_cfa_offset 8
  82              		.cfi_offset 7, -8
  83              		.cfi_offset 14, -4
  84 0002 82B0     		sub	sp, sp, #8
  85              		.cfi_def_cfa_offset 16
  86 0004 00AF     		add	r7, sp, #0
  87              		.cfi_def_cfa_register 7
  88 0006 7860     		str	r0, [r7, #4]
 596:Generated_Source\PSoC6/I2C_BUS.h ****     return Cy_SCB_I2C_MasterSendStop(I2C_BUS_HW, timeoutMs, &I2C_BUS_context);
ARM GAS  C:\Users\49148\AppData\Local\Temp\ccVXiEAG.s 			page 13


  89              		.loc 1 596 0
  90 0008 044A     		ldr	r2, .L7
  91 000a 7968     		ldr	r1, [r7, #4]
  92 000c 0448     		ldr	r0, .L7+4
  93 000e FFF7FEFF 		bl	Cy_SCB_I2C_MasterSendStop
  94 0012 0346     		mov	r3, r0
 597:Generated_Source\PSoC6/I2C_BUS.h **** }
  95              		.loc 1 597 0
  96 0014 1846     		mov	r0, r3
  97 0016 0837     		adds	r7, r7, #8
  98              		.cfi_def_cfa_offset 8
  99 0018 BD46     		mov	sp, r7
 100              		.cfi_def_cfa_register 13
 101              		@ sp needed
 102 001a 80BD     		pop	{r7, pc}
 103              	.L8:
 104              		.align	2
 105              	.L7:
 106 001c 00000000 		.word	I2C_BUS_context
 107 0020 00006740 		.word	1080492032
 108              		.cfi_endproc
 109              	.LFE540:
 110              		.size	I2C_BUS_MasterSendStop, .-I2C_BUS_MasterSendStop
 111              		.section	.text.I2C_BUS_MasterWriteByte,"ax",%progbits
 112              		.align	2
 113              		.thumb
 114              		.thumb_func
 115              		.type	I2C_BUS_MasterWriteByte, %function
 116              	I2C_BUS_MasterWriteByte:
 117              	.LFB542:
 598:Generated_Source\PSoC6/I2C_BUS.h **** 
 599:Generated_Source\PSoC6/I2C_BUS.h **** 
 600:Generated_Source\PSoC6/I2C_BUS.h **** /*******************************************************************************
 601:Generated_Source\PSoC6/I2C_BUS.h **** * Function Name: I2C_BUS_MasterReadByte
 602:Generated_Source\PSoC6/I2C_BUS.h **** ****************************************************************************//**
 603:Generated_Source\PSoC6/I2C_BUS.h **** *
 604:Generated_Source\PSoC6/I2C_BUS.h **** * Invokes the Cy_SCB_I2C_MasterReadByte() PDL driver function.
 605:Generated_Source\PSoC6/I2C_BUS.h **** *
 606:Generated_Source\PSoC6/I2C_BUS.h **** *******************************************************************************/
 607:Generated_Source\PSoC6/I2C_BUS.h **** __STATIC_INLINE cy_en_scb_i2c_status_t I2C_BUS_MasterReadByte(cy_en_scb_i2c_command_t ackNack, uint
 608:Generated_Source\PSoC6/I2C_BUS.h **** {
 609:Generated_Source\PSoC6/I2C_BUS.h ****     return Cy_SCB_I2C_MasterReadByte(I2C_BUS_HW, ackNack, byte, timeoutMs, &I2C_BUS_context);
 610:Generated_Source\PSoC6/I2C_BUS.h **** }
 611:Generated_Source\PSoC6/I2C_BUS.h **** 
 612:Generated_Source\PSoC6/I2C_BUS.h **** 
 613:Generated_Source\PSoC6/I2C_BUS.h **** /*******************************************************************************
 614:Generated_Source\PSoC6/I2C_BUS.h **** * Function Name: I2C_BUS_MasterWriteByte
 615:Generated_Source\PSoC6/I2C_BUS.h **** ****************************************************************************//**
 616:Generated_Source\PSoC6/I2C_BUS.h **** *
 617:Generated_Source\PSoC6/I2C_BUS.h **** * Invokes the Cy_SCB_I2C_MasterWriteByte() PDL driver function.
 618:Generated_Source\PSoC6/I2C_BUS.h **** *
 619:Generated_Source\PSoC6/I2C_BUS.h **** *******************************************************************************/
 620:Generated_Source\PSoC6/I2C_BUS.h **** __STATIC_INLINE cy_en_scb_i2c_status_t I2C_BUS_MasterWriteByte(uint8_t byte, uint32_t timeoutMs)
 621:Generated_Source\PSoC6/I2C_BUS.h **** {
 118              		.loc 1 621 0
 119              		.cfi_startproc
 120              		@ args = 0, pretend = 0, frame = 8
ARM GAS  C:\Users\49148\AppData\Local\Temp\ccVXiEAG.s 			page 14


 121              		@ frame_needed = 1, uses_anonymous_args = 0
 122 0000 80B5     		push	{r7, lr}
 123              		.cfi_def_cfa_offset 8
 124              		.cfi_offset 7, -8
 125              		.cfi_offset 14, -4
 126 0002 82B0     		sub	sp, sp, #8
 127              		.cfi_def_cfa_offset 16
 128 0004 00AF     		add	r7, sp, #0
 129              		.cfi_def_cfa_register 7
 130 0006 0346     		mov	r3, r0
 131 0008 3960     		str	r1, [r7]
 132 000a FB71     		strb	r3, [r7, #7]
 622:Generated_Source\PSoC6/I2C_BUS.h ****     return Cy_SCB_I2C_MasterWriteByte(I2C_BUS_HW, byte, timeoutMs, &I2C_BUS_context);
 133              		.loc 1 622 0
 134 000c F979     		ldrb	r1, [r7, #7]	@ zero_extendqisi2
 135 000e 054B     		ldr	r3, .L11
 136 0010 3A68     		ldr	r2, [r7]
 137 0012 0548     		ldr	r0, .L11+4
 138 0014 FFF7FEFF 		bl	Cy_SCB_I2C_MasterWriteByte
 139 0018 0346     		mov	r3, r0
 623:Generated_Source\PSoC6/I2C_BUS.h **** }
 140              		.loc 1 623 0
 141 001a 1846     		mov	r0, r3
 142 001c 0837     		adds	r7, r7, #8
 143              		.cfi_def_cfa_offset 8
 144 001e BD46     		mov	sp, r7
 145              		.cfi_def_cfa_register 13
 146              		@ sp needed
 147 0020 80BD     		pop	{r7, pc}
 148              	.L12:
 149 0022 00BF     		.align	2
 150              	.L11:
 151 0024 00000000 		.word	I2C_BUS_context
 152 0028 00006740 		.word	1080492032
 153              		.cfi_endproc
 154              	.LFE542:
 155              		.size	I2C_BUS_MasterWriteByte, .-I2C_BUS_MasterWriteByte
 156              		.section	.rodata
 157              		.align	2
 158              		.type	font, %object
 159              		.size	font, 1275
 160              	font:
 161 0000 00       		.byte	0
 162 0001 00       		.byte	0
 163 0002 00       		.byte	0
 164 0003 00       		.byte	0
 165 0004 00       		.byte	0
 166 0005 3E       		.byte	62
 167 0006 5B       		.byte	91
 168 0007 4F       		.byte	79
 169 0008 5B       		.byte	91
 170 0009 3E       		.byte	62
 171 000a 3E       		.byte	62
 172 000b 6B       		.byte	107
 173 000c 4F       		.byte	79
 174 000d 6B       		.byte	107
 175 000e 3E       		.byte	62
ARM GAS  C:\Users\49148\AppData\Local\Temp\ccVXiEAG.s 			page 15


 176 000f 1C       		.byte	28
 177 0010 3E       		.byte	62
 178 0011 7C       		.byte	124
 179 0012 3E       		.byte	62
 180 0013 1C       		.byte	28
 181 0014 18       		.byte	24
 182 0015 3C       		.byte	60
 183 0016 7E       		.byte	126
 184 0017 3C       		.byte	60
 185 0018 18       		.byte	24
 186 0019 1C       		.byte	28
 187 001a 57       		.byte	87
 188 001b 7D       		.byte	125
 189 001c 57       		.byte	87
 190 001d 1C       		.byte	28
 191 001e 1C       		.byte	28
 192 001f 5E       		.byte	94
 193 0020 7F       		.byte	127
 194 0021 5E       		.byte	94
 195 0022 1C       		.byte	28
 196 0023 00       		.byte	0
 197 0024 18       		.byte	24
 198 0025 3C       		.byte	60
 199 0026 18       		.byte	24
 200 0027 00       		.byte	0
 201 0028 FF       		.byte	-1
 202 0029 E7       		.byte	-25
 203 002a C3       		.byte	-61
 204 002b E7       		.byte	-25
 205 002c FF       		.byte	-1
 206 002d 00       		.byte	0
 207 002e 18       		.byte	24
 208 002f 24       		.byte	36
 209 0030 18       		.byte	24
 210 0031 00       		.byte	0
 211 0032 FF       		.byte	-1
 212 0033 E7       		.byte	-25
 213 0034 DB       		.byte	-37
 214 0035 E7       		.byte	-25
 215 0036 FF       		.byte	-1
 216 0037 30       		.byte	48
 217 0038 48       		.byte	72
 218 0039 3A       		.byte	58
 219 003a 06       		.byte	6
 220 003b 0E       		.byte	14
 221 003c 26       		.byte	38
 222 003d 29       		.byte	41
 223 003e 79       		.byte	121
 224 003f 29       		.byte	41
 225 0040 26       		.byte	38
 226 0041 40       		.byte	64
 227 0042 7F       		.byte	127
 228 0043 05       		.byte	5
 229 0044 05       		.byte	5
 230 0045 07       		.byte	7
 231 0046 40       		.byte	64
 232 0047 7F       		.byte	127
ARM GAS  C:\Users\49148\AppData\Local\Temp\ccVXiEAG.s 			page 16


 233 0048 05       		.byte	5
 234 0049 25       		.byte	37
 235 004a 3F       		.byte	63
 236 004b 5A       		.byte	90
 237 004c 3C       		.byte	60
 238 004d E7       		.byte	-25
 239 004e 3C       		.byte	60
 240 004f 5A       		.byte	90
 241 0050 7F       		.byte	127
 242 0051 3E       		.byte	62
 243 0052 1C       		.byte	28
 244 0053 1C       		.byte	28
 245 0054 08       		.byte	8
 246 0055 08       		.byte	8
 247 0056 1C       		.byte	28
 248 0057 1C       		.byte	28
 249 0058 3E       		.byte	62
 250 0059 7F       		.byte	127
 251 005a 14       		.byte	20
 252 005b 22       		.byte	34
 253 005c 7F       		.byte	127
 254 005d 22       		.byte	34
 255 005e 14       		.byte	20
 256 005f 5F       		.byte	95
 257 0060 5F       		.byte	95
 258 0061 00       		.byte	0
 259 0062 5F       		.byte	95
 260 0063 5F       		.byte	95
 261 0064 06       		.byte	6
 262 0065 09       		.byte	9
 263 0066 7F       		.byte	127
 264 0067 01       		.byte	1
 265 0068 7F       		.byte	127
 266 0069 00       		.byte	0
 267 006a 66       		.byte	102
 268 006b 89       		.byte	-119
 269 006c 95       		.byte	-107
 270 006d 6A       		.byte	106
 271 006e 60       		.byte	96
 272 006f 60       		.byte	96
 273 0070 60       		.byte	96
 274 0071 60       		.byte	96
 275 0072 60       		.byte	96
 276 0073 94       		.byte	-108
 277 0074 A2       		.byte	-94
 278 0075 FF       		.byte	-1
 279 0076 A2       		.byte	-94
 280 0077 94       		.byte	-108
 281 0078 08       		.byte	8
 282 0079 04       		.byte	4
 283 007a 7E       		.byte	126
 284 007b 04       		.byte	4
 285 007c 08       		.byte	8
 286 007d 10       		.byte	16
 287 007e 20       		.byte	32
 288 007f 7E       		.byte	126
 289 0080 20       		.byte	32
ARM GAS  C:\Users\49148\AppData\Local\Temp\ccVXiEAG.s 			page 17


 290 0081 10       		.byte	16
 291 0082 08       		.byte	8
 292 0083 08       		.byte	8
 293 0084 2A       		.byte	42
 294 0085 1C       		.byte	28
 295 0086 08       		.byte	8
 296 0087 08       		.byte	8
 297 0088 1C       		.byte	28
 298 0089 2A       		.byte	42
 299 008a 08       		.byte	8
 300 008b 08       		.byte	8
 301 008c 1E       		.byte	30
 302 008d 10       		.byte	16
 303 008e 10       		.byte	16
 304 008f 10       		.byte	16
 305 0090 10       		.byte	16
 306 0091 0C       		.byte	12
 307 0092 1E       		.byte	30
 308 0093 0C       		.byte	12
 309 0094 1E       		.byte	30
 310 0095 0C       		.byte	12
 311 0096 30       		.byte	48
 312 0097 38       		.byte	56
 313 0098 3E       		.byte	62
 314 0099 38       		.byte	56
 315 009a 30       		.byte	48
 316 009b 06       		.byte	6
 317 009c 0E       		.byte	14
 318 009d 3E       		.byte	62
 319 009e 0E       		.byte	14
 320 009f 06       		.byte	6
 321 00a0 00       		.byte	0
 322 00a1 00       		.byte	0
 323 00a2 00       		.byte	0
 324 00a3 00       		.byte	0
 325 00a4 00       		.byte	0
 326 00a5 00       		.byte	0
 327 00a6 00       		.byte	0
 328 00a7 5F       		.byte	95
 329 00a8 00       		.byte	0
 330 00a9 00       		.byte	0
 331 00aa 00       		.byte	0
 332 00ab 07       		.byte	7
 333 00ac 00       		.byte	0
 334 00ad 07       		.byte	7
 335 00ae 00       		.byte	0
 336 00af 14       		.byte	20
 337 00b0 7F       		.byte	127
 338 00b1 14       		.byte	20
 339 00b2 7F       		.byte	127
 340 00b3 14       		.byte	20
 341 00b4 24       		.byte	36
 342 00b5 2A       		.byte	42
 343 00b6 7F       		.byte	127
 344 00b7 2A       		.byte	42
 345 00b8 12       		.byte	18
 346 00b9 23       		.byte	35
ARM GAS  C:\Users\49148\AppData\Local\Temp\ccVXiEAG.s 			page 18


 347 00ba 13       		.byte	19
 348 00bb 08       		.byte	8
 349 00bc 64       		.byte	100
 350 00bd 62       		.byte	98
 351 00be 36       		.byte	54
 352 00bf 49       		.byte	73
 353 00c0 56       		.byte	86
 354 00c1 20       		.byte	32
 355 00c2 50       		.byte	80
 356 00c3 00       		.byte	0
 357 00c4 08       		.byte	8
 358 00c5 07       		.byte	7
 359 00c6 03       		.byte	3
 360 00c7 00       		.byte	0
 361 00c8 00       		.byte	0
 362 00c9 1C       		.byte	28
 363 00ca 22       		.byte	34
 364 00cb 41       		.byte	65
 365 00cc 00       		.byte	0
 366 00cd 00       		.byte	0
 367 00ce 41       		.byte	65
 368 00cf 22       		.byte	34
 369 00d0 1C       		.byte	28
 370 00d1 00       		.byte	0
 371 00d2 2A       		.byte	42
 372 00d3 1C       		.byte	28
 373 00d4 7F       		.byte	127
 374 00d5 1C       		.byte	28
 375 00d6 2A       		.byte	42
 376 00d7 08       		.byte	8
 377 00d8 08       		.byte	8
 378 00d9 3E       		.byte	62
 379 00da 08       		.byte	8
 380 00db 08       		.byte	8
 381 00dc 00       		.byte	0
 382 00dd 80       		.byte	-128
 383 00de 70       		.byte	112
 384 00df 30       		.byte	48
 385 00e0 00       		.byte	0
 386 00e1 08       		.byte	8
 387 00e2 08       		.byte	8
 388 00e3 08       		.byte	8
 389 00e4 08       		.byte	8
 390 00e5 08       		.byte	8
 391 00e6 00       		.byte	0
 392 00e7 00       		.byte	0
 393 00e8 60       		.byte	96
 394 00e9 60       		.byte	96
 395 00ea 00       		.byte	0
 396 00eb 20       		.byte	32
 397 00ec 10       		.byte	16
 398 00ed 08       		.byte	8
 399 00ee 04       		.byte	4
 400 00ef 02       		.byte	2
 401 00f0 3E       		.byte	62
 402 00f1 51       		.byte	81
 403 00f2 49       		.byte	73
ARM GAS  C:\Users\49148\AppData\Local\Temp\ccVXiEAG.s 			page 19


 404 00f3 45       		.byte	69
 405 00f4 3E       		.byte	62
 406 00f5 00       		.byte	0
 407 00f6 42       		.byte	66
 408 00f7 7F       		.byte	127
 409 00f8 40       		.byte	64
 410 00f9 00       		.byte	0
 411 00fa 72       		.byte	114
 412 00fb 49       		.byte	73
 413 00fc 49       		.byte	73
 414 00fd 49       		.byte	73
 415 00fe 46       		.byte	70
 416 00ff 21       		.byte	33
 417 0100 41       		.byte	65
 418 0101 49       		.byte	73
 419 0102 4D       		.byte	77
 420 0103 33       		.byte	51
 421 0104 18       		.byte	24
 422 0105 14       		.byte	20
 423 0106 12       		.byte	18
 424 0107 7F       		.byte	127
 425 0108 10       		.byte	16
 426 0109 27       		.byte	39
 427 010a 45       		.byte	69
 428 010b 45       		.byte	69
 429 010c 45       		.byte	69
 430 010d 39       		.byte	57
 431 010e 3C       		.byte	60
 432 010f 4A       		.byte	74
 433 0110 49       		.byte	73
 434 0111 49       		.byte	73
 435 0112 31       		.byte	49
 436 0113 41       		.byte	65
 437 0114 21       		.byte	33
 438 0115 11       		.byte	17
 439 0116 09       		.byte	9
 440 0117 07       		.byte	7
 441 0118 36       		.byte	54
 442 0119 49       		.byte	73
 443 011a 49       		.byte	73
 444 011b 49       		.byte	73
 445 011c 36       		.byte	54
 446 011d 46       		.byte	70
 447 011e 49       		.byte	73
 448 011f 49       		.byte	73
 449 0120 29       		.byte	41
 450 0121 1E       		.byte	30
 451 0122 00       		.byte	0
 452 0123 00       		.byte	0
 453 0124 14       		.byte	20
 454 0125 00       		.byte	0
 455 0126 00       		.byte	0
 456 0127 00       		.byte	0
 457 0128 40       		.byte	64
 458 0129 34       		.byte	52
 459 012a 00       		.byte	0
 460 012b 00       		.byte	0
ARM GAS  C:\Users\49148\AppData\Local\Temp\ccVXiEAG.s 			page 20


 461 012c 00       		.byte	0
 462 012d 08       		.byte	8
 463 012e 14       		.byte	20
 464 012f 22       		.byte	34
 465 0130 41       		.byte	65
 466 0131 14       		.byte	20
 467 0132 14       		.byte	20
 468 0133 14       		.byte	20
 469 0134 14       		.byte	20
 470 0135 14       		.byte	20
 471 0136 00       		.byte	0
 472 0137 41       		.byte	65
 473 0138 22       		.byte	34
 474 0139 14       		.byte	20
 475 013a 08       		.byte	8
 476 013b 02       		.byte	2
 477 013c 01       		.byte	1
 478 013d 59       		.byte	89
 479 013e 09       		.byte	9
 480 013f 06       		.byte	6
 481 0140 3E       		.byte	62
 482 0141 41       		.byte	65
 483 0142 5D       		.byte	93
 484 0143 59       		.byte	89
 485 0144 4E       		.byte	78
 486 0145 7C       		.byte	124
 487 0146 12       		.byte	18
 488 0147 11       		.byte	17
 489 0148 12       		.byte	18
 490 0149 7C       		.byte	124
 491 014a 7F       		.byte	127
 492 014b 49       		.byte	73
 493 014c 49       		.byte	73
 494 014d 49       		.byte	73
 495 014e 36       		.byte	54
 496 014f 3E       		.byte	62
 497 0150 41       		.byte	65
 498 0151 41       		.byte	65
 499 0152 41       		.byte	65
 500 0153 22       		.byte	34
 501 0154 7F       		.byte	127
 502 0155 41       		.byte	65
 503 0156 41       		.byte	65
 504 0157 41       		.byte	65
 505 0158 3E       		.byte	62
 506 0159 7F       		.byte	127
 507 015a 49       		.byte	73
 508 015b 49       		.byte	73
 509 015c 49       		.byte	73
 510 015d 41       		.byte	65
 511 015e 7F       		.byte	127
 512 015f 09       		.byte	9
 513 0160 09       		.byte	9
 514 0161 09       		.byte	9
 515 0162 01       		.byte	1
 516 0163 3E       		.byte	62
 517 0164 41       		.byte	65
ARM GAS  C:\Users\49148\AppData\Local\Temp\ccVXiEAG.s 			page 21


 518 0165 41       		.byte	65
 519 0166 51       		.byte	81
 520 0167 73       		.byte	115
 521 0168 7F       		.byte	127
 522 0169 08       		.byte	8
 523 016a 08       		.byte	8
 524 016b 08       		.byte	8
 525 016c 7F       		.byte	127
 526 016d 00       		.byte	0
 527 016e 41       		.byte	65
 528 016f 7F       		.byte	127
 529 0170 41       		.byte	65
 530 0171 00       		.byte	0
 531 0172 20       		.byte	32
 532 0173 40       		.byte	64
 533 0174 41       		.byte	65
 534 0175 3F       		.byte	63
 535 0176 01       		.byte	1
 536 0177 7F       		.byte	127
 537 0178 08       		.byte	8
 538 0179 14       		.byte	20
 539 017a 22       		.byte	34
 540 017b 41       		.byte	65
 541 017c 7F       		.byte	127
 542 017d 40       		.byte	64
 543 017e 40       		.byte	64
 544 017f 40       		.byte	64
 545 0180 40       		.byte	64
 546 0181 7F       		.byte	127
 547 0182 02       		.byte	2
 548 0183 1C       		.byte	28
 549 0184 02       		.byte	2
 550 0185 7F       		.byte	127
 551 0186 7F       		.byte	127
 552 0187 04       		.byte	4
 553 0188 08       		.byte	8
 554 0189 10       		.byte	16
 555 018a 7F       		.byte	127
 556 018b 3E       		.byte	62
 557 018c 41       		.byte	65
 558 018d 41       		.byte	65
 559 018e 41       		.byte	65
 560 018f 3E       		.byte	62
 561 0190 7F       		.byte	127
 562 0191 09       		.byte	9
 563 0192 09       		.byte	9
 564 0193 09       		.byte	9
 565 0194 06       		.byte	6
 566 0195 3E       		.byte	62
 567 0196 41       		.byte	65
 568 0197 51       		.byte	81
 569 0198 21       		.byte	33
 570 0199 5E       		.byte	94
 571 019a 7F       		.byte	127
 572 019b 09       		.byte	9
 573 019c 19       		.byte	25
 574 019d 29       		.byte	41
ARM GAS  C:\Users\49148\AppData\Local\Temp\ccVXiEAG.s 			page 22


 575 019e 46       		.byte	70
 576 019f 26       		.byte	38
 577 01a0 49       		.byte	73
 578 01a1 49       		.byte	73
 579 01a2 49       		.byte	73
 580 01a3 32       		.byte	50
 581 01a4 03       		.byte	3
 582 01a5 01       		.byte	1
 583 01a6 7F       		.byte	127
 584 01a7 01       		.byte	1
 585 01a8 03       		.byte	3
 586 01a9 3F       		.byte	63
 587 01aa 40       		.byte	64
 588 01ab 40       		.byte	64
 589 01ac 40       		.byte	64
 590 01ad 3F       		.byte	63
 591 01ae 1F       		.byte	31
 592 01af 20       		.byte	32
 593 01b0 40       		.byte	64
 594 01b1 20       		.byte	32
 595 01b2 1F       		.byte	31
 596 01b3 3F       		.byte	63
 597 01b4 40       		.byte	64
 598 01b5 38       		.byte	56
 599 01b6 40       		.byte	64
 600 01b7 3F       		.byte	63
 601 01b8 63       		.byte	99
 602 01b9 14       		.byte	20
 603 01ba 08       		.byte	8
 604 01bb 14       		.byte	20
 605 01bc 63       		.byte	99
 606 01bd 03       		.byte	3
 607 01be 04       		.byte	4
 608 01bf 78       		.byte	120
 609 01c0 04       		.byte	4
 610 01c1 03       		.byte	3
 611 01c2 61       		.byte	97
 612 01c3 59       		.byte	89
 613 01c4 49       		.byte	73
 614 01c5 4D       		.byte	77
 615 01c6 43       		.byte	67
 616 01c7 00       		.byte	0
 617 01c8 7F       		.byte	127
 618 01c9 41       		.byte	65
 619 01ca 41       		.byte	65
 620 01cb 41       		.byte	65
 621 01cc 02       		.byte	2
 622 01cd 04       		.byte	4
 623 01ce 08       		.byte	8
 624 01cf 10       		.byte	16
 625 01d0 20       		.byte	32
 626 01d1 00       		.byte	0
 627 01d2 41       		.byte	65
 628 01d3 41       		.byte	65
 629 01d4 41       		.byte	65
 630 01d5 7F       		.byte	127
 631 01d6 04       		.byte	4
ARM GAS  C:\Users\49148\AppData\Local\Temp\ccVXiEAG.s 			page 23


 632 01d7 02       		.byte	2
 633 01d8 01       		.byte	1
 634 01d9 02       		.byte	2
 635 01da 04       		.byte	4
 636 01db 40       		.byte	64
 637 01dc 40       		.byte	64
 638 01dd 40       		.byte	64
 639 01de 40       		.byte	64
 640 01df 40       		.byte	64
 641 01e0 00       		.byte	0
 642 01e1 03       		.byte	3
 643 01e2 07       		.byte	7
 644 01e3 08       		.byte	8
 645 01e4 00       		.byte	0
 646 01e5 20       		.byte	32
 647 01e6 54       		.byte	84
 648 01e7 54       		.byte	84
 649 01e8 78       		.byte	120
 650 01e9 40       		.byte	64
 651 01ea 7F       		.byte	127
 652 01eb 28       		.byte	40
 653 01ec 44       		.byte	68
 654 01ed 44       		.byte	68
 655 01ee 38       		.byte	56
 656 01ef 38       		.byte	56
 657 01f0 44       		.byte	68
 658 01f1 44       		.byte	68
 659 01f2 44       		.byte	68
 660 01f3 28       		.byte	40
 661 01f4 38       		.byte	56
 662 01f5 44       		.byte	68
 663 01f6 44       		.byte	68
 664 01f7 28       		.byte	40
 665 01f8 7F       		.byte	127
 666 01f9 38       		.byte	56
 667 01fa 54       		.byte	84
 668 01fb 54       		.byte	84
 669 01fc 54       		.byte	84
 670 01fd 18       		.byte	24
 671 01fe 00       		.byte	0
 672 01ff 08       		.byte	8
 673 0200 7E       		.byte	126
 674 0201 09       		.byte	9
 675 0202 02       		.byte	2
 676 0203 18       		.byte	24
 677 0204 A4       		.byte	-92
 678 0205 A4       		.byte	-92
 679 0206 9C       		.byte	-100
 680 0207 78       		.byte	120
 681 0208 7F       		.byte	127
 682 0209 08       		.byte	8
 683 020a 04       		.byte	4
 684 020b 04       		.byte	4
 685 020c 78       		.byte	120
 686 020d 00       		.byte	0
 687 020e 44       		.byte	68
 688 020f 7D       		.byte	125
ARM GAS  C:\Users\49148\AppData\Local\Temp\ccVXiEAG.s 			page 24


 689 0210 40       		.byte	64
 690 0211 00       		.byte	0
 691 0212 20       		.byte	32
 692 0213 40       		.byte	64
 693 0214 40       		.byte	64
 694 0215 3D       		.byte	61
 695 0216 00       		.byte	0
 696 0217 7F       		.byte	127
 697 0218 10       		.byte	16
 698 0219 28       		.byte	40
 699 021a 44       		.byte	68
 700 021b 00       		.byte	0
 701 021c 00       		.byte	0
 702 021d 41       		.byte	65
 703 021e 7F       		.byte	127
 704 021f 40       		.byte	64
 705 0220 00       		.byte	0
 706 0221 7C       		.byte	124
 707 0222 04       		.byte	4
 708 0223 78       		.byte	120
 709 0224 04       		.byte	4
 710 0225 78       		.byte	120
 711 0226 7C       		.byte	124
 712 0227 08       		.byte	8
 713 0228 04       		.byte	4
 714 0229 04       		.byte	4
 715 022a 78       		.byte	120
 716 022b 38       		.byte	56
 717 022c 44       		.byte	68
 718 022d 44       		.byte	68
 719 022e 44       		.byte	68
 720 022f 38       		.byte	56
 721 0230 FC       		.byte	-4
 722 0231 18       		.byte	24
 723 0232 24       		.byte	36
 724 0233 24       		.byte	36
 725 0234 18       		.byte	24
 726 0235 18       		.byte	24
 727 0236 24       		.byte	36
 728 0237 24       		.byte	36
 729 0238 18       		.byte	24
 730 0239 FC       		.byte	-4
 731 023a 7C       		.byte	124
 732 023b 08       		.byte	8
 733 023c 04       		.byte	4
 734 023d 04       		.byte	4
 735 023e 08       		.byte	8
 736 023f 48       		.byte	72
 737 0240 54       		.byte	84
 738 0241 54       		.byte	84
 739 0242 54       		.byte	84
 740 0243 24       		.byte	36
 741 0244 04       		.byte	4
 742 0245 04       		.byte	4
 743 0246 3F       		.byte	63
 744 0247 44       		.byte	68
 745 0248 24       		.byte	36
ARM GAS  C:\Users\49148\AppData\Local\Temp\ccVXiEAG.s 			page 25


 746 0249 3C       		.byte	60
 747 024a 40       		.byte	64
 748 024b 40       		.byte	64
 749 024c 20       		.byte	32
 750 024d 7C       		.byte	124
 751 024e 1C       		.byte	28
 752 024f 20       		.byte	32
 753 0250 40       		.byte	64
 754 0251 20       		.byte	32
 755 0252 1C       		.byte	28
 756 0253 3C       		.byte	60
 757 0254 40       		.byte	64
 758 0255 30       		.byte	48
 759 0256 40       		.byte	64
 760 0257 3C       		.byte	60
 761 0258 44       		.byte	68
 762 0259 28       		.byte	40
 763 025a 10       		.byte	16
 764 025b 28       		.byte	40
 765 025c 44       		.byte	68
 766 025d 4C       		.byte	76
 767 025e 90       		.byte	-112
 768 025f 90       		.byte	-112
 769 0260 90       		.byte	-112
 770 0261 7C       		.byte	124
 771 0262 44       		.byte	68
 772 0263 64       		.byte	100
 773 0264 54       		.byte	84
 774 0265 4C       		.byte	76
 775 0266 44       		.byte	68
 776 0267 00       		.byte	0
 777 0268 08       		.byte	8
 778 0269 36       		.byte	54
 779 026a 41       		.byte	65
 780 026b 00       		.byte	0
 781 026c 00       		.byte	0
 782 026d 00       		.byte	0
 783 026e 77       		.byte	119
 784 026f 00       		.byte	0
 785 0270 00       		.byte	0
 786 0271 00       		.byte	0
 787 0272 41       		.byte	65
 788 0273 36       		.byte	54
 789 0274 08       		.byte	8
 790 0275 00       		.byte	0
 791 0276 02       		.byte	2
 792 0277 01       		.byte	1
 793 0278 02       		.byte	2
 794 0279 04       		.byte	4
 795 027a 02       		.byte	2
 796 027b 3C       		.byte	60
 797 027c 26       		.byte	38
 798 027d 23       		.byte	35
 799 027e 26       		.byte	38
 800 027f 3C       		.byte	60
 801 0280 1E       		.byte	30
 802 0281 A1       		.byte	-95
ARM GAS  C:\Users\49148\AppData\Local\Temp\ccVXiEAG.s 			page 26


 803 0282 A1       		.byte	-95
 804 0283 61       		.byte	97
 805 0284 12       		.byte	18
 806 0285 3A       		.byte	58
 807 0286 40       		.byte	64
 808 0287 40       		.byte	64
 809 0288 20       		.byte	32
 810 0289 7A       		.byte	122
 811 028a 38       		.byte	56
 812 028b 54       		.byte	84
 813 028c 54       		.byte	84
 814 028d 55       		.byte	85
 815 028e 59       		.byte	89
 816 028f 21       		.byte	33
 817 0290 55       		.byte	85
 818 0291 55       		.byte	85
 819 0292 79       		.byte	121
 820 0293 41       		.byte	65
 821 0294 22       		.byte	34
 822 0295 54       		.byte	84
 823 0296 54       		.byte	84
 824 0297 78       		.byte	120
 825 0298 42       		.byte	66
 826 0299 21       		.byte	33
 827 029a 55       		.byte	85
 828 029b 54       		.byte	84
 829 029c 78       		.byte	120
 830 029d 40       		.byte	64
 831 029e 20       		.byte	32
 832 029f 54       		.byte	84
 833 02a0 55       		.byte	85
 834 02a1 79       		.byte	121
 835 02a2 40       		.byte	64
 836 02a3 0C       		.byte	12
 837 02a4 1E       		.byte	30
 838 02a5 52       		.byte	82
 839 02a6 72       		.byte	114
 840 02a7 12       		.byte	18
 841 02a8 39       		.byte	57
 842 02a9 55       		.byte	85
 843 02aa 55       		.byte	85
 844 02ab 55       		.byte	85
 845 02ac 59       		.byte	89
 846 02ad 39       		.byte	57
 847 02ae 54       		.byte	84
 848 02af 54       		.byte	84
 849 02b0 54       		.byte	84
 850 02b1 59       		.byte	89
 851 02b2 39       		.byte	57
 852 02b3 55       		.byte	85
 853 02b4 54       		.byte	84
 854 02b5 54       		.byte	84
 855 02b6 58       		.byte	88
 856 02b7 00       		.byte	0
 857 02b8 00       		.byte	0
 858 02b9 45       		.byte	69
 859 02ba 7C       		.byte	124
ARM GAS  C:\Users\49148\AppData\Local\Temp\ccVXiEAG.s 			page 27


 860 02bb 41       		.byte	65
 861 02bc 00       		.byte	0
 862 02bd 02       		.byte	2
 863 02be 45       		.byte	69
 864 02bf 7D       		.byte	125
 865 02c0 42       		.byte	66
 866 02c1 00       		.byte	0
 867 02c2 01       		.byte	1
 868 02c3 45       		.byte	69
 869 02c4 7C       		.byte	124
 870 02c5 40       		.byte	64
 871 02c6 7D       		.byte	125
 872 02c7 12       		.byte	18
 873 02c8 11       		.byte	17
 874 02c9 12       		.byte	18
 875 02ca 7D       		.byte	125
 876 02cb F0       		.byte	-16
 877 02cc 28       		.byte	40
 878 02cd 25       		.byte	37
 879 02ce 28       		.byte	40
 880 02cf F0       		.byte	-16
 881 02d0 7C       		.byte	124
 882 02d1 54       		.byte	84
 883 02d2 55       		.byte	85
 884 02d3 45       		.byte	69
 885 02d4 00       		.byte	0
 886 02d5 20       		.byte	32
 887 02d6 54       		.byte	84
 888 02d7 54       		.byte	84
 889 02d8 7C       		.byte	124
 890 02d9 54       		.byte	84
 891 02da 7C       		.byte	124
 892 02db 0A       		.byte	10
 893 02dc 09       		.byte	9
 894 02dd 7F       		.byte	127
 895 02de 49       		.byte	73
 896 02df 32       		.byte	50
 897 02e0 49       		.byte	73
 898 02e1 49       		.byte	73
 899 02e2 49       		.byte	73
 900 02e3 32       		.byte	50
 901 02e4 3A       		.byte	58
 902 02e5 44       		.byte	68
 903 02e6 44       		.byte	68
 904 02e7 44       		.byte	68
 905 02e8 3A       		.byte	58
 906 02e9 32       		.byte	50
 907 02ea 4A       		.byte	74
 908 02eb 48       		.byte	72
 909 02ec 48       		.byte	72
 910 02ed 30       		.byte	48
 911 02ee 3A       		.byte	58
 912 02ef 41       		.byte	65
 913 02f0 41       		.byte	65
 914 02f1 21       		.byte	33
 915 02f2 7A       		.byte	122
 916 02f3 3A       		.byte	58
ARM GAS  C:\Users\49148\AppData\Local\Temp\ccVXiEAG.s 			page 28


 917 02f4 42       		.byte	66
 918 02f5 40       		.byte	64
 919 02f6 20       		.byte	32
 920 02f7 78       		.byte	120
 921 02f8 00       		.byte	0
 922 02f9 9D       		.byte	-99
 923 02fa A0       		.byte	-96
 924 02fb A0       		.byte	-96
 925 02fc 7D       		.byte	125
 926 02fd 3D       		.byte	61
 927 02fe 42       		.byte	66
 928 02ff 42       		.byte	66
 929 0300 42       		.byte	66
 930 0301 3D       		.byte	61
 931 0302 3D       		.byte	61
 932 0303 40       		.byte	64
 933 0304 40       		.byte	64
 934 0305 40       		.byte	64
 935 0306 3D       		.byte	61
 936 0307 3C       		.byte	60
 937 0308 24       		.byte	36
 938 0309 FF       		.byte	-1
 939 030a 24       		.byte	36
 940 030b 24       		.byte	36
 941 030c 48       		.byte	72
 942 030d 7E       		.byte	126
 943 030e 49       		.byte	73
 944 030f 43       		.byte	67
 945 0310 66       		.byte	102
 946 0311 2B       		.byte	43
 947 0312 2F       		.byte	47
 948 0313 FC       		.byte	-4
 949 0314 2F       		.byte	47
 950 0315 2B       		.byte	43
 951 0316 FF       		.byte	-1
 952 0317 09       		.byte	9
 953 0318 29       		.byte	41
 954 0319 F6       		.byte	-10
 955 031a 20       		.byte	32
 956 031b C0       		.byte	-64
 957 031c 88       		.byte	-120
 958 031d 7E       		.byte	126
 959 031e 09       		.byte	9
 960 031f 03       		.byte	3
 961 0320 20       		.byte	32
 962 0321 54       		.byte	84
 963 0322 54       		.byte	84
 964 0323 79       		.byte	121
 965 0324 41       		.byte	65
 966 0325 00       		.byte	0
 967 0326 00       		.byte	0
 968 0327 44       		.byte	68
 969 0328 7D       		.byte	125
 970 0329 41       		.byte	65
 971 032a 30       		.byte	48
 972 032b 48       		.byte	72
 973 032c 48       		.byte	72
ARM GAS  C:\Users\49148\AppData\Local\Temp\ccVXiEAG.s 			page 29


 974 032d 4A       		.byte	74
 975 032e 32       		.byte	50
 976 032f 38       		.byte	56
 977 0330 40       		.byte	64
 978 0331 40       		.byte	64
 979 0332 22       		.byte	34
 980 0333 7A       		.byte	122
 981 0334 00       		.byte	0
 982 0335 7A       		.byte	122
 983 0336 0A       		.byte	10
 984 0337 0A       		.byte	10
 985 0338 72       		.byte	114
 986 0339 7D       		.byte	125
 987 033a 0D       		.byte	13
 988 033b 19       		.byte	25
 989 033c 31       		.byte	49
 990 033d 7D       		.byte	125
 991 033e 26       		.byte	38
 992 033f 29       		.byte	41
 993 0340 29       		.byte	41
 994 0341 2F       		.byte	47
 995 0342 28       		.byte	40
 996 0343 26       		.byte	38
 997 0344 29       		.byte	41
 998 0345 29       		.byte	41
 999 0346 29       		.byte	41
 1000 0347 26       		.byte	38
 1001 0348 30       		.byte	48
 1002 0349 48       		.byte	72
 1003 034a 4D       		.byte	77
 1004 034b 40       		.byte	64
 1005 034c 20       		.byte	32
 1006 034d 38       		.byte	56
 1007 034e 08       		.byte	8
 1008 034f 08       		.byte	8
 1009 0350 08       		.byte	8
 1010 0351 08       		.byte	8
 1011 0352 08       		.byte	8
 1012 0353 08       		.byte	8
 1013 0354 08       		.byte	8
 1014 0355 08       		.byte	8
 1015 0356 38       		.byte	56
 1016 0357 2F       		.byte	47
 1017 0358 10       		.byte	16
 1018 0359 C8       		.byte	-56
 1019 035a AC       		.byte	-84
 1020 035b BA       		.byte	-70
 1021 035c 2F       		.byte	47
 1022 035d 10       		.byte	16
 1023 035e 28       		.byte	40
 1024 035f 34       		.byte	52
 1025 0360 FA       		.byte	-6
 1026 0361 00       		.byte	0
 1027 0362 00       		.byte	0
 1028 0363 7B       		.byte	123
 1029 0364 00       		.byte	0
 1030 0365 00       		.byte	0
ARM GAS  C:\Users\49148\AppData\Local\Temp\ccVXiEAG.s 			page 30


 1031 0366 08       		.byte	8
 1032 0367 14       		.byte	20
 1033 0368 2A       		.byte	42
 1034 0369 14       		.byte	20
 1035 036a 22       		.byte	34
 1036 036b 22       		.byte	34
 1037 036c 14       		.byte	20
 1038 036d 2A       		.byte	42
 1039 036e 14       		.byte	20
 1040 036f 08       		.byte	8
 1041 0370 AA       		.byte	-86
 1042 0371 00       		.byte	0
 1043 0372 55       		.byte	85
 1044 0373 00       		.byte	0
 1045 0374 AA       		.byte	-86
 1046 0375 AA       		.byte	-86
 1047 0376 55       		.byte	85
 1048 0377 AA       		.byte	-86
 1049 0378 55       		.byte	85
 1050 0379 AA       		.byte	-86
 1051 037a 00       		.byte	0
 1052 037b 00       		.byte	0
 1053 037c 00       		.byte	0
 1054 037d FF       		.byte	-1
 1055 037e 00       		.byte	0
 1056 037f 10       		.byte	16
 1057 0380 10       		.byte	16
 1058 0381 10       		.byte	16
 1059 0382 FF       		.byte	-1
 1060 0383 00       		.byte	0
 1061 0384 14       		.byte	20
 1062 0385 14       		.byte	20
 1063 0386 14       		.byte	20
 1064 0387 FF       		.byte	-1
 1065 0388 00       		.byte	0
 1066 0389 10       		.byte	16
 1067 038a 10       		.byte	16
 1068 038b FF       		.byte	-1
 1069 038c 00       		.byte	0
 1070 038d FF       		.byte	-1
 1071 038e 10       		.byte	16
 1072 038f 10       		.byte	16
 1073 0390 F0       		.byte	-16
 1074 0391 10       		.byte	16
 1075 0392 F0       		.byte	-16
 1076 0393 14       		.byte	20
 1077 0394 14       		.byte	20
 1078 0395 14       		.byte	20
 1079 0396 FC       		.byte	-4
 1080 0397 00       		.byte	0
 1081 0398 14       		.byte	20
 1082 0399 14       		.byte	20
 1083 039a F7       		.byte	-9
 1084 039b 00       		.byte	0
 1085 039c FF       		.byte	-1
 1086 039d 00       		.byte	0
 1087 039e 00       		.byte	0
ARM GAS  C:\Users\49148\AppData\Local\Temp\ccVXiEAG.s 			page 31


 1088 039f FF       		.byte	-1
 1089 03a0 00       		.byte	0
 1090 03a1 FF       		.byte	-1
 1091 03a2 14       		.byte	20
 1092 03a3 14       		.byte	20
 1093 03a4 F4       		.byte	-12
 1094 03a5 04       		.byte	4
 1095 03a6 FC       		.byte	-4
 1096 03a7 14       		.byte	20
 1097 03a8 14       		.byte	20
 1098 03a9 17       		.byte	23
 1099 03aa 10       		.byte	16
 1100 03ab 1F       		.byte	31
 1101 03ac 10       		.byte	16
 1102 03ad 10       		.byte	16
 1103 03ae 1F       		.byte	31
 1104 03af 10       		.byte	16
 1105 03b0 1F       		.byte	31
 1106 03b1 14       		.byte	20
 1107 03b2 14       		.byte	20
 1108 03b3 14       		.byte	20
 1109 03b4 1F       		.byte	31
 1110 03b5 00       		.byte	0
 1111 03b6 10       		.byte	16
 1112 03b7 10       		.byte	16
 1113 03b8 10       		.byte	16
 1114 03b9 F0       		.byte	-16
 1115 03ba 00       		.byte	0
 1116 03bb 00       		.byte	0
 1117 03bc 00       		.byte	0
 1118 03bd 00       		.byte	0
 1119 03be 1F       		.byte	31
 1120 03bf 10       		.byte	16
 1121 03c0 10       		.byte	16
 1122 03c1 10       		.byte	16
 1123 03c2 10       		.byte	16
 1124 03c3 1F       		.byte	31
 1125 03c4 10       		.byte	16
 1126 03c5 10       		.byte	16
 1127 03c6 10       		.byte	16
 1128 03c7 10       		.byte	16
 1129 03c8 F0       		.byte	-16
 1130 03c9 10       		.byte	16
 1131 03ca 00       		.byte	0
 1132 03cb 00       		.byte	0
 1133 03cc 00       		.byte	0
 1134 03cd FF       		.byte	-1
 1135 03ce 10       		.byte	16
 1136 03cf 10       		.byte	16
 1137 03d0 10       		.byte	16
 1138 03d1 10       		.byte	16
 1139 03d2 10       		.byte	16
 1140 03d3 10       		.byte	16
 1141 03d4 10       		.byte	16
 1142 03d5 10       		.byte	16
 1143 03d6 10       		.byte	16
 1144 03d7 FF       		.byte	-1
ARM GAS  C:\Users\49148\AppData\Local\Temp\ccVXiEAG.s 			page 32


 1145 03d8 10       		.byte	16
 1146 03d9 00       		.byte	0
 1147 03da 00       		.byte	0
 1148 03db 00       		.byte	0
 1149 03dc FF       		.byte	-1
 1150 03dd 14       		.byte	20
 1151 03de 00       		.byte	0
 1152 03df 00       		.byte	0
 1153 03e0 FF       		.byte	-1
 1154 03e1 00       		.byte	0
 1155 03e2 FF       		.byte	-1
 1156 03e3 00       		.byte	0
 1157 03e4 00       		.byte	0
 1158 03e5 1F       		.byte	31
 1159 03e6 10       		.byte	16
 1160 03e7 17       		.byte	23
 1161 03e8 00       		.byte	0
 1162 03e9 00       		.byte	0
 1163 03ea FC       		.byte	-4
 1164 03eb 04       		.byte	4
 1165 03ec F4       		.byte	-12
 1166 03ed 14       		.byte	20
 1167 03ee 14       		.byte	20
 1168 03ef 17       		.byte	23
 1169 03f0 10       		.byte	16
 1170 03f1 17       		.byte	23
 1171 03f2 14       		.byte	20
 1172 03f3 14       		.byte	20
 1173 03f4 F4       		.byte	-12
 1174 03f5 04       		.byte	4
 1175 03f6 F4       		.byte	-12
 1176 03f7 00       		.byte	0
 1177 03f8 00       		.byte	0
 1178 03f9 FF       		.byte	-1
 1179 03fa 00       		.byte	0
 1180 03fb F7       		.byte	-9
 1181 03fc 14       		.byte	20
 1182 03fd 14       		.byte	20
 1183 03fe 14       		.byte	20
 1184 03ff 14       		.byte	20
 1185 0400 14       		.byte	20
 1186 0401 14       		.byte	20
 1187 0402 14       		.byte	20
 1188 0403 F7       		.byte	-9
 1189 0404 00       		.byte	0
 1190 0405 F7       		.byte	-9
 1191 0406 14       		.byte	20
 1192 0407 14       		.byte	20
 1193 0408 14       		.byte	20
 1194 0409 17       		.byte	23
 1195 040a 14       		.byte	20
 1196 040b 10       		.byte	16
 1197 040c 10       		.byte	16
 1198 040d 1F       		.byte	31
 1199 040e 10       		.byte	16
 1200 040f 1F       		.byte	31
 1201 0410 14       		.byte	20
ARM GAS  C:\Users\49148\AppData\Local\Temp\ccVXiEAG.s 			page 33


 1202 0411 14       		.byte	20
 1203 0412 14       		.byte	20
 1204 0413 F4       		.byte	-12
 1205 0414 14       		.byte	20
 1206 0415 10       		.byte	16
 1207 0416 10       		.byte	16
 1208 0417 F0       		.byte	-16
 1209 0418 10       		.byte	16
 1210 0419 F0       		.byte	-16
 1211 041a 00       		.byte	0
 1212 041b 00       		.byte	0
 1213 041c 1F       		.byte	31
 1214 041d 10       		.byte	16
 1215 041e 1F       		.byte	31
 1216 041f 00       		.byte	0
 1217 0420 00       		.byte	0
 1218 0421 00       		.byte	0
 1219 0422 1F       		.byte	31
 1220 0423 14       		.byte	20
 1221 0424 00       		.byte	0
 1222 0425 00       		.byte	0
 1223 0426 00       		.byte	0
 1224 0427 FC       		.byte	-4
 1225 0428 14       		.byte	20
 1226 0429 00       		.byte	0
 1227 042a 00       		.byte	0
 1228 042b F0       		.byte	-16
 1229 042c 10       		.byte	16
 1230 042d F0       		.byte	-16
 1231 042e 10       		.byte	16
 1232 042f 10       		.byte	16
 1233 0430 FF       		.byte	-1
 1234 0431 10       		.byte	16
 1235 0432 FF       		.byte	-1
 1236 0433 14       		.byte	20
 1237 0434 14       		.byte	20
 1238 0435 14       		.byte	20
 1239 0436 FF       		.byte	-1
 1240 0437 14       		.byte	20
 1241 0438 10       		.byte	16
 1242 0439 10       		.byte	16
 1243 043a 10       		.byte	16
 1244 043b 1F       		.byte	31
 1245 043c 00       		.byte	0
 1246 043d 00       		.byte	0
 1247 043e 00       		.byte	0
 1248 043f 00       		.byte	0
 1249 0440 F0       		.byte	-16
 1250 0441 10       		.byte	16
 1251 0442 FF       		.byte	-1
 1252 0443 FF       		.byte	-1
 1253 0444 FF       		.byte	-1
 1254 0445 FF       		.byte	-1
 1255 0446 FF       		.byte	-1
 1256 0447 F0       		.byte	-16
 1257 0448 F0       		.byte	-16
 1258 0449 F0       		.byte	-16
ARM GAS  C:\Users\49148\AppData\Local\Temp\ccVXiEAG.s 			page 34


 1259 044a F0       		.byte	-16
 1260 044b F0       		.byte	-16
 1261 044c FF       		.byte	-1
 1262 044d FF       		.byte	-1
 1263 044e FF       		.byte	-1
 1264 044f 00       		.byte	0
 1265 0450 00       		.byte	0
 1266 0451 00       		.byte	0
 1267 0452 00       		.byte	0
 1268 0453 00       		.byte	0
 1269 0454 FF       		.byte	-1
 1270 0455 FF       		.byte	-1
 1271 0456 0F       		.byte	15
 1272 0457 0F       		.byte	15
 1273 0458 0F       		.byte	15
 1274 0459 0F       		.byte	15
 1275 045a 0F       		.byte	15
 1276 045b 38       		.byte	56
 1277 045c 44       		.byte	68
 1278 045d 44       		.byte	68
 1279 045e 38       		.byte	56
 1280 045f 44       		.byte	68
 1281 0460 FC       		.byte	-4
 1282 0461 4A       		.byte	74
 1283 0462 4A       		.byte	74
 1284 0463 4A       		.byte	74
 1285 0464 34       		.byte	52
 1286 0465 7E       		.byte	126
 1287 0466 02       		.byte	2
 1288 0467 02       		.byte	2
 1289 0468 06       		.byte	6
 1290 0469 06       		.byte	6
 1291 046a 02       		.byte	2
 1292 046b 7E       		.byte	126
 1293 046c 02       		.byte	2
 1294 046d 7E       		.byte	126
 1295 046e 02       		.byte	2
 1296 046f 63       		.byte	99
 1297 0470 55       		.byte	85
 1298 0471 49       		.byte	73
 1299 0472 41       		.byte	65
 1300 0473 63       		.byte	99
 1301 0474 38       		.byte	56
 1302 0475 44       		.byte	68
 1303 0476 44       		.byte	68
 1304 0477 3C       		.byte	60
 1305 0478 04       		.byte	4
 1306 0479 40       		.byte	64
 1307 047a 7E       		.byte	126
 1308 047b 20       		.byte	32
 1309 047c 1E       		.byte	30
 1310 047d 20       		.byte	32
 1311 047e 06       		.byte	6
 1312 047f 02       		.byte	2
 1313 0480 7E       		.byte	126
 1314 0481 02       		.byte	2
 1315 0482 02       		.byte	2
ARM GAS  C:\Users\49148\AppData\Local\Temp\ccVXiEAG.s 			page 35


 1316 0483 99       		.byte	-103
 1317 0484 A5       		.byte	-91
 1318 0485 E7       		.byte	-25
 1319 0486 A5       		.byte	-91
 1320 0487 99       		.byte	-103
 1321 0488 1C       		.byte	28
 1322 0489 2A       		.byte	42
 1323 048a 49       		.byte	73
 1324 048b 2A       		.byte	42
 1325 048c 1C       		.byte	28
 1326 048d 4C       		.byte	76
 1327 048e 72       		.byte	114
 1328 048f 01       		.byte	1
 1329 0490 72       		.byte	114
 1330 0491 4C       		.byte	76
 1331 0492 30       		.byte	48
 1332 0493 4A       		.byte	74
 1333 0494 4D       		.byte	77
 1334 0495 4D       		.byte	77
 1335 0496 30       		.byte	48
 1336 0497 30       		.byte	48
 1337 0498 48       		.byte	72
 1338 0499 78       		.byte	120
 1339 049a 48       		.byte	72
 1340 049b 30       		.byte	48
 1341 049c BC       		.byte	-68
 1342 049d 62       		.byte	98
 1343 049e 5A       		.byte	90
 1344 049f 46       		.byte	70
 1345 04a0 3D       		.byte	61
 1346 04a1 3E       		.byte	62
 1347 04a2 49       		.byte	73
 1348 04a3 49       		.byte	73
 1349 04a4 49       		.byte	73
 1350 04a5 00       		.byte	0
 1351 04a6 7E       		.byte	126
 1352 04a7 01       		.byte	1
 1353 04a8 01       		.byte	1
 1354 04a9 01       		.byte	1
 1355 04aa 7E       		.byte	126
 1356 04ab 2A       		.byte	42
 1357 04ac 2A       		.byte	42
 1358 04ad 2A       		.byte	42
 1359 04ae 2A       		.byte	42
 1360 04af 2A       		.byte	42
 1361 04b0 44       		.byte	68
 1362 04b1 44       		.byte	68
 1363 04b2 5F       		.byte	95
 1364 04b3 44       		.byte	68
 1365 04b4 44       		.byte	68
 1366 04b5 40       		.byte	64
 1367 04b6 51       		.byte	81
 1368 04b7 4A       		.byte	74
 1369 04b8 44       		.byte	68
 1370 04b9 40       		.byte	64
 1371 04ba 40       		.byte	64
 1372 04bb 44       		.byte	68
ARM GAS  C:\Users\49148\AppData\Local\Temp\ccVXiEAG.s 			page 36


 1373 04bc 4A       		.byte	74
 1374 04bd 51       		.byte	81
 1375 04be 40       		.byte	64
 1376 04bf 00       		.byte	0
 1377 04c0 00       		.byte	0
 1378 04c1 FF       		.byte	-1
 1379 04c2 01       		.byte	1
 1380 04c3 03       		.byte	3
 1381 04c4 E0       		.byte	-32
 1382 04c5 80       		.byte	-128
 1383 04c6 FF       		.byte	-1
 1384 04c7 00       		.byte	0
 1385 04c8 00       		.byte	0
 1386 04c9 08       		.byte	8
 1387 04ca 08       		.byte	8
 1388 04cb 6B       		.byte	107
 1389 04cc 6B       		.byte	107
 1390 04cd 08       		.byte	8
 1391 04ce 36       		.byte	54
 1392 04cf 12       		.byte	18
 1393 04d0 36       		.byte	54
 1394 04d1 24       		.byte	36
 1395 04d2 36       		.byte	54
 1396 04d3 06       		.byte	6
 1397 04d4 0F       		.byte	15
 1398 04d5 09       		.byte	9
 1399 04d6 0F       		.byte	15
 1400 04d7 06       		.byte	6
 1401 04d8 00       		.byte	0
 1402 04d9 00       		.byte	0
 1403 04da 18       		.byte	24
 1404 04db 18       		.byte	24
 1405 04dc 00       		.byte	0
 1406 04dd 00       		.byte	0
 1407 04de 00       		.byte	0
 1408 04df 10       		.byte	16
 1409 04e0 10       		.byte	16
 1410 04e1 00       		.byte	0
 1411 04e2 30       		.byte	48
 1412 04e3 40       		.byte	64
 1413 04e4 FF       		.byte	-1
 1414 04e5 01       		.byte	1
 1415 04e6 01       		.byte	1
 1416 04e7 00       		.byte	0
 1417 04e8 1F       		.byte	31
 1418 04e9 01       		.byte	1
 1419 04ea 01       		.byte	1
 1420 04eb 1E       		.byte	30
 1421 04ec 00       		.byte	0
 1422 04ed 19       		.byte	25
 1423 04ee 1D       		.byte	29
 1424 04ef 17       		.byte	23
 1425 04f0 12       		.byte	18
 1426 04f1 00       		.byte	0
 1427 04f2 3C       		.byte	60
 1428 04f3 3C       		.byte	60
 1429 04f4 3C       		.byte	60
ARM GAS  C:\Users\49148\AppData\Local\Temp\ccVXiEAG.s 			page 37


 1430 04f5 3C       		.byte	60
 1431 04f6 00       		.byte	0
 1432 04f7 00       		.byte	0
 1433 04f8 00       		.byte	0
 1434 04f9 00       		.byte	0
 1435 04fa 00       		.byte	0
 1436              		.data
 1437              		.align	2
 1438              		.type	SH110X_buffer, %object
 1439              		.size	SH110X_buffer, 1025
 1440              	SH110X_buffer:
 1441 0000 40       		.byte	64
 1442 0001 00000000 		.space	1024
 1442      00000000 
 1442      00000000 
 1442      00000000 
 1442      00000000 
 1443 0401 000000   		.align	2
 1444              		.type	_displaybuf, %object
 1445              		.size	_displaybuf, 4
 1446              	_displaybuf:
 1447 0404 01000000 		.word	SH110X_buffer+1
 1448              		.align	1
 1449              		.type	_displaybuf_size, %object
 1450              		.size	_displaybuf_size, 2
 1451              	_displaybuf_size:
 1452 0408 0004     		.short	1024
 1453              		.bss
 1454              		.align	1
 1455              	_width:
 1456 0000 0000     		.space	2
 1457              		.align	1
 1458              	_height:
 1459 0002 0000     		.space	2
 1460              		.align	1
 1461              	cursor_x:
 1462 0004 0000     		.space	2
 1463              		.align	1
 1464              	cursor_y:
 1465 0006 0000     		.space	2
 1466              		.align	1
 1467              	textcolor:
 1468 0008 0000     		.space	2
 1469              		.align	1
 1470              	textbgcolor:
 1471 000a 0000     		.space	2
 1472              	textsize:
 1473 000c 00       		.space	1
 1474              		.comm	window_x1,2,2
 1475              		.comm	window_y1,2,2
 1476              		.comm	window_x2,2,2
 1477              		.comm	window_y2,2,2
 1478              		.comm	WIDTH,2,2
 1479              		.comm	HEIGHT,2,2
 1480              		.comm	rotation,1,1
 1481              		.comm	wrap,1,1
 1482              		.section	.rodata
ARM GAS  C:\Users\49148\AppData\Local\Temp\ccVXiEAG.s 			page 38


 1483 04fb 00       		.align	2
 1484              	.LC0:
 1485 04fc AE       		.byte	-82
 1486 04fd D5       		.byte	-43
 1487 04fe 51       		.byte	81
 1488 04ff 20       		.byte	32
 1489 0500 81       		.byte	-127
 1490 0501 4F       		.byte	79
 1491 0502 AD       		.byte	-83
 1492 0503 8A       		.byte	-118
 1493 0504 A0       		.byte	-96
 1494 0505 C0       		.byte	-64
 1495 0506 DC       		.byte	-36
 1496 0507 00       		.byte	0
 1497 0508 D3       		.byte	-45
 1498 0509 60       		.byte	96
 1499 050a D9       		.byte	-39
 1500 050b 22       		.byte	34
 1501 050c DB       		.byte	-37
 1502 050d 35       		.byte	53
 1503 050e A8       		.byte	-88
 1504 050f 3F       		.byte	63
 1505 0510 B0       		.byte	-80
 1506 0511 DA       		.byte	-38
 1507 0512 12       		.byte	18
 1508 0513 A4       		.byte	-92
 1509 0514 A6       		.byte	-90
 1510              		.section	.text.display_init,"ax",%progbits
 1511              		.align	2
 1512              		.global	display_init
 1513              		.thumb
 1514              		.thumb_func
 1515              		.type	display_init, %function
 1516              	display_init:
 1517              	.LFB627:
 1518              		.file 2 "oled_driver.c"
   1:oled_driver.c **** /**
   2:oled_driver.c ****  *   @file    oled_driver.c
   3:oled_driver.c ****  *   @author  Vlad-Eusebiu Baciu
   4:oled_driver.c ****  *   @brief   SH1107 Oled driver library
   5:oled_driver.c ****  *   @details Includes I2C communication and Adafruit gfx library
   6:oled_driver.c ****  *
   7:oled_driver.c ****  */
   8:oled_driver.c **** 
   9:oled_driver.c **** /*
  10:oled_driver.c **** ===== derived license (for graphics library) ======
  11:oled_driver.c **** 
  12:oled_driver.c **** Copyright (c) 2013 Adafruit Industries. All rights reserved.
  13:oled_driver.c **** 
  14:oled_driver.c **** Redistribution and use in source and binary forms, with or without
  15:oled_driver.c **** modification, are permitted provided that the following conditions are met:
  16:oled_driver.c **** - Redistributions of source code must retain the above copyright notice,
  17:oled_driver.c **** this list of conditions and the following disclaimer.
  18:oled_driver.c **** - Redistributions in binary form must reproduce the above copyright notice,
  19:oled_driver.c **** this list of conditions and the following disclaimer in the documentation
  20:oled_driver.c **** and/or other materials provided with the distribution.
  21:oled_driver.c **** THIS SOFTWARE IS PROVIDED BY THE COPYRIGHT HOLDERS AND CONTRIBUTORS "AS IS"
ARM GAS  C:\Users\49148\AppData\Local\Temp\ccVXiEAG.s 			page 39


  22:oled_driver.c **** AND ANY EXPRESS OR IMPLIED WARRANTIES, INCLUDING, BUT NOT LIMITED TO, THE
  23:oled_driver.c **** IMPLIED WARRANTIES OF MERCHANTABILITY AND FITNESS FOR A PARTICULAR PURPOSE
  24:oled_driver.c **** ARE DISCLAIMED. IN NO EVENT SHALL THE COPYRIGHT HOLDER OR CONTRIBUTORS BE
  25:oled_driver.c **** LIABLE FOR ANY DIRECT, INDIRECT, INCIDENTAL, SPECIAL, EXEMPLARY, OR
  26:oled_driver.c **** CONSEQUENTIAL DAMAGES (INCLUDING, BUT NOT LIMITED TO, PROCUREMENT OF
  27:oled_driver.c **** SUBSTITUTE GOODS OR SERVICES; LOSS OF USE, DATA, OR PROFITS; OR BUSINESS
  28:oled_driver.c **** INTERRUPTION) HOWEVER CAUSED AND ON ANY THEORY OF LIABILITY, WHETHER IN
  29:oled_driver.c **** CONTRACT, STRICT LIABILITY, OR TORT (INCLUDING NEGLIGENCE OR OTHERWISE)
  30:oled_driver.c **** ARISING IN ANY WAY OUT OF THE USE OF THIS SOFTWARE, EVEN IF ADVISED OF THE
  31:oled_driver.c **** POSSIBILITY OF SUCH DAMAGE.
  32:oled_driver.c **** */
  33:oled_driver.c **** 
  34:oled_driver.c **** /*=================================================================================================
  35:oled_driver.c ****  *                                        INCLUDE FILES
  36:oled_driver.c ****  * 1) system and project includes
  37:oled_driver.c ****  * 2) needed interfaces from external units
  38:oled_driver.c ****  * 3) internal and external interfaces from this unit
  39:oled_driver.c ****  *  ==============================================================================================*
  40:oled_driver.c **** 
  41:oled_driver.c **** /* @brief Include PSOC generated files */
  42:oled_driver.c **** #include "project.h"
  43:oled_driver.c **** 
  44:oled_driver.c **** /* @brief Include custom libraries for PPG EduKit */
  45:oled_driver.c **** #include "oled_driver.h"
  46:oled_driver.c **** #include "font.h"
  47:oled_driver.c **** 
  48:oled_driver.c **** /*=================================================================================================
  49:oled_driver.c ****  *                          LOCAL TYPEDEFS (STRUCTURES, UNIONS, ENUMS)
  50:oled_driver.c ****  *  ==============================================================================================*
  51:oled_driver.c **** 
  52:oled_driver.c **** 
  53:oled_driver.c **** /*=================================================================================================
  54:oled_driver.c ****  *                                       LOCAL MACROS
  55:oled_driver.c ****  *  ==============================================================================================*
  56:oled_driver.c **** 
  57:oled_driver.c **** #define I2C_TIMEOUT                 (100UL)
  58:oled_driver.c **** #define I2C_MAXIMUM_BUFF_SIZE       (32U)
  59:oled_driver.c **** 
  60:oled_driver.c **** #define DISPLAYWIDTH 64
  61:oled_driver.c **** #define DISPLAYHEIGHT 128
  62:oled_driver.c ****     
  63:oled_driver.c **** #define SH110X_MEMORYMODE 0x20          ///< See datasheet
  64:oled_driver.c **** #define SH110X_COLUMNADDR 0x21          ///< See datasheet
  65:oled_driver.c **** #define SH110X_PAGEADDR 0x22            ///< See datasheet
  66:oled_driver.c **** #define SH110X_SETCONTRAST 0x81         ///< See datasheet
  67:oled_driver.c **** #define SH110X_CHARGEPUMP 0x8D          ///< See datasheet
  68:oled_driver.c **** #define SH110X_SEGREMAP 0xA0            ///< See datasheet
  69:oled_driver.c **** #define SH110X_DISPLAYALLON_RESUME 0xA4 ///< See datasheet
  70:oled_driver.c **** #define SH110X_DISPLAYALLON 0xA5        ///< Not currently used
  71:oled_driver.c **** #define SH110X_NORMALDISPLAY 0xA6       ///< See datasheet
  72:oled_driver.c **** #define SH110X_INVERTDISPLAY 0xA7       ///< See datasheet
  73:oled_driver.c **** #define SH110X_SETMULTIPLEX 0xA8        ///< See datasheet
  74:oled_driver.c **** #define SH110X_DCDC 0xAD                ///< See datasheet
  75:oled_driver.c **** #define SH110X_DISPLAYOFF 0xAE          ///< See datasheet
  76:oled_driver.c **** #define SH110X_DISPLAYON 0xAF           ///< See datasheet
  77:oled_driver.c **** #define SH110X_SETPAGEADDR                                                     \
  78:oled_driver.c **** 0xB0 ///< Specify page address to load display RAM data to page address
ARM GAS  C:\Users\49148\AppData\Local\Temp\ccVXiEAG.s 			page 40


  79:oled_driver.c ****        ///< register
  80:oled_driver.c **** #define SH110X_COMSCANINC 0xC0         ///< Not currently used
  81:oled_driver.c **** #define SH110X_COMSCANDEC 0xC8         ///< See datasheet
  82:oled_driver.c **** #define SH110X_SETDISPLAYOFFSET 0xD3   ///< See datasheet
  83:oled_driver.c **** #define SH110X_SETDISPLAYCLOCKDIV 0xD5 ///< See datasheet
  84:oled_driver.c **** #define SH110X_SETPRECHARGE 0xD9       ///< See datasheet
  85:oled_driver.c **** #define SH110X_SETCOMPINS 0xDA         ///< See datasheet
  86:oled_driver.c **** #define SH110X_SETVCOMDETECT 0xDB      ///< See datasheet
  87:oled_driver.c **** #define SH110X_SETDISPSTARTLINE                                                \
  88:oled_driver.c ****   0xDC ///< Specify Column address to determine the initial display line or
  89:oled_driver.c ****        ///< COM0.
  90:oled_driver.c **** 
  91:oled_driver.c **** #define SH110X_SETLOWCOLUMN 0x00  ///< Not currently used
  92:oled_driver.c **** #define SH110X_SETHIGHCOLUMN 0x10 ///< Not currently used
  93:oled_driver.c **** #define SH110X_SETSTARTLINE 0x40  ///< See datasheet
  94:oled_driver.c **** 
  95:oled_driver.c **** 
  96:oled_driver.c **** // see data sheet page 25 for Graphic Display Data RAM organization
  97:oled_driver.c **** // 8 pages, each page a row of DISPLAYWIDTH bytes
  98:oled_driver.c **** // start address of of row: y/8*DISPLAYWIDTH
  99:oled_driver.c **** // x pos in row: == x 
 100:oled_driver.c **** #define GDDRAM_ADDRESS(X,Y) ((_displaybuf)+((Y)/8)*(DISPLAYWIDTH)+(X))
 101:oled_driver.c **** 
 102:oled_driver.c **** // lower 3 bit of y determine vertical pixel position (pos 0...7) in GDDRAM byte
 103:oled_driver.c **** // (y&0x07) == position of pixel on row (page). LSB is top, MSB bottom
 104:oled_driver.c **** #define GDDRAM_PIXMASK(Y) (1 << ((Y)&0x07))
 105:oled_driver.c **** 
 106:oled_driver.c **** #define PIXEL_ON(X,Y) (*GDDRAM_ADDRESS(x,y) |= GDDRAM_PIXMASK(y))
 107:oled_driver.c **** #define PIXEL_OFF(X,Y) (*GDDRAM_ADDRESS(x,y) &= ~GDDRAM_PIXMASK(y))
 108:oled_driver.c **** #define PIXEL_TOGGLE(X,Y) (*GDDRAM_ADDRESS(x,y) ^= GDDRAM_PIXMASK(y)) 
 109:oled_driver.c **** 
 110:oled_driver.c **** /*=================================================================================================
 111:oled_driver.c ****  *                                      LOCAL CONSTANTS
 112:oled_driver.c ****  *  ==============================================================================================*
 113:oled_driver.c **** 
 114:oled_driver.c **** 
 115:oled_driver.c **** /*=================================================================================================
 116:oled_driver.c ****  *                                      LOCAL VARIABLES
 117:oled_driver.c ****  *  ==============================================================================================*
 118:oled_driver.c **** 
 119:oled_driver.c **** /* @brief display memory buffer ( === MUST INCLUDE === the preceding I2C 0x40 control byte for the 
 120:oled_driver.c **** static uint8_t SH110X_buffer[DISPLAYHEIGHT * DISPLAYWIDTH / 8 + 1] = { 0x40 };
 121:oled_driver.c **** /* @brief pointer to actual display memory buffer */
 122:oled_driver.c **** static uint8_t* _displaybuf = SH110X_buffer+1;
 123:oled_driver.c **** static uint16_t _displaybuf_size = sizeof(SH110X_buffer) - 1;
 124:oled_driver.c **** 
 125:oled_driver.c **** /* @brief Display w/h as modified by current rotation */
 126:oled_driver.c **** static int16_t _width, _height;
 127:oled_driver.c **** /* @brief Stores current cursor position */
 128:oled_driver.c **** static int16_t cursor_x, cursor_y;
 129:oled_driver.c **** /* @brief Stores current text options */
 130:oled_driver.c **** static uint16_t textcolor, textbgcolor;
 131:oled_driver.c **** static uint8_t textsize;
 132:oled_driver.c **** 
 133:oled_driver.c **** /*=================================================================================================
 134:oled_driver.c ****  *                                      GLOBAL CONSTANTS
 135:oled_driver.c ****  *  ==============================================================================================*
ARM GAS  C:\Users\49148\AppData\Local\Temp\ccVXiEAG.s 			page 41


 136:oled_driver.c **** 
 137:oled_driver.c **** 
 138:oled_driver.c **** /*=================================================================================================
 139:oled_driver.c ****  *                                      GLOBAL VARIABLES
 140:oled_driver.c ****  *  ==============================================================================================*
 141:oled_driver.c **** 
 142:oled_driver.c **** /* @brief Dirty tracking window minimum x */
 143:oled_driver.c **** int16_t window_x1; 
 144:oled_driver.c **** /* @brief Dirty tracking window minimum y */
 145:oled_driver.c **** int16_t window_y1;
 146:oled_driver.c **** /* @brief Dirty tracking window maximum x */
 147:oled_driver.c **** int16_t window_x2;    
 148:oled_driver.c **** /* @brief Dirty tracking window maximum y */
 149:oled_driver.c **** int16_t window_y2; 
 150:oled_driver.c **** 
 151:oled_driver.c **** /* @brief This is the 'raw' display w/h - never changes */
 152:oled_driver.c **** int16_t WIDTH, HEIGHT;
 153:oled_driver.c **** /* @brief Stores the rotation of the display */
 154:oled_driver.c **** uint8_t rotation;
 155:oled_driver.c **** /* @brief If set, 'wrap' text at right edge of display */
 156:oled_driver.c **** uint8_t wrap; 
 157:oled_driver.c **** 
 158:oled_driver.c **** /*=================================================================================================
 159:oled_driver.c ****  *                                   LOCAL FUNCTION PROTOTYPES
 160:oled_driver.c ****  *  ==============================================================================================*
 161:oled_driver.c **** 
 162:oled_driver.c **** static uint32  display_write_buf( uint8* buf, uint16_t size, uint8_t dc_val, bool send_dc);
 163:oled_driver.c **** 
 164:oled_driver.c **** /*=================================================================================================
 165:oled_driver.c ****  *                                   GLOBAL FUNCTION PROTOTYPES
 166:oled_driver.c ****  *  ==============================================================================================*
 167:oled_driver.c **** 
 168:oled_driver.c **** void gfx_init( int16_t width, int16_t height );
 169:oled_driver.c **** 
 170:oled_driver.c **** /*=================================================================================================
 171:oled_driver.c ****  *                                       LOCAL FUNCTIONS
 172:oled_driver.c ****  *  ==============================================================================================*
 173:oled_driver.c **** 
 174:oled_driver.c **** 
 175:oled_driver.c **** /*=================================================================================================
 176:oled_driver.c ****  *                                       GLOBAL FUNCTIONS
 177:oled_driver.c ****  *  ==============================================================================================*
 178:oled_driver.c **** 
 179:oled_driver.c **** /***************************************************************************
 180:oled_driver.c ****  * Function: display_init    
 181:oled_driver.c ****  *
 182:oled_driver.c ****  * Description:  Send init command over I2C. Call before first use of other 
 183:oled_driver.c ****  *               functions
 184:oled_driver.c ****  **************************************************************************/
 185:oled_driver.c **** void display_init(void){
 1519              		.loc 2 185 0
 1520              		.cfi_startproc
 1521              		@ args = 0, pretend = 0, frame = 32
 1522              		@ frame_needed = 1, uses_anonymous_args = 0
 1523 0000 B0B5     		push	{r4, r5, r7, lr}
 1524              		.cfi_def_cfa_offset 16
 1525              		.cfi_offset 4, -16
ARM GAS  C:\Users\49148\AppData\Local\Temp\ccVXiEAG.s 			page 42


 1526              		.cfi_offset 5, -12
 1527              		.cfi_offset 7, -8
 1528              		.cfi_offset 14, -4
 1529 0002 88B0     		sub	sp, sp, #32
 1530              		.cfi_def_cfa_offset 48
 1531 0004 00AF     		add	r7, sp, #0
 1532              		.cfi_def_cfa_register 7
 186:oled_driver.c ****     
 187:oled_driver.c ****     
 188:oled_driver.c ****     gfx_init(DISPLAYWIDTH, DISPLAYHEIGHT);
 1533              		.loc 2 188 0
 1534 0006 8021     		movs	r1, #128
 1535 0008 4020     		movs	r0, #64
 1536 000a FFF7FEFF 		bl	gfx_init
 189:oled_driver.c ****    
 190:oled_driver.c ****     uint8 cmdbuf[] = {
 1537              		.loc 2 190 0
 1538 000e 114B     		ldr	r3, .L14
 1539 0010 3C1D     		adds	r4, r7, #4
 1540 0012 1D46     		mov	r5, r3
 1541 0014 2868     		ldr	r0, [r5]	@ unaligned
 1542 0016 6968     		ldr	r1, [r5, #4]	@ unaligned
 1543 0018 AA68     		ldr	r2, [r5, #8]	@ unaligned
 1544 001a EB68     		ldr	r3, [r5, #12]	@ unaligned
 1545 001c 0FC4     		stmia	r4!, {r0, r1, r2, r3}
 1546 001e 2869     		ldr	r0, [r5, #16]	@ unaligned
 1547 0020 6969     		ldr	r1, [r5, #20]	@ unaligned
 1548 0022 03C4     		stmia	r4!, {r0, r1}
 1549 0024 2B7E     		ldrb	r3, [r5, #24]
 1550 0026 2370     		strb	r3, [r4]
 191:oled_driver.c ****       SH110X_DISPLAYOFF,               // 0xAE
 192:oled_driver.c ****       SH110X_SETDISPLAYCLOCKDIV, 0x51, // 0xd5, 0x51,
 193:oled_driver.c ****       SH110X_MEMORYMODE,               // 0x20
 194:oled_driver.c ****       SH110X_SETCONTRAST, 0x4F,        // 0x81, 0x4F
 195:oled_driver.c ****       SH110X_DCDC, 0x8A,               // 0xAD, 0x8A
 196:oled_driver.c ****       SH110X_SEGREMAP,                 // 0xA0
 197:oled_driver.c ****       SH110X_COMSCANINC,               // 0xC0
 198:oled_driver.c ****       SH110X_SETDISPSTARTLINE, 0x0,    // 0xDC 0x00
 199:oled_driver.c ****       SH110X_SETDISPLAYOFFSET, 0x60,   // 0xd3, 0x60,
 200:oled_driver.c ****       SH110X_SETPRECHARGE, 0x22,       // 0xd9, 0x22,
 201:oled_driver.c ****       SH110X_SETVCOMDETECT, 0x35,      // 0xdb, 0x35,
 202:oled_driver.c ****       SH110X_SETMULTIPLEX, 0x3F,       // 0xa8, 0x3f,
 203:oled_driver.c ****       SH110X_SETPAGEADDR,                  // 0xb0
 204:oled_driver.c ****       SH110X_SETCOMPINS, 0x12,             // 0xda, 0x12,
 205:oled_driver.c ****       SH110X_DISPLAYALLON_RESUME, // 0xa4
 206:oled_driver.c ****       SH110X_NORMALDISPLAY,       // 0xa6
 207:oled_driver.c ****     };
 208:oled_driver.c ****     
 209:oled_driver.c ****     display_write_buf(cmdbuf, sizeof(cmdbuf), 0x00, true );
 1551              		.loc 2 209 0
 1552 0028 381D     		adds	r0, r7, #4
 1553 002a 0123     		movs	r3, #1
 1554 002c 0022     		movs	r2, #0
 1555 002e 1921     		movs	r1, #25
 1556 0030 FFF7FEFF 		bl	display_write_buf
 210:oled_driver.c ****     CyDelay(200);
 1557              		.loc 2 210 0
ARM GAS  C:\Users\49148\AppData\Local\Temp\ccVXiEAG.s 			page 43


 1558 0034 C820     		movs	r0, #200
 1559 0036 FFF7FEFF 		bl	Cy_SysLib_Delay
 211:oled_driver.c ****     cmdbuf[0] = SH110X_DISPLAYON;
 1560              		.loc 2 211 0
 1561 003a AF23     		movs	r3, #175
 1562 003c 3B71     		strb	r3, [r7, #4]
 212:oled_driver.c ****     display_write_buf(cmdbuf, 1, 0x00, true);
 1563              		.loc 2 212 0
 1564 003e 381D     		adds	r0, r7, #4
 1565 0040 0123     		movs	r3, #1
 1566 0042 0022     		movs	r2, #0
 1567 0044 0121     		movs	r1, #1
 1568 0046 FFF7FEFF 		bl	display_write_buf
 213:oled_driver.c ****     
 214:oled_driver.c **** }
 1569              		.loc 2 214 0
 1570 004a 00BF     		nop
 1571 004c 2037     		adds	r7, r7, #32
 1572              		.cfi_def_cfa_offset 16
 1573 004e BD46     		mov	sp, r7
 1574              		.cfi_def_cfa_register 13
 1575              		@ sp needed
 1576 0050 B0BD     		pop	{r4, r5, r7, pc}
 1577              	.L15:
 1578 0052 00BF     		.align	2
 1579              	.L14:
 1580 0054 FC040000 		.word	.LC0
 1581              		.cfi_endproc
 1582              	.LFE627:
 1583              		.size	display_init, .-display_init
 1584              		.section	.text.display_write_buf,"ax",%progbits
 1585              		.align	2
 1586              		.thumb
 1587              		.thumb_func
 1588              		.type	display_write_buf, %function
 1589              	display_write_buf:
 1590              	.LFB628:
 215:oled_driver.c **** 
 216:oled_driver.c **** /***************************************************************************
 217:oled_driver.c ****  * Function: display_write_buf    
 218:oled_driver.c ****  *
 219:oled_driver.c ****  * Description:  Send the display buffer over I2C
 220:oled_driver.c ****  *
 221:oled_driver.c ****  * NOTE:
 222:oled_driver.c ****  *          For submitting command sequences:  buf[0] must be 0x00
 223:oled_driver.c ****  *          For submitting bulk data (writing to display RAM): buf[0] must 
 224:oled_driver.c ****  *          be 0x40
 225:oled_driver.c ****  *
 226:oled_driver.c ****  **************************************************************************/
 227:oled_driver.c **** static uint32 display_write_buf( uint8* buf, uint16_t size, uint8_t dc_val, bool send_dc){
 1591              		.loc 2 227 0
 1592              		.cfi_startproc
 1593              		@ args = 0, pretend = 0, frame = 16
 1594              		@ frame_needed = 1, uses_anonymous_args = 0
 1595 0000 80B5     		push	{r7, lr}
 1596              		.cfi_def_cfa_offset 8
 1597              		.cfi_offset 7, -8
ARM GAS  C:\Users\49148\AppData\Local\Temp\ccVXiEAG.s 			page 44


 1598              		.cfi_offset 14, -4
 1599 0002 84B0     		sub	sp, sp, #16
 1600              		.cfi_def_cfa_offset 24
 1601 0004 00AF     		add	r7, sp, #0
 1602              		.cfi_def_cfa_register 7
 1603 0006 7860     		str	r0, [r7, #4]
 1604 0008 0846     		mov	r0, r1
 1605 000a 1146     		mov	r1, r2
 1606 000c 1A46     		mov	r2, r3
 1607 000e 0346     		mov	r3, r0	@ movhi
 1608 0010 7B80     		strh	r3, [r7, #2]	@ movhi
 1609 0012 0B46     		mov	r3, r1
 1610 0014 7B70     		strb	r3, [r7, #1]
 1611 0016 1346     		mov	r3, r2
 1612 0018 3B70     		strb	r3, [r7]
 228:oled_driver.c **** 
 229:oled_driver.c ****     uint32 status = TRANSFER_ERROR;
 1613              		.loc 2 229 0
 1614 001a FF23     		movs	r3, #255
 1615 001c FB60     		str	r3, [r7, #12]
 230:oled_driver.c ****     I2C_BUS_MasterSendStart(DISPLAY_ADDRESS, CY_SCB_I2C_WRITE_XFER, I2C_TIMEOUT);
 1616              		.loc 2 230 0
 1617 001e 6422     		movs	r2, #100
 1618 0020 0021     		movs	r1, #0
 1619 0022 3C20     		movs	r0, #60
 1620 0024 FFF7FEFF 		bl	I2C_BUS_MasterSendStart
 231:oled_driver.c ****     if(true == send_dc)
 1621              		.loc 2 231 0
 1622 0028 3B78     		ldrb	r3, [r7]	@ zero_extendqisi2
 1623 002a 002B     		cmp	r3, #0
 1624 002c 04D0     		beq	.L17
 232:oled_driver.c ****     {
 233:oled_driver.c ****         I2C_BUS_MasterWriteByte(dc_val, I2C_TIMEOUT);
 1625              		.loc 2 233 0
 1626 002e 7B78     		ldrb	r3, [r7, #1]	@ zero_extendqisi2
 1627 0030 6421     		movs	r1, #100
 1628 0032 1846     		mov	r0, r3
 1629 0034 FFF7FEFF 		bl	I2C_BUS_MasterWriteByte
 1630              	.L17:
 1631              	.LBB2:
 234:oled_driver.c ****     }
 235:oled_driver.c ****     for(int i=0; i<size; i++){  
 1632              		.loc 2 235 0
 1633 0038 0023     		movs	r3, #0
 1634 003a BB60     		str	r3, [r7, #8]
 1635 003c 0BE0     		b	.L18
 1636              	.L19:
 236:oled_driver.c ****         status=I2C_BUS_MasterWriteByte(buf[i], I2C_TIMEOUT);   
 1637              		.loc 2 236 0 discriminator 3
 1638 003e BB68     		ldr	r3, [r7, #8]
 1639 0040 7A68     		ldr	r2, [r7, #4]
 1640 0042 1344     		add	r3, r3, r2
 1641 0044 1B78     		ldrb	r3, [r3]	@ zero_extendqisi2
 1642 0046 6421     		movs	r1, #100
 1643 0048 1846     		mov	r0, r3
 1644 004a FFF7FEFF 		bl	I2C_BUS_MasterWriteByte
 1645 004e F860     		str	r0, [r7, #12]
ARM GAS  C:\Users\49148\AppData\Local\Temp\ccVXiEAG.s 			page 45


 235:oled_driver.c ****         status=I2C_BUS_MasterWriteByte(buf[i], I2C_TIMEOUT);   
 1646              		.loc 2 235 0 discriminator 3
 1647 0050 BB68     		ldr	r3, [r7, #8]
 1648 0052 0133     		adds	r3, r3, #1
 1649 0054 BB60     		str	r3, [r7, #8]
 1650              	.L18:
 235:oled_driver.c ****         status=I2C_BUS_MasterWriteByte(buf[i], I2C_TIMEOUT);   
 1651              		.loc 2 235 0 is_stmt 0 discriminator 1
 1652 0056 7A88     		ldrh	r2, [r7, #2]
 1653 0058 BB68     		ldr	r3, [r7, #8]
 1654 005a 9A42     		cmp	r2, r3
 1655 005c EFDC     		bgt	.L19
 1656              	.LBE2:
 237:oled_driver.c ****     }
 238:oled_driver.c ****     I2C_BUS_MasterSendStop(I2C_TIMEOUT);
 1657              		.loc 2 238 0 is_stmt 1
 1658 005e 6420     		movs	r0, #100
 1659 0060 FFF7FEFF 		bl	I2C_BUS_MasterSendStop
 239:oled_driver.c ****     return status;
 1660              		.loc 2 239 0
 1661 0064 FB68     		ldr	r3, [r7, #12]
 240:oled_driver.c **** }
 1662              		.loc 2 240 0
 1663 0066 1846     		mov	r0, r3
 1664 0068 1037     		adds	r7, r7, #16
 1665              		.cfi_def_cfa_offset 8
 1666 006a BD46     		mov	sp, r7
 1667              		.cfi_def_cfa_register 13
 1668              		@ sp needed
 1669 006c 80BD     		pop	{r7, pc}
 1670              		.cfi_endproc
 1671              	.LFE628:
 1672              		.size	display_write_buf, .-display_write_buf
 1673 006e 00BF     		.section	.text.display_setPixel,"ax",%progbits
 1674              		.align	2
 1675              		.thumb
 1676              		.thumb_func
 1677              		.type	display_setPixel, %function
 1678              	display_setPixel:
 1679              	.LFB629:
 241:oled_driver.c **** 
 242:oled_driver.c **** /***************************************************************************
 243:oled_driver.c ****  * Function: display_setPixel    
 244:oled_driver.c ****  *
 245:oled_driver.c ****  * Description:  Write the value of the pixel in display buffer
 246:oled_driver.c ****  **************************************************************************/
 247:oled_driver.c **** static void display_setPixel( int16_t x, int16_t y, uint16_t color ){
 1680              		.loc 2 247 0
 1681              		.cfi_startproc
 1682              		@ args = 0, pretend = 0, frame = 8
 1683              		@ frame_needed = 1, uses_anonymous_args = 0
 1684              		@ link register save eliminated.
 1685 0000 80B4     		push	{r7}
 1686              		.cfi_def_cfa_offset 4
 1687              		.cfi_offset 7, -4
 1688 0002 83B0     		sub	sp, sp, #12
 1689              		.cfi_def_cfa_offset 16
ARM GAS  C:\Users\49148\AppData\Local\Temp\ccVXiEAG.s 			page 46


 1690 0004 00AF     		add	r7, sp, #0
 1691              		.cfi_def_cfa_register 7
 1692 0006 0346     		mov	r3, r0
 1693 0008 FB80     		strh	r3, [r7, #6]	@ movhi
 1694 000a 0B46     		mov	r3, r1	@ movhi
 1695 000c BB80     		strh	r3, [r7, #4]	@ movhi
 1696 000e 1346     		mov	r3, r2	@ movhi
 1697 0010 7B80     		strh	r3, [r7, #2]	@ movhi
 248:oled_driver.c ****     
 249:oled_driver.c ****     if( (x < 0) || (x >= DISPLAYWIDTH) || (y < 0) || (y >= DISPLAYHEIGHT) )
 1698              		.loc 2 249 0
 1699 0012 B7F90630 		ldrsh	r3, [r7, #6]
 1700 0016 002B     		cmp	r3, #0
 1701 0018 C0F28E80 		blt	.L31
 1702              		.loc 2 249 0 is_stmt 0 discriminator 1
 1703 001c B7F90630 		ldrsh	r3, [r7, #6]
 1704 0020 3F2B     		cmp	r3, #63
 1705 0022 00F38980 		bgt	.L31
 1706              		.loc 2 249 0 discriminator 2
 1707 0026 B7F90430 		ldrsh	r3, [r7, #4]
 1708 002a 002B     		cmp	r3, #0
 1709 002c C0F28480 		blt	.L31
 1710              		.loc 2 249 0 discriminator 3
 1711 0030 B7F90430 		ldrsh	r3, [r7, #4]
 1712 0034 7F2B     		cmp	r3, #127
 1713 0036 7FDC     		bgt	.L31
 250:oled_driver.c ****         return;
 251:oled_driver.c **** 
 252:oled_driver.c ****     switch( color ){
 1714              		.loc 2 252 0 is_stmt 1
 1715 0038 7B88     		ldrh	r3, [r7, #2]
 1716 003a 012B     		cmp	r3, #1
 1717 003c 04D0     		beq	.L25
 1718 003e 022B     		cmp	r3, #2
 1719 0040 52D0     		beq	.L26
 1720 0042 002B     		cmp	r3, #0
 1721 0044 27D0     		beq	.L27
 1722 0046 78E0     		b	.L21
 1723              	.L25:
 253:oled_driver.c ****         case WHITE: 
 254:oled_driver.c ****             PIXEL_ON(x,y);
 1724              		.loc 2 254 0
 1725 0048 3E4B     		ldr	r3, .L32
 1726 004a 1A68     		ldr	r2, [r3]
 1727 004c B7F90430 		ldrsh	r3, [r7, #4]
 1728 0050 002B     		cmp	r3, #0
 1729 0052 00DA     		bge	.L28
 1730 0054 0733     		adds	r3, r3, #7
 1731              	.L28:
 1732 0056 DB10     		asrs	r3, r3, #3
 1733 0058 18B2     		sxth	r0, r3
 1734 005a 0346     		mov	r3, r0
 1735 005c 9B01     		lsls	r3, r3, #6
 1736 005e 1946     		mov	r1, r3
 1737 0060 B7F90630 		ldrsh	r3, [r7, #6]
 1738 0064 0B44     		add	r3, r3, r1
 1739 0066 1344     		add	r3, r3, r2
ARM GAS  C:\Users\49148\AppData\Local\Temp\ccVXiEAG.s 			page 47


 1740 0068 364A     		ldr	r2, .L32
 1741 006a 1168     		ldr	r1, [r2]
 1742 006c 0246     		mov	r2, r0
 1743 006e 9201     		lsls	r2, r2, #6
 1744 0070 1046     		mov	r0, r2
 1745 0072 B7F90620 		ldrsh	r2, [r7, #6]
 1746 0076 0244     		add	r2, r2, r0
 1747 0078 0A44     		add	r2, r2, r1
 1748 007a 1278     		ldrb	r2, [r2]	@ zero_extendqisi2
 1749 007c 51B2     		sxtb	r1, r2
 1750 007e BA88     		ldrh	r2, [r7, #4]
 1751 0080 02F00702 		and	r2, r2, #7
 1752 0084 0120     		movs	r0, #1
 1753 0086 00FA02F2 		lsl	r2, r0, r2
 1754 008a 52B2     		sxtb	r2, r2
 1755 008c 0A43     		orrs	r2, r2, r1
 1756 008e 52B2     		sxtb	r2, r2
 1757 0090 D2B2     		uxtb	r2, r2
 1758 0092 1A70     		strb	r2, [r3]
 255:oled_driver.c ****             break;
 1759              		.loc 2 255 0
 1760 0094 51E0     		b	.L21
 1761              	.L27:
 256:oled_driver.c ****         case BLACK:
 257:oled_driver.c ****             PIXEL_OFF(x,y);
 1762              		.loc 2 257 0
 1763 0096 2B4B     		ldr	r3, .L32
 1764 0098 1A68     		ldr	r2, [r3]
 1765 009a B7F90430 		ldrsh	r3, [r7, #4]
 1766 009e 002B     		cmp	r3, #0
 1767 00a0 00DA     		bge	.L29
 1768 00a2 0733     		adds	r3, r3, #7
 1769              	.L29:
 1770 00a4 DB10     		asrs	r3, r3, #3
 1771 00a6 18B2     		sxth	r0, r3
 1772 00a8 0346     		mov	r3, r0
 1773 00aa 9B01     		lsls	r3, r3, #6
 1774 00ac 1946     		mov	r1, r3
 1775 00ae B7F90630 		ldrsh	r3, [r7, #6]
 1776 00b2 0B44     		add	r3, r3, r1
 1777 00b4 1344     		add	r3, r3, r2
 1778 00b6 234A     		ldr	r2, .L32
 1779 00b8 1168     		ldr	r1, [r2]
 1780 00ba 0246     		mov	r2, r0
 1781 00bc 9201     		lsls	r2, r2, #6
 1782 00be 1046     		mov	r0, r2
 1783 00c0 B7F90620 		ldrsh	r2, [r7, #6]
 1784 00c4 0244     		add	r2, r2, r0
 1785 00c6 0A44     		add	r2, r2, r1
 1786 00c8 1278     		ldrb	r2, [r2]	@ zero_extendqisi2
 1787 00ca 51B2     		sxtb	r1, r2
 1788 00cc BA88     		ldrh	r2, [r7, #4]
 1789 00ce 02F00702 		and	r2, r2, #7
 1790 00d2 0120     		movs	r0, #1
 1791 00d4 00FA02F2 		lsl	r2, r0, r2
 1792 00d8 52B2     		sxtb	r2, r2
 1793 00da D243     		mvns	r2, r2
ARM GAS  C:\Users\49148\AppData\Local\Temp\ccVXiEAG.s 			page 48


 1794 00dc 52B2     		sxtb	r2, r2
 1795 00de 0A40     		ands	r2, r2, r1
 1796 00e0 52B2     		sxtb	r2, r2
 1797 00e2 D2B2     		uxtb	r2, r2
 1798 00e4 1A70     		strb	r2, [r3]
 258:oled_driver.c ****             break;
 1799              		.loc 2 258 0
 1800 00e6 28E0     		b	.L21
 1801              	.L26:
 259:oled_driver.c ****         case INVERSE: 
 260:oled_driver.c ****             PIXEL_TOGGLE(x,y);
 1802              		.loc 2 260 0
 1803 00e8 164B     		ldr	r3, .L32
 1804 00ea 1A68     		ldr	r2, [r3]
 1805 00ec B7F90430 		ldrsh	r3, [r7, #4]
 1806 00f0 002B     		cmp	r3, #0
 1807 00f2 00DA     		bge	.L30
 1808 00f4 0733     		adds	r3, r3, #7
 1809              	.L30:
 1810 00f6 DB10     		asrs	r3, r3, #3
 1811 00f8 18B2     		sxth	r0, r3
 1812 00fa 0346     		mov	r3, r0
 1813 00fc 9B01     		lsls	r3, r3, #6
 1814 00fe 1946     		mov	r1, r3
 1815 0100 B7F90630 		ldrsh	r3, [r7, #6]
 1816 0104 0B44     		add	r3, r3, r1
 1817 0106 1344     		add	r3, r3, r2
 1818 0108 0E4A     		ldr	r2, .L32
 1819 010a 1168     		ldr	r1, [r2]
 1820 010c 0246     		mov	r2, r0
 1821 010e 9201     		lsls	r2, r2, #6
 1822 0110 1046     		mov	r0, r2
 1823 0112 B7F90620 		ldrsh	r2, [r7, #6]
 1824 0116 0244     		add	r2, r2, r0
 1825 0118 0A44     		add	r2, r2, r1
 1826 011a 1278     		ldrb	r2, [r2]	@ zero_extendqisi2
 1827 011c 51B2     		sxtb	r1, r2
 1828 011e BA88     		ldrh	r2, [r7, #4]
 1829 0120 02F00702 		and	r2, r2, #7
 1830 0124 0120     		movs	r0, #1
 1831 0126 00FA02F2 		lsl	r2, r0, r2
 1832 012a 52B2     		sxtb	r2, r2
 1833 012c 4A40     		eors	r2, r2, r1
 1834 012e 52B2     		sxtb	r2, r2
 1835 0130 D2B2     		uxtb	r2, r2
 1836 0132 1A70     		strb	r2, [r3]
 261:oled_driver.c ****             break;
 1837              		.loc 2 261 0
 1838 0134 00BF     		nop
 1839 0136 00E0     		b	.L21
 1840              	.L31:
 250:oled_driver.c **** 
 1841              		.loc 2 250 0
 1842 0138 00BF     		nop
 1843              	.L21:
 262:oled_driver.c ****     }
 263:oled_driver.c **** }
ARM GAS  C:\Users\49148\AppData\Local\Temp\ccVXiEAG.s 			page 49


 1844              		.loc 2 263 0
 1845 013a 0C37     		adds	r7, r7, #12
 1846              		.cfi_def_cfa_offset 4
 1847 013c BD46     		mov	sp, r7
 1848              		.cfi_def_cfa_register 13
 1849              		@ sp needed
 1850 013e 5DF8047B 		ldr	r7, [sp], #4
 1851              		.cfi_restore 7
 1852              		.cfi_def_cfa_offset 0
 1853 0142 7047     		bx	lr
 1854              	.L33:
 1855              		.align	2
 1856              	.L32:
 1857 0144 04040000 		.word	_displaybuf
 1858              		.cfi_endproc
 1859              	.LFE629:
 1860              		.size	display_setPixel, .-display_setPixel
 1861              		.section	.text.display_clear,"ax",%progbits
 1862              		.align	2
 1863              		.global	display_clear
 1864              		.thumb
 1865              		.thumb_func
 1866              		.type	display_clear, %function
 1867              	display_clear:
 1868              	.LFB630:
 264:oled_driver.c **** 
 265:oled_driver.c **** /***************************************************************************
 266:oled_driver.c ****  * Function: display_clear    
 267:oled_driver.c ****  *
 268:oled_driver.c ****  * Description:  Clear display buffer and display pointers
 269:oled_driver.c ****  **************************************************************************/
 270:oled_driver.c **** void display_clear(void){
 1869              		.loc 2 270 0
 1870              		.cfi_startproc
 1871              		@ args = 0, pretend = 0, frame = 0
 1872              		@ frame_needed = 1, uses_anonymous_args = 0
 1873 0000 80B5     		push	{r7, lr}
 1874              		.cfi_def_cfa_offset 8
 1875              		.cfi_offset 7, -8
 1876              		.cfi_offset 14, -4
 1877 0002 00AF     		add	r7, sp, #0
 1878              		.cfi_def_cfa_register 7
 271:oled_driver.c ****     memset( _displaybuf, 0, _displaybuf_size );
 1879              		.loc 2 271 0
 1880 0004 0C4B     		ldr	r3, .L35
 1881 0006 1868     		ldr	r0, [r3]
 1882 0008 0C4B     		ldr	r3, .L35+4
 1883 000a 1B88     		ldrh	r3, [r3]
 1884 000c 1A46     		mov	r2, r3
 1885 000e 0021     		movs	r1, #0
 1886 0010 FFF7FEFF 		bl	memset
 272:oled_driver.c ****     SH110X_buffer[0] = 0x40; // to be sure its there
 1887              		.loc 2 272 0
 1888 0014 0A4B     		ldr	r3, .L35+8
 1889 0016 4022     		movs	r2, #64
 1890 0018 1A70     		strb	r2, [r3]
 273:oled_driver.c ****     
ARM GAS  C:\Users\49148\AppData\Local\Temp\ccVXiEAG.s 			page 50


 274:oled_driver.c ****     window_x1 = 0;
 1891              		.loc 2 274 0
 1892 001a 0A4B     		ldr	r3, .L35+12
 1893 001c 0022     		movs	r2, #0
 1894 001e 1A80     		strh	r2, [r3]	@ movhi
 275:oled_driver.c ****     window_y1 = 0;
 1895              		.loc 2 275 0
 1896 0020 094B     		ldr	r3, .L35+16
 1897 0022 0022     		movs	r2, #0
 1898 0024 1A80     		strh	r2, [r3]	@ movhi
 276:oled_driver.c ****     window_x2 = DISPLAYWIDTH - 1;
 1899              		.loc 2 276 0
 1900 0026 094B     		ldr	r3, .L35+20
 1901 0028 3F22     		movs	r2, #63
 1902 002a 1A80     		strh	r2, [r3]	@ movhi
 277:oled_driver.c ****     window_y2 = DISPLAYHEIGHT - 1;
 1903              		.loc 2 277 0
 1904 002c 084B     		ldr	r3, .L35+24
 1905 002e 7F22     		movs	r2, #127
 1906 0030 1A80     		strh	r2, [r3]	@ movhi
 278:oled_driver.c ****     
 279:oled_driver.c **** }
 1907              		.loc 2 279 0
 1908 0032 00BF     		nop
 1909 0034 80BD     		pop	{r7, pc}
 1910              	.L36:
 1911 0036 00BF     		.align	2
 1912              	.L35:
 1913 0038 04040000 		.word	_displaybuf
 1914 003c 08040000 		.word	_displaybuf_size
 1915 0040 00000000 		.word	SH110X_buffer
 1916 0044 00000000 		.word	window_x1
 1917 0048 00000000 		.word	window_y1
 1918 004c 00000000 		.word	window_x2
 1919 0050 00000000 		.word	window_y2
 1920              		.cfi_endproc
 1921              	.LFE630:
 1922              		.size	display_clear, .-display_clear
 1923              		.section	.text.display_contrast,"ax",%progbits
 1924              		.align	2
 1925              		.global	display_contrast
 1926              		.thumb
 1927              		.thumb_func
 1928              		.type	display_contrast, %function
 1929              	display_contrast:
 1930              	.LFB631:
 280:oled_driver.c **** 
 281:oled_driver.c **** /***************************************************************************
 282:oled_driver.c ****  * Function: display_invert    
 283:oled_driver.c ****  *
 284:oled_driver.c ****  * Description:  Set contrast (0 ... 255)
 285:oled_driver.c ****  **************************************************************************/
 286:oled_driver.c **** void display_contrast( uint8_t contrast ){
 1931              		.loc 2 286 0
 1932              		.cfi_startproc
 1933              		@ args = 0, pretend = 0, frame = 16
 1934              		@ frame_needed = 1, uses_anonymous_args = 0
ARM GAS  C:\Users\49148\AppData\Local\Temp\ccVXiEAG.s 			page 51


 1935 0000 80B5     		push	{r7, lr}
 1936              		.cfi_def_cfa_offset 8
 1937              		.cfi_offset 7, -8
 1938              		.cfi_offset 14, -4
 1939 0002 84B0     		sub	sp, sp, #16
 1940              		.cfi_def_cfa_offset 24
 1941 0004 00AF     		add	r7, sp, #0
 1942              		.cfi_def_cfa_register 7
 1943 0006 0346     		mov	r3, r0
 1944 0008 FB71     		strb	r3, [r7, #7]
 287:oled_driver.c ****         
 288:oled_driver.c ****     uint8 cmdbuf[] = {
 1945              		.loc 2 288 0
 1946 000a 8123     		movs	r3, #129
 1947 000c 3B73     		strb	r3, [r7, #12]
 1948 000e FB79     		ldrb	r3, [r7, #7]
 1949 0010 7B73     		strb	r3, [r7, #13]
 289:oled_driver.c ****         SH110X_SETCONTRAST,
 290:oled_driver.c ****         contrast
 291:oled_driver.c ****     };
 292:oled_driver.c ****     display_write_buf( cmdbuf, sizeof(cmdbuf), 0x00, true ); 
 1950              		.loc 2 292 0
 1951 0012 07F10C00 		add	r0, r7, #12
 1952 0016 0123     		movs	r3, #1
 1953 0018 0022     		movs	r2, #0
 1954 001a 0221     		movs	r1, #2
 1955 001c FFF7FEFF 		bl	display_write_buf
 293:oled_driver.c **** }
 1956              		.loc 2 293 0
 1957 0020 00BF     		nop
 1958 0022 1037     		adds	r7, r7, #16
 1959              		.cfi_def_cfa_offset 8
 1960 0024 BD46     		mov	sp, r7
 1961              		.cfi_def_cfa_register 13
 1962              		@ sp needed
 1963 0026 80BD     		pop	{r7, pc}
 1964              		.cfi_endproc
 1965              	.LFE631:
 1966              		.size	display_contrast, .-display_contrast
 1967              		.section	.text.display_invert,"ax",%progbits
 1968              		.align	2
 1969              		.global	display_invert
 1970              		.thumb
 1971              		.thumb_func
 1972              		.type	display_invert, %function
 1973              	display_invert:
 1974              	.LFB632:
 294:oled_driver.c **** 
 295:oled_driver.c **** /***************************************************************************
 296:oled_driver.c ****  * Function: display_invert    
 297:oled_driver.c ****  *
 298:oled_driver.c ****  * Description:  Invert 1 for inverse display, invert 0 for normal display
 299:oled_driver.c ****  **************************************************************************/
 300:oled_driver.c **** void display_invert( uint8_t invert ){
 1975              		.loc 2 300 0
 1976              		.cfi_startproc
 1977              		@ args = 0, pretend = 0, frame = 16
ARM GAS  C:\Users\49148\AppData\Local\Temp\ccVXiEAG.s 			page 52


 1978              		@ frame_needed = 1, uses_anonymous_args = 0
 1979 0000 80B5     		push	{r7, lr}
 1980              		.cfi_def_cfa_offset 8
 1981              		.cfi_offset 7, -8
 1982              		.cfi_offset 14, -4
 1983 0002 84B0     		sub	sp, sp, #16
 1984              		.cfi_def_cfa_offset 24
 1985 0004 00AF     		add	r7, sp, #0
 1986              		.cfi_def_cfa_register 7
 1987 0006 0346     		mov	r3, r0
 1988 0008 FB71     		strb	r3, [r7, #7]
 301:oled_driver.c **** 
 302:oled_driver.c ****     uint8 cmdbuf[] = {
 1989              		.loc 2 302 0
 1990 000a 0023     		movs	r3, #0
 1991 000c 3B73     		strb	r3, [r7, #12]
 1992 000e 0023     		movs	r3, #0
 1993 0010 7B73     		strb	r3, [r7, #13]
 303:oled_driver.c ****         0x00,  
 304:oled_driver.c ****         0
 305:oled_driver.c ****     };
 306:oled_driver.c ****     cmdbuf[1] = invert ? SH110X_INVERTDISPLAY : SH110X_NORMALDISPLAY;
 1994              		.loc 2 306 0
 1995 0012 FB79     		ldrb	r3, [r7, #7]	@ zero_extendqisi2
 1996 0014 002B     		cmp	r3, #0
 1997 0016 01D0     		beq	.L39
 1998              		.loc 2 306 0 is_stmt 0 discriminator 1
 1999 0018 A723     		movs	r3, #167
 2000 001a 00E0     		b	.L40
 2001              	.L39:
 2002              		.loc 2 306 0 discriminator 2
 2003 001c A623     		movs	r3, #166
 2004              	.L40:
 2005              		.loc 2 306 0 discriminator 4
 2006 001e 7B73     		strb	r3, [r7, #13]
 307:oled_driver.c ****     display_write_buf( cmdbuf, sizeof(cmdbuf), 0x00, false); 
 2007              		.loc 2 307 0 is_stmt 1 discriminator 4
 2008 0020 07F10C00 		add	r0, r7, #12
 2009 0024 0023     		movs	r3, #0
 2010 0026 0022     		movs	r2, #0
 2011 0028 0221     		movs	r1, #2
 2012 002a FFF7FEFF 		bl	display_write_buf
 308:oled_driver.c **** }
 2013              		.loc 2 308 0 discriminator 4
 2014 002e 00BF     		nop
 2015 0030 1037     		adds	r7, r7, #16
 2016              		.cfi_def_cfa_offset 8
 2017 0032 BD46     		mov	sp, r7
 2018              		.cfi_def_cfa_register 13
 2019              		@ sp needed
 2020 0034 80BD     		pop	{r7, pc}
 2021              		.cfi_endproc
 2022              	.LFE632:
 2023              		.size	display_invert, .-display_invert
 2024 0036 00BF     		.section	.text.display_update,"ax",%progbits
 2025              		.align	2
 2026              		.global	display_update
ARM GAS  C:\Users\49148\AppData\Local\Temp\ccVXiEAG.s 			page 53


 2027              		.thumb
 2028              		.thumb_func
 2029              		.type	display_update, %function
 2030              	display_update:
 2031              	.LFB633:
 309:oled_driver.c **** 
 310:oled_driver.c **** /***************************************************************************
 311:oled_driver.c ****  * Function: display_update    
 312:oled_driver.c ****  *
 313:oled_driver.c ****  * Description:  Update the display. Send the display buffer to the OLED I2C
 314:oled_driver.c **** *                controller
 315:oled_driver.c ****  **************************************************************************/
 316:oled_driver.c **** void display_update(void) {
 2032              		.loc 2 316 0
 2033              		.cfi_startproc
 2034              		@ args = 0, pretend = 0, frame = 24
 2035              		@ frame_needed = 1, uses_anonymous_args = 0
 2036 0000 80B5     		push	{r7, lr}
 2037              		.cfi_def_cfa_offset 8
 2038              		.cfi_offset 7, -8
 2039              		.cfi_offset 14, -4
 2040 0002 86B0     		sub	sp, sp, #24
 2041              		.cfi_def_cfa_offset 32
 2042 0004 00AF     		add	r7, sp, #0
 2043              		.cfi_def_cfa_register 7
 317:oled_driver.c ****  
 318:oled_driver.c ****     uint8_t *ptr = _displaybuf;
 2044              		.loc 2 318 0
 2045 0006 404B     		ldr	r3, .L49
 2046 0008 1B68     		ldr	r3, [r3]
 2047 000a 7B61     		str	r3, [r7, #20]
 319:oled_driver.c ****     uint8_t dc_byte = 0x40;
 2048              		.loc 2 319 0
 2049 000c 4023     		movs	r3, #64
 2050 000e 7B74     		strb	r3, [r7, #17]
 320:oled_driver.c ****     uint8_t pages = ((DISPLAYHEIGHT + 7) / 8);
 2051              		.loc 2 320 0
 2052 0010 1023     		movs	r3, #16
 2053 0012 3B74     		strb	r3, [r7, #16]
 321:oled_driver.c ****     
 322:oled_driver.c ****     uint8_t bytes_per_page = DISPLAYWIDTH;
 2054              		.loc 2 322 0
 2055 0014 4023     		movs	r3, #64
 2056 0016 FB73     		strb	r3, [r7, #15]
 323:oled_driver.c ****     uint16_t maxbuff = I2C_MAXIMUM_BUFF_SIZE - 1;
 2057              		.loc 2 323 0
 2058 0018 1F23     		movs	r3, #31
 2059 001a BB81     		strh	r3, [r7, #12]	@ movhi
 324:oled_driver.c ****     
 325:oled_driver.c ****     
 326:oled_driver.c ****     
 327:oled_driver.c ****     uint8_t first_page = window_y1 / 8;
 2060              		.loc 2 327 0
 2061 001c 3B4B     		ldr	r3, .L49+4
 2062 001e B3F90030 		ldrsh	r3, [r3]
 2063 0022 002B     		cmp	r3, #0
 2064 0024 00DA     		bge	.L42
ARM GAS  C:\Users\49148\AppData\Local\Temp\ccVXiEAG.s 			page 54


 2065 0026 0733     		adds	r3, r3, #7
 2066              	.L42:
 2067 0028 DB10     		asrs	r3, r3, #3
 2068 002a 1BB2     		sxth	r3, r3
 2069 002c FB72     		strb	r3, [r7, #11]
 328:oled_driver.c ****     uint8_t page_start = MIN(bytes_per_page, (uint8_t)window_x1);
 2070              		.loc 2 328 0
 2071 002e 384B     		ldr	r3, .L49+8
 2072 0030 B3F90030 		ldrsh	r3, [r3]
 2073 0034 DAB2     		uxtb	r2, r3
 2074 0036 FB7B     		ldrb	r3, [r7, #15]	@ zero_extendqisi2
 2075 0038 9342     		cmp	r3, r2
 2076 003a 28BF     		it	cs
 2077 003c 1346     		movcs	r3, r2
 2078 003e BB72     		strb	r3, [r7, #10]
 329:oled_driver.c ****     uint8_t page_end = (uint8_t)MAX((int)0, (int)window_x2);
 2079              		.loc 2 329 0
 2080 0040 344B     		ldr	r3, .L49+12
 2081 0042 B3F90030 		ldrsh	r3, [r3]
 2082 0046 002B     		cmp	r3, #0
 2083 0048 04DB     		blt	.L43
 2084              		.loc 2 329 0 is_stmt 0 discriminator 1
 2085 004a 324B     		ldr	r3, .L49+12
 2086 004c B3F90030 		ldrsh	r3, [r3]
 2087 0050 DBB2     		uxtb	r3, r3
 2088 0052 00E0     		b	.L44
 2089              	.L43:
 2090              		.loc 2 329 0 discriminator 2
 2091 0054 0023     		movs	r3, #0
 2092              	.L44:
 2093              		.loc 2 329 0 discriminator 4
 2094 0056 7B72     		strb	r3, [r7, #9]
 2095              	.LBB3:
 330:oled_driver.c **** 
 331:oled_driver.c ****     for (uint8_t p = first_page; p < pages; p++) 
 2096              		.loc 2 331 0 is_stmt 1 discriminator 4
 2097 0058 FB7A     		ldrb	r3, [r7, #11]
 2098 005a FB74     		strb	r3, [r7, #19]
 2099 005c 4BE0     		b	.L45
 2100              	.L48:
 2101              	.LBB4:
 332:oled_driver.c ****     {
 333:oled_driver.c ****         uint8_t bytes_remaining = bytes_per_page;
 2102              		.loc 2 333 0
 2103 005e FB7B     		ldrb	r3, [r7, #15]
 2104 0060 BB74     		strb	r3, [r7, #18]
 334:oled_driver.c ****         ptr = _displaybuf + (uint16_t)p * (uint16_t)bytes_per_page;
 2105              		.loc 2 334 0
 2106 0062 294B     		ldr	r3, .L49
 2107 0064 1B68     		ldr	r3, [r3]
 2108 0066 FA7C     		ldrb	r2, [r7, #19]	@ zero_extendqisi2
 2109 0068 F97B     		ldrb	r1, [r7, #15]	@ zero_extendqisi2
 2110 006a 01FB02F2 		mul	r2, r1, r2
 2111 006e 1344     		add	r3, r3, r2
 2112 0070 7B61     		str	r3, [r7, #20]
 335:oled_driver.c ****         ptr += page_start;
 2113              		.loc 2 335 0
ARM GAS  C:\Users\49148\AppData\Local\Temp\ccVXiEAG.s 			page 55


 2114 0072 BB7A     		ldrb	r3, [r7, #10]	@ zero_extendqisi2
 2115 0074 7A69     		ldr	r2, [r7, #20]
 2116 0076 1344     		add	r3, r3, r2
 2117 0078 7B61     		str	r3, [r7, #20]
 336:oled_driver.c ****         bytes_remaining -= page_start;
 2118              		.loc 2 336 0
 2119 007a BA7C     		ldrb	r2, [r7, #18]
 2120 007c BB7A     		ldrb	r3, [r7, #10]
 2121 007e D31A     		subs	r3, r2, r3
 2122 0080 BB74     		strb	r3, [r7, #18]
 337:oled_driver.c ****         
 338:oled_driver.c ****         bytes_remaining -= (DISPLAYWIDTH - 1) - page_end;
 2123              		.loc 2 338 0
 2124 0082 7A7A     		ldrb	r2, [r7, #9]
 2125 0084 BB7C     		ldrb	r3, [r7, #18]
 2126 0086 1344     		add	r3, r3, r2
 2127 0088 DBB2     		uxtb	r3, r3
 2128 008a 3F3B     		subs	r3, r3, #63
 2129 008c BB74     		strb	r3, [r7, #18]
 339:oled_driver.c **** 
 340:oled_driver.c **** 
 341:oled_driver.c ****         uint8_t cmd[] = { 0x00, (uint8_t)(SH110X_SETPAGEADDR + p),
 2130              		.loc 2 341 0
 2131 008e 0023     		movs	r3, #0
 2132 0090 3B71     		strb	r3, [r7, #4]
 2133 0092 FB7C     		ldrb	r3, [r7, #19]
 2134 0094 503B     		subs	r3, r3, #80
 2135 0096 DBB2     		uxtb	r3, r3
 2136 0098 7B71     		strb	r3, [r7, #5]
 342:oled_driver.c ****                          (uint8_t)(0x10 + ((page_start) >> 4)),
 2137              		.loc 2 342 0
 2138 009a BB7A     		ldrb	r3, [r7, #10]	@ zero_extendqisi2
 2139 009c 1B09     		lsrs	r3, r3, #4
 2140 009e DBB2     		uxtb	r3, r3
 2141 00a0 1033     		adds	r3, r3, #16
 2142 00a2 DBB2     		uxtb	r3, r3
 341:oled_driver.c ****                          (uint8_t)(0x10 + ((page_start) >> 4)),
 2143              		.loc 2 341 0
 2144 00a4 BB71     		strb	r3, [r7, #6]
 343:oled_driver.c ****                          (uint8_t)((page_start) & 0xF)
 2145              		.loc 2 343 0
 2146 00a6 BB7A     		ldrb	r3, [r7, #10]
 2147 00a8 03F00F03 		and	r3, r3, #15
 2148 00ac DBB2     		uxtb	r3, r3
 341:oled_driver.c ****                          (uint8_t)(0x10 + ((page_start) >> 4)),
 2149              		.loc 2 341 0
 2150 00ae FB71     		strb	r3, [r7, #7]
 344:oled_driver.c ****                         };
 345:oled_driver.c **** 
 346:oled_driver.c ****         display_write_buf(cmd, 4, 0x00, false);
 2151              		.loc 2 346 0
 2152 00b0 381D     		adds	r0, r7, #4
 2153 00b2 0023     		movs	r3, #0
 2154 00b4 0022     		movs	r2, #0
 2155 00b6 0421     		movs	r1, #4
 2156 00b8 FFF7FEFF 		bl	display_write_buf
 347:oled_driver.c ****      
ARM GAS  C:\Users\49148\AppData\Local\Temp\ccVXiEAG.s 			page 56


 348:oled_driver.c ****         while (bytes_remaining) 
 2157              		.loc 2 348 0
 2158 00bc 15E0     		b	.L46
 2159              	.L47:
 2160              	.LBB5:
 349:oled_driver.c ****         {
 350:oled_driver.c ****             uint8_t to_write = MIN(bytes_remaining, (uint8_t)maxbuff);
 2161              		.loc 2 350 0
 2162 00be BB89     		ldrh	r3, [r7, #12]	@ movhi
 2163 00c0 DAB2     		uxtb	r2, r3
 2164 00c2 BB7C     		ldrb	r3, [r7, #18]	@ zero_extendqisi2
 2165 00c4 9342     		cmp	r3, r2
 2166 00c6 28BF     		it	cs
 2167 00c8 1346     		movcs	r3, r2
 2168 00ca 3B72     		strb	r3, [r7, #8]
 351:oled_driver.c ****             display_write_buf(ptr, to_write, dc_byte, true);
 2169              		.loc 2 351 0
 2170 00cc 3B7A     		ldrb	r3, [r7, #8]	@ zero_extendqisi2
 2171 00ce 99B2     		uxth	r1, r3
 2172 00d0 7A7C     		ldrb	r2, [r7, #17]	@ zero_extendqisi2
 2173 00d2 0123     		movs	r3, #1
 2174 00d4 7869     		ldr	r0, [r7, #20]
 2175 00d6 FFF7FEFF 		bl	display_write_buf
 352:oled_driver.c ****             ptr += to_write;
 2176              		.loc 2 352 0
 2177 00da 3B7A     		ldrb	r3, [r7, #8]	@ zero_extendqisi2
 2178 00dc 7A69     		ldr	r2, [r7, #20]
 2179 00de 1344     		add	r3, r3, r2
 2180 00e0 7B61     		str	r3, [r7, #20]
 353:oled_driver.c ****             bytes_remaining -= to_write;
 2181              		.loc 2 353 0
 2182 00e2 BA7C     		ldrb	r2, [r7, #18]
 2183 00e4 3B7A     		ldrb	r3, [r7, #8]
 2184 00e6 D31A     		subs	r3, r2, r3
 2185 00e8 BB74     		strb	r3, [r7, #18]
 2186              	.L46:
 2187              	.LBE5:
 348:oled_driver.c ****         {
 2188              		.loc 2 348 0
 2189 00ea BB7C     		ldrb	r3, [r7, #18]	@ zero_extendqisi2
 2190 00ec 002B     		cmp	r3, #0
 2191 00ee E6D1     		bne	.L47
 2192              	.LBE4:
 331:oled_driver.c ****     {
 2193              		.loc 2 331 0 discriminator 2
 2194 00f0 FB7C     		ldrb	r3, [r7, #19]	@ zero_extendqisi2
 2195 00f2 0133     		adds	r3, r3, #1
 2196 00f4 FB74     		strb	r3, [r7, #19]
 2197              	.L45:
 331:oled_driver.c ****     {
 2198              		.loc 2 331 0 is_stmt 0 discriminator 1
 2199 00f6 FA7C     		ldrb	r2, [r7, #19]	@ zero_extendqisi2
 2200 00f8 3B7C     		ldrb	r3, [r7, #16]	@ zero_extendqisi2
 2201 00fa 9A42     		cmp	r2, r3
 2202 00fc AFD3     		bcc	.L48
 2203              	.LBE3:
 354:oled_driver.c ****         }
ARM GAS  C:\Users\49148\AppData\Local\Temp\ccVXiEAG.s 			page 57


 355:oled_driver.c ****    }
 356:oled_driver.c **** }
 2204              		.loc 2 356 0 is_stmt 1
 2205 00fe 00BF     		nop
 2206 0100 1837     		adds	r7, r7, #24
 2207              		.cfi_def_cfa_offset 8
 2208 0102 BD46     		mov	sp, r7
 2209              		.cfi_def_cfa_register 13
 2210              		@ sp needed
 2211 0104 80BD     		pop	{r7, pc}
 2212              	.L50:
 2213 0106 00BF     		.align	2
 2214              	.L49:
 2215 0108 04040000 		.word	_displaybuf
 2216 010c 00000000 		.word	window_y1
 2217 0110 00000000 		.word	window_x1
 2218 0114 00000000 		.word	window_x2
 2219              		.cfi_endproc
 2220              	.LFE633:
 2221              		.size	display_update, .-display_update
 2222              		.section	.text.display_line,"ax",%progbits
 2223              		.align	2
 2224              		.thumb
 2225              		.thumb_func
 2226              		.type	display_line, %function
 2227              	display_line:
 2228              	.LFB634:
 357:oled_driver.c **** 
 358:oled_driver.c **** /***************************************************************************
 359:oled_driver.c ****  * Function: display_line    
 360:oled_driver.c ****  *
 361:oled_driver.c ****  * Description:  Draws a horizontal or a vertical line
 362:oled_driver.c ****  **************************************************************************/
 363:oled_driver.c **** static void display_line( int16_t x1, int16_t y1, int16_t x2, int16_t y2, uint16_t color ){
 2229              		.loc 2 363 0
 2230              		.cfi_startproc
 2231              		@ args = 4, pretend = 0, frame = 48
 2232              		@ frame_needed = 1, uses_anonymous_args = 0
 2233              		@ link register save eliminated.
 2234 0000 90B4     		push	{r4, r7}
 2235              		.cfi_def_cfa_offset 8
 2236              		.cfi_offset 4, -8
 2237              		.cfi_offset 7, -4
 2238 0002 8CB0     		sub	sp, sp, #48
 2239              		.cfi_def_cfa_offset 56
 2240 0004 00AF     		add	r7, sp, #0
 2241              		.cfi_def_cfa_register 7
 2242 0006 0446     		mov	r4, r0
 2243 0008 0846     		mov	r0, r1
 2244 000a 1146     		mov	r1, r2
 2245 000c 1A46     		mov	r2, r3
 2246 000e 2346     		mov	r3, r4	@ movhi
 2247 0010 FB80     		strh	r3, [r7, #6]	@ movhi
 2248 0012 0346     		mov	r3, r0	@ movhi
 2249 0014 BB80     		strh	r3, [r7, #4]	@ movhi
 2250 0016 0B46     		mov	r3, r1	@ movhi
 2251 0018 7B80     		strh	r3, [r7, #2]	@ movhi
ARM GAS  C:\Users\49148\AppData\Local\Temp\ccVXiEAG.s 			page 58


 2252 001a 1346     		mov	r3, r2	@ movhi
 2253 001c 3B80     		strh	r3, [r7]	@ movhi
 364:oled_driver.c **** 
 365:oled_driver.c ****     if( x1 == x2 ){
 2254              		.loc 2 365 0
 2255 001e B7F90620 		ldrsh	r2, [r7, #6]
 2256 0022 B7F90230 		ldrsh	r3, [r7, #2]
 2257 0026 9A42     		cmp	r2, r3
 2258 0028 40F0B980 		bne	.L52
 2259              	.LBB6:
 366:oled_driver.c ****         // vertical
 367:oled_driver.c ****         uint8_t* pstart = GDDRAM_ADDRESS(x1,y1);
 2260              		.loc 2 367 0
 2261 002c 854B     		ldr	r3, .L81
 2262 002e 1A68     		ldr	r2, [r3]
 2263 0030 B7F90430 		ldrsh	r3, [r7, #4]
 2264 0034 002B     		cmp	r3, #0
 2265 0036 00DA     		bge	.L53
 2266 0038 0733     		adds	r3, r3, #7
 2267              	.L53:
 2268 003a DB10     		asrs	r3, r3, #3
 2269 003c 1BB2     		sxth	r3, r3
 2270 003e 9B01     		lsls	r3, r3, #6
 2271 0040 1946     		mov	r1, r3
 2272 0042 B7F90630 		ldrsh	r3, [r7, #6]
 2273 0046 0B44     		add	r3, r3, r1
 2274 0048 1344     		add	r3, r3, r2
 2275 004a 3B62     		str	r3, [r7, #32]
 368:oled_driver.c ****         uint8_t* pend = GDDRAM_ADDRESS(x2,y2);       
 2276              		.loc 2 368 0
 2277 004c 7D4B     		ldr	r3, .L81
 2278 004e 1A68     		ldr	r2, [r3]
 2279 0050 B7F90030 		ldrsh	r3, [r7]
 2280 0054 002B     		cmp	r3, #0
 2281 0056 00DA     		bge	.L54
 2282 0058 0733     		adds	r3, r3, #7
 2283              	.L54:
 2284 005a DB10     		asrs	r3, r3, #3
 2285 005c 1BB2     		sxth	r3, r3
 2286 005e 9B01     		lsls	r3, r3, #6
 2287 0060 1946     		mov	r1, r3
 2288 0062 B7F90230 		ldrsh	r3, [r7, #2]
 2289 0066 0B44     		add	r3, r3, r1
 2290 0068 1344     		add	r3, r3, r2
 2291 006a FB61     		str	r3, [r7, #28]
 369:oled_driver.c ****         uint8_t* ptr = pstart;             
 2292              		.loc 2 369 0
 2293 006c 3B6A     		ldr	r3, [r7, #32]
 2294 006e FB62     		str	r3, [r7, #44]
 370:oled_driver.c ****         
 371:oled_driver.c ****         while( ptr <= pend ){
 2295              		.loc 2 371 0
 2296 0070 8FE0     		b	.L55
 2297              	.L71:
 2298              	.LBB7:
 372:oled_driver.c ****             
 373:oled_driver.c ****             uint8_t mask;
ARM GAS  C:\Users\49148\AppData\Local\Temp\ccVXiEAG.s 			page 59


 374:oled_driver.c ****             if( ptr == pstart ){
 2299              		.loc 2 374 0
 2300 0072 FA6A     		ldr	r2, [r7, #44]
 2301 0074 3B6A     		ldr	r3, [r7, #32]
 2302 0076 9A42     		cmp	r2, r3
 2303 0078 2BD1     		bne	.L56
 2304              	.LBB8:
 375:oled_driver.c ****                 // top
 376:oled_driver.c ****                 uint8_t lbit = y1 % 8;
 2305              		.loc 2 376 0
 2306 007a B7F90420 		ldrsh	r2, [r7, #4]
 2307 007e 724B     		ldr	r3, .L81+4
 2308 0080 1340     		ands	r3, r3, r2
 2309 0082 002B     		cmp	r3, #0
 2310 0084 03DA     		bge	.L57
 2311 0086 013B     		subs	r3, r3, #1
 2312 0088 63F00703 		orn	r3, r3, #7
 2313 008c 0133     		adds	r3, r3, #1
 2314              	.L57:
 2315 008e 1BB2     		sxth	r3, r3
 2316 0090 FB76     		strb	r3, [r7, #27]
 377:oled_driver.c ****                 // bottom (line can be very short, all inside this one byte)
 378:oled_driver.c ****                 uint8_t ubit = lbit + y2 - y1;
 2317              		.loc 2 378 0
 2318 0092 3B88     		ldrh	r3, [r7]	@ movhi
 2319 0094 DAB2     		uxtb	r2, r3
 2320 0096 FB7E     		ldrb	r3, [r7, #27]
 2321 0098 1344     		add	r3, r3, r2
 2322 009a DAB2     		uxtb	r2, r3
 2323 009c BB88     		ldrh	r3, [r7, #4]	@ movhi
 2324 009e DBB2     		uxtb	r3, r3
 2325 00a0 D31A     		subs	r3, r2, r3
 2326 00a2 87F82A30 		strb	r3, [r7, #42]
 379:oled_driver.c ****                 if( ubit >= 7 )
 2327              		.loc 2 379 0
 2328 00a6 97F82A30 		ldrb	r3, [r7, #42]	@ zero_extendqisi2
 2329 00aa 062B     		cmp	r3, #6
 2330 00ac 02D9     		bls	.L58
 380:oled_driver.c ****                     ubit = 7;
 2331              		.loc 2 380 0
 2332 00ae 0723     		movs	r3, #7
 2333 00b0 87F82A30 		strb	r3, [r7, #42]
 2334              	.L58:
 381:oled_driver.c ****                 mask = ((1 << (ubit-lbit+1)) - 1) << lbit;    
 2335              		.loc 2 381 0
 2336 00b4 97F82A20 		ldrb	r2, [r7, #42]	@ zero_extendqisi2
 2337 00b8 FB7E     		ldrb	r3, [r7, #27]	@ zero_extendqisi2
 2338 00ba D31A     		subs	r3, r2, r3
 2339 00bc 0133     		adds	r3, r3, #1
 2340 00be 0122     		movs	r2, #1
 2341 00c0 02FA03F3 		lsl	r3, r2, r3
 2342 00c4 5A1E     		subs	r2, r3, #1
 2343 00c6 FB7E     		ldrb	r3, [r7, #27]	@ zero_extendqisi2
 2344 00c8 02FA03F3 		lsl	r3, r2, r3
 2345 00cc 87F82B30 		strb	r3, [r7, #43]
 2346              	.LBE8:
 2347 00d0 15E0     		b	.L59
ARM GAS  C:\Users\49148\AppData\Local\Temp\ccVXiEAG.s 			page 60


 2348              	.L56:
 382:oled_driver.c ****             }else if( ptr == pend ){
 2349              		.loc 2 382 0
 2350 00d2 FA6A     		ldr	r2, [r7, #44]
 2351 00d4 FB69     		ldr	r3, [r7, #28]
 2352 00d6 9A42     		cmp	r2, r3
 2353 00d8 11D1     		bne	.L59
 383:oled_driver.c ****                 // top is always bit 0, that makes it easy
 384:oled_driver.c ****                 // bottom
 385:oled_driver.c ****                 mask = (1 << (y2 % 8)) - 1;    
 2354              		.loc 2 385 0
 2355 00da B7F90020 		ldrsh	r2, [r7]
 2356 00de 5A4B     		ldr	r3, .L81+4
 2357 00e0 1340     		ands	r3, r3, r2
 2358 00e2 002B     		cmp	r3, #0
 2359 00e4 03DA     		bge	.L60
 2360 00e6 013B     		subs	r3, r3, #1
 2361 00e8 63F00703 		orn	r3, r3, #7
 2362 00ec 0133     		adds	r3, r3, #1
 2363              	.L60:
 2364 00ee 1BB2     		sxth	r3, r3
 2365 00f0 1A46     		mov	r2, r3
 2366 00f2 0123     		movs	r3, #1
 2367 00f4 9340     		lsls	r3, r3, r2
 2368 00f6 DBB2     		uxtb	r3, r3
 2369 00f8 013B     		subs	r3, r3, #1
 2370 00fa 87F82B30 		strb	r3, [r7, #43]
 2371              	.L59:
 386:oled_driver.c ****             }
 387:oled_driver.c **** 
 388:oled_driver.c ****             if( ptr == pstart || ptr == pend ){
 2372              		.loc 2 388 0
 2373 00fe FA6A     		ldr	r2, [r7, #44]
 2374 0100 3B6A     		ldr	r3, [r7, #32]
 2375 0102 9A42     		cmp	r2, r3
 2376 0104 03D0     		beq	.L61
 2377              		.loc 2 388 0 is_stmt 0 discriminator 1
 2378 0106 FA6A     		ldr	r2, [r7, #44]
 2379 0108 FB69     		ldr	r3, [r7, #28]
 2380 010a 9A42     		cmp	r2, r3
 2381 010c 27D1     		bne	.L62
 2382              	.L61:
 389:oled_driver.c ****                 switch( color ){
 2383              		.loc 2 389 0 is_stmt 1
 2384 010e 3B8F     		ldrh	r3, [r7, #56]
 2385 0110 012B     		cmp	r3, #1
 2386 0112 04D0     		beq	.L64
 2387 0114 022B     		cmp	r3, #2
 2388 0116 18D0     		beq	.L65
 2389 0118 002B     		cmp	r3, #0
 2390 011a 09D0     		beq	.L66
 390:oled_driver.c ****                     case WHITE:     *ptr |= mask; break;
 391:oled_driver.c ****                     case BLACK:     *ptr &= ~mask; break;
 392:oled_driver.c ****                     case INVERSE:   *ptr ^= mask; break;
 393:oled_driver.c ****                 };  
 2391              		.loc 2 393 0
 2392 011c 36E0     		b	.L67
ARM GAS  C:\Users\49148\AppData\Local\Temp\ccVXiEAG.s 			page 61


 2393              	.L64:
 390:oled_driver.c ****                     case WHITE:     *ptr |= mask; break;
 2394              		.loc 2 390 0
 2395 011e FB6A     		ldr	r3, [r7, #44]
 2396 0120 1A78     		ldrb	r2, [r3]	@ zero_extendqisi2
 2397 0122 97F82B30 		ldrb	r3, [r7, #43]
 2398 0126 1343     		orrs	r3, r3, r2
 2399 0128 DAB2     		uxtb	r2, r3
 2400 012a FB6A     		ldr	r3, [r7, #44]
 2401 012c 1A70     		strb	r2, [r3]
 2402 012e 15E0     		b	.L63
 2403              	.L66:
 391:oled_driver.c ****                     case INVERSE:   *ptr ^= mask; break;
 2404              		.loc 2 391 0
 2405 0130 FB6A     		ldr	r3, [r7, #44]
 2406 0132 1B78     		ldrb	r3, [r3]	@ zero_extendqisi2
 2407 0134 5AB2     		sxtb	r2, r3
 2408 0136 97F92B30 		ldrsb	r3, [r7, #43]
 2409 013a DB43     		mvns	r3, r3
 2410 013c 5BB2     		sxtb	r3, r3
 2411 013e 1340     		ands	r3, r3, r2
 2412 0140 5BB2     		sxtb	r3, r3
 2413 0142 DAB2     		uxtb	r2, r3
 2414 0144 FB6A     		ldr	r3, [r7, #44]
 2415 0146 1A70     		strb	r2, [r3]
 2416 0148 08E0     		b	.L63
 2417              	.L65:
 392:oled_driver.c ****                 };  
 2418              		.loc 2 392 0
 2419 014a FB6A     		ldr	r3, [r7, #44]
 2420 014c 1A78     		ldrb	r2, [r3]	@ zero_extendqisi2
 2421 014e 97F82B30 		ldrb	r3, [r7, #43]
 2422 0152 5340     		eors	r3, r3, r2
 2423 0154 DAB2     		uxtb	r2, r3
 2424 0156 FB6A     		ldr	r3, [r7, #44]
 2425 0158 1A70     		strb	r2, [r3]
 2426 015a 00BF     		nop
 2427              	.L63:
 2428              		.loc 2 393 0
 2429 015c 16E0     		b	.L67
 2430              	.L62:
 394:oled_driver.c ****             }else{
 395:oled_driver.c ****                 switch( color ){
 2431              		.loc 2 395 0
 2432 015e 3B8F     		ldrh	r3, [r7, #56]
 2433 0160 012B     		cmp	r3, #1
 2434 0162 04D0     		beq	.L68
 2435 0164 022B     		cmp	r3, #2
 2436 0166 0AD0     		beq	.L69
 2437 0168 002B     		cmp	r3, #0
 2438 016a 04D0     		beq	.L70
 2439 016c 0EE0     		b	.L67
 2440              	.L68:
 396:oled_driver.c ****                     case WHITE:     *ptr = 0xff; break;
 2441              		.loc 2 396 0
 2442 016e FB6A     		ldr	r3, [r7, #44]
 2443 0170 FF22     		movs	r2, #255
ARM GAS  C:\Users\49148\AppData\Local\Temp\ccVXiEAG.s 			page 62


 2444 0172 1A70     		strb	r2, [r3]
 2445 0174 0AE0     		b	.L67
 2446              	.L70:
 397:oled_driver.c ****                     case BLACK:     *ptr = 0x00; break;
 2447              		.loc 2 397 0
 2448 0176 FB6A     		ldr	r3, [r7, #44]
 2449 0178 0022     		movs	r2, #0
 2450 017a 1A70     		strb	r2, [r3]
 2451 017c 06E0     		b	.L67
 2452              	.L69:
 398:oled_driver.c ****                     case INVERSE:   *ptr ^= 0xff; break;
 2453              		.loc 2 398 0
 2454 017e FB6A     		ldr	r3, [r7, #44]
 2455 0180 1B78     		ldrb	r3, [r3]	@ zero_extendqisi2
 2456 0182 DB43     		mvns	r3, r3
 2457 0184 DAB2     		uxtb	r2, r3
 2458 0186 FB6A     		ldr	r3, [r7, #44]
 2459 0188 1A70     		strb	r2, [r3]
 2460 018a 00BF     		nop
 2461              	.L67:
 399:oled_driver.c ****                 };  
 400:oled_driver.c ****             }
 401:oled_driver.c ****             
 402:oled_driver.c ****             ptr += DISPLAYWIDTH;
 2462              		.loc 2 402 0
 2463 018c FB6A     		ldr	r3, [r7, #44]
 2464 018e 4033     		adds	r3, r3, #64
 2465 0190 FB62     		str	r3, [r7, #44]
 2466              	.L55:
 2467              	.LBE7:
 371:oled_driver.c ****             
 2468              		.loc 2 371 0
 2469 0192 FA6A     		ldr	r2, [r7, #44]
 2470 0194 FB69     		ldr	r3, [r7, #28]
 2471 0196 9A42     		cmp	r2, r3
 2472 0198 7FF66BAF 		bls	.L71
 2473              	.LBE6:
 403:oled_driver.c ****         }
 404:oled_driver.c ****     }else{
 405:oled_driver.c ****         // horizontal
 406:oled_driver.c ****         uint8_t* pstart = GDDRAM_ADDRESS(x1,y1);
 407:oled_driver.c ****         uint8_t* pend = pstart + x2 - x1;
 408:oled_driver.c ****         uint8_t pixmask = GDDRAM_PIXMASK(y1);    
 409:oled_driver.c **** 
 410:oled_driver.c ****         uint8_t* ptr = pstart;
 411:oled_driver.c ****         while( ptr <= pend ){
 412:oled_driver.c ****             switch( color ){
 413:oled_driver.c ****                 case WHITE:     *ptr |= pixmask; break;
 414:oled_driver.c ****                 case BLACK:     *ptr &= ~pixmask; break;
 415:oled_driver.c ****                 case INVERSE:   *ptr ^= pixmask; break;
 416:oled_driver.c ****             };
 417:oled_driver.c ****             ptr++;
 418:oled_driver.c ****         }
 419:oled_driver.c ****     }
 420:oled_driver.c **** }
 2474              		.loc 2 420 0
 2475 019c 4DE0     		b	.L80
ARM GAS  C:\Users\49148\AppData\Local\Temp\ccVXiEAG.s 			page 63


 2476              	.L52:
 2477              	.LBB9:
 406:oled_driver.c ****         uint8_t* pend = pstart + x2 - x1;
 2478              		.loc 2 406 0
 2479 019e 294B     		ldr	r3, .L81
 2480 01a0 1A68     		ldr	r2, [r3]
 2481 01a2 B7F90430 		ldrsh	r3, [r7, #4]
 2482 01a6 002B     		cmp	r3, #0
 2483 01a8 00DA     		bge	.L73
 2484 01aa 0733     		adds	r3, r3, #7
 2485              	.L73:
 2486 01ac DB10     		asrs	r3, r3, #3
 2487 01ae 1BB2     		sxth	r3, r3
 2488 01b0 9B01     		lsls	r3, r3, #6
 2489 01b2 1946     		mov	r1, r3
 2490 01b4 B7F90630 		ldrsh	r3, [r7, #6]
 2491 01b8 0B44     		add	r3, r3, r1
 2492 01ba 1344     		add	r3, r3, r2
 2493 01bc 7B61     		str	r3, [r7, #20]
 407:oled_driver.c ****         uint8_t pixmask = GDDRAM_PIXMASK(y1);    
 2494              		.loc 2 407 0
 2495 01be B7F90220 		ldrsh	r2, [r7, #2]
 2496 01c2 B7F90630 		ldrsh	r3, [r7, #6]
 2497 01c6 D31A     		subs	r3, r2, r3
 2498 01c8 7A69     		ldr	r2, [r7, #20]
 2499 01ca 1344     		add	r3, r3, r2
 2500 01cc 3B61     		str	r3, [r7, #16]
 408:oled_driver.c **** 
 2501              		.loc 2 408 0
 2502 01ce BB88     		ldrh	r3, [r7, #4]
 2503 01d0 03F00703 		and	r3, r3, #7
 2504 01d4 0122     		movs	r2, #1
 2505 01d6 02FA03F3 		lsl	r3, r2, r3
 2506 01da FB73     		strb	r3, [r7, #15]
 410:oled_driver.c ****         while( ptr <= pend ){
 2507              		.loc 2 410 0
 2508 01dc 7B69     		ldr	r3, [r7, #20]
 2509 01de 7B62     		str	r3, [r7, #36]
 411:oled_driver.c ****             switch( color ){
 2510              		.loc 2 411 0
 2511 01e0 27E0     		b	.L74
 2512              	.L79:
 412:oled_driver.c ****                 case WHITE:     *ptr |= pixmask; break;
 2513              		.loc 2 412 0
 2514 01e2 3B8F     		ldrh	r3, [r7, #56]
 2515 01e4 012B     		cmp	r3, #1
 2516 01e6 04D0     		beq	.L76
 2517 01e8 022B     		cmp	r3, #2
 2518 01ea 17D0     		beq	.L77
 2519 01ec 002B     		cmp	r3, #0
 2520 01ee 08D0     		beq	.L78
 2521 01f0 1CE0     		b	.L75
 2522              	.L76:
 413:oled_driver.c ****                 case BLACK:     *ptr &= ~pixmask; break;
 2523              		.loc 2 413 0
 2524 01f2 7B6A     		ldr	r3, [r7, #36]
 2525 01f4 1A78     		ldrb	r2, [r3]	@ zero_extendqisi2
ARM GAS  C:\Users\49148\AppData\Local\Temp\ccVXiEAG.s 			page 64


 2526 01f6 FB7B     		ldrb	r3, [r7, #15]
 2527 01f8 1343     		orrs	r3, r3, r2
 2528 01fa DAB2     		uxtb	r2, r3
 2529 01fc 7B6A     		ldr	r3, [r7, #36]
 2530 01fe 1A70     		strb	r2, [r3]
 2531 0200 14E0     		b	.L75
 2532              	.L78:
 414:oled_driver.c ****                 case INVERSE:   *ptr ^= pixmask; break;
 2533              		.loc 2 414 0
 2534 0202 7B6A     		ldr	r3, [r7, #36]
 2535 0204 1B78     		ldrb	r3, [r3]	@ zero_extendqisi2
 2536 0206 5AB2     		sxtb	r2, r3
 2537 0208 97F90F30 		ldrsb	r3, [r7, #15]
 2538 020c DB43     		mvns	r3, r3
 2539 020e 5BB2     		sxtb	r3, r3
 2540 0210 1340     		ands	r3, r3, r2
 2541 0212 5BB2     		sxtb	r3, r3
 2542 0214 DAB2     		uxtb	r2, r3
 2543 0216 7B6A     		ldr	r3, [r7, #36]
 2544 0218 1A70     		strb	r2, [r3]
 2545 021a 07E0     		b	.L75
 2546              	.L77:
 415:oled_driver.c ****             };
 2547              		.loc 2 415 0
 2548 021c 7B6A     		ldr	r3, [r7, #36]
 2549 021e 1A78     		ldrb	r2, [r3]	@ zero_extendqisi2
 2550 0220 FB7B     		ldrb	r3, [r7, #15]
 2551 0222 5340     		eors	r3, r3, r2
 2552 0224 DAB2     		uxtb	r2, r3
 2553 0226 7B6A     		ldr	r3, [r7, #36]
 2554 0228 1A70     		strb	r2, [r3]
 2555 022a 00BF     		nop
 2556              	.L75:
 417:oled_driver.c ****         }
 2557              		.loc 2 417 0
 2558 022c 7B6A     		ldr	r3, [r7, #36]
 2559 022e 0133     		adds	r3, r3, #1
 2560 0230 7B62     		str	r3, [r7, #36]
 2561              	.L74:
 411:oled_driver.c ****             switch( color ){
 2562              		.loc 2 411 0
 2563 0232 7A6A     		ldr	r2, [r7, #36]
 2564 0234 3B69     		ldr	r3, [r7, #16]
 2565 0236 9A42     		cmp	r2, r3
 2566 0238 D3D9     		bls	.L79
 2567              	.L80:
 2568              	.LBE9:
 2569              		.loc 2 420 0
 2570 023a 00BF     		nop
 2571 023c 3037     		adds	r7, r7, #48
 2572              		.cfi_def_cfa_offset 8
 2573 023e BD46     		mov	sp, r7
 2574              		.cfi_def_cfa_register 13
 2575              		@ sp needed
 2576 0240 90BC     		pop	{r4, r7}
 2577              		.cfi_restore 7
 2578              		.cfi_restore 4
ARM GAS  C:\Users\49148\AppData\Local\Temp\ccVXiEAG.s 			page 65


 2579              		.cfi_def_cfa_offset 0
 2580 0242 7047     		bx	lr
 2581              	.L82:
 2582              		.align	2
 2583              	.L81:
 2584 0244 04040000 		.word	_displaybuf
 2585 0248 07000080 		.word	-2147483641
 2586              		.cfi_endproc
 2587              	.LFE634:
 2588              		.size	display_line, .-display_line
 2589              		.section	.rodata
 2590 0515 000000   		.align	2
 2591              	.LC1:
 2592 0518 1027     		.short	10000
 2593 051a E803     		.short	1000
 2594 051c 6400     		.short	100
 2595 051e 0A00     		.short	10
 2596 0520 0100     		.short	1
 2597              		.section	.text.display_usint2decascii,"ax",%progbits
 2598              		.align	2
 2599              		.global	display_usint2decascii
 2600              		.thumb
 2601              		.thumb_func
 2602              		.type	display_usint2decascii, %function
 2603              	display_usint2decascii:
 2604              	.LFB635:
 421:oled_driver.c **** 
 422:oled_driver.c **** /***************************************************************************
 423:oled_driver.c ****  * Function: display_usint2decascii    
 424:oled_driver.c ****  *
 425:oled_driver.c ****  * Description:  Convert a number to a string
 426:oled_driver.c ****  **************************************************************************/
 427:oled_driver.c **** uint8_t display_usint2decascii(uint16_t num, char* buffer)
 428:oled_driver.c **** {
 2605              		.loc 2 428 0
 2606              		.cfi_startproc
 2607              		@ args = 0, pretend = 0, frame = 24
 2608              		@ frame_needed = 1, uses_anonymous_args = 0
 2609              		@ link register save eliminated.
 2610 0000 80B4     		push	{r7}
 2611              		.cfi_def_cfa_offset 4
 2612              		.cfi_offset 7, -4
 2613 0002 87B0     		sub	sp, sp, #28
 2614              		.cfi_def_cfa_offset 32
 2615 0004 00AF     		add	r7, sp, #0
 2616              		.cfi_def_cfa_register 7
 2617 0006 0346     		mov	r3, r0
 2618 0008 3960     		str	r1, [r7]
 2619 000a FB80     		strh	r3, [r7, #6]	@ movhi
 429:oled_driver.c **** 	const unsigned short powers[] = { 10000u, 1000u, 100u, 10u, 1u }; // The "const unsigned short" co
 2620              		.loc 2 429 0
 2621 000c 244A     		ldr	r2, .L92
 2622 000e 07F10803 		add	r3, r7, #8
 2623 0012 1068     		ldr	r0, [r2]	@ unaligned
 2624 0014 5168     		ldr	r1, [r2, #4]	@ unaligned
 2625 0016 03C3     		stmia	r3!, {r0, r1}
 2626 0018 1289     		ldrh	r2, [r2, #8]	@ unaligned
ARM GAS  C:\Users\49148\AppData\Local\Temp\ccVXiEAG.s 			page 66


 2627 001a 1A80     		strh	r2, [r3]	@ unaligned
 430:oled_driver.c **** 	char digit; // "digit" is stored in a char array, so it should be of type char.
 431:oled_driver.c **** 	uint8_t digits = USINT2DECASCII_MAX_DIGITS - 1;
 2628              		.loc 2 431 0
 2629 001c 0423     		movs	r3, #4
 2630 001e BB75     		strb	r3, [r7, #22]
 2631              	.LBB10:
 432:oled_driver.c **** 	for (uint8_t pos = 0; pos < 5; pos++) // "pos" is index in array, so should be of type int.
 2632              		.loc 2 432 0
 2633 0020 0023     		movs	r3, #0
 2634 0022 7B75     		strb	r3, [r7, #21]
 2635 0024 31E0     		b	.L84
 2636              	.L90:
 433:oled_driver.c **** 	{
 434:oled_driver.c **** 		digit = 0;
 2637              		.loc 2 434 0
 2638 0026 0023     		movs	r3, #0
 2639 0028 FB75     		strb	r3, [r7, #23]
 435:oled_driver.c **** 		while (num >= powers[pos])
 2640              		.loc 2 435 0
 2641 002a 0CE0     		b	.L85
 2642              	.L86:
 436:oled_driver.c **** 		{
 437:oled_driver.c **** 			digit++;
 2643              		.loc 2 437 0
 2644 002c FB7D     		ldrb	r3, [r7, #23]	@ zero_extendqisi2
 2645 002e 0133     		adds	r3, r3, #1
 2646 0030 FB75     		strb	r3, [r7, #23]
 438:oled_driver.c **** 			num -= powers[pos];
 2647              		.loc 2 438 0
 2648 0032 7B7D     		ldrb	r3, [r7, #21]	@ zero_extendqisi2
 2649 0034 5B00     		lsls	r3, r3, #1
 2650 0036 07F11802 		add	r2, r7, #24
 2651 003a 1344     		add	r3, r3, r2
 2652 003c 33F8103C 		ldrh	r3, [r3, #-16]
 2653 0040 FA88     		ldrh	r2, [r7, #6]	@ movhi
 2654 0042 D31A     		subs	r3, r2, r3
 2655 0044 FB80     		strh	r3, [r7, #6]	@ movhi
 2656              	.L85:
 435:oled_driver.c **** 		while (num >= powers[pos])
 2657              		.loc 2 435 0
 2658 0046 7B7D     		ldrb	r3, [r7, #21]	@ zero_extendqisi2
 2659 0048 5B00     		lsls	r3, r3, #1
 2660 004a 07F11802 		add	r2, r7, #24
 2661 004e 1344     		add	r3, r3, r2
 2662 0050 33F8103C 		ldrh	r3, [r3, #-16]
 2663 0054 FA88     		ldrh	r2, [r7, #6]
 2664 0056 9A42     		cmp	r2, r3
 2665 0058 E8D2     		bcs	.L86
 439:oled_driver.c **** 		}
 440:oled_driver.c **** 
 441:oled_driver.c **** 		// ---- CHOOSE (1), (2) or (3) ----
 442:oled_driver.c **** 
 443:oled_driver.c **** 		// CHOICE (1) Fixed width, zero padded result.
 444:oled_driver.c **** 		/*
 445:oled_driver.c **** 		buffer[pos] = digit + '0';	// Convert to ASCII
 446:oled_driver.c **** 		*/
ARM GAS  C:\Users\49148\AppData\Local\Temp\ccVXiEAG.s 			page 67


 447:oled_driver.c **** 
 448:oled_driver.c **** 		// CHOICE (2) Fixed width, zero padded result, digits offset.
 449:oled_driver.c **** 		/*
 450:oled_driver.c **** 		buffer[pos] = digit + '0';	// Convert to ASCII
 451:oled_driver.c **** 		// Note: Determines the offset of the first significant digit.
 452:oled_driver.c **** 		if (digits == -1 && digit != 0) digits = pos;
 453:oled_driver.c **** 		// Note: Could be used for variable width, not padded, left aligned result.
 454:oled_driver.c **** 		*/
 455:oled_driver.c **** 
 456:oled_driver.c **** 		// CHOICE (3) Fixed width, space (or anything else) padded result, digits offset.
 457:oled_driver.c **** 		// Note: Determines the offset of the first significant digit.
 458:oled_driver.c **** 		// Note: Could be used for variable width, not padded, left aligned result.
 459:oled_driver.c **** 		if (digits == USINT2DECASCII_MAX_DIGITS - 1)
 2666              		.loc 2 459 0
 2667 005a BB7D     		ldrb	r3, [r7, #22]	@ zero_extendqisi2
 2668 005c 042B     		cmp	r3, #4
 2669 005e 0AD1     		bne	.L87
 460:oled_driver.c **** 		{
 461:oled_driver.c **** 			if (digit == 0)
 2670              		.loc 2 461 0
 2671 0060 FB7D     		ldrb	r3, [r7, #23]	@ zero_extendqisi2
 2672 0062 002B     		cmp	r3, #0
 2673 0064 05D1     		bne	.L88
 462:oled_driver.c **** 			{
 463:oled_driver.c **** 				if (pos < USINT2DECASCII_MAX_DIGITS - 1)	// Check position, so single "0" will be handled prope
 2674              		.loc 2 463 0
 2675 0066 7B7D     		ldrb	r3, [r7, #21]	@ zero_extendqisi2
 2676 0068 032B     		cmp	r3, #3
 2677 006a 04D8     		bhi	.L87
 464:oled_driver.c **** 					digit = -16;	// Use: "-16" for space (' '), "-3" for dash/minus ('-'), "0" for zero ('0'), etc
 2678              		.loc 2 464 0
 2679 006c F023     		movs	r3, #240
 2680 006e FB75     		strb	r3, [r7, #23]
 2681 0070 01E0     		b	.L87
 2682              	.L88:
 465:oled_driver.c **** 			}
 466:oled_driver.c **** 			else
 467:oled_driver.c **** 			{
 468:oled_driver.c **** 				digits = pos;
 2683              		.loc 2 468 0
 2684 0072 7B7D     		ldrb	r3, [r7, #21]
 2685 0074 BB75     		strb	r3, [r7, #22]
 2686              	.L87:
 469:oled_driver.c **** 			}
 470:oled_driver.c **** 		}
 471:oled_driver.c **** 		buffer[pos] = digit + '0';	// Convert to ASCII
 2687              		.loc 2 471 0 discriminator 2
 2688 0076 7B7D     		ldrb	r3, [r7, #21]	@ zero_extendqisi2
 2689 0078 3A68     		ldr	r2, [r7]
 2690 007a 1344     		add	r3, r3, r2
 2691 007c FA7D     		ldrb	r2, [r7, #23]
 2692 007e 3032     		adds	r2, r2, #48
 2693 0080 D2B2     		uxtb	r2, r2
 2694 0082 1A70     		strb	r2, [r3]
 432:oled_driver.c **** 	{
 2695              		.loc 2 432 0 discriminator 2
 2696 0084 7B7D     		ldrb	r3, [r7, #21]	@ zero_extendqisi2
ARM GAS  C:\Users\49148\AppData\Local\Temp\ccVXiEAG.s 			page 68


 2697 0086 0133     		adds	r3, r3, #1
 2698 0088 7B75     		strb	r3, [r7, #21]
 2699              	.L84:
 432:oled_driver.c **** 	{
 2700              		.loc 2 432 0 is_stmt 0 discriminator 1
 2701 008a 7B7D     		ldrb	r3, [r7, #21]	@ zero_extendqisi2
 2702 008c 042B     		cmp	r3, #4
 2703 008e CAD9     		bls	.L90
 2704              	.LBE10:
 472:oled_driver.c **** 		
 473:oled_driver.c **** 	}
 474:oled_driver.c **** 	
 475:oled_driver.c **** 	// NOTE: The resulting ascii text should not be terminated with '\0' here.
 476:oled_driver.c **** 	//       The provided buffer maybe part of a larger text in both directions.
 477:oled_driver.c **** 	
 478:oled_driver.c **** 	return digits;
 2705              		.loc 2 478 0 is_stmt 1
 2706 0090 BB7D     		ldrb	r3, [r7, #22]	@ zero_extendqisi2
 479:oled_driver.c **** }
 2707              		.loc 2 479 0
 2708 0092 1846     		mov	r0, r3
 2709 0094 1C37     		adds	r7, r7, #28
 2710              		.cfi_def_cfa_offset 4
 2711 0096 BD46     		mov	sp, r7
 2712              		.cfi_def_cfa_register 13
 2713              		@ sp needed
 2714 0098 5DF8047B 		ldr	r7, [sp], #4
 2715              		.cfi_restore 7
 2716              		.cfi_def_cfa_offset 0
 2717 009c 7047     		bx	lr
 2718              	.L93:
 2719 009e 00BF     		.align	2
 2720              	.L92:
 2721 00a0 18050000 		.word	.LC1
 2722              		.cfi_endproc
 2723              	.LFE635:
 2724              		.size	display_usint2decascii, .-display_usint2decascii
 2725              		.section	.text.gfx_init,"ax",%progbits
 2726              		.align	2
 2727              		.global	gfx_init
 2728              		.thumb
 2729              		.thumb_func
 2730              		.type	gfx_init, %function
 2731              	gfx_init:
 2732              	.LFB636:
 480:oled_driver.c **** 
 481:oled_driver.c **** /*=================================================================================================
 482:oled_driver.c ****  *                                      ADAFRUIT GFX LIBRARY
 483:oled_driver.c ****  *  ==============================================================================================*
 484:oled_driver.c **** 
 485:oled_driver.c **** /***************************************************************************
 486:oled_driver.c ****  * Function: gfx_init    
 487:oled_driver.c ****  *
 488:oled_driver.c ****  * Description:  Init graphic library variables
 489:oled_driver.c ****  **************************************************************************/
 490:oled_driver.c **** void gfx_init( int16_t width, int16_t height ){
 2733              		.loc 2 490 0
ARM GAS  C:\Users\49148\AppData\Local\Temp\ccVXiEAG.s 			page 69


 2734              		.cfi_startproc
 2735              		@ args = 0, pretend = 0, frame = 8
 2736              		@ frame_needed = 1, uses_anonymous_args = 0
 2737              		@ link register save eliminated.
 2738 0000 80B4     		push	{r7}
 2739              		.cfi_def_cfa_offset 4
 2740              		.cfi_offset 7, -4
 2741 0002 83B0     		sub	sp, sp, #12
 2742              		.cfi_def_cfa_offset 16
 2743 0004 00AF     		add	r7, sp, #0
 2744              		.cfi_def_cfa_register 7
 2745 0006 0346     		mov	r3, r0
 2746 0008 0A46     		mov	r2, r1
 2747 000a FB80     		strh	r3, [r7, #6]	@ movhi
 2748 000c 1346     		mov	r3, r2	@ movhi
 2749 000e BB80     		strh	r3, [r7, #4]	@ movhi
 491:oled_driver.c ****     WIDTH = width;
 2750              		.loc 2 491 0
 2751 0010 174A     		ldr	r2, .L95
 2752 0012 FB88     		ldrh	r3, [r7, #6]	@ movhi
 2753 0014 1380     		strh	r3, [r2]	@ movhi
 492:oled_driver.c ****     HEIGHT = height;
 2754              		.loc 2 492 0
 2755 0016 174A     		ldr	r2, .L95+4
 2756 0018 BB88     		ldrh	r3, [r7, #4]	@ movhi
 2757 001a 1380     		strh	r3, [r2]	@ movhi
 493:oled_driver.c ****     _width = WIDTH;
 2758              		.loc 2 493 0
 2759 001c 144B     		ldr	r3, .L95
 2760 001e B3F90020 		ldrsh	r2, [r3]
 2761 0022 154B     		ldr	r3, .L95+8
 2762 0024 1A80     		strh	r2, [r3]	@ movhi
 494:oled_driver.c ****     _height = HEIGHT;
 2763              		.loc 2 494 0
 2764 0026 134B     		ldr	r3, .L95+4
 2765 0028 B3F90020 		ldrsh	r2, [r3]
 2766 002c 134B     		ldr	r3, .L95+12
 2767 002e 1A80     		strh	r2, [r3]	@ movhi
 495:oled_driver.c ****     
 496:oled_driver.c ****     rotation = 0;
 2768              		.loc 2 496 0
 2769 0030 134B     		ldr	r3, .L95+16
 2770 0032 0022     		movs	r2, #0
 2771 0034 1A70     		strb	r2, [r3]
 497:oled_driver.c ****     cursor_y = cursor_x = 0;
 2772              		.loc 2 497 0
 2773 0036 134B     		ldr	r3, .L95+20
 2774 0038 0022     		movs	r2, #0
 2775 003a 1A80     		strh	r2, [r3]	@ movhi
 2776 003c 114B     		ldr	r3, .L95+20
 2777 003e B3F90020 		ldrsh	r2, [r3]
 2778 0042 114B     		ldr	r3, .L95+24
 2779 0044 1A80     		strh	r2, [r3]	@ movhi
 498:oled_driver.c ****     textsize = 1;
 2780              		.loc 2 498 0
 2781 0046 114B     		ldr	r3, .L95+28
 2782 0048 0122     		movs	r2, #1
ARM GAS  C:\Users\49148\AppData\Local\Temp\ccVXiEAG.s 			page 70


 2783 004a 1A70     		strb	r2, [r3]
 499:oled_driver.c ****     textcolor = textbgcolor = 0xFFFF;
 2784              		.loc 2 499 0
 2785 004c 104B     		ldr	r3, .L95+32
 2786 004e 4FF6FF72 		movw	r2, #65535
 2787 0052 1A80     		strh	r2, [r3]	@ movhi
 2788 0054 0E4B     		ldr	r3, .L95+32
 2789 0056 1A88     		ldrh	r2, [r3]
 2790 0058 0E4B     		ldr	r3, .L95+36
 2791 005a 1A80     		strh	r2, [r3]	@ movhi
 500:oled_driver.c ****     wrap = 1;
 2792              		.loc 2 500 0
 2793 005c 0E4B     		ldr	r3, .L95+40
 2794 005e 0122     		movs	r2, #1
 2795 0060 1A70     		strb	r2, [r3]
 501:oled_driver.c **** }
 2796              		.loc 2 501 0
 2797 0062 00BF     		nop
 2798 0064 0C37     		adds	r7, r7, #12
 2799              		.cfi_def_cfa_offset 4
 2800 0066 BD46     		mov	sp, r7
 2801              		.cfi_def_cfa_register 13
 2802              		@ sp needed
 2803 0068 5DF8047B 		ldr	r7, [sp], #4
 2804              		.cfi_restore 7
 2805              		.cfi_def_cfa_offset 0
 2806 006c 7047     		bx	lr
 2807              	.L96:
 2808 006e 00BF     		.align	2
 2809              	.L95:
 2810 0070 00000000 		.word	WIDTH
 2811 0074 00000000 		.word	HEIGHT
 2812 0078 00000000 		.word	_width
 2813 007c 02000000 		.word	_height
 2814 0080 00000000 		.word	rotation
 2815 0084 04000000 		.word	cursor_x
 2816 0088 06000000 		.word	cursor_y
 2817 008c 0C000000 		.word	textsize
 2818 0090 0A000000 		.word	textbgcolor
 2819 0094 08000000 		.word	textcolor
 2820 0098 00000000 		.word	wrap
 2821              		.cfi_endproc
 2822              	.LFE636:
 2823              		.size	gfx_init, .-gfx_init
 2824              		.section	.text.gfx_width,"ax",%progbits
 2825              		.align	2
 2826              		.global	gfx_width
 2827              		.thumb
 2828              		.thumb_func
 2829              		.type	gfx_width, %function
 2830              	gfx_width:
 2831              	.LFB637:
 502:oled_driver.c **** 
 503:oled_driver.c **** /***************************************************************************
 504:oled_driver.c ****  * Function: gfx_width    
 505:oled_driver.c ****  *
 506:oled_driver.c ****  * Description:  Get display width (per current rotation)
ARM GAS  C:\Users\49148\AppData\Local\Temp\ccVXiEAG.s 			page 71


 507:oled_driver.c ****  **************************************************************************/
 508:oled_driver.c **** int16_t gfx_width(void){
 2832              		.loc 2 508 0
 2833              		.cfi_startproc
 2834              		@ args = 0, pretend = 0, frame = 0
 2835              		@ frame_needed = 1, uses_anonymous_args = 0
 2836              		@ link register save eliminated.
 2837 0000 80B4     		push	{r7}
 2838              		.cfi_def_cfa_offset 4
 2839              		.cfi_offset 7, -4
 2840 0002 00AF     		add	r7, sp, #0
 2841              		.cfi_def_cfa_register 7
 509:oled_driver.c ****     return _width;
 2842              		.loc 2 509 0
 2843 0004 034B     		ldr	r3, .L99
 2844 0006 B3F90030 		ldrsh	r3, [r3]
 510:oled_driver.c **** }
 2845              		.loc 2 510 0
 2846 000a 1846     		mov	r0, r3
 2847 000c BD46     		mov	sp, r7
 2848              		.cfi_def_cfa_register 13
 2849              		@ sp needed
 2850 000e 5DF8047B 		ldr	r7, [sp], #4
 2851              		.cfi_restore 7
 2852              		.cfi_def_cfa_offset 0
 2853 0012 7047     		bx	lr
 2854              	.L100:
 2855              		.align	2
 2856              	.L99:
 2857 0014 00000000 		.word	_width
 2858              		.cfi_endproc
 2859              	.LFE637:
 2860              		.size	gfx_width, .-gfx_width
 2861              		.section	.text.gfx_height,"ax",%progbits
 2862              		.align	2
 2863              		.global	gfx_height
 2864              		.thumb
 2865              		.thumb_func
 2866              		.type	gfx_height, %function
 2867              	gfx_height:
 2868              	.LFB638:
 511:oled_driver.c **** 
 512:oled_driver.c **** /***************************************************************************
 513:oled_driver.c ****  * Function: gfx_height    
 514:oled_driver.c ****  *
 515:oled_driver.c ****  * Description:  Get display height (per current rotation)
 516:oled_driver.c ****  **************************************************************************/
 517:oled_driver.c **** int16_t gfx_height(void){
 2869              		.loc 2 517 0
 2870              		.cfi_startproc
 2871              		@ args = 0, pretend = 0, frame = 0
 2872              		@ frame_needed = 1, uses_anonymous_args = 0
 2873              		@ link register save eliminated.
 2874 0000 80B4     		push	{r7}
 2875              		.cfi_def_cfa_offset 4
 2876              		.cfi_offset 7, -4
 2877 0002 00AF     		add	r7, sp, #0
ARM GAS  C:\Users\49148\AppData\Local\Temp\ccVXiEAG.s 			page 72


 2878              		.cfi_def_cfa_register 7
 518:oled_driver.c ****     return _height;
 2879              		.loc 2 518 0
 2880 0004 034B     		ldr	r3, .L103
 2881 0006 B3F90030 		ldrsh	r3, [r3]
 519:oled_driver.c **** }
 2882              		.loc 2 519 0
 2883 000a 1846     		mov	r0, r3
 2884 000c BD46     		mov	sp, r7
 2885              		.cfi_def_cfa_register 13
 2886              		@ sp needed
 2887 000e 5DF8047B 		ldr	r7, [sp], #4
 2888              		.cfi_restore 7
 2889              		.cfi_def_cfa_offset 0
 2890 0012 7047     		bx	lr
 2891              	.L104:
 2892              		.align	2
 2893              	.L103:
 2894 0014 02000000 		.word	_height
 2895              		.cfi_endproc
 2896              	.LFE638:
 2897              		.size	gfx_height, .-gfx_height
 2898              		.section	.text.gfx_rotation,"ax",%progbits
 2899              		.align	2
 2900              		.global	gfx_rotation
 2901              		.thumb
 2902              		.thumb_func
 2903              		.type	gfx_rotation, %function
 2904              	gfx_rotation:
 2905              	.LFB639:
 520:oled_driver.c **** 
 521:oled_driver.c **** /***************************************************************************
 522:oled_driver.c ****  * Function: gfx_rotation    
 523:oled_driver.c ****  *
 524:oled_driver.c ****  * Description:  Get current rotation
 525:oled_driver.c ****  **************************************************************************/
 526:oled_driver.c **** uint8_t gfx_rotation(void){
 2906              		.loc 2 526 0
 2907              		.cfi_startproc
 2908              		@ args = 0, pretend = 0, frame = 0
 2909              		@ frame_needed = 1, uses_anonymous_args = 0
 2910              		@ link register save eliminated.
 2911 0000 80B4     		push	{r7}
 2912              		.cfi_def_cfa_offset 4
 2913              		.cfi_offset 7, -4
 2914 0002 00AF     		add	r7, sp, #0
 2915              		.cfi_def_cfa_register 7
 527:oled_driver.c ****     return rotation;
 2916              		.loc 2 527 0
 2917 0004 034B     		ldr	r3, .L107
 2918 0006 1B78     		ldrb	r3, [r3]	@ zero_extendqisi2
 528:oled_driver.c **** }
 2919              		.loc 2 528 0
 2920 0008 1846     		mov	r0, r3
 2921 000a BD46     		mov	sp, r7
 2922              		.cfi_def_cfa_register 13
 2923              		@ sp needed
ARM GAS  C:\Users\49148\AppData\Local\Temp\ccVXiEAG.s 			page 73


 2924 000c 5DF8047B 		ldr	r7, [sp], #4
 2925              		.cfi_restore 7
 2926              		.cfi_def_cfa_offset 0
 2927 0010 7047     		bx	lr
 2928              	.L108:
 2929 0012 00BF     		.align	2
 2930              	.L107:
 2931 0014 00000000 		.word	rotation
 2932              		.cfi_endproc
 2933              	.LFE639:
 2934              		.size	gfx_rotation, .-gfx_rotation
 2935              		.section	.text.gfx_setCursor,"ax",%progbits
 2936              		.align	2
 2937              		.global	gfx_setCursor
 2938              		.thumb
 2939              		.thumb_func
 2940              		.type	gfx_setCursor, %function
 2941              	gfx_setCursor:
 2942              	.LFB640:
 529:oled_driver.c **** 
 530:oled_driver.c **** /***************************************************************************
 531:oled_driver.c ****  * Function: gfx_setCursor    
 532:oled_driver.c ****  *
 533:oled_driver.c ****  * Description:  Set cursor position
 534:oled_driver.c ****  **************************************************************************/
 535:oled_driver.c **** void gfx_setCursor( int16_t x, int16_t y ){
 2943              		.loc 2 535 0
 2944              		.cfi_startproc
 2945              		@ args = 0, pretend = 0, frame = 8
 2946              		@ frame_needed = 1, uses_anonymous_args = 0
 2947              		@ link register save eliminated.
 2948 0000 80B4     		push	{r7}
 2949              		.cfi_def_cfa_offset 4
 2950              		.cfi_offset 7, -4
 2951 0002 83B0     		sub	sp, sp, #12
 2952              		.cfi_def_cfa_offset 16
 2953 0004 00AF     		add	r7, sp, #0
 2954              		.cfi_def_cfa_register 7
 2955 0006 0346     		mov	r3, r0
 2956 0008 0A46     		mov	r2, r1
 2957 000a FB80     		strh	r3, [r7, #6]	@ movhi
 2958 000c 1346     		mov	r3, r2	@ movhi
 2959 000e BB80     		strh	r3, [r7, #4]	@ movhi
 536:oled_driver.c ****     cursor_x = x;
 2960              		.loc 2 536 0
 2961 0010 054A     		ldr	r2, .L110
 2962 0012 FB88     		ldrh	r3, [r7, #6]	@ movhi
 2963 0014 1380     		strh	r3, [r2]	@ movhi
 537:oled_driver.c ****     cursor_y = y;
 2964              		.loc 2 537 0
 2965 0016 054A     		ldr	r2, .L110+4
 2966 0018 BB88     		ldrh	r3, [r7, #4]	@ movhi
 2967 001a 1380     		strh	r3, [r2]	@ movhi
 538:oled_driver.c **** }
 2968              		.loc 2 538 0
 2969 001c 00BF     		nop
 2970 001e 0C37     		adds	r7, r7, #12
ARM GAS  C:\Users\49148\AppData\Local\Temp\ccVXiEAG.s 			page 74


 2971              		.cfi_def_cfa_offset 4
 2972 0020 BD46     		mov	sp, r7
 2973              		.cfi_def_cfa_register 13
 2974              		@ sp needed
 2975 0022 5DF8047B 		ldr	r7, [sp], #4
 2976              		.cfi_restore 7
 2977              		.cfi_def_cfa_offset 0
 2978 0026 7047     		bx	lr
 2979              	.L111:
 2980              		.align	2
 2981              	.L110:
 2982 0028 04000000 		.word	cursor_x
 2983 002c 06000000 		.word	cursor_y
 2984              		.cfi_endproc
 2985              	.LFE640:
 2986              		.size	gfx_setCursor, .-gfx_setCursor
 2987              		.section	.text.gfx_setTextSize,"ax",%progbits
 2988              		.align	2
 2989              		.global	gfx_setTextSize
 2990              		.thumb
 2991              		.thumb_func
 2992              		.type	gfx_setTextSize, %function
 2993              	gfx_setTextSize:
 2994              	.LFB641:
 539:oled_driver.c **** 
 540:oled_driver.c **** /***************************************************************************
 541:oled_driver.c ****  * Function: gfx_setTextSize    
 542:oled_driver.c ****  *
 543:oled_driver.c ****  * Description:  Set text size
 544:oled_driver.c ****  **************************************************************************/
 545:oled_driver.c **** void gfx_setTextSize( uint8_t size ){
 2995              		.loc 2 545 0
 2996              		.cfi_startproc
 2997              		@ args = 0, pretend = 0, frame = 8
 2998              		@ frame_needed = 1, uses_anonymous_args = 0
 2999              		@ link register save eliminated.
 3000 0000 80B4     		push	{r7}
 3001              		.cfi_def_cfa_offset 4
 3002              		.cfi_offset 7, -4
 3003 0002 83B0     		sub	sp, sp, #12
 3004              		.cfi_def_cfa_offset 16
 3005 0004 00AF     		add	r7, sp, #0
 3006              		.cfi_def_cfa_register 7
 3007 0006 0346     		mov	r3, r0
 3008 0008 FB71     		strb	r3, [r7, #7]
 546:oled_driver.c ****     textsize = (size > 0) ? size : 1;
 3009              		.loc 2 546 0
 3010 000a FB79     		ldrb	r3, [r7, #7]	@ zero_extendqisi2
 3011 000c 002B     		cmp	r3, #0
 3012 000e 01D0     		beq	.L113
 3013              		.loc 2 546 0 is_stmt 0 discriminator 1
 3014 0010 FB79     		ldrb	r3, [r7, #7]	@ zero_extendqisi2
 3015 0012 00E0     		b	.L114
 3016              	.L113:
 3017              		.loc 2 546 0 discriminator 2
 3018 0014 0123     		movs	r3, #1
 3019              	.L114:
ARM GAS  C:\Users\49148\AppData\Local\Temp\ccVXiEAG.s 			page 75


 3020              		.loc 2 546 0 discriminator 4
 3021 0016 044A     		ldr	r2, .L115
 3022 0018 1370     		strb	r3, [r2]
 547:oled_driver.c **** }
 3023              		.loc 2 547 0 is_stmt 1 discriminator 4
 3024 001a 00BF     		nop
 3025 001c 0C37     		adds	r7, r7, #12
 3026              		.cfi_def_cfa_offset 4
 3027 001e BD46     		mov	sp, r7
 3028              		.cfi_def_cfa_register 13
 3029              		@ sp needed
 3030 0020 5DF8047B 		ldr	r7, [sp], #4
 3031              		.cfi_restore 7
 3032              		.cfi_def_cfa_offset 0
 3033 0024 7047     		bx	lr
 3034              	.L116:
 3035 0026 00BF     		.align	2
 3036              	.L115:
 3037 0028 0C000000 		.word	textsize
 3038              		.cfi_endproc
 3039              	.LFE641:
 3040              		.size	gfx_setTextSize, .-gfx_setTextSize
 3041              		.section	.text.gfx_setTextColor,"ax",%progbits
 3042              		.align	2
 3043              		.global	gfx_setTextColor
 3044              		.thumb
 3045              		.thumb_func
 3046              		.type	gfx_setTextColor, %function
 3047              	gfx_setTextColor:
 3048              	.LFB642:
 548:oled_driver.c **** 
 549:oled_driver.c **** /***************************************************************************
 550:oled_driver.c ****  * Function: gfx_setTextColor    
 551:oled_driver.c ****  *
 552:oled_driver.c ****  * Description:  Set text color
 553:oled_driver.c ****  **************************************************************************/
 554:oled_driver.c **** void gfx_setTextColor( uint16_t color ){
 3049              		.loc 2 554 0
 3050              		.cfi_startproc
 3051              		@ args = 0, pretend = 0, frame = 8
 3052              		@ frame_needed = 1, uses_anonymous_args = 0
 3053              		@ link register save eliminated.
 3054 0000 80B4     		push	{r7}
 3055              		.cfi_def_cfa_offset 4
 3056              		.cfi_offset 7, -4
 3057 0002 83B0     		sub	sp, sp, #12
 3058              		.cfi_def_cfa_offset 16
 3059 0004 00AF     		add	r7, sp, #0
 3060              		.cfi_def_cfa_register 7
 3061 0006 0346     		mov	r3, r0
 3062 0008 FB80     		strh	r3, [r7, #6]	@ movhi
 555:oled_driver.c ****     // For 'transparent' background, we'll set the bg
 556:oled_driver.c ****     // to the same as fg instead of using a flag
 557:oled_driver.c ****     textcolor = textbgcolor = color;
 3063              		.loc 2 557 0
 3064 000a 064A     		ldr	r2, .L118
 3065 000c FB88     		ldrh	r3, [r7, #6]	@ movhi
ARM GAS  C:\Users\49148\AppData\Local\Temp\ccVXiEAG.s 			page 76


 3066 000e 1380     		strh	r3, [r2]	@ movhi
 3067 0010 044B     		ldr	r3, .L118
 3068 0012 1A88     		ldrh	r2, [r3]
 3069 0014 044B     		ldr	r3, .L118+4
 3070 0016 1A80     		strh	r2, [r3]	@ movhi
 558:oled_driver.c **** }
 3071              		.loc 2 558 0
 3072 0018 00BF     		nop
 3073 001a 0C37     		adds	r7, r7, #12
 3074              		.cfi_def_cfa_offset 4
 3075 001c BD46     		mov	sp, r7
 3076              		.cfi_def_cfa_register 13
 3077              		@ sp needed
 3078 001e 5DF8047B 		ldr	r7, [sp], #4
 3079              		.cfi_restore 7
 3080              		.cfi_def_cfa_offset 0
 3081 0022 7047     		bx	lr
 3082              	.L119:
 3083              		.align	2
 3084              	.L118:
 3085 0024 0A000000 		.word	textbgcolor
 3086 0028 08000000 		.word	textcolor
 3087              		.cfi_endproc
 3088              	.LFE642:
 3089              		.size	gfx_setTextColor, .-gfx_setTextColor
 3090              		.section	.text.gfx_setTextBg,"ax",%progbits
 3091              		.align	2
 3092              		.global	gfx_setTextBg
 3093              		.thumb
 3094              		.thumb_func
 3095              		.type	gfx_setTextBg, %function
 3096              	gfx_setTextBg:
 3097              	.LFB643:
 559:oled_driver.c **** 
 560:oled_driver.c **** /***************************************************************************
 561:oled_driver.c ****  * Function: gfx_setTextBg    
 562:oled_driver.c ****  *
 563:oled_driver.c ****  * Description:  Set backgroung color
 564:oled_driver.c ****  **************************************************************************/
 565:oled_driver.c **** void gfx_setTextBg( uint16_t color ){
 3098              		.loc 2 565 0
 3099              		.cfi_startproc
 3100              		@ args = 0, pretend = 0, frame = 8
 3101              		@ frame_needed = 1, uses_anonymous_args = 0
 3102              		@ link register save eliminated.
 3103 0000 80B4     		push	{r7}
 3104              		.cfi_def_cfa_offset 4
 3105              		.cfi_offset 7, -4
 3106 0002 83B0     		sub	sp, sp, #12
 3107              		.cfi_def_cfa_offset 16
 3108 0004 00AF     		add	r7, sp, #0
 3109              		.cfi_def_cfa_register 7
 3110 0006 0346     		mov	r3, r0
 3111 0008 FB80     		strh	r3, [r7, #6]	@ movhi
 566:oled_driver.c ****     textbgcolor = color;
 3112              		.loc 2 566 0
 3113 000a 044A     		ldr	r2, .L121
ARM GAS  C:\Users\49148\AppData\Local\Temp\ccVXiEAG.s 			page 77


 3114 000c FB88     		ldrh	r3, [r7, #6]	@ movhi
 3115 000e 1380     		strh	r3, [r2]	@ movhi
 567:oled_driver.c **** }
 3116              		.loc 2 567 0
 3117 0010 00BF     		nop
 3118 0012 0C37     		adds	r7, r7, #12
 3119              		.cfi_def_cfa_offset 4
 3120 0014 BD46     		mov	sp, r7
 3121              		.cfi_def_cfa_register 13
 3122              		@ sp needed
 3123 0016 5DF8047B 		ldr	r7, [sp], #4
 3124              		.cfi_restore 7
 3125              		.cfi_def_cfa_offset 0
 3126 001a 7047     		bx	lr
 3127              	.L122:
 3128              		.align	2
 3129              	.L121:
 3130 001c 0A000000 		.word	textbgcolor
 3131              		.cfi_endproc
 3132              	.LFE643:
 3133              		.size	gfx_setTextBg, .-gfx_setTextBg
 3134              		.section	.text.gfx_setTextWrap,"ax",%progbits
 3135              		.align	2
 3136              		.global	gfx_setTextWrap
 3137              		.thumb
 3138              		.thumb_func
 3139              		.type	gfx_setTextWrap, %function
 3140              	gfx_setTextWrap:
 3141              	.LFB644:
 568:oled_driver.c **** 
 569:oled_driver.c **** /***************************************************************************
 570:oled_driver.c ****  * Function: gfx_setTextWrap    
 571:oled_driver.c ****  *
 572:oled_driver.c ****  * Description:  Set if text should be wraped or not
 573:oled_driver.c ****  **************************************************************************/
 574:oled_driver.c **** void gfx_setTextWrap( uint8 w ){
 3142              		.loc 2 574 0
 3143              		.cfi_startproc
 3144              		@ args = 0, pretend = 0, frame = 8
 3145              		@ frame_needed = 1, uses_anonymous_args = 0
 3146              		@ link register save eliminated.
 3147 0000 80B4     		push	{r7}
 3148              		.cfi_def_cfa_offset 4
 3149              		.cfi_offset 7, -4
 3150 0002 83B0     		sub	sp, sp, #12
 3151              		.cfi_def_cfa_offset 16
 3152 0004 00AF     		add	r7, sp, #0
 3153              		.cfi_def_cfa_register 7
 3154 0006 0346     		mov	r3, r0
 3155 0008 FB71     		strb	r3, [r7, #7]
 575:oled_driver.c ****     wrap = w;
 3156              		.loc 2 575 0
 3157 000a 044A     		ldr	r2, .L124
 3158 000c FB79     		ldrb	r3, [r7, #7]
 3159 000e 1370     		strb	r3, [r2]
 576:oled_driver.c **** }
 3160              		.loc 2 576 0
ARM GAS  C:\Users\49148\AppData\Local\Temp\ccVXiEAG.s 			page 78


 3161 0010 00BF     		nop
 3162 0012 0C37     		adds	r7, r7, #12
 3163              		.cfi_def_cfa_offset 4
 3164 0014 BD46     		mov	sp, r7
 3165              		.cfi_def_cfa_register 13
 3166              		@ sp needed
 3167 0016 5DF8047B 		ldr	r7, [sp], #4
 3168              		.cfi_restore 7
 3169              		.cfi_def_cfa_offset 0
 3170 001a 7047     		bx	lr
 3171              	.L125:
 3172              		.align	2
 3173              	.L124:
 3174 001c 00000000 		.word	wrap
 3175              		.cfi_endproc
 3176              	.LFE644:
 3177              		.size	gfx_setTextWrap, .-gfx_setTextWrap
 3178              		.section	.text.gfx_setRotation,"ax",%progbits
 3179              		.align	2
 3180              		.global	gfx_setRotation
 3181              		.thumb
 3182              		.thumb_func
 3183              		.type	gfx_setRotation, %function
 3184              	gfx_setRotation:
 3185              	.LFB645:
 577:oled_driver.c **** 
 578:oled_driver.c **** /***************************************************************************
 579:oled_driver.c ****  * Function: gfx_setRotation    
 580:oled_driver.c ****  *
 581:oled_driver.c ****  * Description:  Changes display rotation
 582:oled_driver.c ****  **************************************************************************/
 583:oled_driver.c **** void gfx_setRotation( uint8_t x ){
 3186              		.loc 2 583 0
 3187              		.cfi_startproc
 3188              		@ args = 0, pretend = 0, frame = 8
 3189              		@ frame_needed = 1, uses_anonymous_args = 0
 3190              		@ link register save eliminated.
 3191 0000 80B4     		push	{r7}
 3192              		.cfi_def_cfa_offset 4
 3193              		.cfi_offset 7, -4
 3194 0002 83B0     		sub	sp, sp, #12
 3195              		.cfi_def_cfa_offset 16
 3196 0004 00AF     		add	r7, sp, #0
 3197              		.cfi_def_cfa_register 7
 3198 0006 0346     		mov	r3, r0
 3199 0008 FB71     		strb	r3, [r7, #7]
 584:oled_driver.c ****     
 585:oled_driver.c ****     rotation = (x & 3);
 3200              		.loc 2 585 0
 3201 000a FB79     		ldrb	r3, [r7, #7]
 3202 000c 03F00303 		and	r3, r3, #3
 3203 0010 DAB2     		uxtb	r2, r3
 3204 0012 164B     		ldr	r3, .L132
 3205 0014 1A70     		strb	r2, [r3]
 586:oled_driver.c ****     switch( rotation ){
 3206              		.loc 2 586 0
 3207 0016 154B     		ldr	r3, .L132
ARM GAS  C:\Users\49148\AppData\Local\Temp\ccVXiEAG.s 			page 79


 3208 0018 1B78     		ldrb	r3, [r3]	@ zero_extendqisi2
 3209 001a 032B     		cmp	r3, #3
 3210 001c 20D8     		bhi	.L131
 3211 001e 01A2     		adr	r2, .L129
 3212 0020 52F823F0 		ldr	pc, [r2, r3, lsl #2]
 3213              		.p2align 2
 3214              	.L129:
 3215 0024 35000000 		.word	.L128+1
 3216 0028 4B000000 		.word	.L130+1
 3217 002c 35000000 		.word	.L128+1
 3218 0030 4B000000 		.word	.L130+1
 3219              		.p2align 1
 3220              	.L128:
 587:oled_driver.c ****         case 0:
 588:oled_driver.c ****         case 2:
 589:oled_driver.c ****             _width = WIDTH;
 3221              		.loc 2 589 0
 3222 0034 0E4B     		ldr	r3, .L132+4
 3223 0036 B3F90020 		ldrsh	r2, [r3]
 3224 003a 0E4B     		ldr	r3, .L132+8
 3225 003c 1A80     		strh	r2, [r3]	@ movhi
 590:oled_driver.c ****             _height = HEIGHT;
 3226              		.loc 2 590 0
 3227 003e 0E4B     		ldr	r3, .L132+12
 3228 0040 B3F90020 		ldrsh	r2, [r3]
 3229 0044 0D4B     		ldr	r3, .L132+16
 3230 0046 1A80     		strh	r2, [r3]	@ movhi
 591:oled_driver.c ****             break;
 3231              		.loc 2 591 0
 3232 0048 0AE0     		b	.L127
 3233              	.L130:
 592:oled_driver.c ****         case 1:
 593:oled_driver.c ****         case 3:
 594:oled_driver.c ****             _width = HEIGHT;
 3234              		.loc 2 594 0
 3235 004a 0B4B     		ldr	r3, .L132+12
 3236 004c B3F90020 		ldrsh	r2, [r3]
 3237 0050 084B     		ldr	r3, .L132+8
 3238 0052 1A80     		strh	r2, [r3]	@ movhi
 595:oled_driver.c ****             _height = WIDTH;
 3239              		.loc 2 595 0
 3240 0054 064B     		ldr	r3, .L132+4
 3241 0056 B3F90020 		ldrsh	r2, [r3]
 3242 005a 084B     		ldr	r3, .L132+16
 3243 005c 1A80     		strh	r2, [r3]	@ movhi
 596:oled_driver.c ****         break;
 3244              		.loc 2 596 0
 3245 005e 00BF     		nop
 3246              	.L127:
 3247              	.L131:
 597:oled_driver.c ****     }
 598:oled_driver.c **** }
 3248              		.loc 2 598 0
 3249 0060 00BF     		nop
 3250 0062 0C37     		adds	r7, r7, #12
 3251              		.cfi_def_cfa_offset 4
 3252 0064 BD46     		mov	sp, r7
ARM GAS  C:\Users\49148\AppData\Local\Temp\ccVXiEAG.s 			page 80


 3253              		.cfi_def_cfa_register 13
 3254              		@ sp needed
 3255 0066 5DF8047B 		ldr	r7, [sp], #4
 3256              		.cfi_restore 7
 3257              		.cfi_def_cfa_offset 0
 3258 006a 7047     		bx	lr
 3259              	.L133:
 3260              		.align	2
 3261              	.L132:
 3262 006c 00000000 		.word	rotation
 3263 0070 00000000 		.word	WIDTH
 3264 0074 00000000 		.word	_width
 3265 0078 00000000 		.word	HEIGHT
 3266 007c 02000000 		.word	_height
 3267              		.cfi_endproc
 3268              	.LFE645:
 3269              		.size	gfx_setRotation, .-gfx_setRotation
 3270              		.section	.text.gfx_rotation_adjust,"ax",%progbits
 3271              		.align	2
 3272              		.thumb
 3273              		.thumb_func
 3274              		.type	gfx_rotation_adjust, %function
 3275              	gfx_rotation_adjust:
 3276              	.LFB646:
 599:oled_driver.c **** 
 600:oled_driver.c **** /***************************************************************************
 601:oled_driver.c ****  * Function: gfx_rotation_adjust    
 602:oled_driver.c ****  *
 603:oled_driver.c ****  * Description:  Adjusts display rotation
 604:oled_driver.c ****  **************************************************************************/
 605:oled_driver.c **** static void gfx_rotation_adjust( int16_t* px, int16_t* py ){
 3277              		.loc 2 605 0
 3278              		.cfi_startproc
 3279              		@ args = 0, pretend = 0, frame = 16
 3280              		@ frame_needed = 1, uses_anonymous_args = 0
 3281              		@ link register save eliminated.
 3282 0000 80B4     		push	{r7}
 3283              		.cfi_def_cfa_offset 4
 3284              		.cfi_offset 7, -4
 3285 0002 85B0     		sub	sp, sp, #20
 3286              		.cfi_def_cfa_offset 24
 3287 0004 00AF     		add	r7, sp, #0
 3288              		.cfi_def_cfa_register 7
 3289 0006 7860     		str	r0, [r7, #4]
 3290 0008 3960     		str	r1, [r7]
 606:oled_driver.c **** 
 607:oled_driver.c ****     int16_t y0 = *py;
 3291              		.loc 2 607 0
 3292 000a 3B68     		ldr	r3, [r7]
 3293 000c 1B88     		ldrh	r3, [r3]	@ movhi
 3294 000e FB81     		strh	r3, [r7, #14]	@ movhi
 608:oled_driver.c ****     
 609:oled_driver.c ****     switch( rotation ){
 3295              		.loc 2 609 0
 3296 0010 294B     		ldr	r3, .L140
 3297 0012 1B78     		ldrb	r3, [r3]	@ zero_extendqisi2
 3298 0014 022B     		cmp	r3, #2
ARM GAS  C:\Users\49148\AppData\Local\Temp\ccVXiEAG.s 			page 81


 3299 0016 16D0     		beq	.L136
 3300 0018 032B     		cmp	r3, #3
 3301 001a 33D0     		beq	.L137
 3302 001c 012B     		cmp	r3, #1
 3303 001e 00D0     		beq	.L138
 610:oled_driver.c ****         case 1:
 611:oled_driver.c ****             *py = *px;
 612:oled_driver.c ****             *px = WIDTH - y0 - 1;
 613:oled_driver.c ****             break;
 614:oled_driver.c ****         case 2:
 615:oled_driver.c ****             *px = WIDTH - *px - 1;
 616:oled_driver.c ****             *py = HEIGHT - *py - 1;
 617:oled_driver.c ****             break;
 618:oled_driver.c ****         case 3:
 619:oled_driver.c ****             *py = HEIGHT - *px - 1;
 620:oled_driver.c ****             *px = y0;
 621:oled_driver.c ****             break;
 622:oled_driver.c ****     }
 623:oled_driver.c **** }
 3304              		.loc 2 623 0
 3305 0020 43E0     		b	.L139
 3306              	.L138:
 611:oled_driver.c ****             *px = WIDTH - y0 - 1;
 3307              		.loc 2 611 0
 3308 0022 7B68     		ldr	r3, [r7, #4]
 3309 0024 B3F90020 		ldrsh	r2, [r3]
 3310 0028 3B68     		ldr	r3, [r7]
 3311 002a 1A80     		strh	r2, [r3]	@ movhi
 612:oled_driver.c ****             break;
 3312              		.loc 2 612 0
 3313 002c 234B     		ldr	r3, .L140+4
 3314 002e B3F90030 		ldrsh	r3, [r3]
 3315 0032 9AB2     		uxth	r2, r3
 3316 0034 FB89     		ldrh	r3, [r7, #14]
 3317 0036 D31A     		subs	r3, r2, r3
 3318 0038 9BB2     		uxth	r3, r3
 3319 003a 013B     		subs	r3, r3, #1
 3320 003c 9BB2     		uxth	r3, r3
 3321 003e 1AB2     		sxth	r2, r3
 3322 0040 7B68     		ldr	r3, [r7, #4]
 3323 0042 1A80     		strh	r2, [r3]	@ movhi
 613:oled_driver.c ****         case 2:
 3324              		.loc 2 613 0
 3325 0044 31E0     		b	.L135
 3326              	.L136:
 615:oled_driver.c ****             *py = HEIGHT - *py - 1;
 3327              		.loc 2 615 0
 3328 0046 1D4B     		ldr	r3, .L140+4
 3329 0048 B3F90030 		ldrsh	r3, [r3]
 3330 004c 9AB2     		uxth	r2, r3
 3331 004e 7B68     		ldr	r3, [r7, #4]
 3332 0050 B3F90030 		ldrsh	r3, [r3]
 3333 0054 9BB2     		uxth	r3, r3
 3334 0056 D31A     		subs	r3, r2, r3
 3335 0058 9BB2     		uxth	r3, r3
 3336 005a 013B     		subs	r3, r3, #1
 3337 005c 9BB2     		uxth	r3, r3
ARM GAS  C:\Users\49148\AppData\Local\Temp\ccVXiEAG.s 			page 82


 3338 005e 1AB2     		sxth	r2, r3
 3339 0060 7B68     		ldr	r3, [r7, #4]
 3340 0062 1A80     		strh	r2, [r3]	@ movhi
 616:oled_driver.c ****             break;
 3341              		.loc 2 616 0
 3342 0064 164B     		ldr	r3, .L140+8
 3343 0066 B3F90030 		ldrsh	r3, [r3]
 3344 006a 9AB2     		uxth	r2, r3
 3345 006c 3B68     		ldr	r3, [r7]
 3346 006e B3F90030 		ldrsh	r3, [r3]
 3347 0072 9BB2     		uxth	r3, r3
 3348 0074 D31A     		subs	r3, r2, r3
 3349 0076 9BB2     		uxth	r3, r3
 3350 0078 013B     		subs	r3, r3, #1
 3351 007a 9BB2     		uxth	r3, r3
 3352 007c 1AB2     		sxth	r2, r3
 3353 007e 3B68     		ldr	r3, [r7]
 3354 0080 1A80     		strh	r2, [r3]	@ movhi
 617:oled_driver.c ****         case 3:
 3355              		.loc 2 617 0
 3356 0082 12E0     		b	.L135
 3357              	.L137:
 619:oled_driver.c ****             *px = y0;
 3358              		.loc 2 619 0
 3359 0084 0E4B     		ldr	r3, .L140+8
 3360 0086 B3F90030 		ldrsh	r3, [r3]
 3361 008a 9AB2     		uxth	r2, r3
 3362 008c 7B68     		ldr	r3, [r7, #4]
 3363 008e B3F90030 		ldrsh	r3, [r3]
 3364 0092 9BB2     		uxth	r3, r3
 3365 0094 D31A     		subs	r3, r2, r3
 3366 0096 9BB2     		uxth	r3, r3
 3367 0098 013B     		subs	r3, r3, #1
 3368 009a 9BB2     		uxth	r3, r3
 3369 009c 1AB2     		sxth	r2, r3
 3370 009e 3B68     		ldr	r3, [r7]
 3371 00a0 1A80     		strh	r2, [r3]	@ movhi
 620:oled_driver.c ****             break;
 3372              		.loc 2 620 0
 3373 00a2 7B68     		ldr	r3, [r7, #4]
 3374 00a4 FA89     		ldrh	r2, [r7, #14]	@ movhi
 3375 00a6 1A80     		strh	r2, [r3]	@ movhi
 621:oled_driver.c ****     }
 3376              		.loc 2 621 0
 3377 00a8 00BF     		nop
 3378              	.L135:
 3379              	.L139:
 3380              		.loc 2 623 0
 3381 00aa 00BF     		nop
 3382 00ac 1437     		adds	r7, r7, #20
 3383              		.cfi_def_cfa_offset 4
 3384 00ae BD46     		mov	sp, r7
 3385              		.cfi_def_cfa_register 13
 3386              		@ sp needed
 3387 00b0 5DF8047B 		ldr	r7, [sp], #4
 3388              		.cfi_restore 7
 3389              		.cfi_def_cfa_offset 0
ARM GAS  C:\Users\49148\AppData\Local\Temp\ccVXiEAG.s 			page 83


 3390 00b4 7047     		bx	lr
 3391              	.L141:
 3392 00b6 00BF     		.align	2
 3393              	.L140:
 3394 00b8 00000000 		.word	rotation
 3395 00bc 00000000 		.word	WIDTH
 3396 00c0 00000000 		.word	HEIGHT
 3397              		.cfi_endproc
 3398              	.LFE646:
 3399              		.size	gfx_rotation_adjust, .-gfx_rotation_adjust
 3400              		.section	.text.gfx_drawPixel,"ax",%progbits
 3401              		.align	2
 3402              		.global	gfx_drawPixel
 3403              		.thumb
 3404              		.thumb_func
 3405              		.type	gfx_drawPixel, %function
 3406              	gfx_drawPixel:
 3407              	.LFB647:
 624:oled_driver.c **** 
 625:oled_driver.c **** /***************************************************************************
 626:oled_driver.c ****  * Function: gfx_drawPixel    
 627:oled_driver.c ****  *
 628:oled_driver.c ****  * Description:  Draws a pixel at a specific X,Y position
 629:oled_driver.c ****  **************************************************************************/
 630:oled_driver.c **** void gfx_drawPixel( int16_t x, int16_t y, uint16_t color ){
 3408              		.loc 2 630 0
 3409              		.cfi_startproc
 3410              		@ args = 0, pretend = 0, frame = 8
 3411              		@ frame_needed = 1, uses_anonymous_args = 0
 3412 0000 80B5     		push	{r7, lr}
 3413              		.cfi_def_cfa_offset 8
 3414              		.cfi_offset 7, -8
 3415              		.cfi_offset 14, -4
 3416 0002 82B0     		sub	sp, sp, #8
 3417              		.cfi_def_cfa_offset 16
 3418 0004 00AF     		add	r7, sp, #0
 3419              		.cfi_def_cfa_register 7
 3420 0006 0346     		mov	r3, r0
 3421 0008 FB80     		strh	r3, [r7, #6]	@ movhi
 3422 000a 0B46     		mov	r3, r1	@ movhi
 3423 000c BB80     		strh	r3, [r7, #4]	@ movhi
 3424 000e 1346     		mov	r3, r2	@ movhi
 3425 0010 7B80     		strh	r3, [r7, #2]	@ movhi
 631:oled_driver.c ****     
 632:oled_driver.c ****     if( (x < 0) || (x >= _width) || (y < 0) || (y >= _height) )
 3426              		.loc 2 632 0
 3427 0012 B7F90630 		ldrsh	r3, [r7, #6]
 3428 0016 002B     		cmp	r3, #0
 3429 0018 20DB     		blt	.L146
 3430              		.loc 2 632 0 is_stmt 0 discriminator 1
 3431 001a B7F90620 		ldrsh	r2, [r7, #6]
 3432 001e 114B     		ldr	r3, .L147
 3433 0020 B3F90030 		ldrsh	r3, [r3]
 3434 0024 9A42     		cmp	r2, r3
 3435 0026 19DA     		bge	.L146
 3436              		.loc 2 632 0 discriminator 2
 3437 0028 B7F90430 		ldrsh	r3, [r7, #4]
ARM GAS  C:\Users\49148\AppData\Local\Temp\ccVXiEAG.s 			page 84


 3438 002c 002B     		cmp	r3, #0
 3439 002e 15DB     		blt	.L146
 3440              		.loc 2 632 0 discriminator 3
 3441 0030 B7F90420 		ldrsh	r2, [r7, #4]
 3442 0034 0C4B     		ldr	r3, .L147+4
 3443 0036 B3F90030 		ldrsh	r3, [r3]
 3444 003a 9A42     		cmp	r2, r3
 3445 003c 0EDA     		bge	.L146
 633:oled_driver.c ****         return;
 634:oled_driver.c ****     
 635:oled_driver.c ****     gfx_rotation_adjust( &x, &y );
 3446              		.loc 2 635 0 is_stmt 1
 3447 003e 3A1D     		adds	r2, r7, #4
 3448 0040 BB1D     		adds	r3, r7, #6
 3449 0042 1146     		mov	r1, r2
 3450 0044 1846     		mov	r0, r3
 3451 0046 FFF7FEFF 		bl	gfx_rotation_adjust
 636:oled_driver.c **** 
 637:oled_driver.c ****     display_setPixel(x,y,color);
 3452              		.loc 2 637 0
 3453 004a B7F90630 		ldrsh	r3, [r7, #6]
 3454 004e B7F90410 		ldrsh	r1, [r7, #4]
 3455 0052 7A88     		ldrh	r2, [r7, #2]
 3456 0054 1846     		mov	r0, r3
 3457 0056 FFF7FEFF 		bl	display_setPixel
 3458 005a 00E0     		b	.L142
 3459              	.L146:
 633:oled_driver.c ****         return;
 3460              		.loc 2 633 0
 3461 005c 00BF     		nop
 3462              	.L142:
 638:oled_driver.c **** }
 3463              		.loc 2 638 0
 3464 005e 0837     		adds	r7, r7, #8
 3465              		.cfi_def_cfa_offset 8
 3466 0060 BD46     		mov	sp, r7
 3467              		.cfi_def_cfa_register 13
 3468              		@ sp needed
 3469 0062 80BD     		pop	{r7, pc}
 3470              	.L148:
 3471              		.align	2
 3472              	.L147:
 3473 0064 00000000 		.word	_width
 3474 0068 02000000 		.word	_height
 3475              		.cfi_endproc
 3476              	.LFE647:
 3477              		.size	gfx_drawPixel, .-gfx_drawPixel
 3478              		.section	.text.gfx_hvLine,"ax",%progbits
 3479              		.align	2
 3480              		.thumb
 3481              		.thumb_func
 3482              		.type	gfx_hvLine, %function
 3483              	gfx_hvLine:
 3484              	.LFB648:
 639:oled_driver.c **** 
 640:oled_driver.c **** /***************************************************************************
 641:oled_driver.c ****  * Function: gfx_hvLine    
ARM GAS  C:\Users\49148\AppData\Local\Temp\ccVXiEAG.s 			page 85


 642:oled_driver.c ****  *
 643:oled_driver.c ****  * Description:  Helper function for gfx_drawLine, handles special cases of 
 644:oled_driver.c ****  *               horizontal and vertical lines
 645:oled_driver.c ****  **************************************************************************/
 646:oled_driver.c **** static void gfx_hvLine( int16_t x1, int16_t y1, int16_t x2, int16_t y2, uint16_t color ){
 3485              		.loc 2 646 0
 3486              		.cfi_startproc
 3487              		@ args = 4, pretend = 0, frame = 16
 3488              		@ frame_needed = 1, uses_anonymous_args = 0
 3489 0000 90B5     		push	{r4, r7, lr}
 3490              		.cfi_def_cfa_offset 12
 3491              		.cfi_offset 4, -12
 3492              		.cfi_offset 7, -8
 3493              		.cfi_offset 14, -4
 3494 0002 87B0     		sub	sp, sp, #28
 3495              		.cfi_def_cfa_offset 40
 3496 0004 02AF     		add	r7, sp, #8
 3497              		.cfi_def_cfa 7, 32
 3498 0006 0446     		mov	r4, r0
 3499 0008 0846     		mov	r0, r1
 3500 000a 1146     		mov	r1, r2
 3501 000c 1A46     		mov	r2, r3
 3502 000e 2346     		mov	r3, r4	@ movhi
 3503 0010 FB80     		strh	r3, [r7, #6]	@ movhi
 3504 0012 0346     		mov	r3, r0	@ movhi
 3505 0014 BB80     		strh	r3, [r7, #4]	@ movhi
 3506 0016 0B46     		mov	r3, r1	@ movhi
 3507 0018 7B80     		strh	r3, [r7, #2]	@ movhi
 3508 001a 1346     		mov	r3, r2	@ movhi
 3509 001c 3B80     		strh	r3, [r7]	@ movhi
 647:oled_driver.c ****     
 648:oled_driver.c ****     if( x1 != x2 && y1 != y2 ){
 3510              		.loc 2 648 0
 3511 001e B7F90620 		ldrsh	r2, [r7, #6]
 3512 0022 B7F90230 		ldrsh	r3, [r7, #2]
 3513 0026 9A42     		cmp	r2, r3
 3514 0028 06D0     		beq	.L150
 3515              		.loc 2 648 0 is_stmt 0 discriminator 1
 3516 002a B7F90420 		ldrsh	r2, [r7, #4]
 3517 002e B7F90030 		ldrsh	r3, [r7]
 3518 0032 9A42     		cmp	r2, r3
 3519 0034 40F0A880 		bne	.L165
 3520              	.L150:
 649:oled_driver.c ****         // neither vertical nor horizontal
 650:oled_driver.c ****         return;
 651:oled_driver.c ****     }    
 652:oled_driver.c ****     
 653:oled_driver.c ****     // bounds check
 654:oled_driver.c ****     if( rotation == 1 || rotation == 3 ){
 3521              		.loc 2 654 0 is_stmt 1
 3522 0038 594B     		ldr	r3, .L171
 3523 003a 1B78     		ldrb	r3, [r3]	@ zero_extendqisi2
 3524 003c 012B     		cmp	r3, #1
 3525 003e 03D0     		beq	.L152
 3526              		.loc 2 654 0 is_stmt 0 discriminator 1
 3527 0040 574B     		ldr	r3, .L171
 3528 0042 1B78     		ldrb	r3, [r3]	@ zero_extendqisi2
ARM GAS  C:\Users\49148\AppData\Local\Temp\ccVXiEAG.s 			page 86


 3529 0044 032B     		cmp	r3, #3
 3530 0046 31D1     		bne	.L153
 3531              	.L152:
 655:oled_driver.c ****         if( x1 < 0 || x1 >= HEIGHT || x2 < 0 || x2 >= HEIGHT )
 3532              		.loc 2 655 0 is_stmt 1
 3533 0048 B7F90630 		ldrsh	r3, [r7, #6]
 3534 004c 002B     		cmp	r3, #0
 3535 004e C0F29D80 		blt	.L166
 3536              		.loc 2 655 0 is_stmt 0 discriminator 1
 3537 0052 B7F90620 		ldrsh	r2, [r7, #6]
 3538 0056 534B     		ldr	r3, .L171+4
 3539 0058 B3F90030 		ldrsh	r3, [r3]
 3540 005c 9A42     		cmp	r2, r3
 3541 005e 80F29580 		bge	.L166
 3542              		.loc 2 655 0 discriminator 2
 3543 0062 B7F90230 		ldrsh	r3, [r7, #2]
 3544 0066 002B     		cmp	r3, #0
 3545 0068 C0F29080 		blt	.L166
 3546              		.loc 2 655 0 discriminator 3
 3547 006c B7F90220 		ldrsh	r2, [r7, #2]
 3548 0070 4C4B     		ldr	r3, .L171+4
 3549 0072 B3F90030 		ldrsh	r3, [r3]
 3550 0076 9A42     		cmp	r2, r3
 3551 0078 80F28880 		bge	.L166
 656:oled_driver.c ****             return;
 657:oled_driver.c ****         if( y1 < 0 || y1 >= WIDTH || y2 < 0 || y2 >= WIDTH )
 3552              		.loc 2 657 0 is_stmt 1
 3553 007c B7F90430 		ldrsh	r3, [r7, #4]
 3554 0080 002B     		cmp	r3, #0
 3555 0082 C0F28580 		blt	.L167
 3556              		.loc 2 657 0 is_stmt 0 discriminator 1
 3557 0086 B7F90420 		ldrsh	r2, [r7, #4]
 3558 008a 474B     		ldr	r3, .L171+8
 3559 008c B3F90030 		ldrsh	r3, [r3]
 3560 0090 9A42     		cmp	r2, r3
 3561 0092 7DDA     		bge	.L167
 3562              		.loc 2 657 0 discriminator 2
 3563 0094 B7F90030 		ldrsh	r3, [r7]
 3564 0098 002B     		cmp	r3, #0
 3565 009a 79DB     		blt	.L167
 3566              		.loc 2 657 0 discriminator 3
 3567 009c B7F90020 		ldrsh	r2, [r7]
 3568 00a0 414B     		ldr	r3, .L171+8
 3569 00a2 B3F90030 		ldrsh	r3, [r3]
 3570 00a6 9A42     		cmp	r2, r3
 3571 00a8 2DDB     		blt	.L168
 658:oled_driver.c ****             return;
 3572              		.loc 2 658 0 is_stmt 1
 3573 00aa 71E0     		b	.L167
 3574              	.L153:
 659:oled_driver.c ****     }else{
 660:oled_driver.c ****         if( y1 < 0 || y1 >= HEIGHT || y2 < 0 || y2 >= HEIGHT )
 3575              		.loc 2 660 0
 3576 00ac B7F90430 		ldrsh	r3, [r7, #4]
 3577 00b0 002B     		cmp	r3, #0
 3578 00b2 6FDB     		blt	.L169
 3579              		.loc 2 660 0 is_stmt 0 discriminator 1
ARM GAS  C:\Users\49148\AppData\Local\Temp\ccVXiEAG.s 			page 87


 3580 00b4 B7F90420 		ldrsh	r2, [r7, #4]
 3581 00b8 3A4B     		ldr	r3, .L171+4
 3582 00ba B3F90030 		ldrsh	r3, [r3]
 3583 00be 9A42     		cmp	r2, r3
 3584 00c0 68DA     		bge	.L169
 3585              		.loc 2 660 0 discriminator 2
 3586 00c2 B7F90030 		ldrsh	r3, [r7]
 3587 00c6 002B     		cmp	r3, #0
 3588 00c8 64DB     		blt	.L169
 3589              		.loc 2 660 0 discriminator 3
 3590 00ca B7F90020 		ldrsh	r2, [r7]
 3591 00ce 354B     		ldr	r3, .L171+4
 3592 00d0 B3F90030 		ldrsh	r3, [r3]
 3593 00d4 9A42     		cmp	r2, r3
 3594 00d6 5DDA     		bge	.L169
 661:oled_driver.c ****             return;
 662:oled_driver.c ****         if( x1 < 0 || x1 >= WIDTH || x2 < 0 || x2 >= WIDTH )
 3595              		.loc 2 662 0 is_stmt 1
 3596 00d8 B7F90630 		ldrsh	r3, [r7, #6]
 3597 00dc 002B     		cmp	r3, #0
 3598 00de 5BDB     		blt	.L170
 3599              		.loc 2 662 0 is_stmt 0 discriminator 1
 3600 00e0 B7F90620 		ldrsh	r2, [r7, #6]
 3601 00e4 304B     		ldr	r3, .L171+8
 3602 00e6 B3F90030 		ldrsh	r3, [r3]
 3603 00ea 9A42     		cmp	r2, r3
 3604 00ec 54DA     		bge	.L170
 3605              		.loc 2 662 0 discriminator 2
 3606 00ee B7F90230 		ldrsh	r3, [r7, #2]
 3607 00f2 002B     		cmp	r3, #0
 3608 00f4 50DB     		blt	.L170
 3609              		.loc 2 662 0 discriminator 3
 3610 00f6 B7F90220 		ldrsh	r2, [r7, #2]
 3611 00fa 2B4B     		ldr	r3, .L171+8
 3612 00fc B3F90030 		ldrsh	r3, [r3]
 3613 0100 9A42     		cmp	r2, r3
 3614 0102 49DA     		bge	.L170
 3615 0104 00E0     		b	.L158
 3616              	.L168:
 657:oled_driver.c ****             return;
 3617              		.loc 2 657 0 is_stmt 1
 3618 0106 00BF     		nop
 3619              	.L158:
 663:oled_driver.c ****             return;
 664:oled_driver.c ****     }
 665:oled_driver.c ****     
 666:oled_driver.c ****     gfx_rotation_adjust( &x1, &y1 );
 3620              		.loc 2 666 0
 3621 0108 3A1D     		adds	r2, r7, #4
 3622 010a BB1D     		adds	r3, r7, #6
 3623 010c 1146     		mov	r1, r2
 3624 010e 1846     		mov	r0, r3
 3625 0110 FFF7FEFF 		bl	gfx_rotation_adjust
 667:oled_driver.c ****     gfx_rotation_adjust( &x2, &y2 );
 3626              		.loc 2 667 0
 3627 0114 3A46     		mov	r2, r7
 3628 0116 BB1C     		adds	r3, r7, #2
ARM GAS  C:\Users\49148\AppData\Local\Temp\ccVXiEAG.s 			page 88


 3629 0118 1146     		mov	r1, r2
 3630 011a 1846     		mov	r0, r3
 3631 011c FFF7FEFF 		bl	gfx_rotation_adjust
 668:oled_driver.c ****     
 669:oled_driver.c ****     // ensure coords are from left to right and top to bottom
 670:oled_driver.c ****     if( (x1 == x2 && y2 < y1) || (y1 == y2 && x2 < x1) ){
 3632              		.loc 2 670 0
 3633 0120 B7F90620 		ldrsh	r2, [r7, #6]
 3634 0124 B7F90230 		ldrsh	r3, [r7, #2]
 3635 0128 9A42     		cmp	r2, r3
 3636 012a 05D1     		bne	.L162
 3637              		.loc 2 670 0 is_stmt 0 discriminator 1
 3638 012c B7F90020 		ldrsh	r2, [r7]
 3639 0130 B7F90430 		ldrsh	r3, [r7, #4]
 3640 0134 9A42     		cmp	r2, r3
 3641 0136 0BDB     		blt	.L163
 3642              	.L162:
 3643              		.loc 2 670 0 discriminator 3
 3644 0138 B7F90420 		ldrsh	r2, [r7, #4]
 3645 013c B7F90030 		ldrsh	r3, [r7]
 3646 0140 9A42     		cmp	r2, r3
 3647 0142 13D1     		bne	.L164
 3648              		.loc 2 670 0 discriminator 4
 3649 0144 B7F90220 		ldrsh	r2, [r7, #2]
 3650 0148 B7F90630 		ldrsh	r3, [r7, #6]
 3651 014c 9A42     		cmp	r2, r3
 3652 014e 0DDA     		bge	.L164
 3653              	.L163:
 3654              	.LBB11:
 671:oled_driver.c ****         // swap as needed
 672:oled_driver.c ****         int16_t t = x1; x1 = x2; x2 = t;
 3655              		.loc 2 672 0 is_stmt 1
 3656 0150 FB88     		ldrh	r3, [r7, #6]	@ movhi
 3657 0152 FB81     		strh	r3, [r7, #14]	@ movhi
 3658 0154 B7F90230 		ldrsh	r3, [r7, #2]
 3659 0158 FB80     		strh	r3, [r7, #6]	@ movhi
 3660 015a FB89     		ldrh	r3, [r7, #14]	@ movhi
 3661 015c 7B80     		strh	r3, [r7, #2]	@ movhi
 673:oled_driver.c ****         t = y1; y1 = y2; y2 = t;
 3662              		.loc 2 673 0
 3663 015e BB88     		ldrh	r3, [r7, #4]	@ movhi
 3664 0160 FB81     		strh	r3, [r7, #14]	@ movhi
 3665 0162 B7F90030 		ldrsh	r3, [r7]
 3666 0166 BB80     		strh	r3, [r7, #4]	@ movhi
 3667 0168 FB89     		ldrh	r3, [r7, #14]	@ movhi
 3668 016a 3B80     		strh	r3, [r7]	@ movhi
 3669              	.L164:
 3670              	.LBE11:
 674:oled_driver.c ****     }
 675:oled_driver.c ****     
 676:oled_driver.c ****     display_line( x1, y1, x2, y2, color );
 3671              		.loc 2 676 0
 3672 016c B7F90600 		ldrsh	r0, [r7, #6]
 3673 0170 B7F90410 		ldrsh	r1, [r7, #4]
 3674 0174 B7F90220 		ldrsh	r2, [r7, #2]
 3675 0178 B7F90040 		ldrsh	r4, [r7]
 3676 017c 3B8C     		ldrh	r3, [r7, #32]
ARM GAS  C:\Users\49148\AppData\Local\Temp\ccVXiEAG.s 			page 89


 3677 017e 0093     		str	r3, [sp]
 3678 0180 2346     		mov	r3, r4
 3679 0182 FFF7FEFF 		bl	display_line
 3680 0186 08E0     		b	.L149
 3681              	.L165:
 650:oled_driver.c ****     }    
 3682              		.loc 2 650 0
 3683 0188 00BF     		nop
 3684 018a 06E0     		b	.L149
 3685              	.L166:
 656:oled_driver.c ****         if( y1 < 0 || y1 >= WIDTH || y2 < 0 || y2 >= WIDTH )
 3686              		.loc 2 656 0
 3687 018c 00BF     		nop
 3688 018e 04E0     		b	.L149
 3689              	.L167:
 658:oled_driver.c ****     }else{
 3690              		.loc 2 658 0
 3691 0190 00BF     		nop
 3692 0192 02E0     		b	.L149
 3693              	.L169:
 661:oled_driver.c ****         if( x1 < 0 || x1 >= WIDTH || x2 < 0 || x2 >= WIDTH )
 3694              		.loc 2 661 0
 3695 0194 00BF     		nop
 3696 0196 00E0     		b	.L149
 3697              	.L170:
 663:oled_driver.c ****     }
 3698              		.loc 2 663 0
 3699 0198 00BF     		nop
 3700              	.L149:
 677:oled_driver.c **** }
 3701              		.loc 2 677 0
 3702 019a 1437     		adds	r7, r7, #20
 3703              		.cfi_def_cfa_offset 12
 3704 019c BD46     		mov	sp, r7
 3705              		.cfi_def_cfa_register 13
 3706              		@ sp needed
 3707 019e 90BD     		pop	{r4, r7, pc}
 3708              	.L172:
 3709              		.align	2
 3710              	.L171:
 3711 01a0 00000000 		.word	rotation
 3712 01a4 00000000 		.word	HEIGHT
 3713 01a8 00000000 		.word	WIDTH
 3714              		.cfi_endproc
 3715              	.LFE648:
 3716              		.size	gfx_hvLine, .-gfx_hvLine
 3717              		.section	.text.gfx_drawLine,"ax",%progbits
 3718              		.align	2
 3719              		.global	gfx_drawLine
 3720              		.thumb
 3721              		.thumb_func
 3722              		.type	gfx_drawLine, %function
 3723              	gfx_drawLine:
 3724              	.LFB649:
 678:oled_driver.c **** 
 679:oled_driver.c **** /***************************************************************************
 680:oled_driver.c ****  * Function: gfx_drawLine    
ARM GAS  C:\Users\49148\AppData\Local\Temp\ccVXiEAG.s 			page 90


 681:oled_driver.c ****  *
 682:oled_driver.c ****  * Description: Function used for line drawing
 683:oled_driver.c ****  **************************************************************************/
 684:oled_driver.c **** void gfx_drawLine( int16_t x0, int16_t y0, int16_t x1, int16_t y1, uint16_t color ){
 3725              		.loc 2 684 0
 3726              		.cfi_startproc
 3727              		@ args = 4, pretend = 0, frame = 24
 3728              		@ frame_needed = 1, uses_anonymous_args = 0
 3729 0000 90B5     		push	{r4, r7, lr}
 3730              		.cfi_def_cfa_offset 12
 3731              		.cfi_offset 4, -12
 3732              		.cfi_offset 7, -8
 3733              		.cfi_offset 14, -4
 3734 0002 89B0     		sub	sp, sp, #36
 3735              		.cfi_def_cfa_offset 48
 3736 0004 02AF     		add	r7, sp, #8
 3737              		.cfi_def_cfa 7, 40
 3738 0006 0446     		mov	r4, r0
 3739 0008 0846     		mov	r0, r1
 3740 000a 1146     		mov	r1, r2
 3741 000c 1A46     		mov	r2, r3
 3742 000e 2346     		mov	r3, r4	@ movhi
 3743 0010 FB80     		strh	r3, [r7, #6]	@ movhi
 3744 0012 0346     		mov	r3, r0	@ movhi
 3745 0014 BB80     		strh	r3, [r7, #4]	@ movhi
 3746 0016 0B46     		mov	r3, r1	@ movhi
 3747 0018 7B80     		strh	r3, [r7, #2]	@ movhi
 3748 001a 1346     		mov	r3, r2	@ movhi
 3749 001c 3B80     		strh	r3, [r7]	@ movhi
 685:oled_driver.c ****  
 686:oled_driver.c ****     if( x0 == x1 || y0 == y1 ){
 3750              		.loc 2 686 0
 3751 001e B7F90620 		ldrsh	r2, [r7, #6]
 3752 0022 B7F90230 		ldrsh	r3, [r7, #2]
 3753 0026 9A42     		cmp	r2, r3
 3754 0028 05D0     		beq	.L174
 3755              		.loc 2 686 0 is_stmt 0 discriminator 1
 3756 002a B7F90420 		ldrsh	r2, [r7, #4]
 3757 002e B7F90030 		ldrsh	r3, [r7]
 3758 0032 9A42     		cmp	r2, r3
 3759 0034 0DD1     		bne	.L175
 3760              	.L174:
 687:oled_driver.c ****         // vertical and horizontal lines can be drawn faster
 688:oled_driver.c ****         gfx_hvLine( x0, y0, x1, y1, color );
 3761              		.loc 2 688 0 is_stmt 1
 3762 0036 B7F90040 		ldrsh	r4, [r7]
 3763 003a B7F90220 		ldrsh	r2, [r7, #2]
 3764 003e B7F90410 		ldrsh	r1, [r7, #4]
 3765 0042 B7F90600 		ldrsh	r0, [r7, #6]
 3766 0046 3B8D     		ldrh	r3, [r7, #40]
 3767 0048 0093     		str	r3, [sp]
 3768 004a 2346     		mov	r3, r4
 3769 004c FFF7FEFF 		bl	gfx_hvLine
 689:oled_driver.c ****         return;
 3770              		.loc 2 689 0
 3771 0050 8DE0     		b	.L173
 3772              	.L175:
ARM GAS  C:\Users\49148\AppData\Local\Temp\ccVXiEAG.s 			page 91


 690:oled_driver.c ****     }
 691:oled_driver.c ****     
 692:oled_driver.c ****     int16_t t;
 693:oled_driver.c ****     
 694:oled_driver.c ****     int16_t steep = abs(y1 - y0) > abs(x1 - x0);
 3773              		.loc 2 694 0
 3774 0052 B7F90020 		ldrsh	r2, [r7]
 3775 0056 B7F90430 		ldrsh	r3, [r7, #4]
 3776 005a D31A     		subs	r3, r2, r3
 3777 005c 83EAE372 		eor	r2, r3, r3, asr #31
 3778 0060 A2EBE372 		sub	r2, r2, r3, asr #31
 3779 0064 B7F90210 		ldrsh	r1, [r7, #2]
 3780 0068 B7F90630 		ldrsh	r3, [r7, #6]
 3781 006c CB1A     		subs	r3, r1, r3
 3782 006e 002B     		cmp	r3, #0
 3783 0070 B8BF     		it	lt
 3784 0072 5B42     		rsblt	r3, r3, #0
 3785 0074 9A42     		cmp	r2, r3
 3786 0076 CCBF     		ite	gt
 3787 0078 0123     		movgt	r3, #1
 3788 007a 0023     		movle	r3, #0
 3789 007c DBB2     		uxtb	r3, r3
 3790 007e 7B82     		strh	r3, [r7, #18]	@ movhi
 695:oled_driver.c ****     if( steep ){
 3791              		.loc 2 695 0
 3792 0080 B7F91230 		ldrsh	r3, [r7, #18]
 3793 0084 002B     		cmp	r3, #0
 3794 0086 0BD0     		beq	.L177
 696:oled_driver.c ****         t = x0; x0 = y0; y0 = t;
 3795              		.loc 2 696 0
 3796 0088 FB88     		ldrh	r3, [r7, #6]	@ movhi
 3797 008a 3B82     		strh	r3, [r7, #16]	@ movhi
 3798 008c BB88     		ldrh	r3, [r7, #4]	@ movhi
 3799 008e FB80     		strh	r3, [r7, #6]	@ movhi
 3800 0090 3B8A     		ldrh	r3, [r7, #16]	@ movhi
 3801 0092 BB80     		strh	r3, [r7, #4]	@ movhi
 697:oled_driver.c ****         t = x1; x1 = y1; y1 = t;
 3802              		.loc 2 697 0
 3803 0094 7B88     		ldrh	r3, [r7, #2]	@ movhi
 3804 0096 3B82     		strh	r3, [r7, #16]	@ movhi
 3805 0098 3B88     		ldrh	r3, [r7]	@ movhi
 3806 009a 7B80     		strh	r3, [r7, #2]	@ movhi
 3807 009c 3B8A     		ldrh	r3, [r7, #16]	@ movhi
 3808 009e 3B80     		strh	r3, [r7]	@ movhi
 3809              	.L177:
 698:oled_driver.c ****     }
 699:oled_driver.c ****     if( x0 > x1 ){
 3810              		.loc 2 699 0
 3811 00a0 B7F90620 		ldrsh	r2, [r7, #6]
 3812 00a4 B7F90230 		ldrsh	r3, [r7, #2]
 3813 00a8 9A42     		cmp	r2, r3
 3814 00aa 0BDD     		ble	.L178
 700:oled_driver.c ****         t = x0; x0 = x1; x1 = t;
 3815              		.loc 2 700 0
 3816 00ac FB88     		ldrh	r3, [r7, #6]	@ movhi
 3817 00ae 3B82     		strh	r3, [r7, #16]	@ movhi
 3818 00b0 7B88     		ldrh	r3, [r7, #2]	@ movhi
ARM GAS  C:\Users\49148\AppData\Local\Temp\ccVXiEAG.s 			page 92


 3819 00b2 FB80     		strh	r3, [r7, #6]	@ movhi
 3820 00b4 3B8A     		ldrh	r3, [r7, #16]	@ movhi
 3821 00b6 7B80     		strh	r3, [r7, #2]	@ movhi
 701:oled_driver.c ****         t = y0; y0 = y1; y1 = t;
 3822              		.loc 2 701 0
 3823 00b8 BB88     		ldrh	r3, [r7, #4]	@ movhi
 3824 00ba 3B82     		strh	r3, [r7, #16]	@ movhi
 3825 00bc 3B88     		ldrh	r3, [r7]	@ movhi
 3826 00be BB80     		strh	r3, [r7, #4]	@ movhi
 3827 00c0 3B8A     		ldrh	r3, [r7, #16]	@ movhi
 3828 00c2 3B80     		strh	r3, [r7]	@ movhi
 3829              	.L178:
 702:oled_driver.c ****     }
 703:oled_driver.c ****     int16_t dx, dy;
 704:oled_driver.c ****     dx = x1 - x0;
 3830              		.loc 2 704 0
 3831 00c4 7A88     		ldrh	r2, [r7, #2]
 3832 00c6 FB88     		ldrh	r3, [r7, #6]
 3833 00c8 D31A     		subs	r3, r2, r3
 3834 00ca 9BB2     		uxth	r3, r3
 3835 00cc FB81     		strh	r3, [r7, #14]	@ movhi
 705:oled_driver.c ****     dy = abs(y1 - y0);
 3836              		.loc 2 705 0
 3837 00ce B7F90020 		ldrsh	r2, [r7]
 3838 00d2 B7F90430 		ldrsh	r3, [r7, #4]
 3839 00d6 D31A     		subs	r3, r2, r3
 3840 00d8 002B     		cmp	r3, #0
 3841 00da B8BF     		it	lt
 3842 00dc 5B42     		rsblt	r3, r3, #0
 3843 00de BB81     		strh	r3, [r7, #12]	@ movhi
 706:oled_driver.c ****     int16_t err = dx / 2;
 3844              		.loc 2 706 0
 3845 00e0 B7F90E30 		ldrsh	r3, [r7, #14]
 3846 00e4 DA0F     		lsrs	r2, r3, #31
 3847 00e6 1344     		add	r3, r3, r2
 3848 00e8 5B10     		asrs	r3, r3, #1
 3849 00ea FB82     		strh	r3, [r7, #22]	@ movhi
 707:oled_driver.c ****     int16_t ystep;
 708:oled_driver.c ****     if( y0 < y1 ){
 3850              		.loc 2 708 0
 3851 00ec B7F90420 		ldrsh	r2, [r7, #4]
 3852 00f0 B7F90030 		ldrsh	r3, [r7]
 3853 00f4 9A42     		cmp	r2, r3
 3854 00f6 02DA     		bge	.L179
 709:oled_driver.c ****         ystep = 1;
 3855              		.loc 2 709 0
 3856 00f8 0123     		movs	r3, #1
 3857 00fa BB82     		strh	r3, [r7, #20]	@ movhi
 3858 00fc 31E0     		b	.L181
 3859              	.L179:
 710:oled_driver.c ****     }else{
 711:oled_driver.c ****         ystep = -1;
 3860              		.loc 2 711 0
 3861 00fe 4FF6FF73 		movw	r3, #65535
 3862 0102 BB82     		strh	r3, [r7, #20]	@ movhi
 712:oled_driver.c ****     }
 713:oled_driver.c ****     for( ; x0<=x1; x0++ ){
ARM GAS  C:\Users\49148\AppData\Local\Temp\ccVXiEAG.s 			page 93


 3863              		.loc 2 713 0
 3864 0104 2DE0     		b	.L181
 3865              	.L185:
 714:oled_driver.c ****         if( steep ){
 3866              		.loc 2 714 0
 3867 0106 B7F91230 		ldrsh	r3, [r7, #18]
 3868 010a 002B     		cmp	r3, #0
 3869 010c 08D0     		beq	.L182
 715:oled_driver.c ****             gfx_drawPixel( y0, x0, color );
 3870              		.loc 2 715 0
 3871 010e 3A8D     		ldrh	r2, [r7, #40]
 3872 0110 B7F90610 		ldrsh	r1, [r7, #6]
 3873 0114 B7F90430 		ldrsh	r3, [r7, #4]
 3874 0118 1846     		mov	r0, r3
 3875 011a FFF7FEFF 		bl	gfx_drawPixel
 3876 011e 07E0     		b	.L183
 3877              	.L182:
 716:oled_driver.c ****         }else{
 717:oled_driver.c ****             gfx_drawPixel( x0, y0, color );
 3878              		.loc 2 717 0
 3879 0120 3A8D     		ldrh	r2, [r7, #40]
 3880 0122 B7F90410 		ldrsh	r1, [r7, #4]
 3881 0126 B7F90630 		ldrsh	r3, [r7, #6]
 3882 012a 1846     		mov	r0, r3
 3883 012c FFF7FEFF 		bl	gfx_drawPixel
 3884              	.L183:
 718:oled_driver.c ****         }
 719:oled_driver.c ****         err -= dy;
 3885              		.loc 2 719 0
 3886 0130 FA8A     		ldrh	r2, [r7, #22]
 3887 0132 BB89     		ldrh	r3, [r7, #12]
 3888 0134 D31A     		subs	r3, r2, r3
 3889 0136 9BB2     		uxth	r3, r3
 3890 0138 FB82     		strh	r3, [r7, #22]	@ movhi
 720:oled_driver.c ****         if( err < 0 ){
 3891              		.loc 2 720 0
 3892 013a B7F91630 		ldrsh	r3, [r7, #22]
 3893 013e 002B     		cmp	r3, #0
 3894 0140 09DA     		bge	.L184
 721:oled_driver.c ****             y0 += ystep;
 3895              		.loc 2 721 0
 3896 0142 BA88     		ldrh	r2, [r7, #4]
 3897 0144 BB8A     		ldrh	r3, [r7, #20]
 3898 0146 1344     		add	r3, r3, r2
 3899 0148 9BB2     		uxth	r3, r3
 3900 014a BB80     		strh	r3, [r7, #4]	@ movhi
 722:oled_driver.c ****             err += dx;
 3901              		.loc 2 722 0
 3902 014c FA8A     		ldrh	r2, [r7, #22]
 3903 014e FB89     		ldrh	r3, [r7, #14]
 3904 0150 1344     		add	r3, r3, r2
 3905 0152 9BB2     		uxth	r3, r3
 3906 0154 FB82     		strh	r3, [r7, #22]	@ movhi
 3907              	.L184:
 713:oled_driver.c ****         if( steep ){
 3908              		.loc 2 713 0
 3909 0156 B7F90630 		ldrsh	r3, [r7, #6]
ARM GAS  C:\Users\49148\AppData\Local\Temp\ccVXiEAG.s 			page 94


 3910 015a 9BB2     		uxth	r3, r3
 3911 015c 0133     		adds	r3, r3, #1
 3912 015e 9BB2     		uxth	r3, r3
 3913 0160 FB80     		strh	r3, [r7, #6]	@ movhi
 3914              	.L181:
 713:oled_driver.c ****         if( steep ){
 3915              		.loc 2 713 0 is_stmt 0 discriminator 1
 3916 0162 B7F90620 		ldrsh	r2, [r7, #6]
 3917 0166 B7F90230 		ldrsh	r3, [r7, #2]
 3918 016a 9A42     		cmp	r2, r3
 3919 016c CBDD     		ble	.L185
 3920              	.L173:
 723:oled_driver.c ****         }
 724:oled_driver.c ****     }
 725:oled_driver.c **** }
 3921              		.loc 2 725 0 is_stmt 1
 3922 016e 1C37     		adds	r7, r7, #28
 3923              		.cfi_def_cfa_offset 12
 3924 0170 BD46     		mov	sp, r7
 3925              		.cfi_def_cfa_register 13
 3926              		@ sp needed
 3927 0172 90BD     		pop	{r4, r7, pc}
 3928              		.cfi_endproc
 3929              	.LFE649:
 3930              		.size	gfx_drawLine, .-gfx_drawLine
 3931              		.section	.text.gfx_drawRect,"ax",%progbits
 3932              		.align	2
 3933              		.global	gfx_drawRect
 3934              		.thumb
 3935              		.thumb_func
 3936              		.type	gfx_drawRect, %function
 3937              	gfx_drawRect:
 3938              	.LFB650:
 726:oled_driver.c **** 
 727:oled_driver.c **** /***************************************************************************
 728:oled_driver.c ****  * Function: gfx_fillRect    
 729:oled_driver.c ****  *
 730:oled_driver.c ****  * Description: Function used to draw a rectangle 
 731:oled_driver.c ****  **************************************************************************/
 732:oled_driver.c **** void gfx_drawRect( int16_t x, int16_t y, int16_t w, int16_t h, uint16_t color ){
 3939              		.loc 2 732 0
 3940              		.cfi_startproc
 3941              		@ args = 4, pretend = 0, frame = 8
 3942              		@ frame_needed = 1, uses_anonymous_args = 0
 3943 0000 90B5     		push	{r4, r7, lr}
 3944              		.cfi_def_cfa_offset 12
 3945              		.cfi_offset 4, -12
 3946              		.cfi_offset 7, -8
 3947              		.cfi_offset 14, -4
 3948 0002 85B0     		sub	sp, sp, #20
 3949              		.cfi_def_cfa_offset 32
 3950 0004 02AF     		add	r7, sp, #8
 3951              		.cfi_def_cfa 7, 24
 3952 0006 0446     		mov	r4, r0
 3953 0008 0846     		mov	r0, r1
 3954 000a 1146     		mov	r1, r2
 3955 000c 1A46     		mov	r2, r3
ARM GAS  C:\Users\49148\AppData\Local\Temp\ccVXiEAG.s 			page 95


 3956 000e 2346     		mov	r3, r4	@ movhi
 3957 0010 FB80     		strh	r3, [r7, #6]	@ movhi
 3958 0012 0346     		mov	r3, r0	@ movhi
 3959 0014 BB80     		strh	r3, [r7, #4]	@ movhi
 3960 0016 0B46     		mov	r3, r1	@ movhi
 3961 0018 7B80     		strh	r3, [r7, #2]	@ movhi
 3962 001a 1346     		mov	r3, r2	@ movhi
 3963 001c 3B80     		strh	r3, [r7]	@ movhi
 733:oled_driver.c ****     
 734:oled_driver.c ****     gfx_drawLine( x, y, x+w-1, y, color );
 3964              		.loc 2 734 0
 3965 001e FA88     		ldrh	r2, [r7, #6]
 3966 0020 7B88     		ldrh	r3, [r7, #2]
 3967 0022 1344     		add	r3, r3, r2
 3968 0024 9BB2     		uxth	r3, r3
 3969 0026 013B     		subs	r3, r3, #1
 3970 0028 9BB2     		uxth	r3, r3
 3971 002a 1AB2     		sxth	r2, r3
 3972 002c B7F90440 		ldrsh	r4, [r7, #4]
 3973 0030 B7F90410 		ldrsh	r1, [r7, #4]
 3974 0034 B7F90600 		ldrsh	r0, [r7, #6]
 3975 0038 3B8B     		ldrh	r3, [r7, #24]
 3976 003a 0093     		str	r3, [sp]
